   1              		.cpu cortex-a9
   2              		.eabi_attribute 28, 1
   3              		.eabi_attribute 20, 1
   4              		.eabi_attribute 21, 1
   5              		.eabi_attribute 23, 3
   6              		.eabi_attribute 24, 1
   7              		.eabi_attribute 25, 1
   8              		.eabi_attribute 26, 1
   9              		.eabi_attribute 30, 1
  10              		.eabi_attribute 34, 0
  11              		.eabi_attribute 18, 4
  12              		.file	"r_gpio_drv_api.c"
  13              		.text
  14              	.Ltext0:
  15              		.cfi_sections	.debug_frame
  16              		.section	.rodata.gpio_get_version.str1.4,"aMS",%progbits,1
  17              		.align	2
  18              	.LC0:
  19 0000 484C4420 		.ascii	"HLD GPIO\000"
  19      4750494F 
  19      00
  20              		.section	.text.gpio_get_version,"ax",%progbits
  21              		.align	2
  22              		.arch armv7-a
  23              		.arch_extension mp
  24              		.arch_extension sec
  25              		.syntax unified
  26              		.arm
  27              		.fpu neon
  29              	gpio_get_version:
  30              	.LVL0:
  31              	.LFB6:
  32              		.file 1 "../generate/drivers/r_gpio/src/hld/r_gpio_drv_api.c"
   1:../generate/drivers/r_gpio/src/hld/r_gpio_drv_api.c **** /*******************************************************************************
   2:../generate/drivers/r_gpio/src/hld/r_gpio_drv_api.c ****  * DISCLAIMER
   3:../generate/drivers/r_gpio/src/hld/r_gpio_drv_api.c ****  * This software is supplied by Renesas Electronics Corporation and is only
   4:../generate/drivers/r_gpio/src/hld/r_gpio_drv_api.c ****  * intended for use with Renesas products. No other uses are authorized. This
   5:../generate/drivers/r_gpio/src/hld/r_gpio_drv_api.c ****  * software is owned by Renesas Electronics Corporation and is protected under
   6:../generate/drivers/r_gpio/src/hld/r_gpio_drv_api.c ****  * all applicable laws, including copyright laws.
   7:../generate/drivers/r_gpio/src/hld/r_gpio_drv_api.c ****  * THIS SOFTWARE IS PROVIDED "AS IS" AND RENESAS MAKES NO WARRANTIES REGARDING
   8:../generate/drivers/r_gpio/src/hld/r_gpio_drv_api.c ****  * THIS SOFTWARE, WHETHER EXPRESS, IMPLIED OR STATUTORY, INCLUDING BUT NOT
   9:../generate/drivers/r_gpio/src/hld/r_gpio_drv_api.c ****  * LIMITED TO WARRANTIES OF MERCHANTABILITY, FITNESS FOR A PARTICULAR PURPOSE
  10:../generate/drivers/r_gpio/src/hld/r_gpio_drv_api.c ****  * AND NON-INFRINGEMENT. ALL SUCH WARRANTIES ARE EXPRESSLY DISCLAIMED.
  11:../generate/drivers/r_gpio/src/hld/r_gpio_drv_api.c ****  * TO THE MAXIMUM EXTENT PERMITTED NOT PROHIBITED BY LAW, NEITHER RENESAS
  12:../generate/drivers/r_gpio/src/hld/r_gpio_drv_api.c ****  * ELECTRONICS CORPORATION NOR ANY OF ITS AFFILIATED COMPANIES SHALL BE LIABLE
  13:../generate/drivers/r_gpio/src/hld/r_gpio_drv_api.c ****  * FOR ANY DIRECT, INDIRECT, SPECIAL, INCIDENTAL OR CONSEQUENTIAL DAMAGES FOR
  14:../generate/drivers/r_gpio/src/hld/r_gpio_drv_api.c ****  * ANY REASON RELATED TO THIS SOFTWARE, EVEN IF RENESAS OR ITS AFFILIATES HAVE
  15:../generate/drivers/r_gpio/src/hld/r_gpio_drv_api.c ****  * BEEN ADVISED OF THE POSSIBILITY OF SUCH DAMAGES.
  16:../generate/drivers/r_gpio/src/hld/r_gpio_drv_api.c ****  * Renesas reserves the right, without notice, to make changes to this software
  17:../generate/drivers/r_gpio/src/hld/r_gpio_drv_api.c ****  * and to discontinue the availability of this software. By using this software,
  18:../generate/drivers/r_gpio/src/hld/r_gpio_drv_api.c ****  * you agree to the additional terms and conditions found by accessing the
  19:../generate/drivers/r_gpio/src/hld/r_gpio_drv_api.c ****  * following link:
  20:../generate/drivers/r_gpio/src/hld/r_gpio_drv_api.c ****  * http://www.renesas.com/disclaimer
  21:../generate/drivers/r_gpio/src/hld/r_gpio_drv_api.c ****  * Copyright (C) 2012 - 2014 Renesas Electronics Corporation. All rights reserved.
  22:../generate/drivers/r_gpio/src/hld/r_gpio_drv_api.c ****  *******************************************************************************/
  23:../generate/drivers/r_gpio/src/hld/r_gpio_drv_api.c **** /*******************************************************************************
  24:../generate/drivers/r_gpio/src/hld/r_gpio_drv_api.c ****  * File Name   : r_gpio_drv_api.c
  25:../generate/drivers/r_gpio/src/hld/r_gpio_drv_api.c ****  * Description : GPIO high layer driver
  26:../generate/drivers/r_gpio/src/hld/r_gpio_drv_api.c ****  *******************************************************************************/
  27:../generate/drivers/r_gpio/src/hld/r_gpio_drv_api.c **** 
  28:../generate/drivers/r_gpio/src/hld/r_gpio_drv_api.c **** /******************************************************************************
  29:../generate/drivers/r_gpio/src/hld/r_gpio_drv_api.c ****  Includes   <System Includes> , "Project Includes"
  30:../generate/drivers/r_gpio/src/hld/r_gpio_drv_api.c ****  ******************************************************************************/
  31:../generate/drivers/r_gpio/src/hld/r_gpio_drv_api.c **** #include "r_gpio_drv_link.h"
  32:../generate/drivers/r_gpio/src/hld/r_gpio_drv_api.c **** #include "r_gpio_drv_api.h"
  33:../generate/drivers/r_gpio/src/hld/r_gpio_drv_api.c **** 
  34:../generate/drivers/r_gpio/src/hld/r_gpio_drv_api.c **** /******************************************************************************
  35:../generate/drivers/r_gpio/src/hld/r_gpio_drv_api.c ****  Typedef definitions
  36:../generate/drivers/r_gpio/src/hld/r_gpio_drv_api.c ****  ******************************************************************************/
  37:../generate/drivers/r_gpio/src/hld/r_gpio_drv_api.c **** 
  38:../generate/drivers/r_gpio/src/hld/r_gpio_drv_api.c **** /******************************************************************************
  39:../generate/drivers/r_gpio/src/hld/r_gpio_drv_api.c ****  Macro definitions
  40:../generate/drivers/r_gpio/src/hld/r_gpio_drv_api.c ****  ******************************************************************************/
  41:../generate/drivers/r_gpio/src/hld/r_gpio_drv_api.c **** 
  42:../generate/drivers/r_gpio/src/hld/r_gpio_drv_api.c **** /******************************************************************************
  43:../generate/drivers/r_gpio/src/hld/r_gpio_drv_api.c ****  Enumerated Types
  44:../generate/drivers/r_gpio/src/hld/r_gpio_drv_api.c ****  ******************************************************************************/
  45:../generate/drivers/r_gpio/src/hld/r_gpio_drv_api.c **** 
  46:../generate/drivers/r_gpio/src/hld/r_gpio_drv_api.c **** /******************************************************************************
  47:../generate/drivers/r_gpio/src/hld/r_gpio_drv_api.c ****  Typedefs
  48:../generate/drivers/r_gpio/src/hld/r_gpio_drv_api.c ****  ******************************************************************************/
  49:../generate/drivers/r_gpio/src/hld/r_gpio_drv_api.c **** #define NOT_USED(p)                     ((void)(p))
  50:../generate/drivers/r_gpio/src/hld/r_gpio_drv_api.c **** 
  51:../generate/drivers/r_gpio/src/hld/r_gpio_drv_api.c **** /*****************************************************************************
  52:../generate/drivers/r_gpio/src/hld/r_gpio_drv_api.c ****  Function Prototypes
  53:../generate/drivers/r_gpio/src/hld/r_gpio_drv_api.c ****  ******************************************************************************/
  54:../generate/drivers/r_gpio/src/hld/r_gpio_drv_api.c **** static int_t gpio_open (st_stream_ptr_t stream_ptr);
  55:../generate/drivers/r_gpio/src/hld/r_gpio_drv_api.c **** static void gpio_close (st_stream_ptr_t stream_ptr);
  56:../generate/drivers/r_gpio/src/hld/r_gpio_drv_api.c **** static int_t gpio_control (st_stream_ptr_t stream_ptr, uint32_t ctrl_code, void *ctrl_ptr);
  57:../generate/drivers/r_gpio/src/hld/r_gpio_drv_api.c **** static int_t gpio_get_version (st_stream_ptr_t stream_ptr, st_ver_info_t *pVerInfo);
  58:../generate/drivers/r_gpio/src/hld/r_gpio_drv_api.c **** 
  59:../generate/drivers/r_gpio/src/hld/r_gpio_drv_api.c **** /*****************************************************************************
  60:../generate/drivers/r_gpio/src/hld/r_gpio_drv_api.c ****  Constant Data
  61:../generate/drivers/r_gpio/src/hld/r_gpio_drv_api.c ****  ******************************************************************************/
  62:../generate/drivers/r_gpio/src/hld/r_gpio_drv_api.c **** 
  63:../generate/drivers/r_gpio/src/hld/r_gpio_drv_api.c **** /******************************************************************************
  64:../generate/drivers/r_gpio/src/hld/r_gpio_drv_api.c ****  Private global variables and functions
  65:../generate/drivers/r_gpio/src/hld/r_gpio_drv_api.c ****  ******************************************************************************/
  66:../generate/drivers/r_gpio/src/hld/r_gpio_drv_api.c **** /*! Version Information */
  67:../generate/drivers/r_gpio/src/hld/r_gpio_drv_api.c **** static const st_drv_info_t gs_hld_info =
  68:../generate/drivers/r_gpio/src/hld/r_gpio_drv_api.c **** {
  69:../generate/drivers/r_gpio/src/hld/r_gpio_drv_api.c ****     {
  70:../generate/drivers/r_gpio/src/hld/r_gpio_drv_api.c ****         ((GPIO_HLD_VERSION_MAJOR << 16) + GPIO_HLD_VERSION_MINOR)
  71:../generate/drivers/r_gpio/src/hld/r_gpio_drv_api.c ****     },
  72:../generate/drivers/r_gpio/src/hld/r_gpio_drv_api.c ****     GPIO_HLD_BUILD_NUM,
  73:../generate/drivers/r_gpio/src/hld/r_gpio_drv_api.c ****     GPIO_HLD_DRV_NAME
  74:../generate/drivers/r_gpio/src/hld/r_gpio_drv_api.c **** };
  75:../generate/drivers/r_gpio/src/hld/r_gpio_drv_api.c **** 
  76:../generate/drivers/r_gpio/src/hld/r_gpio_drv_api.c **** /* Define the driver function table for this implementation */
  77:../generate/drivers/r_gpio/src/hld/r_gpio_drv_api.c **** /* GSCE Warning (global variable 'g_gpio_Driver' not declared static [9.3a])
  78:../generate/drivers/r_gpio/src/hld/r_gpio_drv_api.c ****  * can be safely ignored */
  79:../generate/drivers/r_gpio/src/hld/r_gpio_drv_api.c **** const st_r_driver_t g_gpio_driver =
  80:../generate/drivers/r_gpio/src/hld/r_gpio_drv_api.c **** {
  81:../generate/drivers/r_gpio/src/hld/r_gpio_drv_api.c ****     /* st_r_driver_t p_device */
  82:../generate/drivers/r_gpio/src/hld/r_gpio_drv_api.c ****     "GPIO Driver",
  83:../generate/drivers/r_gpio/src/hld/r_gpio_drv_api.c ****     gpio_open,
  84:../generate/drivers/r_gpio/src/hld/r_gpio_drv_api.c ****     gpio_close,
  85:../generate/drivers/r_gpio/src/hld/r_gpio_drv_api.c ****     no_dev_read,
  86:../generate/drivers/r_gpio/src/hld/r_gpio_drv_api.c ****     no_dev_write,
  87:../generate/drivers/r_gpio/src/hld/r_gpio_drv_api.c ****     gpio_control,
  88:../generate/drivers/r_gpio/src/hld/r_gpio_drv_api.c ****     gpio_get_version
  89:../generate/drivers/r_gpio/src/hld/r_gpio_drv_api.c **** };
  90:../generate/drivers/r_gpio/src/hld/r_gpio_drv_api.c **** 
  91:../generate/drivers/r_gpio/src/hld/r_gpio_drv_api.c **** /******************************************************************************
  92:../generate/drivers/r_gpio/src/hld/r_gpio_drv_api.c ****  Function Name: gpio_open
  93:../generate/drivers/r_gpio/src/hld/r_gpio_drv_api.c ****  Description:   Function to open the GPIO device driver
  94:../generate/drivers/r_gpio/src/hld/r_gpio_drv_api.c ****  Arguments:     IN  stream_ptr - Pointer to the file stream
  95:../generate/drivers/r_gpio/src/hld/r_gpio_drv_api.c ****  Return value:  DRV_SUCCESS : Success when attempting to initialise GPIO
  96:../generate/drivers/r_gpio/src/hld/r_gpio_drv_api.c ****  *              DRV_ERROR   : Failure to initialise GPIO
  97:../generate/drivers/r_gpio/src/hld/r_gpio_drv_api.c ****  ******************************************************************************/
  98:../generate/drivers/r_gpio/src/hld/r_gpio_drv_api.c **** static int_t gpio_open (st_stream_ptr_t stream_ptr)
  99:../generate/drivers/r_gpio/src/hld/r_gpio_drv_api.c **** {
 100:../generate/drivers/r_gpio/src/hld/r_gpio_drv_api.c ****     /* initialise GPIO */
 101:../generate/drivers/r_gpio/src/hld/r_gpio_drv_api.c ****     return (R_GPIO_HWInitialise((int16_t) stream_ptr->file_number));
 102:../generate/drivers/r_gpio/src/hld/r_gpio_drv_api.c **** }
 103:../generate/drivers/r_gpio/src/hld/r_gpio_drv_api.c **** /******************************************************************************
 104:../generate/drivers/r_gpio/src/hld/r_gpio_drv_api.c ****  End of function  gpio_open
 105:../generate/drivers/r_gpio/src/hld/r_gpio_drv_api.c ****  ******************************************************************************/
 106:../generate/drivers/r_gpio/src/hld/r_gpio_drv_api.c **** 
 107:../generate/drivers/r_gpio/src/hld/r_gpio_drv_api.c **** /******************************************************************************
 108:../generate/drivers/r_gpio/src/hld/r_gpio_drv_api.c ****  Function Name: gpio_close
 109:../generate/drivers/r_gpio/src/hld/r_gpio_drv_api.c ****  Description:   Function to close the GPIO driver. All open devices
 110:../generate/drivers/r_gpio/src/hld/r_gpio_drv_api.c ****  connected to the led are closed.
 111:../generate/drivers/r_gpio/src/hld/r_gpio_drv_api.c ****  Arguments:     IN  stream_ptr - Pointer to the file stream
 112:../generate/drivers/r_gpio/src/hld/r_gpio_drv_api.c ****  Return value:  none
 113:../generate/drivers/r_gpio/src/hld/r_gpio_drv_api.c ****  ******************************************************************************/
 114:../generate/drivers/r_gpio/src/hld/r_gpio_drv_api.c **** static void gpio_close (st_stream_ptr_t stream_ptr)
 115:../generate/drivers/r_gpio/src/hld/r_gpio_drv_api.c **** {
 116:../generate/drivers/r_gpio/src/hld/r_gpio_drv_api.c ****     /* mark all pins allocated by this handle as not allocated */
 117:../generate/drivers/r_gpio/src/hld/r_gpio_drv_api.c ****     R_GPIO_DeallocateAllPins((int16_t) stream_ptr->file_number);
 118:../generate/drivers/r_gpio/src/hld/r_gpio_drv_api.c **** }
 119:../generate/drivers/r_gpio/src/hld/r_gpio_drv_api.c **** /******************************************************************************
 120:../generate/drivers/r_gpio/src/hld/r_gpio_drv_api.c ****  End of function  gpio_close
 121:../generate/drivers/r_gpio/src/hld/r_gpio_drv_api.c ****  ******************************************************************************/
 122:../generate/drivers/r_gpio/src/hld/r_gpio_drv_api.c **** 
 123:../generate/drivers/r_gpio/src/hld/r_gpio_drv_api.c **** /******************************************************************************
 124:../generate/drivers/r_gpio/src/hld/r_gpio_drv_api.c ****  Function Name: gpio_control
 125:../generate/drivers/r_gpio/src/hld/r_gpio_drv_api.c ****  Description:   Function to handle custom controls for the GPIO device
 126:../generate/drivers/r_gpio/src/hld/r_gpio_drv_api.c ****  Arguments:     IN  stream_ptr - Pointer to the file stream
 127:../generate/drivers/r_gpio/src/hld/r_gpio_drv_api.c ****  IN  ctrl_code - The custom control code
 128:../generate/drivers/r_gpio/src/hld/r_gpio_drv_api.c ****  IN  ctrl_ptr - Pointer to the custom control structure
 129:../generate/drivers/r_gpio/src/hld/r_gpio_drv_api.c ****  Return value:  0 for success -1 on error
 130:../generate/drivers/r_gpio/src/hld/r_gpio_drv_api.c ****  ******************************************************************************/
 131:../generate/drivers/r_gpio/src/hld/r_gpio_drv_api.c **** static int_t gpio_control (st_stream_ptr_t stream_ptr, uint32_t ctrl_code, void *ctrl_ptr)
 132:../generate/drivers/r_gpio/src/hld/r_gpio_drv_api.c **** {
 133:../generate/drivers/r_gpio/src/hld/r_gpio_drv_api.c ****     int_t retval = DRV_ERROR;
 134:../generate/drivers/r_gpio/src/hld/r_gpio_drv_api.c ****     st_r_drv_gpio_config_t *p_config_rw;
 135:../generate/drivers/r_gpio/src/hld/r_gpio_drv_api.c ****     st_r_drv_gpio_pin_list_t *p_pin_list;
 136:../generate/drivers/r_gpio/src/hld/r_gpio_drv_api.c ****     st_r_drv_gpio_pin_init_table_t *p_pin_table;
 137:../generate/drivers/r_gpio/src/hld/r_gpio_drv_api.c ****     st_r_drv_gpio_pin_rw_t *p_pin_rw;
 138:../generate/drivers/r_gpio/src/hld/r_gpio_drv_api.c ****     st_r_drv_gpio_port_rw_t *p_port_rw;
 139:../generate/drivers/r_gpio/src/hld/r_gpio_drv_api.c **** 
 140:../generate/drivers/r_gpio/src/hld/r_gpio_drv_api.c ****     /* control code is of type e_ctrl_code_gpio_t */
 141:../generate/drivers/r_gpio/src/hld/r_gpio_drv_api.c ****     switch ((e_ctrl_code_gpio_t)ctrl_code)
 142:../generate/drivers/r_gpio/src/hld/r_gpio_drv_api.c ****     {
 143:../generate/drivers/r_gpio/src/hld/r_gpio_drv_api.c ****         case CTL_GPIO_SET_CONFIGURATION: /*!< Set pin configuration function */
 144:../generate/drivers/r_gpio/src/hld/r_gpio_drv_api.c ****         {
 145:../generate/drivers/r_gpio/src/hld/r_gpio_drv_api.c ****             /* cast pointer to configuration struct type */
 146:../generate/drivers/r_gpio/src/hld/r_gpio_drv_api.c ****             p_config_rw = (st_r_drv_gpio_config_t *) ctrl_ptr;
 147:../generate/drivers/r_gpio/src/hld/r_gpio_drv_api.c ****             p_config_rw->err = R_GPIO_PinSetConfiguration((int16_t) stream_ptr->file_number, &p_con
 148:../generate/drivers/r_gpio/src/hld/r_gpio_drv_api.c ****             if (GPIO_SUCCESS == p_config_rw->err)
 149:../generate/drivers/r_gpio/src/hld/r_gpio_drv_api.c ****             {
 150:../generate/drivers/r_gpio/src/hld/r_gpio_drv_api.c ****                 retval = DRV_SUCCESS;
 151:../generate/drivers/r_gpio/src/hld/r_gpio_drv_api.c ****             }
 152:../generate/drivers/r_gpio/src/hld/r_gpio_drv_api.c ****             break;
 153:../generate/drivers/r_gpio/src/hld/r_gpio_drv_api.c ****         }
 154:../generate/drivers/r_gpio/src/hld/r_gpio_drv_api.c **** 
 155:../generate/drivers/r_gpio/src/hld/r_gpio_drv_api.c ****         case CTL_GPIO_GET_CONFIGURATION: /*!< Get pin configuration function */
 156:../generate/drivers/r_gpio/src/hld/r_gpio_drv_api.c ****         {
 157:../generate/drivers/r_gpio/src/hld/r_gpio_drv_api.c ****             /* cast pointer to configuration struct type */
 158:../generate/drivers/r_gpio/src/hld/r_gpio_drv_api.c ****             p_config_rw = (st_r_drv_gpio_config_t *) ctrl_ptr;
 159:../generate/drivers/r_gpio/src/hld/r_gpio_drv_api.c ****             p_config_rw->err = R_GPIO_PinGetConfiguration(&p_config_rw->config);
 160:../generate/drivers/r_gpio/src/hld/r_gpio_drv_api.c ****             if (GPIO_SUCCESS == p_config_rw->err)
 161:../generate/drivers/r_gpio/src/hld/r_gpio_drv_api.c ****             {
 162:../generate/drivers/r_gpio/src/hld/r_gpio_drv_api.c ****                 retval = DRV_SUCCESS;
 163:../generate/drivers/r_gpio/src/hld/r_gpio_drv_api.c ****             }
 164:../generate/drivers/r_gpio/src/hld/r_gpio_drv_api.c ****             break;
 165:../generate/drivers/r_gpio/src/hld/r_gpio_drv_api.c ****         }
 166:../generate/drivers/r_gpio/src/hld/r_gpio_drv_api.c **** 
 167:../generate/drivers/r_gpio/src/hld/r_gpio_drv_api.c ****         case CTL_GPIO_INIT_BY_PIN_LIST: /*!< Set pin configuration from a pin list function */
 168:../generate/drivers/r_gpio/src/hld/r_gpio_drv_api.c ****         {
 169:../generate/drivers/r_gpio/src/hld/r_gpio_drv_api.c ****             /* cast pointer to pin list struct type */
 170:../generate/drivers/r_gpio/src/hld/r_gpio_drv_api.c ****             p_pin_list = (st_r_drv_gpio_pin_list_t *) ctrl_ptr;
 171:../generate/drivers/r_gpio/src/hld/r_gpio_drv_api.c ****             p_pin_list->err = R_GPIO_InitByPinList((int16_t) stream_ptr->file_number, p_pin_list->p
 172:../generate/drivers/r_gpio/src/hld/r_gpio_drv_api.c ****             if (GPIO_SUCCESS == p_pin_list->err)
 173:../generate/drivers/r_gpio/src/hld/r_gpio_drv_api.c ****             {
 174:../generate/drivers/r_gpio/src/hld/r_gpio_drv_api.c ****                 retval = DRV_SUCCESS;
 175:../generate/drivers/r_gpio/src/hld/r_gpio_drv_api.c ****             }
 176:../generate/drivers/r_gpio/src/hld/r_gpio_drv_api.c ****             break;
 177:../generate/drivers/r_gpio/src/hld/r_gpio_drv_api.c ****         }
 178:../generate/drivers/r_gpio/src/hld/r_gpio_drv_api.c **** 
 179:../generate/drivers/r_gpio/src/hld/r_gpio_drv_api.c ****         case CTL_GPIO_CLEAR_BY_PIN_LIST: /*!< Resets (deallocates) pins from a pin list function */
 180:../generate/drivers/r_gpio/src/hld/r_gpio_drv_api.c ****         {
 181:../generate/drivers/r_gpio/src/hld/r_gpio_drv_api.c ****             /* cast pointer to pin list struct type */
 182:../generate/drivers/r_gpio/src/hld/r_gpio_drv_api.c ****             p_pin_list = (st_r_drv_gpio_pin_list_t *) ctrl_ptr;
 183:../generate/drivers/r_gpio/src/hld/r_gpio_drv_api.c ****             p_pin_list->err = R_GPIO_ClearByPinList(p_pin_list->p_pin_list, p_pin_list->count);
 184:../generate/drivers/r_gpio/src/hld/r_gpio_drv_api.c ****             if (GPIO_SUCCESS == p_pin_list->err)
 185:../generate/drivers/r_gpio/src/hld/r_gpio_drv_api.c ****             {
 186:../generate/drivers/r_gpio/src/hld/r_gpio_drv_api.c ****                 retval = DRV_SUCCESS;
 187:../generate/drivers/r_gpio/src/hld/r_gpio_drv_api.c ****             }
 188:../generate/drivers/r_gpio/src/hld/r_gpio_drv_api.c ****             break;
 189:../generate/drivers/r_gpio/src/hld/r_gpio_drv_api.c ****         }
 190:../generate/drivers/r_gpio/src/hld/r_gpio_drv_api.c **** 
 191:../generate/drivers/r_gpio/src/hld/r_gpio_drv_api.c ****         case CTL_GPIO_INIT_BY_TABLE: /*!< Set pin configuration from a pin table function */
 192:../generate/drivers/r_gpio/src/hld/r_gpio_drv_api.c ****         {
 193:../generate/drivers/r_gpio/src/hld/r_gpio_drv_api.c ****             /* cast pointer to table struct type */
 194:../generate/drivers/r_gpio/src/hld/r_gpio_drv_api.c ****             p_pin_table = (st_r_drv_gpio_pin_init_table_t *) ctrl_ptr;
 195:../generate/drivers/r_gpio/src/hld/r_gpio_drv_api.c ****             p_pin_table->err = R_GPIO_InitByTable((int16_t) stream_ptr->file_number, p_pin_table->p
 196:../generate/drivers/r_gpio/src/hld/r_gpio_drv_api.c ****             if (GPIO_SUCCESS == p_pin_table->err)
 197:../generate/drivers/r_gpio/src/hld/r_gpio_drv_api.c ****             {
 198:../generate/drivers/r_gpio/src/hld/r_gpio_drv_api.c ****                 retval = DRV_SUCCESS;
 199:../generate/drivers/r_gpio/src/hld/r_gpio_drv_api.c ****             }
 200:../generate/drivers/r_gpio/src/hld/r_gpio_drv_api.c ****             break;
 201:../generate/drivers/r_gpio/src/hld/r_gpio_drv_api.c ****         }
 202:../generate/drivers/r_gpio/src/hld/r_gpio_drv_api.c **** 
 203:../generate/drivers/r_gpio/src/hld/r_gpio_drv_api.c ****         case CTL_GPIO_CLEAR_BY_TABLE: /*!< Resets (deallocates) pin configuration from a pin table 
 204:../generate/drivers/r_gpio/src/hld/r_gpio_drv_api.c ****         {
 205:../generate/drivers/r_gpio/src/hld/r_gpio_drv_api.c ****             /* cast pointer to table struct type */
 206:../generate/drivers/r_gpio/src/hld/r_gpio_drv_api.c ****             p_pin_table = (st_r_drv_gpio_pin_init_table_t *) ctrl_ptr;
 207:../generate/drivers/r_gpio/src/hld/r_gpio_drv_api.c ****             p_pin_table->err = R_GPIO_ClearByTable(p_pin_table->p_config_table, p_pin_table->count)
 208:../generate/drivers/r_gpio/src/hld/r_gpio_drv_api.c ****             if (GPIO_SUCCESS == p_pin_table->err)
 209:../generate/drivers/r_gpio/src/hld/r_gpio_drv_api.c ****             {
 210:../generate/drivers/r_gpio/src/hld/r_gpio_drv_api.c ****                 retval = DRV_SUCCESS;
 211:../generate/drivers/r_gpio/src/hld/r_gpio_drv_api.c ****             }
 212:../generate/drivers/r_gpio/src/hld/r_gpio_drv_api.c ****             break;
 213:../generate/drivers/r_gpio/src/hld/r_gpio_drv_api.c ****         }
 214:../generate/drivers/r_gpio/src/hld/r_gpio_drv_api.c **** 
 215:../generate/drivers/r_gpio/src/hld/r_gpio_drv_api.c ****         case CTL_GPIO_PORT_WRITE: /*!< Write port value function */
 216:../generate/drivers/r_gpio/src/hld/r_gpio_drv_api.c ****         {
 217:../generate/drivers/r_gpio/src/hld/r_gpio_drv_api.c ****             /* cast pointer to port read/write struct type */
 218:../generate/drivers/r_gpio/src/hld/r_gpio_drv_api.c ****             p_port_rw = (st_r_drv_gpio_port_rw_t *) ctrl_ptr;
 219:../generate/drivers/r_gpio/src/hld/r_gpio_drv_api.c ****             p_port_rw->err = R_GPIO_PortWrite(p_port_rw->port, p_port_rw->value);
 220:../generate/drivers/r_gpio/src/hld/r_gpio_drv_api.c ****             if (GPIO_SUCCESS == p_port_rw->err)
 221:../generate/drivers/r_gpio/src/hld/r_gpio_drv_api.c ****             {
 222:../generate/drivers/r_gpio/src/hld/r_gpio_drv_api.c ****                 retval = DRV_SUCCESS;
 223:../generate/drivers/r_gpio/src/hld/r_gpio_drv_api.c ****             }
 224:../generate/drivers/r_gpio/src/hld/r_gpio_drv_api.c ****             break;
 225:../generate/drivers/r_gpio/src/hld/r_gpio_drv_api.c ****         }
 226:../generate/drivers/r_gpio/src/hld/r_gpio_drv_api.c **** 
 227:../generate/drivers/r_gpio/src/hld/r_gpio_drv_api.c ****         case CTL_GPIO_PORT_READ: /*!< Read port value function */
 228:../generate/drivers/r_gpio/src/hld/r_gpio_drv_api.c ****         {
 229:../generate/drivers/r_gpio/src/hld/r_gpio_drv_api.c ****             /* cast pointer to port read/write struct type */
 230:../generate/drivers/r_gpio/src/hld/r_gpio_drv_api.c ****             p_port_rw = (st_r_drv_gpio_port_rw_t *) ctrl_ptr;
 231:../generate/drivers/r_gpio/src/hld/r_gpio_drv_api.c ****             p_port_rw->err = R_GPIO_PortRead(p_port_rw->port, &p_port_rw->value);
 232:../generate/drivers/r_gpio/src/hld/r_gpio_drv_api.c ****             if (GPIO_SUCCESS == p_port_rw->err)
 233:../generate/drivers/r_gpio/src/hld/r_gpio_drv_api.c ****             {
 234:../generate/drivers/r_gpio/src/hld/r_gpio_drv_api.c ****                 retval = DRV_SUCCESS;
 235:../generate/drivers/r_gpio/src/hld/r_gpio_drv_api.c ****             }
 236:../generate/drivers/r_gpio/src/hld/r_gpio_drv_api.c ****             break;
 237:../generate/drivers/r_gpio/src/hld/r_gpio_drv_api.c ****         }
 238:../generate/drivers/r_gpio/src/hld/r_gpio_drv_api.c **** 
 239:../generate/drivers/r_gpio/src/hld/r_gpio_drv_api.c ****         case CTL_GPIO_PIN_WRITE: /*!< Write pin level function */
 240:../generate/drivers/r_gpio/src/hld/r_gpio_drv_api.c ****         {
 241:../generate/drivers/r_gpio/src/hld/r_gpio_drv_api.c ****             /* cast pointer to port read/write struct type */
 242:../generate/drivers/r_gpio/src/hld/r_gpio_drv_api.c ****             p_pin_rw = (st_r_drv_gpio_pin_rw_t *) ctrl_ptr;
 243:../generate/drivers/r_gpio/src/hld/r_gpio_drv_api.c ****             p_pin_rw->err = R_GPIO_PinWrite(p_pin_rw->pin, p_pin_rw->level);
 244:../generate/drivers/r_gpio/src/hld/r_gpio_drv_api.c ****             if (GPIO_SUCCESS == p_pin_rw->err)
 245:../generate/drivers/r_gpio/src/hld/r_gpio_drv_api.c ****             {
 246:../generate/drivers/r_gpio/src/hld/r_gpio_drv_api.c ****                 retval = DRV_SUCCESS;
 247:../generate/drivers/r_gpio/src/hld/r_gpio_drv_api.c ****             }
 248:../generate/drivers/r_gpio/src/hld/r_gpio_drv_api.c ****             break;
 249:../generate/drivers/r_gpio/src/hld/r_gpio_drv_api.c ****         }
 250:../generate/drivers/r_gpio/src/hld/r_gpio_drv_api.c **** 
 251:../generate/drivers/r_gpio/src/hld/r_gpio_drv_api.c ****         case CTL_GPIO_PIN_READ: /*!< Read pin level function */
 252:../generate/drivers/r_gpio/src/hld/r_gpio_drv_api.c ****         {
 253:../generate/drivers/r_gpio/src/hld/r_gpio_drv_api.c ****             /* cast pointer to port read/write struct type */
 254:../generate/drivers/r_gpio/src/hld/r_gpio_drv_api.c ****             p_pin_rw = (st_r_drv_gpio_pin_rw_t *) ctrl_ptr;
 255:../generate/drivers/r_gpio/src/hld/r_gpio_drv_api.c ****             p_pin_rw->err = R_GPIO_PinRead(p_pin_rw->pin, &p_pin_rw->level);
 256:../generate/drivers/r_gpio/src/hld/r_gpio_drv_api.c ****             if (GPIO_SUCCESS == p_pin_rw->err)
 257:../generate/drivers/r_gpio/src/hld/r_gpio_drv_api.c ****             {
 258:../generate/drivers/r_gpio/src/hld/r_gpio_drv_api.c ****                 retval = DRV_SUCCESS;
 259:../generate/drivers/r_gpio/src/hld/r_gpio_drv_api.c ****             }
 260:../generate/drivers/r_gpio/src/hld/r_gpio_drv_api.c ****             break;
 261:../generate/drivers/r_gpio/src/hld/r_gpio_drv_api.c ****         }
 262:../generate/drivers/r_gpio/src/hld/r_gpio_drv_api.c **** 
 263:../generate/drivers/r_gpio/src/hld/r_gpio_drv_api.c ****         default:
 264:../generate/drivers/r_gpio/src/hld/r_gpio_drv_api.c ****         {
 265:../generate/drivers/r_gpio/src/hld/r_gpio_drv_api.c ****             retval = DRV_ERROR;
 266:../generate/drivers/r_gpio/src/hld/r_gpio_drv_api.c ****             break;
 267:../generate/drivers/r_gpio/src/hld/r_gpio_drv_api.c ****         }
 268:../generate/drivers/r_gpio/src/hld/r_gpio_drv_api.c ****     }
 269:../generate/drivers/r_gpio/src/hld/r_gpio_drv_api.c **** 
 270:../generate/drivers/r_gpio/src/hld/r_gpio_drv_api.c ****     return (retval);
 271:../generate/drivers/r_gpio/src/hld/r_gpio_drv_api.c **** }
 272:../generate/drivers/r_gpio/src/hld/r_gpio_drv_api.c **** /******************************************************************************
 273:../generate/drivers/r_gpio/src/hld/r_gpio_drv_api.c ****  End of function  gpio_control
 274:../generate/drivers/r_gpio/src/hld/r_gpio_drv_api.c ****  ******************************************************************************/
 275:../generate/drivers/r_gpio/src/hld/r_gpio_drv_api.c **** 
 276:../generate/drivers/r_gpio/src/hld/r_gpio_drv_api.c **** /*******************************************************************************
 277:../generate/drivers/r_gpio/src/hld/r_gpio_drv_api.c ****  * Function Name: gpio_get_version
 278:../generate/drivers/r_gpio/src/hld/r_gpio_drv_api.c ****  * Description  : Provides build information even if driver fails to open
 279:../generate/drivers/r_gpio/src/hld/r_gpio_drv_api.c ****  *                version information is updated by developer
 280:../generate/drivers/r_gpio/src/hld/r_gpio_drv_api.c ****  * Arguments    : none
 281:../generate/drivers/r_gpio/src/hld/r_gpio_drv_api.c ****  * Return Value : DRV_SUCCESS for success DRV_ERROR on error
 282:../generate/drivers/r_gpio/src/hld/r_gpio_drv_api.c ****  ******************************************************************************/
 283:../generate/drivers/r_gpio/src/hld/r_gpio_drv_api.c **** static int_t gpio_get_version (st_stream_ptr_t stream_ptr, st_ver_info_t *pVerInfo)
 284:../generate/drivers/r_gpio/src/hld/r_gpio_drv_api.c **** {
  33              		.loc 1 284 1 view -0
  34              		.cfi_startproc
  35              		@ args = 0, pretend = 0, frame = 0
  36              		@ frame_needed = 0, uses_anonymous_args = 0
  37              		.loc 1 284 1 is_stmt 0 view .LVU1
  38 0000 10402DE9 		push	{r4, lr}
  39              		.cfi_def_cfa_offset 8
  40              		.cfi_offset 4, -8
  41              		.cfi_offset 14, -4
  42 0004 0100A0E1 		mov	r0, r1
  43              	.LVL1:
 285:../generate/drivers/r_gpio/src/hld/r_gpio_drv_api.c ****     /* get version */
 286:../generate/drivers/r_gpio/src/hld/r_gpio_drv_api.c ****     NOT_USED(stream_ptr);
  44              		.loc 1 286 5 is_stmt 1 view .LVU2
 287:../generate/drivers/r_gpio/src/hld/r_gpio_drv_api.c **** 
 288:../generate/drivers/r_gpio/src/hld/r_gpio_drv_api.c ****     pVerInfo->hld.version.sub.major = gs_hld_info.version.sub.major;
  45              		.loc 1 288 5 view .LVU3
  46              		.loc 1 288 37 is_stmt 0 view .LVU4
  47 0008 0130A0E3 		mov	r3, #1
  48 000c B230C1E1 		strh	r3, [r1, #2]	@ movhi
 289:../generate/drivers/r_gpio/src/hld/r_gpio_drv_api.c ****     pVerInfo->hld.version.sub.minor = gs_hld_info.version.sub.minor;
  49              		.loc 1 289 5 is_stmt 1 view .LVU5
  50              		.loc 1 289 37 is_stmt 0 view .LVU6
  51 0010 0630A0E3 		mov	r3, #6
  52 0014 B030C1E1 		strh	r3, [r1]	@ movhi
 290:../generate/drivers/r_gpio/src/hld/r_gpio_drv_api.c ****     pVerInfo->hld.build = gs_hld_info.build;
  53              		.loc 1 290 5 is_stmt 1 view .LVU7
  54              		.loc 1 290 25 is_stmt 0 view .LVU8
  55 0018 0030A0E3 		mov	r3, #0
  56 001c 043081E5 		str	r3, [r1, #4]
 291:../generate/drivers/r_gpio/src/hld/r_gpio_drv_api.c ****     pVerInfo->hld.p_szdriver_name = gs_hld_info.p_szdriver_name;
  57              		.loc 1 291 5 is_stmt 1 view .LVU9
  58              		.loc 1 291 35 is_stmt 0 view .LVU10
  59 0020 003000E3 		movw	r3, #:lower16:.LC0
  60 0024 003040E3 		movt	r3, #:upper16:.LC0
  61 0028 083081E5 		str	r3, [r1, #8]
 292:../generate/drivers/r_gpio/src/hld/r_gpio_drv_api.c **** 
 293:../generate/drivers/r_gpio/src/hld/r_gpio_drv_api.c ****     /* Obtain version information from Low layer Driver */
 294:../generate/drivers/r_gpio/src/hld/r_gpio_drv_api.c ****     return R_GPIO_GetVersion(pVerInfo);
  62              		.loc 1 294 5 is_stmt 1 view .LVU11
  63              		.loc 1 294 12 is_stmt 0 view .LVU12
  64 002c FEFFFFEB 		bl	R_GPIO_GetVersion
  65              	.LVL2:
 295:../generate/drivers/r_gpio/src/hld/r_gpio_drv_api.c **** }
  66              		.loc 1 295 1 view .LVU13
  67 0030 1080BDE8 		pop	{r4, pc}
  68              		.cfi_endproc
  69              	.LFE6:
  71              		.section	.text.gpio_control,"ax",%progbits
  72              		.align	2
  73              		.syntax unified
  74              		.arm
  75              		.fpu neon
  77              	gpio_control:
  78              	.LVL3:
  79              	.LFB5:
 132:../generate/drivers/r_gpio/src/hld/r_gpio_drv_api.c ****     int_t retval = DRV_ERROR;
  80              		.loc 1 132 1 is_stmt 1 view -0
  81              		.cfi_startproc
  82              		@ args = 0, pretend = 0, frame = 0
  83              		@ frame_needed = 0, uses_anonymous_args = 0
 132:../generate/drivers/r_gpio/src/hld/r_gpio_drv_api.c ****     int_t retval = DRV_ERROR;
  84              		.loc 1 132 1 is_stmt 0 view .LVU15
  85 0000 10402DE9 		push	{r4, lr}
  86              		.cfi_def_cfa_offset 8
  87              		.cfi_offset 4, -8
  88              		.cfi_offset 14, -4
  89 0004 0240A0E1 		mov	r4, r2
 133:../generate/drivers/r_gpio/src/hld/r_gpio_drv_api.c ****     st_r_drv_gpio_config_t *p_config_rw;
  90              		.loc 1 133 5 is_stmt 1 view .LVU16
  91              	.LVL4:
 134:../generate/drivers/r_gpio/src/hld/r_gpio_drv_api.c ****     st_r_drv_gpio_pin_list_t *p_pin_list;
  92              		.loc 1 134 5 view .LVU17
 135:../generate/drivers/r_gpio/src/hld/r_gpio_drv_api.c ****     st_r_drv_gpio_pin_init_table_t *p_pin_table;
  93              		.loc 1 135 5 view .LVU18
 136:../generate/drivers/r_gpio/src/hld/r_gpio_drv_api.c ****     st_r_drv_gpio_pin_rw_t *p_pin_rw;
  94              		.loc 1 136 5 view .LVU19
 137:../generate/drivers/r_gpio/src/hld/r_gpio_drv_api.c ****     st_r_drv_gpio_port_rw_t *p_port_rw;
  95              		.loc 1 137 5 view .LVU20
 138:../generate/drivers/r_gpio/src/hld/r_gpio_drv_api.c **** 
  96              		.loc 1 138 5 view .LVU21
 141:../generate/drivers/r_gpio/src/hld/r_gpio_drv_api.c ****     {
  97              		.loc 1 141 5 view .LVU22
  98 0008 7110EFE6 		uxtb	r1, r1
  99              	.LVL5:
 141:../generate/drivers/r_gpio/src/hld/r_gpio_drv_api.c ****     {
 100              		.loc 1 141 5 is_stmt 0 view .LVU23
 101 000c 090051E3 		cmp	r1, #9
 102 0010 01F19F97 		ldrls	pc, [pc, r1, asl #2]
 103 0014 6E0000EA 		b	.L16
 104              	.L6:
 105 0018 40000000 		.word	.L15
 106 001c 68000000 		.word	.L14
 107 0020 8C000000 		.word	.L13
 108 0024 B8000000 		.word	.L12
 109 0028 E0000000 		.word	.L11
 110 002c 0C010000 		.word	.L10
 111 0030 34010000 		.word	.L9
 112 0034 5C010000 		.word	.L8
 113 0038 84010000 		.word	.L7
 114 003c AC010000 		.word	.L5
 115              	.L15:
 146:../generate/drivers/r_gpio/src/hld/r_gpio_drv_api.c ****             p_config_rw->err = R_GPIO_PinSetConfiguration((int16_t) stream_ptr->file_number, &p_con
 116              		.loc 1 146 13 is_stmt 1 view .LVU24
 117              	.LVL6:
 147:../generate/drivers/r_gpio/src/hld/r_gpio_drv_api.c ****             if (GPIO_SUCCESS == p_config_rw->err)
 118              		.loc 1 147 13 view .LVU25
 147:../generate/drivers/r_gpio/src/hld/r_gpio_drv_api.c ****             if (GPIO_SUCCESS == p_config_rw->err)
 119              		.loc 1 147 32 is_stmt 0 view .LVU26
 120 0040 0210A0E1 		mov	r1, r2
 121 0044 F001D0E1 		ldrsh	r0, [r0, #16]
 122              	.LVL7:
 147:../generate/drivers/r_gpio/src/hld/r_gpio_drv_api.c ****             if (GPIO_SUCCESS == p_config_rw->err)
 123              		.loc 1 147 32 view .LVU27
 124 0048 FEFFFFEB 		bl	R_GPIO_PinSetConfiguration
 125              	.LVL8:
 147:../generate/drivers/r_gpio/src/hld/r_gpio_drv_api.c ****             if (GPIO_SUCCESS == p_config_rw->err)
 126              		.loc 1 147 30 view .LVU28
 127 004c 0600C4E5 		strb	r0, [r4, #6]
 148:../generate/drivers/r_gpio/src/hld/r_gpio_drv_api.c ****             {
 128              		.loc 1 148 13 is_stmt 1 view .LVU29
 148:../generate/drivers/r_gpio/src/hld/r_gpio_drv_api.c ****             {
 129              		.loc 1 148 16 is_stmt 0 view .LVU30
 130 0050 000050E3 		cmp	r0, #0
 131 0054 0100001A 		bne	.L28
 150:../generate/drivers/r_gpio/src/hld/r_gpio_drv_api.c ****             }
 132              		.loc 1 150 24 view .LVU31
 133 0058 0000A0E3 		mov	r0, #0
 134 005c 1080BDE8 		pop	{r4, pc}
 135              	.L28:
 133:../generate/drivers/r_gpio/src/hld/r_gpio_drv_api.c ****     st_r_drv_gpio_config_t *p_config_rw;
 136              		.loc 1 133 11 view .LVU32
 137 0060 0000E0E3 		mvn	r0, #0
 138 0064 1080BDE8 		pop	{r4, pc}
 139              	.LVL9:
 140              	.L14:
 158:../generate/drivers/r_gpio/src/hld/r_gpio_drv_api.c ****             p_config_rw->err = R_GPIO_PinGetConfiguration(&p_config_rw->config);
 141              		.loc 1 158 13 is_stmt 1 view .LVU33
 159:../generate/drivers/r_gpio/src/hld/r_gpio_drv_api.c ****             if (GPIO_SUCCESS == p_config_rw->err)
 142              		.loc 1 159 13 view .LVU34
 159:../generate/drivers/r_gpio/src/hld/r_gpio_drv_api.c ****             if (GPIO_SUCCESS == p_config_rw->err)
 143              		.loc 1 159 32 is_stmt 0 view .LVU35
 144 0068 0200A0E1 		mov	r0, r2
 145              	.LVL10:
 159:../generate/drivers/r_gpio/src/hld/r_gpio_drv_api.c ****             if (GPIO_SUCCESS == p_config_rw->err)
 146              		.loc 1 159 32 view .LVU36
 147 006c FEFFFFEB 		bl	R_GPIO_PinGetConfiguration
 148              	.LVL11:
 159:../generate/drivers/r_gpio/src/hld/r_gpio_drv_api.c ****             if (GPIO_SUCCESS == p_config_rw->err)
 149              		.loc 1 159 30 view .LVU37
 150 0070 0600C4E5 		strb	r0, [r4, #6]
 160:../generate/drivers/r_gpio/src/hld/r_gpio_drv_api.c ****             {
 151              		.loc 1 160 13 is_stmt 1 view .LVU38
 160:../generate/drivers/r_gpio/src/hld/r_gpio_drv_api.c ****             {
 152              		.loc 1 160 16 is_stmt 0 view .LVU39
 153 0074 000050E3 		cmp	r0, #0
 154 0078 0100001A 		bne	.L29
 162:../generate/drivers/r_gpio/src/hld/r_gpio_drv_api.c ****             }
 155              		.loc 1 162 24 view .LVU40
 156 007c 0000A0E3 		mov	r0, #0
 157 0080 1080BDE8 		pop	{r4, pc}
 158              	.L29:
 133:../generate/drivers/r_gpio/src/hld/r_gpio_drv_api.c ****     st_r_drv_gpio_config_t *p_config_rw;
 159              		.loc 1 133 11 view .LVU41
 160 0084 0000E0E3 		mvn	r0, #0
 161 0088 1080BDE8 		pop	{r4, pc}
 162              	.LVL12:
 163              	.L13:
 170:../generate/drivers/r_gpio/src/hld/r_gpio_drv_api.c ****             p_pin_list->err = R_GPIO_InitByPinList((int16_t) stream_ptr->file_number, p_pin_list->p
 164              		.loc 1 170 13 is_stmt 1 view .LVU42
 171:../generate/drivers/r_gpio/src/hld/r_gpio_drv_api.c ****             if (GPIO_SUCCESS == p_pin_list->err)
 165              		.loc 1 171 13 view .LVU43
 171:../generate/drivers/r_gpio/src/hld/r_gpio_drv_api.c ****             if (GPIO_SUCCESS == p_pin_list->err)
 166              		.loc 1 171 31 is_stmt 0 view .LVU44
 167 008c 042092E5 		ldr	r2, [r2, #4]
 168              	.LVL13:
 171:../generate/drivers/r_gpio/src/hld/r_gpio_drv_api.c ****             if (GPIO_SUCCESS == p_pin_list->err)
 169              		.loc 1 171 31 view .LVU45
 170 0090 001094E5 		ldr	r1, [r4]
 171 0094 F001D0E1 		ldrsh	r0, [r0, #16]
 172              	.LVL14:
 171:../generate/drivers/r_gpio/src/hld/r_gpio_drv_api.c ****             if (GPIO_SUCCESS == p_pin_list->err)
 173              		.loc 1 171 31 view .LVU46
 174 0098 FEFFFFEB 		bl	R_GPIO_InitByPinList
 175              	.LVL15:
 171:../generate/drivers/r_gpio/src/hld/r_gpio_drv_api.c ****             if (GPIO_SUCCESS == p_pin_list->err)
 176              		.loc 1 171 29 view .LVU47
 177 009c 0800C4E5 		strb	r0, [r4, #8]
 172:../generate/drivers/r_gpio/src/hld/r_gpio_drv_api.c ****             {
 178              		.loc 1 172 13 is_stmt 1 view .LVU48
 172:../generate/drivers/r_gpio/src/hld/r_gpio_drv_api.c ****             {
 179              		.loc 1 172 16 is_stmt 0 view .LVU49
 180 00a0 000050E3 		cmp	r0, #0
 181 00a4 0100001A 		bne	.L30
 174:../generate/drivers/r_gpio/src/hld/r_gpio_drv_api.c ****             }
 182              		.loc 1 174 24 view .LVU50
 183 00a8 0000A0E3 		mov	r0, #0
 184 00ac 1080BDE8 		pop	{r4, pc}
 185              	.L30:
 133:../generate/drivers/r_gpio/src/hld/r_gpio_drv_api.c ****     st_r_drv_gpio_config_t *p_config_rw;
 186              		.loc 1 133 11 view .LVU51
 187 00b0 0000E0E3 		mvn	r0, #0
 188 00b4 1080BDE8 		pop	{r4, pc}
 189              	.LVL16:
 190              	.L12:
 182:../generate/drivers/r_gpio/src/hld/r_gpio_drv_api.c ****             p_pin_list->err = R_GPIO_ClearByPinList(p_pin_list->p_pin_list, p_pin_list->count);
 191              		.loc 1 182 13 is_stmt 1 view .LVU52
 183:../generate/drivers/r_gpio/src/hld/r_gpio_drv_api.c ****             if (GPIO_SUCCESS == p_pin_list->err)
 192              		.loc 1 183 13 view .LVU53
 183:../generate/drivers/r_gpio/src/hld/r_gpio_drv_api.c ****             if (GPIO_SUCCESS == p_pin_list->err)
 193              		.loc 1 183 31 is_stmt 0 view .LVU54
 194 00b8 041092E5 		ldr	r1, [r2, #4]
 195 00bc 000092E5 		ldr	r0, [r2]
 196              	.LVL17:
 183:../generate/drivers/r_gpio/src/hld/r_gpio_drv_api.c ****             if (GPIO_SUCCESS == p_pin_list->err)
 197              		.loc 1 183 31 view .LVU55
 198 00c0 FEFFFFEB 		bl	R_GPIO_ClearByPinList
 199              	.LVL18:
 183:../generate/drivers/r_gpio/src/hld/r_gpio_drv_api.c ****             if (GPIO_SUCCESS == p_pin_list->err)
 200              		.loc 1 183 29 view .LVU56
 201 00c4 0800C4E5 		strb	r0, [r4, #8]
 184:../generate/drivers/r_gpio/src/hld/r_gpio_drv_api.c ****             {
 202              		.loc 1 184 13 is_stmt 1 view .LVU57
 184:../generate/drivers/r_gpio/src/hld/r_gpio_drv_api.c ****             {
 203              		.loc 1 184 16 is_stmt 0 view .LVU58
 204 00c8 000050E3 		cmp	r0, #0
 205 00cc 0100001A 		bne	.L31
 186:../generate/drivers/r_gpio/src/hld/r_gpio_drv_api.c ****             }
 206              		.loc 1 186 24 view .LVU59
 207 00d0 0000A0E3 		mov	r0, #0
 208 00d4 1080BDE8 		pop	{r4, pc}
 209              	.L31:
 133:../generate/drivers/r_gpio/src/hld/r_gpio_drv_api.c ****     st_r_drv_gpio_config_t *p_config_rw;
 210              		.loc 1 133 11 view .LVU60
 211 00d8 0000E0E3 		mvn	r0, #0
 212 00dc 1080BDE8 		pop	{r4, pc}
 213              	.LVL19:
 214              	.L11:
 194:../generate/drivers/r_gpio/src/hld/r_gpio_drv_api.c ****             p_pin_table->err = R_GPIO_InitByTable((int16_t) stream_ptr->file_number, p_pin_table->p
 215              		.loc 1 194 13 is_stmt 1 view .LVU61
 195:../generate/drivers/r_gpio/src/hld/r_gpio_drv_api.c ****             if (GPIO_SUCCESS == p_pin_table->err)
 216              		.loc 1 195 13 view .LVU62
 195:../generate/drivers/r_gpio/src/hld/r_gpio_drv_api.c ****             if (GPIO_SUCCESS == p_pin_table->err)
 217              		.loc 1 195 32 is_stmt 0 view .LVU63
 218 00e0 042092E5 		ldr	r2, [r2, #4]
 219              	.LVL20:
 195:../generate/drivers/r_gpio/src/hld/r_gpio_drv_api.c ****             if (GPIO_SUCCESS == p_pin_table->err)
 220              		.loc 1 195 32 view .LVU64
 221 00e4 001094E5 		ldr	r1, [r4]
 222 00e8 F001D0E1 		ldrsh	r0, [r0, #16]
 223              	.LVL21:
 195:../generate/drivers/r_gpio/src/hld/r_gpio_drv_api.c ****             if (GPIO_SUCCESS == p_pin_table->err)
 224              		.loc 1 195 32 view .LVU65
 225 00ec FEFFFFEB 		bl	R_GPIO_InitByTable
 226              	.LVL22:
 195:../generate/drivers/r_gpio/src/hld/r_gpio_drv_api.c ****             if (GPIO_SUCCESS == p_pin_table->err)
 227              		.loc 1 195 30 view .LVU66
 228 00f0 0800C4E5 		strb	r0, [r4, #8]
 196:../generate/drivers/r_gpio/src/hld/r_gpio_drv_api.c ****             {
 229              		.loc 1 196 13 is_stmt 1 view .LVU67
 196:../generate/drivers/r_gpio/src/hld/r_gpio_drv_api.c ****             {
 230              		.loc 1 196 16 is_stmt 0 view .LVU68
 231 00f4 000050E3 		cmp	r0, #0
 232 00f8 0100001A 		bne	.L32
 198:../generate/drivers/r_gpio/src/hld/r_gpio_drv_api.c ****             }
 233              		.loc 1 198 24 view .LVU69
 234 00fc 0000A0E3 		mov	r0, #0
 235 0100 1080BDE8 		pop	{r4, pc}
 236              	.L32:
 133:../generate/drivers/r_gpio/src/hld/r_gpio_drv_api.c ****     st_r_drv_gpio_config_t *p_config_rw;
 237              		.loc 1 133 11 view .LVU70
 238 0104 0000E0E3 		mvn	r0, #0
 239 0108 1080BDE8 		pop	{r4, pc}
 240              	.LVL23:
 241              	.L10:
 206:../generate/drivers/r_gpio/src/hld/r_gpio_drv_api.c ****             p_pin_table->err = R_GPIO_ClearByTable(p_pin_table->p_config_table, p_pin_table->count)
 242              		.loc 1 206 13 is_stmt 1 view .LVU71
 207:../generate/drivers/r_gpio/src/hld/r_gpio_drv_api.c ****             if (GPIO_SUCCESS == p_pin_table->err)
 243              		.loc 1 207 13 view .LVU72
 207:../generate/drivers/r_gpio/src/hld/r_gpio_drv_api.c ****             if (GPIO_SUCCESS == p_pin_table->err)
 244              		.loc 1 207 32 is_stmt 0 view .LVU73
 245 010c 041092E5 		ldr	r1, [r2, #4]
 246 0110 000092E5 		ldr	r0, [r2]
 247              	.LVL24:
 207:../generate/drivers/r_gpio/src/hld/r_gpio_drv_api.c ****             if (GPIO_SUCCESS == p_pin_table->err)
 248              		.loc 1 207 32 view .LVU74
 249 0114 FEFFFFEB 		bl	R_GPIO_ClearByTable
 250              	.LVL25:
 207:../generate/drivers/r_gpio/src/hld/r_gpio_drv_api.c ****             if (GPIO_SUCCESS == p_pin_table->err)
 251              		.loc 1 207 30 view .LVU75
 252 0118 0800C4E5 		strb	r0, [r4, #8]
 208:../generate/drivers/r_gpio/src/hld/r_gpio_drv_api.c ****             {
 253              		.loc 1 208 13 is_stmt 1 view .LVU76
 208:../generate/drivers/r_gpio/src/hld/r_gpio_drv_api.c ****             {
 254              		.loc 1 208 16 is_stmt 0 view .LVU77
 255 011c 000050E3 		cmp	r0, #0
 256 0120 0100001A 		bne	.L33
 210:../generate/drivers/r_gpio/src/hld/r_gpio_drv_api.c ****             }
 257              		.loc 1 210 24 view .LVU78
 258 0124 0000A0E3 		mov	r0, #0
 259 0128 1080BDE8 		pop	{r4, pc}
 260              	.L33:
 133:../generate/drivers/r_gpio/src/hld/r_gpio_drv_api.c ****     st_r_drv_gpio_config_t *p_config_rw;
 261              		.loc 1 133 11 view .LVU79
 262 012c 0000E0E3 		mvn	r0, #0
 263 0130 1080BDE8 		pop	{r4, pc}
 264              	.LVL26:
 265              	.L9:
 218:../generate/drivers/r_gpio/src/hld/r_gpio_drv_api.c ****             p_port_rw->err = R_GPIO_PortWrite(p_port_rw->port, p_port_rw->value);
 266              		.loc 1 218 13 is_stmt 1 view .LVU80
 219:../generate/drivers/r_gpio/src/hld/r_gpio_drv_api.c ****             if (GPIO_SUCCESS == p_port_rw->err)
 267              		.loc 1 219 13 view .LVU81
 219:../generate/drivers/r_gpio/src/hld/r_gpio_drv_api.c ****             if (GPIO_SUCCESS == p_port_rw->err)
 268              		.loc 1 219 30 is_stmt 0 view .LVU82
 269 0134 0210D2E5 		ldrb	r1, [r2, #2]	@ zero_extendqisi2
 270 0138 B000D2E1 		ldrh	r0, [r2]
 271              	.LVL27:
 219:../generate/drivers/r_gpio/src/hld/r_gpio_drv_api.c ****             if (GPIO_SUCCESS == p_port_rw->err)
 272              		.loc 1 219 30 view .LVU83
 273 013c FEFFFFEB 		bl	R_GPIO_PortWrite
 274              	.LVL28:
 219:../generate/drivers/r_gpio/src/hld/r_gpio_drv_api.c ****             if (GPIO_SUCCESS == p_port_rw->err)
 275              		.loc 1 219 28 view .LVU84
 276 0140 0300C4E5 		strb	r0, [r4, #3]
 220:../generate/drivers/r_gpio/src/hld/r_gpio_drv_api.c ****             {
 277              		.loc 1 220 13 is_stmt 1 view .LVU85
 220:../generate/drivers/r_gpio/src/hld/r_gpio_drv_api.c ****             {
 278              		.loc 1 220 16 is_stmt 0 view .LVU86
 279 0144 000050E3 		cmp	r0, #0
 280 0148 0100001A 		bne	.L34
 222:../generate/drivers/r_gpio/src/hld/r_gpio_drv_api.c ****             }
 281              		.loc 1 222 24 view .LVU87
 282 014c 0000A0E3 		mov	r0, #0
 283 0150 1080BDE8 		pop	{r4, pc}
 284              	.L34:
 133:../generate/drivers/r_gpio/src/hld/r_gpio_drv_api.c ****     st_r_drv_gpio_config_t *p_config_rw;
 285              		.loc 1 133 11 view .LVU88
 286 0154 0000E0E3 		mvn	r0, #0
 287 0158 1080BDE8 		pop	{r4, pc}
 288              	.LVL29:
 289              	.L8:
 230:../generate/drivers/r_gpio/src/hld/r_gpio_drv_api.c ****             p_port_rw->err = R_GPIO_PortRead(p_port_rw->port, &p_port_rw->value);
 290              		.loc 1 230 13 is_stmt 1 view .LVU89
 231:../generate/drivers/r_gpio/src/hld/r_gpio_drv_api.c ****             if (GPIO_SUCCESS == p_port_rw->err)
 291              		.loc 1 231 13 view .LVU90
 231:../generate/drivers/r_gpio/src/hld/r_gpio_drv_api.c ****             if (GPIO_SUCCESS == p_port_rw->err)
 292              		.loc 1 231 30 is_stmt 0 view .LVU91
 293 015c 0210A0E1 		mov	r1, r2
 294 0160 B200D1E0 		ldrh	r0, [r1], #2
 295              	.LVL30:
 231:../generate/drivers/r_gpio/src/hld/r_gpio_drv_api.c ****             if (GPIO_SUCCESS == p_port_rw->err)
 296              		.loc 1 231 30 view .LVU92
 297 0164 FEFFFFEB 		bl	R_GPIO_PortRead
 298              	.LVL31:
 231:../generate/drivers/r_gpio/src/hld/r_gpio_drv_api.c ****             if (GPIO_SUCCESS == p_port_rw->err)
 299              		.loc 1 231 28 view .LVU93
 300 0168 0300C4E5 		strb	r0, [r4, #3]
 232:../generate/drivers/r_gpio/src/hld/r_gpio_drv_api.c ****             {
 301              		.loc 1 232 13 is_stmt 1 view .LVU94
 232:../generate/drivers/r_gpio/src/hld/r_gpio_drv_api.c ****             {
 302              		.loc 1 232 16 is_stmt 0 view .LVU95
 303 016c 000050E3 		cmp	r0, #0
 304 0170 0100001A 		bne	.L35
 234:../generate/drivers/r_gpio/src/hld/r_gpio_drv_api.c ****             }
 305              		.loc 1 234 24 view .LVU96
 306 0174 0000A0E3 		mov	r0, #0
 307 0178 1080BDE8 		pop	{r4, pc}
 308              	.L35:
 133:../generate/drivers/r_gpio/src/hld/r_gpio_drv_api.c ****     st_r_drv_gpio_config_t *p_config_rw;
 309              		.loc 1 133 11 view .LVU97
 310 017c 0000E0E3 		mvn	r0, #0
 311 0180 1080BDE8 		pop	{r4, pc}
 312              	.LVL32:
 313              	.L7:
 242:../generate/drivers/r_gpio/src/hld/r_gpio_drv_api.c ****             p_pin_rw->err = R_GPIO_PinWrite(p_pin_rw->pin, p_pin_rw->level);
 314              		.loc 1 242 13 is_stmt 1 view .LVU98
 243:../generate/drivers/r_gpio/src/hld/r_gpio_drv_api.c ****             if (GPIO_SUCCESS == p_pin_rw->err)
 315              		.loc 1 243 13 view .LVU99
 243:../generate/drivers/r_gpio/src/hld/r_gpio_drv_api.c ****             if (GPIO_SUCCESS == p_pin_rw->err)
 316              		.loc 1 243 29 is_stmt 0 view .LVU100
 317 0184 0210D2E5 		ldrb	r1, [r2, #2]	@ zero_extendqisi2
 318 0188 B000D2E1 		ldrh	r0, [r2]
 319              	.LVL33:
 243:../generate/drivers/r_gpio/src/hld/r_gpio_drv_api.c ****             if (GPIO_SUCCESS == p_pin_rw->err)
 320              		.loc 1 243 29 view .LVU101
 321 018c FEFFFFEB 		bl	R_GPIO_PinWrite
 322              	.LVL34:
 243:../generate/drivers/r_gpio/src/hld/r_gpio_drv_api.c ****             if (GPIO_SUCCESS == p_pin_rw->err)
 323              		.loc 1 243 27 view .LVU102
 324 0190 0300C4E5 		strb	r0, [r4, #3]
 244:../generate/drivers/r_gpio/src/hld/r_gpio_drv_api.c ****             {
 325              		.loc 1 244 13 is_stmt 1 view .LVU103
 244:../generate/drivers/r_gpio/src/hld/r_gpio_drv_api.c ****             {
 326              		.loc 1 244 16 is_stmt 0 view .LVU104
 327 0194 000050E3 		cmp	r0, #0
 328 0198 0100001A 		bne	.L36
 246:../generate/drivers/r_gpio/src/hld/r_gpio_drv_api.c ****             }
 329              		.loc 1 246 24 view .LVU105
 330 019c 0000A0E3 		mov	r0, #0
 331 01a0 1080BDE8 		pop	{r4, pc}
 332              	.L36:
 133:../generate/drivers/r_gpio/src/hld/r_gpio_drv_api.c ****     st_r_drv_gpio_config_t *p_config_rw;
 333              		.loc 1 133 11 view .LVU106
 334 01a4 0000E0E3 		mvn	r0, #0
 335 01a8 1080BDE8 		pop	{r4, pc}
 336              	.LVL35:
 337              	.L5:
 254:../generate/drivers/r_gpio/src/hld/r_gpio_drv_api.c ****             p_pin_rw->err = R_GPIO_PinRead(p_pin_rw->pin, &p_pin_rw->level);
 338              		.loc 1 254 13 is_stmt 1 view .LVU107
 255:../generate/drivers/r_gpio/src/hld/r_gpio_drv_api.c ****             if (GPIO_SUCCESS == p_pin_rw->err)
 339              		.loc 1 255 13 view .LVU108
 255:../generate/drivers/r_gpio/src/hld/r_gpio_drv_api.c ****             if (GPIO_SUCCESS == p_pin_rw->err)
 340              		.loc 1 255 29 is_stmt 0 view .LVU109
 341 01ac 0210A0E1 		mov	r1, r2
 342 01b0 B200D1E0 		ldrh	r0, [r1], #2
 343              	.LVL36:
 255:../generate/drivers/r_gpio/src/hld/r_gpio_drv_api.c ****             if (GPIO_SUCCESS == p_pin_rw->err)
 344              		.loc 1 255 29 view .LVU110
 345 01b4 FEFFFFEB 		bl	R_GPIO_PinRead
 346              	.LVL37:
 255:../generate/drivers/r_gpio/src/hld/r_gpio_drv_api.c ****             if (GPIO_SUCCESS == p_pin_rw->err)
 347              		.loc 1 255 27 view .LVU111
 348 01b8 0300C4E5 		strb	r0, [r4, #3]
 256:../generate/drivers/r_gpio/src/hld/r_gpio_drv_api.c ****             {
 349              		.loc 1 256 13 is_stmt 1 view .LVU112
 256:../generate/drivers/r_gpio/src/hld/r_gpio_drv_api.c ****             {
 350              		.loc 1 256 16 is_stmt 0 view .LVU113
 351 01bc 000050E3 		cmp	r0, #0
 352 01c0 0100001A 		bne	.L37
 258:../generate/drivers/r_gpio/src/hld/r_gpio_drv_api.c ****             }
 353              		.loc 1 258 24 view .LVU114
 354 01c4 0000A0E3 		mov	r0, #0
 355              	.LVL38:
 270:../generate/drivers/r_gpio/src/hld/r_gpio_drv_api.c **** }
 356              		.loc 1 270 5 is_stmt 1 view .LVU115
 271:../generate/drivers/r_gpio/src/hld/r_gpio_drv_api.c **** /******************************************************************************
 357              		.loc 1 271 1 is_stmt 0 view .LVU116
 358 01c8 1080BDE8 		pop	{r4, pc}
 359              	.LVL39:
 360              	.L37:
 133:../generate/drivers/r_gpio/src/hld/r_gpio_drv_api.c ****     st_r_drv_gpio_config_t *p_config_rw;
 361              		.loc 1 133 11 view .LVU117
 362 01cc 0000E0E3 		mvn	r0, #0
 363 01d0 1080BDE8 		pop	{r4, pc}
 364              	.LVL40:
 365              	.L16:
 133:../generate/drivers/r_gpio/src/hld/r_gpio_drv_api.c ****     st_r_drv_gpio_config_t *p_config_rw;
 366              		.loc 1 133 11 view .LVU118
 367 01d4 0000E0E3 		mvn	r0, #0
 368              	.LVL41:
 133:../generate/drivers/r_gpio/src/hld/r_gpio_drv_api.c ****     st_r_drv_gpio_config_t *p_config_rw;
 369              		.loc 1 133 11 view .LVU119
 370 01d8 1080BDE8 		pop	{r4, pc}
 371              		.cfi_endproc
 372              	.LFE5:
 374              		.section	.text.gpio_close,"ax",%progbits
 375              		.align	2
 376              		.syntax unified
 377              		.arm
 378              		.fpu neon
 380              	gpio_close:
 381              	.LVL42:
 382              	.LFB4:
 115:../generate/drivers/r_gpio/src/hld/r_gpio_drv_api.c ****     /* mark all pins allocated by this handle as not allocated */
 383              		.loc 1 115 1 is_stmt 1 view -0
 384              		.cfi_startproc
 385              		@ args = 0, pretend = 0, frame = 0
 386              		@ frame_needed = 0, uses_anonymous_args = 0
 115:../generate/drivers/r_gpio/src/hld/r_gpio_drv_api.c ****     /* mark all pins allocated by this handle as not allocated */
 387              		.loc 1 115 1 is_stmt 0 view .LVU121
 388 0000 10402DE9 		push	{r4, lr}
 389              		.cfi_def_cfa_offset 8
 390              		.cfi_offset 4, -8
 391              		.cfi_offset 14, -4
 117:../generate/drivers/r_gpio/src/hld/r_gpio_drv_api.c **** }
 392              		.loc 1 117 5 is_stmt 1 view .LVU122
 393 0004 F001D0E1 		ldrsh	r0, [r0, #16]
 394              	.LVL43:
 117:../generate/drivers/r_gpio/src/hld/r_gpio_drv_api.c **** }
 395              		.loc 1 117 5 is_stmt 0 view .LVU123
 396 0008 FEFFFFEB 		bl	R_GPIO_DeallocateAllPins
 397              	.LVL44:
 118:../generate/drivers/r_gpio/src/hld/r_gpio_drv_api.c **** /******************************************************************************
 398              		.loc 1 118 1 view .LVU124
 399 000c 1080BDE8 		pop	{r4, pc}
 400              		.cfi_endproc
 401              	.LFE4:
 403              		.section	.text.gpio_open,"ax",%progbits
 404              		.align	2
 405              		.syntax unified
 406              		.arm
 407              		.fpu neon
 409              	gpio_open:
 410              	.LVL45:
 411              	.LFB3:
  99:../generate/drivers/r_gpio/src/hld/r_gpio_drv_api.c ****     /* initialise GPIO */
 412              		.loc 1 99 1 is_stmt 1 view -0
 413              		.cfi_startproc
 414              		@ args = 0, pretend = 0, frame = 0
 415              		@ frame_needed = 0, uses_anonymous_args = 0
  99:../generate/drivers/r_gpio/src/hld/r_gpio_drv_api.c ****     /* initialise GPIO */
 416              		.loc 1 99 1 is_stmt 0 view .LVU126
 417 0000 10402DE9 		push	{r4, lr}
 418              		.cfi_def_cfa_offset 8
 419              		.cfi_offset 4, -8
 420              		.cfi_offset 14, -4
 101:../generate/drivers/r_gpio/src/hld/r_gpio_drv_api.c **** }
 421              		.loc 1 101 5 is_stmt 1 view .LVU127
 101:../generate/drivers/r_gpio/src/hld/r_gpio_drv_api.c **** }
 422              		.loc 1 101 13 is_stmt 0 view .LVU128
 423 0004 F001D0E1 		ldrsh	r0, [r0, #16]
 424              	.LVL46:
 101:../generate/drivers/r_gpio/src/hld/r_gpio_drv_api.c **** }
 425              		.loc 1 101 13 view .LVU129
 426 0008 FEFFFFEB 		bl	R_GPIO_HWInitialise
 427              	.LVL47:
 102:../generate/drivers/r_gpio/src/hld/r_gpio_drv_api.c **** /******************************************************************************
 428              		.loc 1 102 1 view .LVU130
 429 000c 1080BDE8 		pop	{r4, pc}
 430              		.cfi_endproc
 431              	.LFE3:
 433              		.global	g_gpio_driver
 434              		.section	.rodata.str1.4,"aMS",%progbits,1
 435              		.align	2
 436              	.LC1:
 437 0000 4750494F 		.ascii	"GPIO Driver\000"
 437      20447269 
 437      76657200 
 438              		.section	.rodata.g_gpio_driver,"a"
 439              		.align	2
 442              	g_gpio_driver:
 443 0000 00000000 		.word	.LC1
 444 0004 00000000 		.word	gpio_open
 445 0008 00000000 		.word	gpio_close
 446 000c 00000000 		.word	no_dev_read
 447 0010 00000000 		.word	no_dev_write
 448 0014 00000000 		.word	gpio_control
 449 0018 00000000 		.word	gpio_get_version
 450              		.text
 451              	.Letext0:
 452              		.file 2 "c:\\program files (x86)\\gnu arm embedded toolchain\\9 2020-q2-update\\arm-none-eabi\\inc
 453              		.file 3 "c:\\program files (x86)\\gnu arm embedded toolchain\\9 2020-q2-update\\arm-none-eabi\\inc
 454              		.file 4 "c:\\program files (x86)\\gnu arm embedded toolchain\\9 2020-q2-update\\lib\\gcc\\arm-none
 455              		.file 5 "c:\\program files (x86)\\gnu arm embedded toolchain\\9 2020-q2-update\\arm-none-eabi\\inc
 456              		.file 6 "c:\\program files (x86)\\gnu arm embedded toolchain\\9 2020-q2-update\\arm-none-eabi\\inc
 457              		.file 7 "c:\\program files (x86)\\gnu arm embedded toolchain\\9 2020-q2-update\\arm-none-eabi\\inc
 458              		.file 8 "c:\\program files (x86)\\gnu arm embedded toolchain\\9 2020-q2-update\\arm-none-eabi\\inc
 459              		.file 9 "C:/Users/ryota/e2_studio/workspace/rza2m_ssif_sample_freertos_gcc/generate/system/inc/r_t
 460              		.file 10 "C:/Users/ryota/e2_studio/workspace/rza2m_ssif_sample_freertos_gcc/generate/system/inc/dr
 461              		.file 11 "C:/Users/ryota/e2_studio/workspace/rza2m_ssif_sample_freertos_gcc/generate/drivers/r_gpi
 462              		.file 12 "c:\\program files (x86)\\gnu arm embedded toolchain\\9 2020-q2-update\\arm-none-eabi\\in
 463              		.file 13 "c:\\program files (x86)\\gnu arm embedded toolchain\\9 2020-q2-update\\arm-none-eabi\\in
 464              		.file 14 "C:/Users/ryota/e2_studio/workspace/rza2m_ssif_sample_freertos_gcc/generate/drivers/r_gpi