   1              		.cpu cortex-a9
   2              		.eabi_attribute 28, 1
   3              		.eabi_attribute 20, 1
   4              		.eabi_attribute 21, 1
   5              		.eabi_attribute 23, 3
   6              		.eabi_attribute 24, 1
   7              		.eabi_attribute 25, 1
   8              		.eabi_attribute 26, 1
   9              		.eabi_attribute 30, 1
  10              		.eabi_attribute 34, 0
  11              		.eabi_attribute 18, 4
  12              		.file	"command.c"
  13              		.text
  14              	.Ltext0:
  15              		.cfi_sections	.debug_frame
  16              		.section	.rodata.cmd_console.str1.4,"aMS",%progbits,1
  17              		.align	2
  18              	.LC0:
  19 0000 0D0A4279 		.ascii	"\015\012Bye!\015\012\000"
  19      65210D0A 
  19      00
  20              		.section	.text.cmd_console,"ax",%progbits
  21              		.align	2
  22              		.global	cmd_console
  23              		.arch armv7-a
  24              		.arch_extension mp
  25              		.arch_extension sec
  26              		.syntax unified
  27              		.arm
  28              		.fpu neon
  30              	cmd_console:
  31              	.LVL0:
  32              	.LFB6:
  33              		.file 1 "../src/renesas/application/console/command.c"
   1:../src/renesas/application/console/command.c **** /**************************************************************************************************
   2:../src/renesas/application/console/command.c ****  * DISCLAIMER
   3:../src/renesas/application/console/command.c ****  * This software is supplied by Renesas Electronics Corporation and is only
   4:../src/renesas/application/console/command.c ****  * intended for use with Renesas products. No other uses are authorized. This
   5:../src/renesas/application/console/command.c ****  * software is owned by Renesas Electronics Corporation and is protected under
   6:../src/renesas/application/console/command.c ****  * all applicable laws, including copyright laws.
   7:../src/renesas/application/console/command.c ****  * THIS SOFTWARE IS PROVIDED "AS IS" AND RENESAS MAKES NO WARRANTIES REGARDING
   8:../src/renesas/application/console/command.c ****  * THIS SOFTWARE, WHETHER EXPRESS, IMPLIED OR STATUTORY, INCLUDING BUT NOT
   9:../src/renesas/application/console/command.c ****  * LIMITED TO WARRANTIES OF MERCHANTABILITY, FITNESS FOR A PARTICULAR PURPOSE
  10:../src/renesas/application/console/command.c ****  * AND NON-INFRINGEMENT. ALL SUCH WARRANTIES ARE EXPRESSLY DISCLAIMED.
  11:../src/renesas/application/console/command.c ****  * TO THE MAXIMUM EXTENT PERMITTED NOT PROHIBITED BY LAW, NEITHER RENESAS
  12:../src/renesas/application/console/command.c ****  * ELECTRONICS CORPORATION NOR ANY OF ITS AFFILIATED COMPANIES SHALL BE LIABLE
  13:../src/renesas/application/console/command.c ****  * FOR ANY DIRECT, INDIRECT, SPECIAL, INCIDENTAL OR CONSEQUENTIAL DAMAGES FOR
  14:../src/renesas/application/console/command.c ****  * ANY REASON RELATED TO THIS SOFTWARE, EVEN IF RENESAS OR ITS AFFILIATES HAVE
  15:../src/renesas/application/console/command.c ****  * BEEN ADVISED OF THE POSSIBILITY OF SUCH DAMAGES.
  16:../src/renesas/application/console/command.c ****  * Renesas reserves the right, without notice, to make changes to this software
  17:../src/renesas/application/console/command.c ****  * and to discontinue the availability of this software. By using this software,
  18:../src/renesas/application/console/command.c ****  * you agree to the additional terms and conditions found by accessing the
  19:../src/renesas/application/console/command.c ****  * following link:
  20:../src/renesas/application/console/command.c ****  * http://www.renesas.com/disclaimer
  21:../src/renesas/application/console/command.c ****  **************************************************************************************************
  22:../src/renesas/application/console/command.c ****  * Copyright (C) 2015 Renesas Electronics Corporation. All rights reserved.
  23:../src/renesas/application/console/command.c ****  **************************************************************************************************
  24:../src/renesas/application/console/command.c ****  * File Name    : command.c
  25:../src/renesas/application/console/command.c ****  * Version      : 1.10
  26:../src/renesas/application/console/command.c ****  * Device(s)    : Renesas
  27:../src/renesas/application/console/command.c ****  * Tool-Chain   : GNUARM-NONE-EABI v14.02
  28:../src/renesas/application/console/command.c ****  * OS           : N/A
  29:../src/renesas/application/console/command.c ****  * H/W Platform : EBK
  30:../src/renesas/application/console/command.c ****  * Description  : The entry point of the main command handler and associated
  31:../src/renesas/application/console/command.c ****  *                commands
  32:../src/renesas/application/console/command.c ****  **************************************************************************************************
  33:../src/renesas/application/console/command.c ****  * History      : DD.MM.YYYY Version Description
  34:../src/renesas/application/console/command.c ****  *              : 04.02.2010 1.00    First Release
  35:../src/renesas/application/console/command.c ****  *              : 10.06.2010 1.01    Updated type definitions.
  36:../src/renesas/application/console/command.c ****  *              : 09.06.2015 1.10    Updated high-ASCII password for GNU TC
  37:../src/renesas/application/console/command.c ****  *                                   Added FAT Stub check and warning
  38:../src/renesas/application/console/command.c ****  **************************************************************************************************
  39:../src/renesas/application/console/command.c **** 
  40:../src/renesas/application/console/command.c **** 
  41:../src/renesas/application/console/command.c **** /**************************************************************************************************
  42:../src/renesas/application/console/command.c ****  Includes   <System Includes> , "Project Includes"
  43:../src/renesas/application/console/command.c ****  **************************************************************************************************
  44:../src/renesas/application/console/command.c **** #include <stdio.h>
  45:../src/renesas/application/console/command.c **** #include <fcntl.h>
  46:../src/renesas/application/console/command.c **** #include <string.h>
  47:../src/renesas/application/console/command.c **** #include <stdlib.h>
  48:../src/renesas/application/console/command.c **** #include <ctype.h>
  49:../src/renesas/application/console/command.c **** 
  50:../src/renesas/application/console/command.c **** #include "compiler_settings.h"
  51:../src/renesas/application/console/command.c **** #include "driver.h"
  52:../src/renesas/application/console/command.c **** #include "version.h"
  53:../src/renesas/application/console/command.c **** #include "command.h"
  54:../src/renesas/application/console/command.c **** 
  55:../src/renesas/application/console/command.c **** #include "r_os_abstraction_api.h"
  56:../src/renesas/application/console/command.c **** #include "r_devlink_wrapper.h"
  57:../src/renesas/application/console/command.c **** #include "application_cfg.h"
  58:../src/renesas/application/console/command.c **** 
  59:../src/renesas/application/console/command.c **** /**************************************************************************************************
  60:../src/renesas/application/console/command.c ****  Typedef definitions
  61:../src/renesas/application/console/command.c ****  **************************************************************************************************
  62:../src/renesas/application/console/command.c **** 
  63:../src/renesas/application/console/command.c **** /**************************************************************************************************
  64:../src/renesas/application/console/command.c ****  Macro definitions
  65:../src/renesas/application/console/command.c ****  **************************************************************************************************
  66:../src/renesas/application/console/command.c **** 
  67:../src/renesas/application/console/command.c **** 
  68:../src/renesas/application/console/command.c **** /**************************************************************************************************
  69:../src/renesas/application/console/command.c ****  Imported global variables and functions (from other files)
  70:../src/renesas/application/console/command.c ****  **************************************************************************************************
  71:../src/renesas/application/console/command.c **** extern const st_command_table_t g_cmd_tbl_sound_app;
  72:../src/renesas/application/console/command.c **** 
  73:../src/renesas/application/console/command.c **** /**************************************************************************************************
  74:../src/renesas/application/console/command.c ****  Exported global variables and functions (to be accessed by other files)
  75:../src/renesas/application/console/command.c ****  **************************************************************************************************
  76:../src/renesas/application/console/command.c **** 
  77:../src/renesas/application/console/command.c **** /**************************************************************************************************
  78:../src/renesas/application/console/command.c ****  Private functions
  79:../src/renesas/application/console/command.c ****  **************************************************************************************************
  80:../src/renesas/application/console/command.c **** 
  81:../src/renesas/application/console/command.c **** /**************************************************************************************************
  82:../src/renesas/application/console/command.c ****  Private Variables
  83:../src/renesas/application/console/command.c ****  **************************************************************************************************
  84:../src/renesas/application/console/command.c **** 
  85:../src/renesas/application/console/command.c **** /* Define the command tables required */
  86:../src/renesas/application/console/command.c **** static pst_command_table_t s_commands[32] =
  87:../src/renesas/application/console/command.c **** {
  88:../src/renesas/application/console/command.c ****     /* cast to pst_command_table_t */
  89:../src/renesas/application/console/command.c ****     (pst_command_table_t) &g_cmd_tbl_sound_app,
  90:../src/renesas/application/console/command.c **** 
  91:../src/renesas/application/console/command.c ****     /* Added space for additional 'sample code' */
  92:../src/renesas/application/console/command.c **** };
  93:../src/renesas/application/console/command.c **** 
  94:../src/renesas/application/console/command.c **** int32_t g_num_commands = (sizeof(s_commands)) / sizeof(pst_command_table_t);
  95:../src/renesas/application/console/command.c **** 
  96:../src/renesas/application/console/command.c **** 
  97:../src/renesas/application/console/command.c **** /**************************************************************************************************
  98:../src/renesas/application/console/command.c ****  Public Functions
  99:../src/renesas/application/console/command.c ****  **************************************************************************************************
 100:../src/renesas/application/console/command.c **** 
 101:../src/renesas/application/console/command.c **** 
 102:../src/renesas/application/console/command.c **** /**************************************************************************************************
 103:../src/renesas/application/console/command.c ****  Function Name: cmd_console
 104:../src/renesas/application/console/command.c ****  Description:   Function to process the console commands
 105:../src/renesas/application/console/command.c ****  Arguments:     IN  pIn - Pointer to the input file stream
 106:../src/renesas/application/console/command.c ****                 IN  pOut - Pointer to the file stream for echo of command input
 107:../src/renesas/application/console/command.c ****                 IN  pszPrompt - Pointer to a command prompt
 108:../src/renesas/application/console/command.c ****  Return value:  none
 109:../src/renesas/application/console/command.c ****  **************************************************************************************************
 110:../src/renesas/application/console/command.c **** void cmd_console(FILE* pIn, FILE *pOut, char *pszPrompt)
 111:../src/renesas/application/console/command.c **** {
  34              		.loc 1 111 1 view -0
  35              		.cfi_startproc
  36              		@ args = 0, pretend = 0, frame = 8
  37              		@ frame_needed = 0, uses_anonymous_args = 0
  38              		.loc 1 111 1 is_stmt 0 view .LVU1
  39 0000 F0402DE9 		push	{r4, r5, r6, r7, lr}
  40              		.cfi_def_cfa_offset 20
  41              		.cfi_offset 4, -20
  42              		.cfi_offset 5, -16
  43              		.cfi_offset 6, -12
  44              		.cfi_offset 7, -8
  45              		.cfi_offset 14, -4
  46 0004 14D04DE2 		sub	sp, sp, #20
  47              		.cfi_def_cfa_offset 40
  48 0008 0060A0E1 		mov	r6, r0
  49 000c 0150A0E1 		mov	r5, r1
  50 0010 0270A0E1 		mov	r7, r2
 112:../src/renesas/application/console/command.c ****     pst_comset_t com = R_OS_Malloc(sizeof(st_comset_t), R_MEMORY_REGION_DEFAULT);
  51              		.loc 1 112 5 is_stmt 1 view .LVU2
  52              		.loc 1 112 24 is_stmt 0 view .LVU3
  53 0014 0010A0E3 		mov	r1, #0
  54              	.LVL1:
  55              		.loc 1 112 24 view .LVU4
  56 0018 EC0403E3 		movw	r0, #13548
  57              	.LVL2:
  58              		.loc 1 112 24 view .LVU5
  59 001c FEFFFFEB 		bl	R_OS_Malloc
  60              	.LVL3:
  61              		.loc 1 112 18 view .LVU6
  62 0020 0C008DE5 		str	r0, [sp, #12]
 113:../src/renesas/application/console/command.c ****     int32_t pos;
  63              		.loc 1 113 5 is_stmt 1 view .LVU7
 114:../src/renesas/application/console/command.c **** 
 115:../src/renesas/application/console/command.c ****     g_num_commands = (sizeof(s_commands)) / sizeof(pst_command_table_t);
  64              		.loc 1 115 5 view .LVU8
  65              		.loc 1 115 20 is_stmt 0 view .LVU9
  66 0024 003000E3 		movw	r3, #:lower16:.LANCHOR0
  67 0028 003040E3 		movt	r3, #:upper16:.LANCHOR0
  68 002c 2020A0E3 		mov	r2, #32
  69 0030 002083E5 		str	r2, [r3]
 116:../src/renesas/application/console/command.c **** 
 117:../src/renesas/application/console/command.c ****     /* remove unused console command lists */
 118:../src/renesas/application/console/command.c ****     for (pos = (g_num_commands - 1); pos > 0; pos--)
  70              		.loc 1 118 5 is_stmt 1 view .LVU10
  71              	.LVL4:
  72              		.loc 1 118 14 is_stmt 0 view .LVU11
  73 0034 1F30A0E3 		mov	r3, #31
  74              		.loc 1 118 5 view .LVU12
  75 0038 050000EA 		b	.L2
  76              	.LVL5:
  77              	.L14:
 119:../src/renesas/application/console/command.c ****     {
 120:../src/renesas/application/console/command.c ****         /* check for null entry */
 121:../src/renesas/application/console/command.c ****         if (NULL == s_commands[pos])
 122:../src/renesas/application/console/command.c ****         {
 123:../src/renesas/application/console/command.c ****             g_num_commands--;
  78              		.loc 1 123 13 is_stmt 1 view .LVU13
  79              		.loc 1 123 27 is_stmt 0 view .LVU14
  80 003c 002000E3 		movw	r2, #:lower16:.LANCHOR0
  81 0040 002040E3 		movt	r2, #:upper16:.LANCHOR0
  82 0044 001092E5 		ldr	r1, [r2]
  83 0048 011041E2 		sub	r1, r1, #1
  84 004c 001082E5 		str	r1, [r2]
  85              	.L3:
 118:../src/renesas/application/console/command.c ****     {
  86              		.loc 1 118 47 is_stmt 1 discriminator 2 view .LVU15
 118:../src/renesas/application/console/command.c ****     {
  87              		.loc 1 118 50 is_stmt 0 discriminator 2 view .LVU16
  88 0050 013043E2 		sub	r3, r3, #1
  89              	.LVL6:
  90              	.L2:
 118:../src/renesas/application/console/command.c ****     {
  91              		.loc 1 118 38 is_stmt 1 discriminator 1 view .LVU17
 118:../src/renesas/application/console/command.c ****     {
  92              		.loc 1 118 5 is_stmt 0 discriminator 1 view .LVU18
  93 0054 000053E3 		cmp	r3, #0
  94 0058 050000DA 		ble	.L13
 121:../src/renesas/application/console/command.c ****         {
  95              		.loc 1 121 9 is_stmt 1 view .LVU19
 121:../src/renesas/application/console/command.c ****         {
  96              		.loc 1 121 31 is_stmt 0 view .LVU20
  97 005c 00C000E3 		movw	ip, #:lower16:.LANCHOR1
  98 0060 00C040E3 		movt	ip, #:upper16:.LANCHOR1
  99 0064 03219CE7 		ldr	r2, [ip, r3, lsl #2]
 121:../src/renesas/application/console/command.c ****         {
 100              		.loc 1 121 12 view .LVU21
 101 0068 000052E3 		cmp	r2, #0
 102 006c F7FFFF1A 		bne	.L3
 103 0070 F1FFFFEA 		b	.L14
 104              	.L13:
 124:../src/renesas/application/console/command.c ****         }
 125:../src/renesas/application/console/command.c ****     }
 126:../src/renesas/application/console/command.c **** 
 127:../src/renesas/application/console/command.c ****     if (com)
 105              		.loc 1 127 5 is_stmt 1 view .LVU22
 106              		.loc 1 127 8 is_stmt 0 view .LVU23
 107 0074 000050E3 		cmp	r0, #0
 108 0078 1100001A 		bne	.L10
 109 007c 2D0000EA 		b	.L1
 110              	.LVL7:
 111              	.L7:
 112              	.LBB2:
 128:../src/renesas/application/console/command.c ****     {
 129:../src/renesas/application/console/command.c ****         while (1)
 130:../src/renesas/application/console/command.c ****         {
 131:../src/renesas/application/console/command.c ****             e_cmderr_t cmd_err = CMD_OK;
 132:../src/renesas/application/console/command.c **** 
 133:../src/renesas/application/console/command.c ****             /* Initialise the console for login */
 134:../src/renesas/application/console/command.c ****             memset(com, 0, sizeof(st_comset_t));
 135:../src/renesas/application/console/command.c ****             com->p_in = pIn;
 136:../src/renesas/application/console/command.c ****             com->p_out = pOut;
 137:../src/renesas/application/console/command.c **** 
 138:../src/renesas/application/console/command.c ****             /* Process commands until the link is lost or the command returns a code greater than C
 139:../src/renesas/application/console/command.c ****             while (cmd_err < CMD_USER_EXIT)
 140:../src/renesas/application/console/command.c ****             {
 141:../src/renesas/application/console/command.c ****                 /* cast gppCommands to cpst_command_table_t * */
 142:../src/renesas/application/console/command.c ****                 cmd_err = console(com, (cpst_command_table_t *) s_commands, g_num_commands, pIn, pO
 113              		.loc 1 142 17 is_stmt 1 view .LVU24
 114              		.loc 1 142 27 is_stmt 0 view .LVU25
 115 0080 00C000E3 		movw	ip, #:lower16:.LANCHOR0
 116 0084 00C040E3 		movt	ip, #:upper16:.LANCHOR0
 117 0088 04708DE5 		str	r7, [sp, #4]
 118 008c 00508DE5 		str	r5, [sp]
 119 0090 0630A0E1 		mov	r3, r6
 120 0094 00209CE5 		ldr	r2, [ip]
 121 0098 001000E3 		movw	r1, #:lower16:.LANCHOR1
 122 009c 001040E3 		movt	r1, #:upper16:.LANCHOR1
 123 00a0 0C009DE5 		ldr	r0, [sp, #12]
 124 00a4 FEFFFFEB 		bl	console
 125              	.LVL8:
 126 00a8 0040A0E1 		mov	r4, r0
 127              	.LVL9:
 128              	.L6:
 139:../src/renesas/application/console/command.c ****             {
 129              		.loc 1 139 19 is_stmt 1 view .LVU26
 130 00ac 040054E3 		cmp	r4, #4
 131 00b0 F2FFFF9A 		bls	.L7
 143:../src/renesas/application/console/command.c ****             }
 144:../src/renesas/application/console/command.c **** 
 145:../src/renesas/application/console/command.c ****             /* CMD_ERROR_IN_IO is returned when the client disconnects check for an IP stream */
 146:../src/renesas/application/console/command.c ****             if ((CMD_ERROR_IN_IO == cmd_err) &&
 132              		.loc 1 146 13 view .LVU27
 133              		.loc 1 146 16 is_stmt 0 view .LVU28
 134 00b4 070054E3 		cmp	r4, #7
 135 00b8 0A00000A 		beq	.L15
 136              	.L8:
 147:../src/renesas/application/console/command.c ****                     (control(R_DEVLINK_FilePtrDescriptor(com->p_in), CTL_STREAM_TCP, NULL) == 0))
 148:../src/renesas/application/console/command.c ****             {
 149:../src/renesas/application/console/command.c ****                 /* Log out */
 150:../src/renesas/application/console/command.c ****                 cmd_err = CMD_LOG_OUT;
 151:../src/renesas/application/console/command.c ****             }
 152:../src/renesas/application/console/command.c **** 
 153:../src/renesas/application/console/command.c ****             /* Check for the "exit<CR>" command return code */
 154:../src/renesas/application/console/command.c ****             if (CMD_LOG_OUT == cmd_err)
 137              		.loc 1 154 13 is_stmt 1 view .LVU29
 138              		.loc 1 154 16 is_stmt 0 view .LVU30
 139 00bc 060054E3 		cmp	r4, #6
 140 00c0 1100000A 		beq	.L9
 141              	.LVL10:
 142              	.L10:
 143              		.loc 1 154 16 view .LVU31
 144              	.LBE2:
 129:../src/renesas/application/console/command.c ****         {
 145              		.loc 1 129 9 is_stmt 1 view .LVU32
 146              	.LBB3:
 131:../src/renesas/application/console/command.c **** 
 147              		.loc 1 131 13 view .LVU33
 134:../src/renesas/application/console/command.c ****             com->p_in = pIn;
 148              		.loc 1 134 13 view .LVU34
 149 00c4 EC2403E3 		movw	r2, #13548
 150 00c8 0010A0E3 		mov	r1, #0
 151 00cc 0C009DE5 		ldr	r0, [sp, #12]
 152 00d0 FEFFFFEB 		bl	memset
 153              	.LVL11:
 135:../src/renesas/application/console/command.c ****             com->p_out = pOut;
 154              		.loc 1 135 13 view .LVU35
 135:../src/renesas/application/console/command.c ****             com->p_out = pOut;
 155              		.loc 1 135 16 is_stmt 0 view .LVU36
 156 00d4 0C309DE5 		ldr	r3, [sp, #12]
 135:../src/renesas/application/console/command.c ****             com->p_out = pOut;
 157              		.loc 1 135 23 view .LVU37
 158 00d8 346C83E5 		str	r6, [r3, #3124]
 136:../src/renesas/application/console/command.c **** 
 159              		.loc 1 136 13 is_stmt 1 view .LVU38
 136:../src/renesas/application/console/command.c **** 
 160              		.loc 1 136 24 is_stmt 0 view .LVU39
 161 00dc 385C83E5 		str	r5, [r3, #3128]
 139:../src/renesas/application/console/command.c ****             {
 162              		.loc 1 139 13 is_stmt 1 view .LVU40
 131:../src/renesas/application/console/command.c **** 
 163              		.loc 1 131 24 is_stmt 0 view .LVU41
 164 00e0 0040A0E3 		mov	r4, #0
 139:../src/renesas/application/console/command.c ****             {
 165              		.loc 1 139 19 view .LVU42
 166 00e4 F0FFFFEA 		b	.L6
 167              	.LVL12:
 168              	.L15:
 147:../src/renesas/application/console/command.c ****             {
 169              		.loc 1 147 22 discriminator 1 view .LVU43
 170 00e8 0C309DE5 		ldr	r3, [sp, #12]
 171 00ec 340C93E5 		ldr	r0, [r3, #3124]
 172 00f0 FEFFFFEB 		bl	R_DEVLINK_FilePtrDescriptor
 173              	.LVL13:
 174 00f4 0020A0E3 		mov	r2, #0
 175 00f8 0110A0E3 		mov	r1, #1
 176 00fc 0F1742E3 		movt	r1, 9999
 177 0100 FEFFFFEB 		bl	control
 178              	.LVL14:
 146:../src/renesas/application/console/command.c ****                     (control(R_DEVLINK_FilePtrDescriptor(com->p_in), CTL_STREAM_TCP, NULL) == 0))
 179              		.loc 1 146 46 discriminator 1 view .LVU44
 180 0104 000050E3 		cmp	r0, #0
 181 0108 EBFFFF1A 		bne	.L8
 182              	.L9:
 183              	.LVL15:
 155:../src/renesas/application/console/command.c ****             {
 156:../src/renesas/application/console/command.c ****                 fprintf(com->p_out, "\r\nBye!\r\n");
 184              		.loc 1 156 17 is_stmt 1 view .LVU45
 185 010c 0C309DE5 		ldr	r3, [sp, #12]
 186 0110 383C93E5 		ldr	r3, [r3, #3128]
 187 0114 0820A0E3 		mov	r2, #8
 188 0118 0110A0E3 		mov	r1, #1
 189 011c 000000E3 		movw	r0, #:lower16:.LC0
 190 0120 000040E3 		movt	r0, #:upper16:.LC0
 191 0124 FEFFFFEB 		bl	fwrite
 192              	.LVL16:
 157:../src/renesas/application/console/command.c ****                 fflush(pOut);
 193              		.loc 1 157 17 view .LVU46
 194 0128 0500A0E1 		mov	r0, r5
 195 012c FEFFFFEB 		bl	fflush
 196              	.LVL17:
 158:../src/renesas/application/console/command.c **** 
 159:../src/renesas/application/console/command.c ****                 /* Do "exit" code */
 160:../src/renesas/application/console/command.c ****                 R_OS_Free((void *) &com);
 197              		.loc 1 160 17 view .LVU47
 198 0130 0C008DE2 		add	r0, sp, #12
 199 0134 FEFFFFEB 		bl	R_OS_Free
 200              	.LVL18:
 161:../src/renesas/application/console/command.c ****                 return;
 201              		.loc 1 161 17 view .LVU48
 202              	.L1:
 203              		.loc 1 161 17 is_stmt 0 view .LVU49
 204              	.LBE3:
 162:../src/renesas/application/console/command.c ****             }
 163:../src/renesas/application/console/command.c ****         }
 164:../src/renesas/application/console/command.c ****     }
 165:../src/renesas/application/console/command.c **** }
 205              		.loc 1 165 1 view .LVU50
 206 0138 14D08DE2 		add	sp, sp, #20
 207              		.cfi_def_cfa_offset 20
 208              		@ sp needed
 209 013c F080BDE8 		pop	{r4, r5, r6, r7, pc}
 210              		.loc 1 165 1 view .LVU51
 211              		.cfi_endproc
 212              	.LFE6:
 214              		.global	g_num_commands
 215              		.section	.data.g_num_commands,"aw"
 216              		.align	2
 217              		.set	.LANCHOR0,. + 0
 220              	g_num_commands:
 221 0000 20000000 		.word	32
 222              		.section	.data.s_commands,"aw"
 223              		.align	2
 224              		.set	.LANCHOR1,. + 0
 227              	s_commands:
 228 0000 00000000 		.word	g_cmd_tbl_sound_app
 229 0004 00000000 		.space	124
 229      00000000 
 229      00000000 
 229      00000000 
 229      00000000 
 230              		.text
 231              	.Letext0:
 232              		.file 2 "c:\\program files (x86)\\gnu arm embedded toolchain\\9 2020-q2-update\\arm-none-eabi\\inc
 233              		.file 3 "c:\\program files (x86)\\gnu arm embedded toolchain\\9 2020-q2-update\\lib\\gcc\\arm-none
 234              		.file 4 "c:\\program files (x86)\\gnu arm embedded toolchain\\9 2020-q2-update\\arm-none-eabi\\inc
 235              		.file 5 "c:\\program files (x86)\\gnu arm embedded toolchain\\9 2020-q2-update\\arm-none-eabi\\inc
 236              		.file 6 "c:\\program files (x86)\\gnu arm embedded toolchain\\9 2020-q2-update\\arm-none-eabi\\inc
 237              		.file 7 "c:\\program files (x86)\\gnu arm embedded toolchain\\9 2020-q2-update\\arm-none-eabi\\inc
 238              		.file 8 "c:\\program files (x86)\\gnu arm embedded toolchain\\9 2020-q2-update\\arm-none-eabi\\inc
 239              		.file 9 "c:\\program files (x86)\\gnu arm embedded toolchain\\9 2020-q2-update\\arm-none-eabi\\inc
 240              		.file 10 "c:\\program files (x86)\\gnu arm embedded toolchain\\9 2020-q2-update\\arm-none-eabi\\in
 241              		.file 11 "c:\\program files (x86)\\gnu arm embedded toolchain\\9 2020-q2-update\\arm-none-eabi\\in
 242              		.file 12 "c:\\program files (x86)\\gnu arm embedded toolchain\\9 2020-q2-update\\arm-none-eabi\\in
 243              		.file 13 "C:/Users/ryota/e2_studio/workspace/rza2m_ssif_sample_freertos_gcc/generate/system/inc/r_
 244              		.file 14 "C:/Users/ryota/e2_studio/workspace/rza2m_ssif_sample_freertos_gcc/generate/os_abstractio
 245              		.file 15 "C:/Users/ryota/e2_studio/workspace/rza2m_ssif_sample_freertos_gcc/generate/system/inc/dr
 246              		.file 16 "C:/Users/ryota/e2_studio/workspace/rza2m_ssif_sample_freertos_gcc/generate/os_abstractio
 247              		.file 17 "C:/Users/ryota/e2_studio/workspace/rza2m_ssif_sample_freertos_gcc/src/renesas/applicatio
 248              		.file 18 "C:/Users/ryota/e2_studio/workspace/rza2m_ssif_sample_freertos_gcc/generate/system/inc/r_
 249              		.file 19 "<built-in>"
 250              		.file 20 "C:/Users/ryota/e2_studio/workspace/rza2m_ssif_sample_freertos_gcc/generate/os_abstractio