   1              		.cpu cortex-a9
   2              		.eabi_attribute 28, 1
   3              		.eabi_attribute 20, 1
   4              		.eabi_attribute 21, 1
   5              		.eabi_attribute 23, 3
   6              		.eabi_attribute 24, 1
   7              		.eabi_attribute 25, 1
   8              		.eabi_attribute 26, 1
   9              		.eabi_attribute 30, 1
  10              		.eabi_attribute 34, 0
  11              		.eabi_attribute 18, 4
  12              		.file	"freertos_tick_config.c"
  13              		.text
  14              	.Ltext0:
  15              		.cfi_sections	.debug_frame
  16              		.section	.rodata.vConfigureTickInterrupt.str1.4,"aMS",%progbits,1
  17              		.align	2
  18              	.LC0:
  19 0000 5C5C2E5C 		.ascii	"\\\\.\\ostm_reserved\000"
  19      6F73746D 
  19      5F726573 
  19      65727665 
  19      6400
  20 0012 0000     		.align	2
  21              	.LC1:
  22 0014 2E2E2F73 		.ascii	"../src/FreeRTOS/portable/GCC/ARM_CA9_RZA2M/freertos"
  22      72632F46 
  22      72656552 
  22      544F532F 
  22      706F7274 
  23 0047 5F746963 		.ascii	"_tick_config.c\000"
  23      6B5F636F 
  23      6E666967 
  23      2E6300
  24              		.section	.text.vConfigureTickInterrupt,"ax",%progbits
  25              		.align	2
  26              		.global	vConfigureTickInterrupt
  27              		.arch armv7-a
  28              		.arch_extension mp
  29              		.arch_extension sec
  30              		.syntax unified
  31              		.arm
  32              		.fpu neon
  34              	vConfigureTickInterrupt:
  35              	.LFB6:
  36              		.file 1 "../src/FreeRTOS/portable/GCC/ARM_CA9_RZA2M/freertos_tick_config.c"
   1:../src/FreeRTOS/portable/GCC/ARM_CA9_RZA2M/freertos_tick_config.c **** /*
   2:../src/FreeRTOS/portable/GCC/ARM_CA9_RZA2M/freertos_tick_config.c ****  * FreeRTOS Kernel V10.0.0
   3:../src/FreeRTOS/portable/GCC/ARM_CA9_RZA2M/freertos_tick_config.c ****  * Copyright (C) 2017 Amazon.com, Inc. or its affiliates.  All Rights Reserved.
   4:../src/FreeRTOS/portable/GCC/ARM_CA9_RZA2M/freertos_tick_config.c ****  *
   5:../src/FreeRTOS/portable/GCC/ARM_CA9_RZA2M/freertos_tick_config.c ****  * Permission is hereby granted, free of charge, to any person obtaining a copy of
   6:../src/FreeRTOS/portable/GCC/ARM_CA9_RZA2M/freertos_tick_config.c ****  * this software and associated documentation files (the "Software"), to deal in
   7:../src/FreeRTOS/portable/GCC/ARM_CA9_RZA2M/freertos_tick_config.c ****  * the Software without restriction, including without limitation the rights to
   8:../src/FreeRTOS/portable/GCC/ARM_CA9_RZA2M/freertos_tick_config.c ****  * use, copy, modify, merge, publish, distribute, sublicense, and/or sell copies of
   9:../src/FreeRTOS/portable/GCC/ARM_CA9_RZA2M/freertos_tick_config.c ****  * the Software, and to permit persons to whom the Software is furnished to do so,
  10:../src/FreeRTOS/portable/GCC/ARM_CA9_RZA2M/freertos_tick_config.c ****  * subject to the following conditions:
  11:../src/FreeRTOS/portable/GCC/ARM_CA9_RZA2M/freertos_tick_config.c ****  *
  12:../src/FreeRTOS/portable/GCC/ARM_CA9_RZA2M/freertos_tick_config.c ****  * The above copyright notice and this permission notice shall be included in all
  13:../src/FreeRTOS/portable/GCC/ARM_CA9_RZA2M/freertos_tick_config.c ****  * copies or substantial portions of the Software. If you wish to use our Amazon
  14:../src/FreeRTOS/portable/GCC/ARM_CA9_RZA2M/freertos_tick_config.c ****  * FreeRTOS name, please do so in a fair use way that does not cause confusion.
  15:../src/FreeRTOS/portable/GCC/ARM_CA9_RZA2M/freertos_tick_config.c ****  *
  16:../src/FreeRTOS/portable/GCC/ARM_CA9_RZA2M/freertos_tick_config.c ****  * THE SOFTWARE IS PROVIDED "AS IS", WITHOUT WARRANTY OF ANY KIND, EXPRESS OR
  17:../src/FreeRTOS/portable/GCC/ARM_CA9_RZA2M/freertos_tick_config.c ****  * IMPLIED, INCLUDING BUT NOT LIMITED TO THE WARRANTIES OF MERCHANTABILITY, FITNESS
  18:../src/FreeRTOS/portable/GCC/ARM_CA9_RZA2M/freertos_tick_config.c ****  * FOR A PARTICULAR PURPOSE AND NONINFRINGEMENT. IN NO EVENT SHALL THE AUTHORS OR
  19:../src/FreeRTOS/portable/GCC/ARM_CA9_RZA2M/freertos_tick_config.c ****  * COPYRIGHT HOLDERS BE LIABLE FOR ANY CLAIM, DAMAGES OR OTHER LIABILITY, WHETHER
  20:../src/FreeRTOS/portable/GCC/ARM_CA9_RZA2M/freertos_tick_config.c ****  * IN AN ACTION OF CONTRACT, TORT OR OTHERWISE, ARISING FROM, OUT OF OR IN
  21:../src/FreeRTOS/portable/GCC/ARM_CA9_RZA2M/freertos_tick_config.c ****  * CONNECTION WITH THE SOFTWARE OR THE USE OR OTHER DEALINGS IN THE SOFTWARE.
  22:../src/FreeRTOS/portable/GCC/ARM_CA9_RZA2M/freertos_tick_config.c ****  *
  23:../src/FreeRTOS/portable/GCC/ARM_CA9_RZA2M/freertos_tick_config.c ****  * http://www.FreeRTOS.org
  24:../src/FreeRTOS/portable/GCC/ARM_CA9_RZA2M/freertos_tick_config.c ****  * http://aws.amazon.com/freertos
  25:../src/FreeRTOS/portable/GCC/ARM_CA9_RZA2M/freertos_tick_config.c ****  *
  26:../src/FreeRTOS/portable/GCC/ARM_CA9_RZA2M/freertos_tick_config.c ****  * 1 tab == 4 spaces!
  27:../src/FreeRTOS/portable/GCC/ARM_CA9_RZA2M/freertos_tick_config.c ****  */
  28:../src/FreeRTOS/portable/GCC/ARM_CA9_RZA2M/freertos_tick_config.c **** 
  29:../src/FreeRTOS/portable/GCC/ARM_CA9_RZA2M/freertos_tick_config.c **** /* Renesas driver includes. */
  30:../src/FreeRTOS/portable/GCC/ARM_CA9_RZA2M/freertos_tick_config.c **** #include <stdint.h>
  31:../src/FreeRTOS/portable/GCC/ARM_CA9_RZA2M/freertos_tick_config.c **** #include "iodefine.h"
  32:../src/FreeRTOS/portable/GCC/ARM_CA9_RZA2M/freertos_tick_config.c **** 
  33:../src/FreeRTOS/portable/GCC/ARM_CA9_RZA2M/freertos_tick_config.c **** /* FreeRTOS includes. */
  34:../src/FreeRTOS/portable/GCC/ARM_CA9_RZA2M/freertos_tick_config.c **** #include "FreeRTOS.h"
  35:../src/FreeRTOS/portable/GCC/ARM_CA9_RZA2M/freertos_tick_config.c **** #include "task.h"
  36:../src/FreeRTOS/portable/GCC/ARM_CA9_RZA2M/freertos_tick_config.c **** 
  37:../src/FreeRTOS/portable/GCC/ARM_CA9_RZA2M/freertos_tick_config.c **** #include "compiler_settings.h"
  38:../src/FreeRTOS/portable/GCC/ARM_CA9_RZA2M/freertos_tick_config.c **** #include "r_devlink_wrapper.h"
  39:../src/FreeRTOS/portable/GCC/ARM_CA9_RZA2M/freertos_tick_config.c **** #include "r_os_abstraction_api.h"
  40:../src/FreeRTOS/portable/GCC/ARM_CA9_RZA2M/freertos_tick_config.c **** #include "r_ostm_drv_api.h"
  41:../src/FreeRTOS/portable/GCC/ARM_CA9_RZA2M/freertos_tick_config.c **** 
  42:../src/FreeRTOS/portable/GCC/ARM_CA9_RZA2M/freertos_tick_config.c **** /*
  43:../src/FreeRTOS/portable/GCC/ARM_CA9_RZA2M/freertos_tick_config.c ****  * The application must provide a function that configures a peripheral to
  44:../src/FreeRTOS/portable/GCC/ARM_CA9_RZA2M/freertos_tick_config.c ****  * create the FreeRTOS tick interrupt, then define configSETUP_TICK_INTERRUPT()
  45:../src/FreeRTOS/portable/GCC/ARM_CA9_RZA2M/freertos_tick_config.c ****  * in FreeRTOSConfig.h to call the function.  This file contains a function
  46:../src/FreeRTOS/portable/GCC/ARM_CA9_RZA2M/freertos_tick_config.c ****  * that is suitable for use on the Renesas RZ MPU.
  47:../src/FreeRTOS/portable/GCC/ARM_CA9_RZA2M/freertos_tick_config.c ****  */
  48:../src/FreeRTOS/portable/GCC/ARM_CA9_RZA2M/freertos_tick_config.c **** 
  49:../src/FreeRTOS/portable/GCC/ARM_CA9_RZA2M/freertos_tick_config.c **** #define R_FREERTOS_RUNTIME_STATS_OSTM_RESOURCE ("\\\\.\\runtime_stats_timer")
  50:../src/FreeRTOS/portable/GCC/ARM_CA9_RZA2M/freertos_tick_config.c **** #define runtimeCLOCK_SCALE_SHIFT	( 9UL )
  51:../src/FreeRTOS/portable/GCC/ARM_CA9_RZA2M/freertos_tick_config.c **** #define runtimeOVERFLOW_BIT			( 1UL << ( 32UL - runtimeCLOCK_SCALE_SHIFT ) )
  52:../src/FreeRTOS/portable/GCC/ARM_CA9_RZA2M/freertos_tick_config.c **** 
  53:../src/FreeRTOS/portable/GCC/ARM_CA9_RZA2M/freertos_tick_config.c **** static int_t s_tick_timer_handle = (-1);
  54:../src/FreeRTOS/portable/GCC/ARM_CA9_RZA2M/freertos_tick_config.c **** static int_t s_runtime_stats_timer_handle = (-1);
  55:../src/FreeRTOS/portable/GCC/ARM_CA9_RZA2M/freertos_tick_config.c **** 
  56:../src/FreeRTOS/portable/GCC/ARM_CA9_RZA2M/freertos_tick_config.c **** void vConfigureTickInterrupt( void )
  57:../src/FreeRTOS/portable/GCC/ARM_CA9_RZA2M/freertos_tick_config.c **** {
  37              		.loc 1 57 1 view -0
  38              		.cfi_startproc
  39              		@ args = 0, pretend = 0, frame = 0
  40              		@ frame_needed = 0, uses_anonymous_args = 0
  58:../src/FreeRTOS/portable/GCC/ARM_CA9_RZA2M/freertos_tick_config.c ****     if (( -1) == s_tick_timer_handle)
  41              		.loc 1 58 5 view .LVU1
  42              		.loc 1 58 15 is_stmt 0 view .LVU2
  43 0000 003000E3 		movw	r3, #:lower16:.LANCHOR0
  44 0004 003040E3 		movt	r3, #:upper16:.LANCHOR0
  45 0008 003093E5 		ldr	r3, [r3]
  46              		.loc 1 58 8 view .LVU3
  47 000c 010073E3 		cmn	r3, #1
  48 0010 1EFF2F11 		bxne	lr
  57:../src/FreeRTOS/portable/GCC/ARM_CA9_RZA2M/freertos_tick_config.c ****     if (( -1) == s_tick_timer_handle)
  49              		.loc 1 57 1 view .LVU4
  50 0014 10402DE9 		push	{r4, lr}
  51              		.cfi_def_cfa_offset 8
  52              		.cfi_offset 4, -8
  53              		.cfi_offset 14, -4
  59:../src/FreeRTOS/portable/GCC/ARM_CA9_RZA2M/freertos_tick_config.c ****     {
  60:../src/FreeRTOS/portable/GCC/ARM_CA9_RZA2M/freertos_tick_config.c ****         s_tick_timer_handle = open(R_OS_ABSTRACTION_OSTM_RESOURCE, O_RDWR);
  54              		.loc 1 60 9 is_stmt 1 view .LVU5
  55              		.loc 1 60 31 is_stmt 0 view .LVU6
  56 0018 0210A0E3 		mov	r1, #2
  57 001c 000000E3 		movw	r0, #:lower16:.LC0
  58 0020 000040E3 		movt	r0, #:upper16:.LC0
  59 0024 FEFFFFEB 		bl	open
  60              	.LVL0:
  61              		.loc 1 60 29 view .LVU7
  62 0028 003000E3 		movw	r3, #:lower16:.LANCHOR0
  63 002c 003040E3 		movt	r3, #:upper16:.LANCHOR0
  64 0030 000083E5 		str	r0, [r3]
  61:../src/FreeRTOS/portable/GCC/ARM_CA9_RZA2M/freertos_tick_config.c **** 
  62:../src/FreeRTOS/portable/GCC/ARM_CA9_RZA2M/freertos_tick_config.c ****         if (( -1) == s_tick_timer_handle)
  65              		.loc 1 62 9 is_stmt 1 view .LVU8
  66              		.loc 1 62 12 is_stmt 0 view .LVU9
  67 0034 010070E3 		cmn	r0, #1
  68 0038 0300000A 		beq	.L8
  63:../src/FreeRTOS/portable/GCC/ARM_CA9_RZA2M/freertos_tick_config.c ****         {
  64:../src/FreeRTOS/portable/GCC/ARM_CA9_RZA2M/freertos_tick_config.c ****             R_OS_AssertCalled( __FILE__, __LINE__);
  65:../src/FreeRTOS/portable/GCC/ARM_CA9_RZA2M/freertos_tick_config.c ****         }
  66:../src/FreeRTOS/portable/GCC/ARM_CA9_RZA2M/freertos_tick_config.c ****         else
  67:../src/FreeRTOS/portable/GCC/ARM_CA9_RZA2M/freertos_tick_config.c ****         {
  68:../src/FreeRTOS/portable/GCC/ARM_CA9_RZA2M/freertos_tick_config.c ****             control(s_tick_timer_handle, CTRL_OSTM_START_TIMER, NULL);
  69              		.loc 1 68 13 is_stmt 1 view .LVU10
  70 003c 0020A0E3 		mov	r2, #0
  71 0040 0210A0E1 		mov	r1, r2
  72 0044 FEFFFFEB 		bl	control
  73              	.LVL1:
  69:../src/FreeRTOS/portable/GCC/ARM_CA9_RZA2M/freertos_tick_config.c ****         }
  70:../src/FreeRTOS/portable/GCC/ARM_CA9_RZA2M/freertos_tick_config.c ****     }
  71:../src/FreeRTOS/portable/GCC/ARM_CA9_RZA2M/freertos_tick_config.c **** }
  74              		.loc 1 71 1 is_stmt 0 view .LVU11
  75 0048 1080BDE8 		pop	{r4, pc}
  76              	.L8:
  64:../src/FreeRTOS/portable/GCC/ARM_CA9_RZA2M/freertos_tick_config.c ****         }
  77              		.loc 1 64 13 is_stmt 1 view .LVU12
  78 004c 4010A0E3 		mov	r1, #64
  79 0050 000000E3 		movw	r0, #:lower16:.LC1
  80 0054 000040E3 		movt	r0, #:upper16:.LC1
  81 0058 FEFFFFEB 		bl	R_OS_AssertCalled
  82              	.LVL2:
  83 005c 1080BDE8 		pop	{r4, pc}
  84              		.cfi_endproc
  85              	.LFE6:
  87              		.section	.text.ulGetRunTimeCounterValue,"ax",%progbits
  88              		.align	2
  89              		.global	ulGetRunTimeCounterValue
  90              		.syntax unified
  91              		.arm
  92              		.fpu neon
  94              	ulGetRunTimeCounterValue:
  95              	.LFB7:
  72:../src/FreeRTOS/portable/GCC/ARM_CA9_RZA2M/freertos_tick_config.c **** /*-----------------------------------------------------------*/
  73:../src/FreeRTOS/portable/GCC/ARM_CA9_RZA2M/freertos_tick_config.c **** 
  74:../src/FreeRTOS/portable/GCC/ARM_CA9_RZA2M/freertos_tick_config.c **** /*
  75:../src/FreeRTOS/portable/GCC/ARM_CA9_RZA2M/freertos_tick_config.c ****  * Crude implementation of a run time counter used to measure how much time
  76:../src/FreeRTOS/portable/GCC/ARM_CA9_RZA2M/freertos_tick_config.c ****  * each task spends in the Running state.
  77:../src/FreeRTOS/portable/GCC/ARM_CA9_RZA2M/freertos_tick_config.c ****  */
  78:../src/FreeRTOS/portable/GCC/ARM_CA9_RZA2M/freertos_tick_config.c **** unsigned long ulGetRunTimeCounterValue( void )
  79:../src/FreeRTOS/portable/GCC/ARM_CA9_RZA2M/freertos_tick_config.c **** {
  96              		.loc 1 79 1 view -0
  97              		.cfi_startproc
  98              		@ args = 0, pretend = 0, frame = 8
  99              		@ frame_needed = 0, uses_anonymous_args = 0
 100 0000 04E02DE5 		str	lr, [sp, #-4]!
 101              		.cfi_def_cfa_offset 4
 102              		.cfi_offset 14, -4
 103 0004 0CD04DE2 		sub	sp, sp, #12
 104              		.cfi_def_cfa_offset 16
  80:../src/FreeRTOS/portable/GCC/ARM_CA9_RZA2M/freertos_tick_config.c ****     static unsigned long ulLastCounterValue = 0UL, ulOverflows = 0;
 105              		.loc 1 80 5 view .LVU14
  81:../src/FreeRTOS/portable/GCC/ARM_CA9_RZA2M/freertos_tick_config.c ****     unsigned long ulValueNow = 0;
 106              		.loc 1 81 5 view .LVU15
 107              		.loc 1 81 19 is_stmt 0 view .LVU16
 108 0008 0030A0E3 		mov	r3, #0
 109 000c 04308DE5 		str	r3, [sp, #4]
  82:../src/FreeRTOS/portable/GCC/ARM_CA9_RZA2M/freertos_tick_config.c **** 
  83:../src/FreeRTOS/portable/GCC/ARM_CA9_RZA2M/freertos_tick_config.c ****     if (( -1) == s_runtime_stats_timer_handle)
 110              		.loc 1 83 5 is_stmt 1 view .LVU17
 111              		.loc 1 83 15 is_stmt 0 view .LVU18
 112 0010 003000E3 		movw	r3, #:lower16:.LANCHOR1
 113 0014 003040E3 		movt	r3, #:upper16:.LANCHOR1
 114 0018 000093E5 		ldr	r0, [r3]
 115              		.loc 1 83 8 view .LVU19
 116 001c 010070E3 		cmn	r0, #1
 117 0020 1700000A 		beq	.L14
  84:../src/FreeRTOS/portable/GCC/ARM_CA9_RZA2M/freertos_tick_config.c ****     {
  85:../src/FreeRTOS/portable/GCC/ARM_CA9_RZA2M/freertos_tick_config.c ****         R_OS_AssertCalled( __FILE__, __LINE__);
  86:../src/FreeRTOS/portable/GCC/ARM_CA9_RZA2M/freertos_tick_config.c ****     }
  87:../src/FreeRTOS/portable/GCC/ARM_CA9_RZA2M/freertos_tick_config.c ****     else
  88:../src/FreeRTOS/portable/GCC/ARM_CA9_RZA2M/freertos_tick_config.c ****     {
  89:../src/FreeRTOS/portable/GCC/ARM_CA9_RZA2M/freertos_tick_config.c ****         control(s_runtime_stats_timer_handle, CTRL_OSTM_READ_COUNTER, &ulValueNow);
 118              		.loc 1 89 9 is_stmt 1 view .LVU20
 119 0024 04208DE2 		add	r2, sp, #4
 120 0028 0310A0E3 		mov	r1, #3
 121 002c FEFFFFEB 		bl	control
 122              	.LVL3:
 123              	.L11:
  90:../src/FreeRTOS/portable/GCC/ARM_CA9_RZA2M/freertos_tick_config.c ****     }
  91:../src/FreeRTOS/portable/GCC/ARM_CA9_RZA2M/freertos_tick_config.c **** 
  92:../src/FreeRTOS/portable/GCC/ARM_CA9_RZA2M/freertos_tick_config.c ****     /* Has the value overflowed since it was last read. */
  93:../src/FreeRTOS/portable/GCC/ARM_CA9_RZA2M/freertos_tick_config.c ****     if( ulValueNow < ulLastCounterValue )
 124              		.loc 1 93 5 view .LVU21
 125              		.loc 1 93 20 is_stmt 0 view .LVU22
 126 0030 04009DE5 		ldr	r0, [sp, #4]
 127 0034 003000E3 		movw	r3, #:lower16:.LANCHOR2
 128 0038 003040E3 		movt	r3, #:upper16:.LANCHOR2
 129 003c 003093E5 		ldr	r3, [r3]
 130              		.loc 1 93 7 view .LVU23
 131 0040 030050E1 		cmp	r0, r3
 132 0044 0400002A 		bcs	.L12
  94:../src/FreeRTOS/portable/GCC/ARM_CA9_RZA2M/freertos_tick_config.c ****     {
  95:../src/FreeRTOS/portable/GCC/ARM_CA9_RZA2M/freertos_tick_config.c ****         ulOverflows++;
 133              		.loc 1 95 9 is_stmt 1 view .LVU24
 134              		.loc 1 95 20 is_stmt 0 view .LVU25
 135 0048 003000E3 		movw	r3, #:lower16:.LANCHOR3
 136 004c 003040E3 		movt	r3, #:upper16:.LANCHOR3
 137 0050 002093E5 		ldr	r2, [r3]
 138 0054 012082E2 		add	r2, r2, #1
 139 0058 002083E5 		str	r2, [r3]
 140              	.L12:
  96:../src/FreeRTOS/portable/GCC/ARM_CA9_RZA2M/freertos_tick_config.c ****     }
  97:../src/FreeRTOS/portable/GCC/ARM_CA9_RZA2M/freertos_tick_config.c ****     ulLastCounterValue = ulValueNow;
 141              		.loc 1 97 5 is_stmt 1 view .LVU26
 142              		.loc 1 97 24 is_stmt 0 view .LVU27
 143 005c 003000E3 		movw	r3, #:lower16:.LANCHOR2
 144 0060 003040E3 		movt	r3, #:upper16:.LANCHOR2
 145 0064 000083E5 		str	r0, [r3]
  98:../src/FreeRTOS/portable/GCC/ARM_CA9_RZA2M/freertos_tick_config.c **** 
  99:../src/FreeRTOS/portable/GCC/ARM_CA9_RZA2M/freertos_tick_config.c ****     /* There is no prescale on the counter, so simulate in software. */
 100:../src/FreeRTOS/portable/GCC/ARM_CA9_RZA2M/freertos_tick_config.c ****     ulValueNow >>= runtimeCLOCK_SCALE_SHIFT;
 146              		.loc 1 100 5 is_stmt 1 view .LVU28
 101:../src/FreeRTOS/portable/GCC/ARM_CA9_RZA2M/freertos_tick_config.c ****     ulValueNow += ( runtimeOVERFLOW_BIT * ulOverflows );
 147              		.loc 1 101 5 view .LVU29
 148              		.loc 1 101 41 is_stmt 0 view .LVU30
 149 0068 003000E3 		movw	r3, #:lower16:.LANCHOR3
 150 006c 003040E3 		movt	r3, #:upper16:.LANCHOR3
 151 0070 003093E5 		ldr	r3, [r3]
 152 0074 833BA0E1 		lsl	r3, r3, #23
 102:../src/FreeRTOS/portable/GCC/ARM_CA9_RZA2M/freertos_tick_config.c **** 
 103:../src/FreeRTOS/portable/GCC/ARM_CA9_RZA2M/freertos_tick_config.c ****     return ulValueNow;
 153              		.loc 1 103 5 is_stmt 1 view .LVU31
 104:../src/FreeRTOS/portable/GCC/ARM_CA9_RZA2M/freertos_tick_config.c **** }
 154              		.loc 1 104 1 is_stmt 0 view .LVU32
 155 0078 A00483E0 		add	r0, r3, r0, lsr #9
 156 007c 0CD08DE2 		add	sp, sp, #12
 157              		.cfi_remember_state
 158              		.cfi_def_cfa_offset 4
 159              		@ sp needed
 160 0080 04F09DE4 		ldr	pc, [sp], #4
 161              	.L14:
 162              		.cfi_restore_state
  85:../src/FreeRTOS/portable/GCC/ARM_CA9_RZA2M/freertos_tick_config.c ****     }
 163              		.loc 1 85 9 is_stmt 1 view .LVU33
 164 0084 5510A0E3 		mov	r1, #85
 165 0088 000000E3 		movw	r0, #:lower16:.LC1
 166 008c 000040E3 		movt	r0, #:upper16:.LC1
 167 0090 FEFFFFEB 		bl	R_OS_AssertCalled
 168              	.LVL4:
 169 0094 E5FFFFEA 		b	.L11
 170              		.cfi_endproc
 171              	.LFE7:
 173              		.section	.rodata.vInitialiseRunTimeStats.str1.4,"aMS",%progbits,1
 174              		.align	2
 175              	.LC2:
 176 0000 5C5C2E5C 		.ascii	"\\\\.\\runtime_stats_timer\000"
 176      72756E74 
 176      696D655F 
 176      73746174 
 176      735F7469 
 177              		.section	.text.vInitialiseRunTimeStats,"ax",%progbits
 178              		.align	2
 179              		.global	vInitialiseRunTimeStats
 180              		.syntax unified
 181              		.arm
 182              		.fpu neon
 184              	vInitialiseRunTimeStats:
 185              	.LFB8:
 105:../src/FreeRTOS/portable/GCC/ARM_CA9_RZA2M/freertos_tick_config.c **** /*-----------------------------------------------------------*/
 106:../src/FreeRTOS/portable/GCC/ARM_CA9_RZA2M/freertos_tick_config.c **** 
 107:../src/FreeRTOS/portable/GCC/ARM_CA9_RZA2M/freertos_tick_config.c **** void vInitialiseRunTimeStats( void )
 108:../src/FreeRTOS/portable/GCC/ARM_CA9_RZA2M/freertos_tick_config.c **** {
 186              		.loc 1 108 1 view -0
 187              		.cfi_startproc
 188              		@ args = 0, pretend = 0, frame = 0
 189              		@ frame_needed = 0, uses_anonymous_args = 0
 109:../src/FreeRTOS/portable/GCC/ARM_CA9_RZA2M/freertos_tick_config.c ****     if (( -1) == s_runtime_stats_timer_handle)
 190              		.loc 1 109 5 view .LVU35
 191              		.loc 1 109 15 is_stmt 0 view .LVU36
 192 0000 003000E3 		movw	r3, #:lower16:.LANCHOR1
 193 0004 003040E3 		movt	r3, #:upper16:.LANCHOR1
 194 0008 003093E5 		ldr	r3, [r3]
 195              		.loc 1 109 8 view .LVU37
 196 000c 010073E3 		cmn	r3, #1
 197 0010 1EFF2F11 		bxne	lr
 108:../src/FreeRTOS/portable/GCC/ARM_CA9_RZA2M/freertos_tick_config.c ****     if (( -1) == s_runtime_stats_timer_handle)
 198              		.loc 1 108 1 view .LVU38
 199 0014 10402DE9 		push	{r4, lr}
 200              		.cfi_def_cfa_offset 8
 201              		.cfi_offset 4, -8
 202              		.cfi_offset 14, -4
 110:../src/FreeRTOS/portable/GCC/ARM_CA9_RZA2M/freertos_tick_config.c ****     {
 111:../src/FreeRTOS/portable/GCC/ARM_CA9_RZA2M/freertos_tick_config.c ****         s_runtime_stats_timer_handle = open(R_FREERTOS_RUNTIME_STATS_OSTM_RESOURCE, O_RDWR);
 203              		.loc 1 111 9 is_stmt 1 view .LVU39
 204              		.loc 1 111 40 is_stmt 0 view .LVU40
 205 0018 0210A0E3 		mov	r1, #2
 206 001c 000000E3 		movw	r0, #:lower16:.LC2
 207 0020 000040E3 		movt	r0, #:upper16:.LC2
 208 0024 FEFFFFEB 		bl	open
 209              	.LVL5:
 210              		.loc 1 111 38 view .LVU41
 211 0028 003000E3 		movw	r3, #:lower16:.LANCHOR1
 212 002c 003040E3 		movt	r3, #:upper16:.LANCHOR1
 213 0030 000083E5 		str	r0, [r3]
 112:../src/FreeRTOS/portable/GCC/ARM_CA9_RZA2M/freertos_tick_config.c **** 
 113:../src/FreeRTOS/portable/GCC/ARM_CA9_RZA2M/freertos_tick_config.c ****         if (( -1) == s_runtime_stats_timer_handle)
 214              		.loc 1 113 9 is_stmt 1 view .LVU42
 215              		.loc 1 113 12 is_stmt 0 view .LVU43
 216 0034 010070E3 		cmn	r0, #1
 217 0038 0300000A 		beq	.L22
 114:../src/FreeRTOS/portable/GCC/ARM_CA9_RZA2M/freertos_tick_config.c ****         {
 115:../src/FreeRTOS/portable/GCC/ARM_CA9_RZA2M/freertos_tick_config.c ****             R_OS_AssertCalled( __FILE__, __LINE__);
 116:../src/FreeRTOS/portable/GCC/ARM_CA9_RZA2M/freertos_tick_config.c ****         }
 117:../src/FreeRTOS/portable/GCC/ARM_CA9_RZA2M/freertos_tick_config.c ****         else
 118:../src/FreeRTOS/portable/GCC/ARM_CA9_RZA2M/freertos_tick_config.c ****         {
 119:../src/FreeRTOS/portable/GCC/ARM_CA9_RZA2M/freertos_tick_config.c ****             control(s_runtime_stats_timer_handle, CTRL_OSTM_START_TIMER, NULL);
 218              		.loc 1 119 13 is_stmt 1 view .LVU44
 219 003c 0020A0E3 		mov	r2, #0
 220 0040 0210A0E1 		mov	r1, r2
 221 0044 FEFFFFEB 		bl	control
 222              	.LVL6:
 120:../src/FreeRTOS/portable/GCC/ARM_CA9_RZA2M/freertos_tick_config.c ****         }
 121:../src/FreeRTOS/portable/GCC/ARM_CA9_RZA2M/freertos_tick_config.c ****     }
 122:../src/FreeRTOS/portable/GCC/ARM_CA9_RZA2M/freertos_tick_config.c **** }
 223              		.loc 1 122 1 is_stmt 0 view .LVU45
 224 0048 1080BDE8 		pop	{r4, pc}
 225              	.L22:
 115:../src/FreeRTOS/portable/GCC/ARM_CA9_RZA2M/freertos_tick_config.c ****         }
 226              		.loc 1 115 13 is_stmt 1 view .LVU46
 227 004c 7310A0E3 		mov	r1, #115
 228 0050 000000E3 		movw	r0, #:lower16:.LC1
 229 0054 000040E3 		movt	r0, #:upper16:.LC1
 230 0058 FEFFFFEB 		bl	R_OS_AssertCalled
 231              	.LVL7:
 232 005c 1080BDE8 		pop	{r4, pc}
 233              		.cfi_endproc
 234              	.LFE8:
 236              		.section	.bss.ulLastCounterValue.71406,"aw",%nobits
 237              		.align	2
 238              		.set	.LANCHOR2,. + 0
 241              	ulLastCounterValue.71406:
 242 0000 00000000 		.space	4
 243              		.section	.bss.ulOverflows.71407,"aw",%nobits
 244              		.align	2
 245              		.set	.LANCHOR3,. + 0
 248              	ulOverflows.71407:
 249 0000 00000000 		.space	4
 250              		.section	.data.s_runtime_stats_timer_handle,"aw"
 251              		.align	2
 252              		.set	.LANCHOR1,. + 0
 255              	s_runtime_stats_timer_handle:
 256 0000 FFFFFFFF 		.word	-1
 257              		.section	.data.s_tick_timer_handle,"aw"
 258              		.align	2
 259              		.set	.LANCHOR0,. + 0
 262              	s_tick_timer_handle:
 263 0000 FFFFFFFF 		.word	-1
 264              		.text
 265              	.Letext0:
 266              		.file 2 "c:\\program files (x86)\\gnu arm embedded toolchain\\9 2020-q2-update\\arm-none-eabi\\inc
 267              		.file 3 "c:\\program files (x86)\\gnu arm embedded toolchain\\9 2020-q2-update\\arm-none-eabi\\inc
 268              		.file 4 "c:\\program files (x86)\\gnu arm embedded toolchain\\9 2020-q2-update\\lib\\gcc\\arm-none
 269              		.file 5 "c:\\program files (x86)\\gnu arm embedded toolchain\\9 2020-q2-update\\arm-none-eabi\\inc
 270              		.file 6 "c:\\program files (x86)\\gnu arm embedded toolchain\\9 2020-q2-update\\arm-none-eabi\\inc
 271              		.file 7 "c:\\program files (x86)\\gnu arm embedded toolchain\\9 2020-q2-update\\arm-none-eabi\\inc
 272              		.file 8 "c:\\program files (x86)\\gnu arm embedded toolchain\\9 2020-q2-update\\arm-none-eabi\\inc
 273              		.file 9 "C:/Users/ryota/e2_studio/workspace/rza2m_ssif_sample_freertos_gcc/generate/system/inc/r_t
 274              		.file 10 "C:/Users/ryota/e2_studio/workspace/rza2m_ssif_sample_freertos_gcc/generate/system/inc/dr
 275              		.file 11 "C:/Users/ryota/e2_studio/workspace/rza2m_ssif_sample_freertos_gcc/generate/os_abstractio
 276              		.file 12 "c:\\program files (x86)\\gnu arm embedded toolchain\\9 2020-q2-update\\arm-none-eabi\\in
 277              		.file 13 "c:\\program files (x86)\\gnu arm embedded toolchain\\9 2020-q2-update\\arm-none-eabi\\in
 278              		.file 14 "C:/Users/ryota/e2_studio/workspace/rza2m_ssif_sample_freertos_gcc/generate/drivers/r_int
 279              		.file 15 "C:/Users/ryota/e2_studio/workspace/rza2m_ssif_sample_freertos_gcc/generate/sc_drivers/r_
 280              		.file 16 "c:\\program files (x86)\\gnu arm embedded toolchain\\9 2020-q2-update\\arm-none-eabi\\in
 281              		.file 17 "C:/Users/ryota/e2_studio/workspace/rza2m_ssif_sample_freertos_gcc/generate/system/inc/r_
 282              		.file 18 "C:/Users/ryota/e2_studio/workspace/rza2m_ssif_sample_freertos_gcc/generate/os_abstractio