   1              		.cpu cortex-a9
   2              		.eabi_attribute 28, 1
   3              		.eabi_attribute 20, 1
   4              		.eabi_attribute 21, 1
   5              		.eabi_attribute 23, 3
   6              		.eabi_attribute 24, 1
   7              		.eabi_attribute 25, 1
   8              		.eabi_attribute 26, 1
   9              		.eabi_attribute 30, 1
  10              		.eabi_attribute 34, 0
  11              		.eabi_attribute 18, 4
  12              		.file	"r_riic_hld_prv.c"
  13              		.text
  14              	.Ltext0:
  15              		.cfi_sections	.debug_frame
  16              		.section	.text.get_timeout_status,"ax",%progbits
  17              		.align	2
  18              		.arch armv7-a
  19              		.arch_extension mp
  20              		.arch_extension sec
  21              		.syntax unified
  22              		.arm
  23              		.fpu neon
  25              	get_timeout_status:
  26              	.LVL0:
  27              	.LFB23:
  28              		.file 1 "../generate/sc_drivers/r_riic/src/hld/r_riic_hld_prv.c"
   1:../generate/sc_drivers/r_riic/src/hld/r_riic_hld_prv.c **** /******************************************************************************
   2:../generate/sc_drivers/r_riic/src/hld/r_riic_hld_prv.c ****  * DISCLAIMER
   3:../generate/sc_drivers/r_riic/src/hld/r_riic_hld_prv.c ****  * This software is supplied by Renesas Electronics Corporation and is only
   4:../generate/sc_drivers/r_riic/src/hld/r_riic_hld_prv.c ****  * intended for use with Renesas products. No other uses are authorized. This
   5:../generate/sc_drivers/r_riic/src/hld/r_riic_hld_prv.c ****  * software is owned by Renesas Electronics Corporation and is protected under
   6:../generate/sc_drivers/r_riic/src/hld/r_riic_hld_prv.c ****  * all applicable laws, including copyright laws.
   7:../generate/sc_drivers/r_riic/src/hld/r_riic_hld_prv.c ****  * THIS SOFTWARE IS PROVIDED "AS IS" AND RENESAS MAKES NO WARRANTIES REGARDING
   8:../generate/sc_drivers/r_riic/src/hld/r_riic_hld_prv.c ****  * THIS SOFTWARE, WHETHER EXPRESS, IMPLIED OR STATUTORY, INCLUDING BUT NOT
   9:../generate/sc_drivers/r_riic/src/hld/r_riic_hld_prv.c ****  * LIMITED TO WARRANTIES OF MERCHANTABILITY, FITNESS FOR A PARTICULAR PURPOSE
  10:../generate/sc_drivers/r_riic/src/hld/r_riic_hld_prv.c ****  * AND NON-INFRINGEMENT. ALL SUCH WARRANTIES ARE EXPRESSLY DISCLAIMED.
  11:../generate/sc_drivers/r_riic/src/hld/r_riic_hld_prv.c ****  * TO THE MAXIMUM EXTENT PERMITTED NOT PROHIBITED BY LAW, NEITHER RENESAS
  12:../generate/sc_drivers/r_riic/src/hld/r_riic_hld_prv.c ****  * ELECTRONICS CORPORATION NOR ANY OF ITS AFFILIATED COMPANIES SHALL BE LIABLE
  13:../generate/sc_drivers/r_riic/src/hld/r_riic_hld_prv.c ****  * FOR ANY DIRECT, INDIRECT, SPECIAL, INCIDENTAL OR CONSEQUENTIAL DAMAGES FOR
  14:../generate/sc_drivers/r_riic/src/hld/r_riic_hld_prv.c ****  * ANY REASON RELATED TO THIS SOFTWARE, EVEN IF RENESAS OR ITS AFFILIATES HAVE
  15:../generate/sc_drivers/r_riic/src/hld/r_riic_hld_prv.c ****  * BEEN ADVISED OF THE POSSIBILITY OF SUCH DAMAGES.
  16:../generate/sc_drivers/r_riic/src/hld/r_riic_hld_prv.c ****  * Renesas reserves the right, without notice, to make changes to this software
  17:../generate/sc_drivers/r_riic/src/hld/r_riic_hld_prv.c ****  * and to discontinue the availability of this software. By using this
  18:../generate/sc_drivers/r_riic/src/hld/r_riic_hld_prv.c ****  * software, you agree to the additional terms and conditions found by
  19:../generate/sc_drivers/r_riic/src/hld/r_riic_hld_prv.c ****  * accessing the following link:
  20:../generate/sc_drivers/r_riic/src/hld/r_riic_hld_prv.c ****  * http://www.renesas.com/disclaimer
  21:../generate/sc_drivers/r_riic/src/hld/r_riic_hld_prv.c ****  * Copyright (C) 2019 Renesas Electronics Corporation. All rights reserved.
  22:../generate/sc_drivers/r_riic/src/hld/r_riic_hld_prv.c ****  *****************************************************************************/
  23:../generate/sc_drivers/r_riic/src/hld/r_riic_hld_prv.c **** /******************************************************************************
  24:../generate/sc_drivers/r_riic/src/hld/r_riic_hld_prv.c ****  * File Name    : r_riic_hld_prv.c
  25:../generate/sc_drivers/r_riic/src/hld/r_riic_hld_prv.c ****  * Version      : See History
  26:../generate/sc_drivers/r_riic/src/hld/r_riic_hld_prv.c ****  * Description  : I2C high level device driver private file
  27:../generate/sc_drivers/r_riic/src/hld/r_riic_hld_prv.c ****  ******************************************************************************
  28:../generate/sc_drivers/r_riic/src/hld/r_riic_hld_prv.c ****  * History      : DD.MM.YYYY Version Description
  29:../generate/sc_drivers/r_riic/src/hld/r_riic_hld_prv.c ****  *              : 06.02.2018 1.00    First Release
  30:../generate/sc_drivers/r_riic/src/hld/r_riic_hld_prv.c ****  *****************************************************************************/
  31:../generate/sc_drivers/r_riic/src/hld/r_riic_hld_prv.c **** 
  32:../generate/sc_drivers/r_riic/src/hld/r_riic_hld_prv.c **** /******************************************************************************
  33:../generate/sc_drivers/r_riic/src/hld/r_riic_hld_prv.c ****  Includes   <System Includes> , "Project Includes"
  34:../generate/sc_drivers/r_riic/src/hld/r_riic_hld_prv.c ****  ******************************************************************************/
  35:../generate/sc_drivers/r_riic/src/hld/r_riic_hld_prv.c **** 
  36:../generate/sc_drivers/r_riic/src/hld/r_riic_hld_prv.c **** #include "driver.h"            /* Device Driver common header */
  37:../generate/sc_drivers/r_riic/src/hld/r_riic_hld_prv.c **** #include "r_riic_hld_prv.h"     /* RIIC High level Driver Header */
  38:../generate/sc_drivers/r_riic/src/hld/r_riic_hld_prv.c **** #include "r_riic_drv_api.h"
  39:../generate/sc_drivers/r_riic/src/hld/r_riic_hld_prv.c **** #include "r_riic_hld_api.h"     /* defines and lld include */
  40:../generate/sc_drivers/r_riic/src/hld/r_riic_hld_prv.c **** #include "r_riic_drv_link.h"    /* Link include to low level driver */
  41:../generate/sc_drivers/r_riic/src/hld/r_riic_hld_prv.c **** #include "r_gpio_drv_api.h"
  42:../generate/sc_drivers/r_riic/src/hld/r_riic_hld_prv.c **** 
  43:../generate/sc_drivers/r_riic/src/hld/r_riic_hld_prv.c **** /*******************************************************************************
  44:../generate/sc_drivers/r_riic/src/hld/r_riic_hld_prv.c ****  Macro definitions
  45:../generate/sc_drivers/r_riic/src/hld/r_riic_hld_prv.c ****  *******************************************************************************/
  46:../generate/sc_drivers/r_riic/src/hld/r_riic_hld_prv.c **** /* IIC data read/write bit position */
  47:../generate/sc_drivers/r_riic/src/hld/r_riic_hld_prv.c **** #define SAMPLE_RIIC_RWCODE_PRV_        (0x01)
  48:../generate/sc_drivers/r_riic/src/hld/r_riic_hld_prv.c **** 
  49:../generate/sc_drivers/r_riic/src/hld/r_riic_hld_prv.c **** /* defines for channel enable status */
  50:../generate/sc_drivers/r_riic/src/hld/r_riic_hld_prv.c **** #define CHANNEL_ENABLED_PRV_    (1)
  51:../generate/sc_drivers/r_riic/src/hld/r_riic_hld_prv.c **** #define CHANNEL_DISABLED_PRV_   (0)
  52:../generate/sc_drivers/r_riic/src/hld/r_riic_hld_prv.c **** 
  53:../generate/sc_drivers/r_riic/src/hld/r_riic_hld_prv.c **** #define DRV_FLAG_OFF_PRV_ (0)
  54:../generate/sc_drivers/r_riic/src/hld/r_riic_hld_prv.c **** #define DRV_FLAG_ON_PRV_ (1)
  55:../generate/sc_drivers/r_riic/src/hld/r_riic_hld_prv.c **** 
  56:../generate/sc_drivers/r_riic/src/hld/r_riic_hld_prv.c **** /* set define to 1 to enable software timeout on operations (as opposed to RIIC timeout function */
  57:../generate/sc_drivers/r_riic/src/hld/r_riic_hld_prv.c **** #define SW_TIMEOUT_ENABLED_PRV_  (0)
  58:../generate/sc_drivers/r_riic/src/hld/r_riic_hld_prv.c **** 
  59:../generate/sc_drivers/r_riic/src/hld/r_riic_hld_prv.c **** /******************************************************************************
  60:../generate/sc_drivers/r_riic/src/hld/r_riic_hld_prv.c ****  Typedef definitions
  61:../generate/sc_drivers/r_riic/src/hld/r_riic_hld_prv.c ****  ******************************************************************************/
  62:../generate/sc_drivers/r_riic/src/hld/r_riic_hld_prv.c **** typedef enum riic_rx_mode
  63:../generate/sc_drivers/r_riic/src/hld/r_riic_hld_prv.c **** {
  64:../generate/sc_drivers/r_riic/src/hld/r_riic_hld_prv.c ****     RIIC_RX_MODE_NORMAL, RIIC_RX_MODE_ACK, RIIC_RX_MODE_LOW_HOLD, RIIC_RX_MODE_NACK, RIIC_RX_MODE_S
  65:../generate/sc_drivers/r_riic/src/hld/r_riic_hld_prv.c **** } e_riic_rx_mode_t;
  66:../generate/sc_drivers/r_riic/src/hld/r_riic_hld_prv.c **** 
  67:../generate/sc_drivers/r_riic/src/hld/r_riic_hld_prv.c **** /******************************************************************************
  68:../generate/sc_drivers/r_riic/src/hld/r_riic_hld_prv.c ****  Private global variables and functions
  69:../generate/sc_drivers/r_riic/src/hld/r_riic_hld_prv.c ****  ******************************************************************************/
  70:../generate/sc_drivers/r_riic/src/hld/r_riic_hld_prv.c **** static int_t riic_single_write (int_t channel, uint8_t data, uint32_t mode);
  71:../generate/sc_drivers/r_riic/src/hld/r_riic_hld_prv.c **** static int_t riic_write (int_t channel, const uint8_t *pbuffer, uint32_t byte);
  72:../generate/sc_drivers/r_riic/src/hld/r_riic_hld_prv.c **** static int_t riic_read (int_t channel, uint8_t *pbuffer, uint32_t byte);
  73:../generate/sc_drivers/r_riic/src/hld/r_riic_hld_prv.c **** static int_t riic_receive (int_t channel, e_riic_rx_mode_t mode, uint8_t *pdata);
  74:../generate/sc_drivers/r_riic/src/hld/r_riic_hld_prv.c **** static int_t riic_transmit (int_t channel, uint8_t data);
  75:../generate/sc_drivers/r_riic/src/hld/r_riic_hld_prv.c **** static int_t transmit_start (int_t channel);
  76:../generate/sc_drivers/r_riic/src/hld/r_riic_hld_prv.c **** static int_t transmit_restart (int_t channel);
  77:../generate/sc_drivers/r_riic/src/hld/r_riic_hld_prv.c **** 
  78:../generate/sc_drivers/r_riic/src/hld/r_riic_hld_prv.c **** /* wait functions for completion of i2c operations */
  79:../generate/sc_drivers/r_riic/src/hld/r_riic_hld_prv.c **** static int_t wait_rx_full (int_t channel);
  80:../generate/sc_drivers/r_riic/src/hld/r_riic_hld_prv.c **** static int_t wait_tx_empty (int_t channel);
  81:../generate/sc_drivers/r_riic/src/hld/r_riic_hld_prv.c **** static int_t wait_tx_end (int_t channel, uint32_t mode);
  82:../generate/sc_drivers/r_riic/src/hld/r_riic_hld_prv.c **** static int_t wait_bus_master (int_t channel, uint32_t mode);
  83:../generate/sc_drivers/r_riic/src/hld/r_riic_hld_prv.c **** static int_t wait_stop (int_t channel);
  84:../generate/sc_drivers/r_riic/src/hld/r_riic_hld_prv.c **** 
  85:../generate/sc_drivers/r_riic/src/hld/r_riic_hld_prv.c **** /* timeout monitoring */
  86:../generate/sc_drivers/r_riic/src/hld/r_riic_hld_prv.c **** static void start_timeout_monitor (int_t channel);
  87:../generate/sc_drivers/r_riic/src/hld/r_riic_hld_prv.c **** static void stop_timeout_monitor (int_t channel);
  88:../generate/sc_drivers/r_riic/src/hld/r_riic_hld_prv.c **** static int_t get_timeout_status (int_t channel);
  89:../generate/sc_drivers/r_riic/src/hld/r_riic_hld_prv.c **** 
  90:../generate/sc_drivers/r_riic/src/hld/r_riic_hld_prv.c **** #if (1u == SW_TIMEOUT_ENABLED_PRV_)
  91:../generate/sc_drivers/r_riic/src/hld/r_riic_hld_prv.c **** static uint32_t gs_sw_timeout_counter = ICC_MAX_TIMEOUT;
  92:../generate/sc_drivers/r_riic/src/hld/r_riic_hld_prv.c **** #endif /* (1u == SW_TIMEOUT_ENABLED_PRV_) */
  93:../generate/sc_drivers/r_riic/src/hld/r_riic_hld_prv.c **** 
  94:../generate/sc_drivers/r_riic/src/hld/r_riic_hld_prv.c **** /* static array variable holding initialisation status of each low level channel */
  95:../generate/sc_drivers/r_riic/src/hld/r_riic_hld_prv.c **** static int_t gs_channel_initialise_state[RIIC_CFG_LLD_NUM_CHANNELS];
  96:../generate/sc_drivers/r_riic/src/hld/r_riic_hld_prv.c **** 
  97:../generate/sc_drivers/r_riic/src/hld/r_riic_hld_prv.c **** /* static variable holding overall initialisation status of all i2c channels */
  98:../generate/sc_drivers/r_riic/src/hld/r_riic_hld_prv.c **** static int_t gs_overall_initialise_state = 0u;
  99:../generate/sc_drivers/r_riic/src/hld/r_riic_hld_prv.c **** 
 100:../generate/sc_drivers/r_riic/src/hld/r_riic_hld_prv.c **** /* static array variables holding flag statuses for each channel */
 101:../generate/sc_drivers/r_riic/src/hld/r_riic_hld_prv.c **** static volatile uint8_t gs_riic_receive_full_flg[RIIC_CFG_LLD_NUM_CHANNELS];
 102:../generate/sc_drivers/r_riic/src/hld/r_riic_hld_prv.c **** static volatile uint8_t gs_riic_transmit_empty_flg[RIIC_CFG_LLD_NUM_CHANNELS];
 103:../generate/sc_drivers/r_riic/src/hld/r_riic_hld_prv.c **** static volatile uint8_t gs_riic_transmit_end_flg[RIIC_CFG_LLD_NUM_CHANNELS];
 104:../generate/sc_drivers/r_riic/src/hld/r_riic_hld_prv.c **** static volatile uint8_t gs_riic_stop_flg[RIIC_CFG_LLD_NUM_CHANNELS];
 105:../generate/sc_drivers/r_riic/src/hld/r_riic_hld_prv.c **** static volatile uint8_t gs_riic_start_flg[RIIC_CFG_LLD_NUM_CHANNELS];
 106:../generate/sc_drivers/r_riic/src/hld/r_riic_hld_prv.c **** static volatile uint8_t gs_riic_nack_flg[RIIC_CFG_LLD_NUM_CHANNELS];
 107:../generate/sc_drivers/r_riic/src/hld/r_riic_hld_prv.c **** static volatile uint8_t gs_riic_arbitration_flg[RIIC_CFG_LLD_NUM_CHANNELS];
 108:../generate/sc_drivers/r_riic/src/hld/r_riic_hld_prv.c **** static volatile uint8_t gs_riic_timeout_flg[RIIC_CFG_LLD_NUM_CHANNELS];
 109:../generate/sc_drivers/r_riic/src/hld/r_riic_hld_prv.c **** 
 110:../generate/sc_drivers/r_riic/src/hld/r_riic_hld_prv.c **** /**
 111:../generate/sc_drivers/r_riic/src/hld/r_riic_hld_prv.c ****  * @brief riic_setup set up the RIIC driver GPIO Pins
 112:../generate/sc_drivers/r_riic/src/hld/r_riic_hld_prv.c ****  *
 113:../generate/sc_drivers/r_riic/src/hld/r_riic_hld_prv.c ****  * @param[in] p_config Pointer to configuration struct.
 114:../generate/sc_drivers/r_riic/src/hld/r_riic_hld_prv.c ****  *
 115:../generate/sc_drivers/r_riic/src/hld/r_riic_hld_prv.c ****  * @param[in] p_config Channel to setup.
 116:../generate/sc_drivers/r_riic/src/hld/r_riic_hld_prv.c ****  *
 117:../generate/sc_drivers/r_riic/src/hld/r_riic_hld_prv.c ****  * @retval 0  Success
 118:../generate/sc_drivers/r_riic/src/hld/r_riic_hld_prv.c ****  */
 119:../generate/sc_drivers/r_riic/src/hld/r_riic_hld_prv.c **** static int_t riic_setup (const st_r_drv_riic_sc_config_t *p_config)
 120:../generate/sc_drivers/r_riic/src/hld/r_riic_hld_prv.c **** {
 121:../generate/sc_drivers/r_riic/src/hld/r_riic_hld_prv.c ****     int_t gpio_handle = ( -1);
 122:../generate/sc_drivers/r_riic/src/hld/r_riic_hld_prv.c ****     gpio_handle = direct_open("gpio", 0);
 123:../generate/sc_drivers/r_riic/src/hld/r_riic_hld_prv.c **** 
 124:../generate/sc_drivers/r_riic/src/hld/r_riic_hld_prv.c ****     if (( -1) != gpio_handle)
 125:../generate/sc_drivers/r_riic/src/hld/r_riic_hld_prv.c ****     {
 126:../generate/sc_drivers/r_riic/src/hld/r_riic_hld_prv.c ****         /* direct_control as direct_control assumes parameter 3 is i/o, but using the parameter in 
 127:../generate/sc_drivers/r_riic/src/hld/r_riic_hld_prv.c ****         direct_control(gpio_handle, CTL_GPIO_INIT_BY_TABLE, (st_r_drv_riic_sc_config_t *) &p_config
 128:../generate/sc_drivers/r_riic/src/hld/r_riic_hld_prv.c ****         direct_close(gpio_handle);
 129:../generate/sc_drivers/r_riic/src/hld/r_riic_hld_prv.c ****     }
 130:../generate/sc_drivers/r_riic/src/hld/r_riic_hld_prv.c **** 
 131:../generate/sc_drivers/r_riic/src/hld/r_riic_hld_prv.c ****     return (DRV_SUCCESS);
 132:../generate/sc_drivers/r_riic/src/hld/r_riic_hld_prv.c **** }
 133:../generate/sc_drivers/r_riic/src/hld/r_riic_hld_prv.c **** /******************************************************************************
 134:../generate/sc_drivers/r_riic/src/hld/r_riic_hld_prv.c ****  * End of Function riic_setup
 135:../generate/sc_drivers/r_riic/src/hld/r_riic_hld_prv.c ****  ******************************************************************************/
 136:../generate/sc_drivers/r_riic/src/hld/r_riic_hld_prv.c **** 
 137:../generate/sc_drivers/r_riic/src/hld/r_riic_hld_prv.c **** /**
 138:../generate/sc_drivers/r_riic/src/hld/r_riic_hld_prv.c ****  * @brief open the specified i2c peripheral channel
 139:../generate/sc_drivers/r_riic/src/hld/r_riic_hld_prv.c ****  * @param[in] channel : the device specific channel number (< RIIC_CFG_LLD_NUM_CHANNELS)
 140:../generate/sc_drivers/r_riic/src/hld/r_riic_hld_prv.c ****  * @return    DRV_SUCCESS       : Success of RIIC operation
 141:../generate/sc_drivers/r_riic/src/hld/r_riic_hld_prv.c ****  *            DRV_ERROR         : Failure of RIIC operation
 142:../generate/sc_drivers/r_riic/src/hld/r_riic_hld_prv.c ****  *            DRV_ERROR : IIC operation timed out
 143:../generate/sc_drivers/r_riic/src/hld/r_riic_hld_prv.c ****  **/
 144:../generate/sc_drivers/r_riic/src/hld/r_riic_hld_prv.c **** int_t open_channel (int_t channel)
 145:../generate/sc_drivers/r_riic/src/hld/r_riic_hld_prv.c **** {
 146:../generate/sc_drivers/r_riic/src/hld/r_riic_hld_prv.c ****     int_t retval = DRV_ERROR;
 147:../generate/sc_drivers/r_riic/src/hld/r_riic_hld_prv.c ****     int_t sc_index = 0;
 148:../generate/sc_drivers/r_riic/src/hld/r_riic_hld_prv.c ****     int_t sc_loop = 0;
 149:../generate/sc_drivers/r_riic/src/hld/r_riic_hld_prv.c ****     int_t sc_table_size = (sizeof(RIIC_SC_TABLE)) / (sizeof(st_r_drv_riic_sc_config_t));
 150:../generate/sc_drivers/r_riic/src/hld/r_riic_hld_prv.c **** 
 151:../generate/sc_drivers/r_riic/src/hld/r_riic_hld_prv.c ****     for (sc_index = 0; (sc_loop < sc_table_size); sc_loop++)
 152:../generate/sc_drivers/r_riic/src/hld/r_riic_hld_prv.c ****     {
 153:../generate/sc_drivers/r_riic/src/hld/r_riic_hld_prv.c ****         if (RIIC_SC_TABLE[sc_loop].channel == channel)
 154:../generate/sc_drivers/r_riic/src/hld/r_riic_hld_prv.c ****         {
 155:../generate/sc_drivers/r_riic/src/hld/r_riic_hld_prv.c ****             sc_index = sc_loop;
 156:../generate/sc_drivers/r_riic/src/hld/r_riic_hld_prv.c ****             retval = DRV_SUCCESS;
 157:../generate/sc_drivers/r_riic/src/hld/r_riic_hld_prv.c ****         }
 158:../generate/sc_drivers/r_riic/src/hld/r_riic_hld_prv.c ****     }
 159:../generate/sc_drivers/r_riic/src/hld/r_riic_hld_prv.c **** 
 160:../generate/sc_drivers/r_riic/src/hld/r_riic_hld_prv.c ****     if (DRV_SUCCESS == retval)
 161:../generate/sc_drivers/r_riic/src/hld/r_riic_hld_prv.c ****     {
 162:../generate/sc_drivers/r_riic/src/hld/r_riic_hld_prv.c ****         /* configure channel */
 163:../generate/sc_drivers/r_riic/src/hld/r_riic_hld_prv.c ****         retval = riic_setup( &(RIIC_SC_TABLE[sc_index]));
 164:../generate/sc_drivers/r_riic/src/hld/r_riic_hld_prv.c **** 
 165:../generate/sc_drivers/r_riic/src/hld/r_riic_hld_prv.c ****         /* Initialise flags */
 166:../generate/sc_drivers/r_riic/src/hld/r_riic_hld_prv.c ****         gs_riic_receive_full_flg[channel] = DRV_FLAG_OFF_PRV_;
 167:../generate/sc_drivers/r_riic/src/hld/r_riic_hld_prv.c ****         gs_riic_transmit_empty_flg[channel] = DRV_FLAG_OFF_PRV_;
 168:../generate/sc_drivers/r_riic/src/hld/r_riic_hld_prv.c ****         gs_riic_transmit_end_flg[channel] = DRV_FLAG_OFF_PRV_;
 169:../generate/sc_drivers/r_riic/src/hld/r_riic_hld_prv.c ****         gs_riic_stop_flg[channel] = DRV_FLAG_OFF_PRV_;
 170:../generate/sc_drivers/r_riic/src/hld/r_riic_hld_prv.c ****         gs_riic_start_flg[channel] = DRV_FLAG_OFF_PRV_;
 171:../generate/sc_drivers/r_riic/src/hld/r_riic_hld_prv.c ****         gs_riic_nack_flg[channel] = DRV_FLAG_OFF_PRV_;
 172:../generate/sc_drivers/r_riic/src/hld/r_riic_hld_prv.c ****         gs_riic_arbitration_flg[channel] = DRV_FLAG_OFF_PRV_;
 173:../generate/sc_drivers/r_riic/src/hld/r_riic_hld_prv.c ****         gs_riic_timeout_flg[channel] = DRV_FLAG_OFF_PRV_;
 174:../generate/sc_drivers/r_riic/src/hld/r_riic_hld_prv.c ****     }
 175:../generate/sc_drivers/r_riic/src/hld/r_riic_hld_prv.c **** 
 176:../generate/sc_drivers/r_riic/src/hld/r_riic_hld_prv.c ****     /* return status */
 177:../generate/sc_drivers/r_riic/src/hld/r_riic_hld_prv.c ****     return (retval);
 178:../generate/sc_drivers/r_riic/src/hld/r_riic_hld_prv.c **** }
 179:../generate/sc_drivers/r_riic/src/hld/r_riic_hld_prv.c **** /*******************************************************************************
 180:../generate/sc_drivers/r_riic/src/hld/r_riic_hld_prv.c ****  End of function open_channel
 181:../generate/sc_drivers/r_riic/src/hld/r_riic_hld_prv.c ****  ******************************************************************************/
 182:../generate/sc_drivers/r_riic/src/hld/r_riic_hld_prv.c **** 
 183:../generate/sc_drivers/r_riic/src/hld/r_riic_hld_prv.c **** /**
 184:../generate/sc_drivers/r_riic/src/hld/r_riic_hld_prv.c ****  * @brief Close the specified i2c channel
 185:../generate/sc_drivers/r_riic/src/hld/r_riic_hld_prv.c ****  * @param[in] channel : the device specific channel number (< RIIC_CFG_LLD_NUM_CHANNELS)
 186:../generate/sc_drivers/r_riic/src/hld/r_riic_hld_prv.c ****  **/
 187:../generate/sc_drivers/r_riic/src/hld/r_riic_hld_prv.c **** void close_channel (int_t channel)
 188:../generate/sc_drivers/r_riic/src/hld/r_riic_hld_prv.c **** {
 189:../generate/sc_drivers/r_riic/src/hld/r_riic_hld_prv.c ****     uint32_t loop;
 190:../generate/sc_drivers/r_riic/src/hld/r_riic_hld_prv.c ****     uint32_t count = 0u;
 191:../generate/sc_drivers/r_riic/src/hld/r_riic_hld_prv.c **** 
 192:../generate/sc_drivers/r_riic/src/hld/r_riic_hld_prv.c ****     /* ensure that channel is valid */
 193:../generate/sc_drivers/r_riic/src/hld/r_riic_hld_prv.c ****     int_t ret = validate_channel(channel);
 194:../generate/sc_drivers/r_riic/src/hld/r_riic_hld_prv.c **** 
 195:../generate/sc_drivers/r_riic/src/hld/r_riic_hld_prv.c ****     if (DRV_SUCCESS == ret)
 196:../generate/sc_drivers/r_riic/src/hld/r_riic_hld_prv.c ****     {
 197:../generate/sc_drivers/r_riic/src/hld/r_riic_hld_prv.c ****         /* mark channel as un-initialised */
 198:../generate/sc_drivers/r_riic/src/hld/r_riic_hld_prv.c ****         gs_channel_initialise_state[channel] = CHANNEL_DISABLED_PRV_;
 199:../generate/sc_drivers/r_riic/src/hld/r_riic_hld_prv.c **** 
 200:../generate/sc_drivers/r_riic/src/hld/r_riic_hld_prv.c ****         /* call to low level driver to turn channel off */
 201:../generate/sc_drivers/r_riic/src/hld/r_riic_hld_prv.c ****         R_RIIC_CloseChannel(channel);
 202:../generate/sc_drivers/r_riic/src/hld/r_riic_hld_prv.c **** 
 203:../generate/sc_drivers/r_riic/src/hld/r_riic_hld_prv.c ****         /* test if any channels are still active */
 204:../generate/sc_drivers/r_riic/src/hld/r_riic_hld_prv.c ****         for (loop = 0; loop < RIIC_CFG_LLD_NUM_CHANNELS; loop++)
 205:../generate/sc_drivers/r_riic/src/hld/r_riic_hld_prv.c ****         {
 206:../generate/sc_drivers/r_riic/src/hld/r_riic_hld_prv.c ****             if (CHANNEL_DISABLED_PRV_ != gs_channel_initialise_state[loop])
 207:../generate/sc_drivers/r_riic/src/hld/r_riic_hld_prv.c ****             {
 208:../generate/sc_drivers/r_riic/src/hld/r_riic_hld_prv.c ****                 count++;
 209:../generate/sc_drivers/r_riic/src/hld/r_riic_hld_prv.c ****             }
 210:../generate/sc_drivers/r_riic/src/hld/r_riic_hld_prv.c ****         }
 211:../generate/sc_drivers/r_riic/src/hld/r_riic_hld_prv.c **** 
 212:../generate/sc_drivers/r_riic/src/hld/r_riic_hld_prv.c ****         /* If no channels are open, set the overall initialisation as zero */
 213:../generate/sc_drivers/r_riic/src/hld/r_riic_hld_prv.c ****         if (0u == count)
 214:../generate/sc_drivers/r_riic/src/hld/r_riic_hld_prv.c ****         {
 215:../generate/sc_drivers/r_riic/src/hld/r_riic_hld_prv.c ****             gs_overall_initialise_state = CHANNEL_DISABLED_PRV_;
 216:../generate/sc_drivers/r_riic/src/hld/r_riic_hld_prv.c ****         }
 217:../generate/sc_drivers/r_riic/src/hld/r_riic_hld_prv.c ****     }
 218:../generate/sc_drivers/r_riic/src/hld/r_riic_hld_prv.c **** }
 219:../generate/sc_drivers/r_riic/src/hld/r_riic_hld_prv.c **** /*******************************************************************************
 220:../generate/sc_drivers/r_riic/src/hld/r_riic_hld_prv.c ****  End of function close_channel
 221:../generate/sc_drivers/r_riic/src/hld/r_riic_hld_prv.c ****  ******************************************************************************/
 222:../generate/sc_drivers/r_riic/src/hld/r_riic_hld_prv.c **** 
 223:../generate/sc_drivers/r_riic/src/hld/r_riic_hld_prv.c **** /**
 224:../generate/sc_drivers/r_riic/src/hld/r_riic_hld_prv.c ****  * @brief Writes 1 byte only of data to specified I2c channel
 225:../generate/sc_drivers/r_riic/src/hld/r_riic_hld_prv.c ****  * @param[in] channel : the device specific channel number (< RIIC_CFG_LLD_NUM_CHANNELS)
 226:../generate/sc_drivers/r_riic/src/hld/r_riic_hld_prv.c ****  * @param[in] data    : data byte
 227:../generate/sc_drivers/r_riic/src/hld/r_riic_hld_prv.c ****  * @param[in] mode    : RIIC_TEND_WAIT_TRANSMIT : Transmission Mode
 228:../generate/sc_drivers/r_riic/src/hld/r_riic_hld_prv.c ****  *                    : RIIC_TEND_WAIT_RECEIVE  : Receive Mode
 229:../generate/sc_drivers/r_riic/src/hld/r_riic_hld_prv.c ****  * @return    DRV_SUCCESS         : Success of RIIC operation
 230:../generate/sc_drivers/r_riic/src/hld/r_riic_hld_prv.c ****  *            DRV_ERROR           : Failure of RIIC operation
 231:../generate/sc_drivers/r_riic/src/hld/r_riic_hld_prv.c ****  *            DRV_ERROR   : RIIC operation timed out
 232:../generate/sc_drivers/r_riic/src/hld/r_riic_hld_prv.c ****  **/
 233:../generate/sc_drivers/r_riic/src/hld/r_riic_hld_prv.c **** static int_t riic_single_write (int_t channel, uint8_t data, uint32_t mode)
 234:../generate/sc_drivers/r_riic/src/hld/r_riic_hld_prv.c **** {
 235:../generate/sc_drivers/r_riic/src/hld/r_riic_hld_prv.c ****     int_t ret;
 236:../generate/sc_drivers/r_riic/src/hld/r_riic_hld_prv.c **** 
 237:../generate/sc_drivers/r_riic/src/hld/r_riic_hld_prv.c ****     /* Write single byte */
 238:../generate/sc_drivers/r_riic/src/hld/r_riic_hld_prv.c ****     ret = riic_transmit(channel, data);
 239:../generate/sc_drivers/r_riic/src/hld/r_riic_hld_prv.c **** 
 240:../generate/sc_drivers/r_riic/src/hld/r_riic_hld_prv.c ****     if (DRV_SUCCESS == ret)
 241:../generate/sc_drivers/r_riic/src/hld/r_riic_hld_prv.c ****     {
 242:../generate/sc_drivers/r_riic/src/hld/r_riic_hld_prv.c ****         /* wait for end of transmission */
 243:../generate/sc_drivers/r_riic/src/hld/r_riic_hld_prv.c ****         ret = wait_tx_end(channel, mode);
 244:../generate/sc_drivers/r_riic/src/hld/r_riic_hld_prv.c **** 
 245:../generate/sc_drivers/r_riic/src/hld/r_riic_hld_prv.c ****         if (DRV_SUCCESS == ret)
 246:../generate/sc_drivers/r_riic/src/hld/r_riic_hld_prv.c ****         {
 247:../generate/sc_drivers/r_riic/src/hld/r_riic_hld_prv.c ****             /* Check for transmission status */
 248:../generate/sc_drivers/r_riic/src/hld/r_riic_hld_prv.c ****             if (DRV_FLAG_OFF_PRV_ == gs_riic_nack_flg[channel])
 249:../generate/sc_drivers/r_riic/src/hld/r_riic_hld_prv.c ****             {
 250:../generate/sc_drivers/r_riic/src/hld/r_riic_hld_prv.c ****                 /* ACK */
 251:../generate/sc_drivers/r_riic/src/hld/r_riic_hld_prv.c ****                 ret = DRV_SUCCESS;
 252:../generate/sc_drivers/r_riic/src/hld/r_riic_hld_prv.c ****             }
 253:../generate/sc_drivers/r_riic/src/hld/r_riic_hld_prv.c ****             else
 254:../generate/sc_drivers/r_riic/src/hld/r_riic_hld_prv.c ****             {
 255:../generate/sc_drivers/r_riic/src/hld/r_riic_hld_prv.c ****                 /* NACK */
 256:../generate/sc_drivers/r_riic/src/hld/r_riic_hld_prv.c ****                 gs_riic_nack_flg[channel] = DRV_FLAG_OFF_PRV_;
 257:../generate/sc_drivers/r_riic/src/hld/r_riic_hld_prv.c ****                 ret = DRV_ERROR;
 258:../generate/sc_drivers/r_riic/src/hld/r_riic_hld_prv.c ****             }
 259:../generate/sc_drivers/r_riic/src/hld/r_riic_hld_prv.c ****         }
 260:../generate/sc_drivers/r_riic/src/hld/r_riic_hld_prv.c ****     }
 261:../generate/sc_drivers/r_riic/src/hld/r_riic_hld_prv.c **** 
 262:../generate/sc_drivers/r_riic/src/hld/r_riic_hld_prv.c ****     return (ret);
 263:../generate/sc_drivers/r_riic/src/hld/r_riic_hld_prv.c **** }
 264:../generate/sc_drivers/r_riic/src/hld/r_riic_hld_prv.c **** /******************************************************************************
 265:../generate/sc_drivers/r_riic/src/hld/r_riic_hld_prv.c ****  * End of Function riic_single_write
 266:../generate/sc_drivers/r_riic/src/hld/r_riic_hld_prv.c ****  ******************************************************************************/
 267:../generate/sc_drivers/r_riic/src/hld/r_riic_hld_prv.c **** 
 268:../generate/sc_drivers/r_riic/src/hld/r_riic_hld_prv.c **** /**
 269:../generate/sc_drivers/r_riic/src/hld/r_riic_hld_prv.c ****  * @brief Writes data to an already addressed device
 270:../generate/sc_drivers/r_riic/src/hld/r_riic_hld_prv.c ****  * @param[in] channel : the device specific channel number (< RIIC_CFG_LLD_NUM_CHANNELS)
 271:../generate/sc_drivers/r_riic/src/hld/r_riic_hld_prv.c ****  * @param[in] pbuffer : pointer to allocated space for data
 272:../generate/sc_drivers/r_riic/src/hld/r_riic_hld_prv.c ****  * @param[in] byte    : number of bytes to receive
 273:../generate/sc_drivers/r_riic/src/hld/r_riic_hld_prv.c ****  * @return    DRV_SUCCESS         : Success of RIIC operation
 274:../generate/sc_drivers/r_riic/src/hld/r_riic_hld_prv.c ****  *            DRV_ERROR           : Failure of RIIC operation
 275:../generate/sc_drivers/r_riic/src/hld/r_riic_hld_prv.c ****  *            DRV_ERROR_RIIC_NACK : Failure of RIIC transmission due to
 276:../generate/sc_drivers/r_riic/src/hld/r_riic_hld_prv.c ****  *                                     NACK reception
 277:../generate/sc_drivers/r_riic/src/hld/r_riic_hld_prv.c ****  *            DRV_ERROR   : RIIC operation timed out
 278:../generate/sc_drivers/r_riic/src/hld/r_riic_hld_prv.c ****  **/
 279:../generate/sc_drivers/r_riic/src/hld/r_riic_hld_prv.c **** static int_t riic_write (int_t channel, const uint8_t *pbuffer, uint32_t byte)
 280:../generate/sc_drivers/r_riic/src/hld/r_riic_hld_prv.c **** {
 281:../generate/sc_drivers/r_riic/src/hld/r_riic_hld_prv.c ****     uint32_t offset;
 282:../generate/sc_drivers/r_riic/src/hld/r_riic_hld_prv.c ****     int_t ret = DRV_SUCCESS;
 283:../generate/sc_drivers/r_riic/src/hld/r_riic_hld_prv.c **** 
 284:../generate/sc_drivers/r_riic/src/hld/r_riic_hld_prv.c ****     if (0 < byte)
 285:../generate/sc_drivers/r_riic/src/hld/r_riic_hld_prv.c ****     {
 286:../generate/sc_drivers/r_riic/src/hld/r_riic_hld_prv.c ****         for (offset = 0; offset < byte; offset++)
 287:../generate/sc_drivers/r_riic/src/hld/r_riic_hld_prv.c ****         {
 288:../generate/sc_drivers/r_riic/src/hld/r_riic_hld_prv.c ****             /* Single byte transmission */
 289:../generate/sc_drivers/r_riic/src/hld/r_riic_hld_prv.c ****             ret = riic_transmit(channel, *(pbuffer + offset));
 290:../generate/sc_drivers/r_riic/src/hld/r_riic_hld_prv.c **** 
 291:../generate/sc_drivers/r_riic/src/hld/r_riic_hld_prv.c ****             if (DRV_SUCCESS != ret)
 292:../generate/sc_drivers/r_riic/src/hld/r_riic_hld_prv.c ****             {
 293:../generate/sc_drivers/r_riic/src/hld/r_riic_hld_prv.c ****                 /* Exit the loop */
 294:../generate/sc_drivers/r_riic/src/hld/r_riic_hld_prv.c ****                 offset = byte;
 295:../generate/sc_drivers/r_riic/src/hld/r_riic_hld_prv.c ****             }
 296:../generate/sc_drivers/r_riic/src/hld/r_riic_hld_prv.c ****         }
 297:../generate/sc_drivers/r_riic/src/hld/r_riic_hld_prv.c **** 
 298:../generate/sc_drivers/r_riic/src/hld/r_riic_hld_prv.c ****         if (DRV_SUCCESS == ret)
 299:../generate/sc_drivers/r_riic/src/hld/r_riic_hld_prv.c ****         {
 300:../generate/sc_drivers/r_riic/src/hld/r_riic_hld_prv.c ****             ret = wait_tx_end(channel, RIIC_TEND_WAIT_TRANSMIT);
 301:../generate/sc_drivers/r_riic/src/hld/r_riic_hld_prv.c **** 
 302:../generate/sc_drivers/r_riic/src/hld/r_riic_hld_prv.c ****             if (DRV_SUCCESS == ret)
 303:../generate/sc_drivers/r_riic/src/hld/r_riic_hld_prv.c ****             {
 304:../generate/sc_drivers/r_riic/src/hld/r_riic_hld_prv.c ****                 /* clear flag */
 305:../generate/sc_drivers/r_riic/src/hld/r_riic_hld_prv.c ****                 gs_riic_transmit_end_flg[channel] = DRV_FLAG_OFF_PRV_;
 306:../generate/sc_drivers/r_riic/src/hld/r_riic_hld_prv.c **** 
 307:../generate/sc_drivers/r_riic/src/hld/r_riic_hld_prv.c ****                 /* test for ACK */
 308:../generate/sc_drivers/r_riic/src/hld/r_riic_hld_prv.c ****                 if (DRV_FLAG_OFF_PRV_ == gs_riic_nack_flg[channel])
 309:../generate/sc_drivers/r_riic/src/hld/r_riic_hld_prv.c ****                 {
 310:../generate/sc_drivers/r_riic/src/hld/r_riic_hld_prv.c ****                     /* ACK received */
 311:../generate/sc_drivers/r_riic/src/hld/r_riic_hld_prv.c ****                     ret = DRV_SUCCESS;
 312:../generate/sc_drivers/r_riic/src/hld/r_riic_hld_prv.c ****                 }
 313:../generate/sc_drivers/r_riic/src/hld/r_riic_hld_prv.c ****                 else
 314:../generate/sc_drivers/r_riic/src/hld/r_riic_hld_prv.c ****                 {
 315:../generate/sc_drivers/r_riic/src/hld/r_riic_hld_prv.c ****                     /* NACK */
 316:../generate/sc_drivers/r_riic/src/hld/r_riic_hld_prv.c **** 
 317:../generate/sc_drivers/r_riic/src/hld/r_riic_hld_prv.c ****                     /* reset flag */
 318:../generate/sc_drivers/r_riic/src/hld/r_riic_hld_prv.c ****                     gs_riic_nack_flg[channel] = DRV_FLAG_OFF_PRV_;
 319:../generate/sc_drivers/r_riic/src/hld/r_riic_hld_prv.c ****                     ret = DRV_ERROR;
 320:../generate/sc_drivers/r_riic/src/hld/r_riic_hld_prv.c ****                 }
 321:../generate/sc_drivers/r_riic/src/hld/r_riic_hld_prv.c ****             }
 322:../generate/sc_drivers/r_riic/src/hld/r_riic_hld_prv.c ****         }
 323:../generate/sc_drivers/r_riic/src/hld/r_riic_hld_prv.c ****     }
 324:../generate/sc_drivers/r_riic/src/hld/r_riic_hld_prv.c **** 
 325:../generate/sc_drivers/r_riic/src/hld/r_riic_hld_prv.c ****     /* return status */
 326:../generate/sc_drivers/r_riic/src/hld/r_riic_hld_prv.c ****     return (ret);
 327:../generate/sc_drivers/r_riic/src/hld/r_riic_hld_prv.c **** }
 328:../generate/sc_drivers/r_riic/src/hld/r_riic_hld_prv.c **** /******************************************************************************
 329:../generate/sc_drivers/r_riic/src/hld/r_riic_hld_prv.c ****  * End of Function riic_write
 330:../generate/sc_drivers/r_riic/src/hld/r_riic_hld_prv.c ****  ******************************************************************************/
 331:../generate/sc_drivers/r_riic/src/hld/r_riic_hld_prv.c **** 
 332:../generate/sc_drivers/r_riic/src/hld/r_riic_hld_prv.c **** /**
 333:../generate/sc_drivers/r_riic/src/hld/r_riic_hld_prv.c ****  * @brief Reads data from an already addressed device
 334:../generate/sc_drivers/r_riic/src/hld/r_riic_hld_prv.c ****  * @param[in] channel : the device specific channel number (< RIIC_CFG_LLD_NUM_CHANNELS)
 335:../generate/sc_drivers/r_riic/src/hld/r_riic_hld_prv.c ****  * @param[in] pbuffer : pointer to allocated space for data
 336:../generate/sc_drivers/r_riic/src/hld/r_riic_hld_prv.c ****  * @param[in] byte    : number of bytes to receive
 337:../generate/sc_drivers/r_riic/src/hld/r_riic_hld_prv.c ****  * @return    DRV_SUCCESS       : Success of RIIC operation
 338:../generate/sc_drivers/r_riic/src/hld/r_riic_hld_prv.c ****  *            DRV_ERROR         : Failure of RIIC operation
 339:../generate/sc_drivers/r_riic/src/hld/r_riic_hld_prv.c ****  *            DRV_ERROR : RIIC operation timed out
 340:../generate/sc_drivers/r_riic/src/hld/r_riic_hld_prv.c ****  **/
 341:../generate/sc_drivers/r_riic/src/hld/r_riic_hld_prv.c **** static int_t riic_read (int_t channel, uint8_t *pbuffer, uint32_t byte)
 342:../generate/sc_drivers/r_riic/src/hld/r_riic_hld_prv.c **** {
 343:../generate/sc_drivers/r_riic/src/hld/r_riic_hld_prv.c ****     uint8_t *p_buffer2;
 344:../generate/sc_drivers/r_riic/src/hld/r_riic_hld_prv.c ****     int_t ret;
 345:../generate/sc_drivers/r_riic/src/hld/r_riic_hld_prv.c **** 
 346:../generate/sc_drivers/r_riic/src/hld/r_riic_hld_prv.c ****     /* Ensure at least 1 byte is specified to receive */
 347:../generate/sc_drivers/r_riic/src/hld/r_riic_hld_prv.c ****     if (0 == byte)
 348:../generate/sc_drivers/r_riic/src/hld/r_riic_hld_prv.c ****     {
 349:../generate/sc_drivers/r_riic/src/hld/r_riic_hld_prv.c ****         return (DRV_SUCCESS);
 350:../generate/sc_drivers/r_riic/src/hld/r_riic_hld_prv.c ****     }
 351:../generate/sc_drivers/r_riic/src/hld/r_riic_hld_prv.c **** 
 352:../generate/sc_drivers/r_riic/src/hld/r_riic_hld_prv.c ****     p_buffer2 = pbuffer;
 353:../generate/sc_drivers/r_riic/src/hld/r_riic_hld_prv.c **** 
 354:../generate/sc_drivers/r_riic/src/hld/r_riic_hld_prv.c ****     /* 1 byte random read does not need a dummy read */
 355:../generate/sc_drivers/r_riic/src/hld/r_riic_hld_prv.c ****     if (1 == byte)
 356:../generate/sc_drivers/r_riic/src/hld/r_riic_hld_prv.c ****     {
 357:../generate/sc_drivers/r_riic/src/hld/r_riic_hld_prv.c ****         R_RIIC_AssertLowHold(channel);
 358:../generate/sc_drivers/r_riic/src/hld/r_riic_hld_prv.c **** 
 359:../generate/sc_drivers/r_riic/src/hld/r_riic_hld_prv.c ****         /* (In the case of only 1 byte) reception start */
 360:../generate/sc_drivers/r_riic/src/hld/r_riic_hld_prv.c ****         ret = riic_receive(channel, RIIC_RX_MODE_NACK, p_buffer2);
 361:../generate/sc_drivers/r_riic/src/hld/r_riic_hld_prv.c **** 
 362:../generate/sc_drivers/r_riic/src/hld/r_riic_hld_prv.c ****         if (DRV_SUCCESS != ret)
 363:../generate/sc_drivers/r_riic/src/hld/r_riic_hld_prv.c ****         {
 364:../generate/sc_drivers/r_riic/src/hld/r_riic_hld_prv.c ****             return (ret);
 365:../generate/sc_drivers/r_riic/src/hld/r_riic_hld_prv.c ****         }
 366:../generate/sc_drivers/r_riic/src/hld/r_riic_hld_prv.c **** 
 367:../generate/sc_drivers/r_riic/src/hld/r_riic_hld_prv.c ****         /* Last byte read */
 368:../generate/sc_drivers/r_riic/src/hld/r_riic_hld_prv.c ****         ret = riic_receive(channel, RIIC_RX_MODE_STOP, p_buffer2);
 369:../generate/sc_drivers/r_riic/src/hld/r_riic_hld_prv.c **** 
 370:../generate/sc_drivers/r_riic/src/hld/r_riic_hld_prv.c ****         if (DRV_SUCCESS != ret)
 371:../generate/sc_drivers/r_riic/src/hld/r_riic_hld_prv.c ****         {
 372:../generate/sc_drivers/r_riic/src/hld/r_riic_hld_prv.c ****             return (ret);
 373:../generate/sc_drivers/r_riic/src/hld/r_riic_hld_prv.c ****         }
 374:../generate/sc_drivers/r_riic/src/hld/r_riic_hld_prv.c ****     }
 375:../generate/sc_drivers/r_riic/src/hld/r_riic_hld_prv.c ****     else
 376:../generate/sc_drivers/r_riic/src/hld/r_riic_hld_prv.c ****     {
 377:../generate/sc_drivers/r_riic/src/hld/r_riic_hld_prv.c ****         /* Start reading data */
 378:../generate/sc_drivers/r_riic/src/hld/r_riic_hld_prv.c ****         /* dummy read for read trigger, p_buffer2 is written by next data */
 379:../generate/sc_drivers/r_riic/src/hld/r_riic_hld_prv.c ****         if (2 == byte)
 380:../generate/sc_drivers/r_riic/src/hld/r_riic_hld_prv.c ****         {
 381:../generate/sc_drivers/r_riic/src/hld/r_riic_hld_prv.c ****             /* set wait mode on read of the (last - 2) byte */
 382:../generate/sc_drivers/r_riic/src/hld/r_riic_hld_prv.c ****             ret = riic_receive(channel, RIIC_RX_MODE_LOW_HOLD, p_buffer2);
 383:../generate/sc_drivers/r_riic/src/hld/r_riic_hld_prv.c ****         }
 384:../generate/sc_drivers/r_riic/src/hld/r_riic_hld_prv.c ****         else
 385:../generate/sc_drivers/r_riic/src/hld/r_riic_hld_prv.c ****         {
 386:../generate/sc_drivers/r_riic/src/hld/r_riic_hld_prv.c ****             /* normal start trigger */
 387:../generate/sc_drivers/r_riic/src/hld/r_riic_hld_prv.c ****             ret = riic_receive(channel, RIIC_RX_MODE_ACK, p_buffer2);
 388:../generate/sc_drivers/r_riic/src/hld/r_riic_hld_prv.c ****         }
 389:../generate/sc_drivers/r_riic/src/hld/r_riic_hld_prv.c **** 
 390:../generate/sc_drivers/r_riic/src/hld/r_riic_hld_prv.c ****         if (DRV_SUCCESS != ret)
 391:../generate/sc_drivers/r_riic/src/hld/r_riic_hld_prv.c ****         {
 392:../generate/sc_drivers/r_riic/src/hld/r_riic_hld_prv.c ****             return (ret);
 393:../generate/sc_drivers/r_riic/src/hld/r_riic_hld_prv.c ****         }
 394:../generate/sc_drivers/r_riic/src/hld/r_riic_hld_prv.c **** 
 395:../generate/sc_drivers/r_riic/src/hld/r_riic_hld_prv.c ****         /* Reads data bytes */
 396:../generate/sc_drivers/r_riic/src/hld/r_riic_hld_prv.c ****         while (2 < byte)
 397:../generate/sc_drivers/r_riic/src/hld/r_riic_hld_prv.c ****         {
 398:../generate/sc_drivers/r_riic/src/hld/r_riic_hld_prv.c ****             if (3 == byte)
 399:../generate/sc_drivers/r_riic/src/hld/r_riic_hld_prv.c ****             {
 400:../generate/sc_drivers/r_riic/src/hld/r_riic_hld_prv.c ****                 /* set wait mode on read of the (last - 2) byte */
 401:../generate/sc_drivers/r_riic/src/hld/r_riic_hld_prv.c ****                 ret = riic_receive(channel, RIIC_RX_MODE_LOW_HOLD, p_buffer2);
 402:../generate/sc_drivers/r_riic/src/hld/r_riic_hld_prv.c ****             }
 403:../generate/sc_drivers/r_riic/src/hld/r_riic_hld_prv.c ****             else
 404:../generate/sc_drivers/r_riic/src/hld/r_riic_hld_prv.c ****             {
 405:../generate/sc_drivers/r_riic/src/hld/r_riic_hld_prv.c ****                 /* request size is 3byte or more */
 406:../generate/sc_drivers/r_riic/src/hld/r_riic_hld_prv.c ****                 ret = riic_receive(channel, RIIC_RX_MODE_ACK, p_buffer2);
 407:../generate/sc_drivers/r_riic/src/hld/r_riic_hld_prv.c ****             }
 408:../generate/sc_drivers/r_riic/src/hld/r_riic_hld_prv.c **** 
 409:../generate/sc_drivers/r_riic/src/hld/r_riic_hld_prv.c ****             if (DRV_SUCCESS != ret)
 410:../generate/sc_drivers/r_riic/src/hld/r_riic_hld_prv.c ****             {
 411:../generate/sc_drivers/r_riic/src/hld/r_riic_hld_prv.c ****                 return (ret);
 412:../generate/sc_drivers/r_riic/src/hld/r_riic_hld_prv.c ****             }
 413:../generate/sc_drivers/r_riic/src/hld/r_riic_hld_prv.c **** 
 414:../generate/sc_drivers/r_riic/src/hld/r_riic_hld_prv.c ****             p_buffer2++;
 415:../generate/sc_drivers/r_riic/src/hld/r_riic_hld_prv.c ****             byte--;
 416:../generate/sc_drivers/r_riic/src/hld/r_riic_hld_prv.c ****         }
 417:../generate/sc_drivers/r_riic/src/hld/r_riic_hld_prv.c **** 
 418:../generate/sc_drivers/r_riic/src/hld/r_riic_hld_prv.c ****         /* transfer NACK on read of the (last - 1) byte */
 419:../generate/sc_drivers/r_riic/src/hld/r_riic_hld_prv.c ****         ret = riic_receive(channel, RIIC_RX_MODE_NACK, p_buffer2);
 420:../generate/sc_drivers/r_riic/src/hld/r_riic_hld_prv.c ****         if (DRV_SUCCESS != ret)
 421:../generate/sc_drivers/r_riic/src/hld/r_riic_hld_prv.c ****         {
 422:../generate/sc_drivers/r_riic/src/hld/r_riic_hld_prv.c ****             return (ret);
 423:../generate/sc_drivers/r_riic/src/hld/r_riic_hld_prv.c ****         }
 424:../generate/sc_drivers/r_riic/src/hld/r_riic_hld_prv.c **** 
 425:../generate/sc_drivers/r_riic/src/hld/r_riic_hld_prv.c ****         p_buffer2++;
 426:../generate/sc_drivers/r_riic/src/hld/r_riic_hld_prv.c ****         byte--;
 427:../generate/sc_drivers/r_riic/src/hld/r_riic_hld_prv.c **** 
 428:../generate/sc_drivers/r_riic/src/hld/r_riic_hld_prv.c ****         if (DRV_SUCCESS == ret)
 429:../generate/sc_drivers/r_riic/src/hld/r_riic_hld_prv.c ****         {
 430:../generate/sc_drivers/r_riic/src/hld/r_riic_hld_prv.c ****             /* Data read of the last byte */
 431:../generate/sc_drivers/r_riic/src/hld/r_riic_hld_prv.c ****             ret = riic_receive(channel, RIIC_RX_MODE_STOP, p_buffer2);
 432:../generate/sc_drivers/r_riic/src/hld/r_riic_hld_prv.c ****         }
 433:../generate/sc_drivers/r_riic/src/hld/r_riic_hld_prv.c ****     }
 434:../generate/sc_drivers/r_riic/src/hld/r_riic_hld_prv.c **** 
 435:../generate/sc_drivers/r_riic/src/hld/r_riic_hld_prv.c ****     /* Process next Read */
 436:../generate/sc_drivers/r_riic/src/hld/r_riic_hld_prv.c ****     R_RIIC_ReleaseLowHold(channel);
 437:../generate/sc_drivers/r_riic/src/hld/r_riic_hld_prv.c **** 
 438:../generate/sc_drivers/r_riic/src/hld/r_riic_hld_prv.c ****     if (DRV_SUCCESS == ret)
 439:../generate/sc_drivers/r_riic/src/hld/r_riic_hld_prv.c ****     {
 440:../generate/sc_drivers/r_riic/src/hld/r_riic_hld_prv.c ****         /* Stop condition detection confirmation */
 441:../generate/sc_drivers/r_riic/src/hld/r_riic_hld_prv.c ****         ret = wait_stop(channel);
 442:../generate/sc_drivers/r_riic/src/hld/r_riic_hld_prv.c ****     }
 443:../generate/sc_drivers/r_riic/src/hld/r_riic_hld_prv.c **** 
 444:../generate/sc_drivers/r_riic/src/hld/r_riic_hld_prv.c ****     return (ret);
 445:../generate/sc_drivers/r_riic/src/hld/r_riic_hld_prv.c **** }
 446:../generate/sc_drivers/r_riic/src/hld/r_riic_hld_prv.c **** /******************************************************************************
 447:../generate/sc_drivers/r_riic/src/hld/r_riic_hld_prv.c ****  * End of Function riic_read
 448:../generate/sc_drivers/r_riic/src/hld/r_riic_hld_prv.c ****  ******************************************************************************/
 449:../generate/sc_drivers/r_riic/src/hld/r_riic_hld_prv.c **** 
 450:../generate/sc_drivers/r_riic/src/hld/r_riic_hld_prv.c **** /**
 451:../generate/sc_drivers/r_riic/src/hld/r_riic_hld_prv.c ****  * @brief Receive data (single byte)
 452:../generate/sc_drivers/r_riic/src/hld/r_riic_hld_prv.c ****  * @param[in] channel : the device specific channel number (< RIIC_CFG_LLD_NUM_CHANNELS)
 453:../generate/sc_drivers/r_riic/src/hld/r_riic_hld_prv.c ****  * @param[in] mode  : receive mode
 454:../generate/sc_drivers/r_riic/src/hld/r_riic_hld_prv.c ****  *                  : RIIC_RX_MODE_NORMAL: Normal mode
 455:../generate/sc_drivers/r_riic/src/hld/r_riic_hld_prv.c ****  *                  : RIIC_RX_MODE_ACK: ACK mode
 456:../generate/sc_drivers/r_riic/src/hld/r_riic_hld_prv.c ****  *                  : RIIC_RX_MODE_LOW_HOLD: Low hold mode
 457:../generate/sc_drivers/r_riic/src/hld/r_riic_hld_prv.c ****  *                  : RIIC_RX_MODE_NACK: NACK mode
 458:../generate/sc_drivers/r_riic/src/hld/r_riic_hld_prv.c ****  *                  : RIIC_RX_MODE_STOP: Stop condition mode
 459:../generate/sc_drivers/r_riic/src/hld/r_riic_hld_prv.c ****  *            pdata : received data
 460:../generate/sc_drivers/r_riic/src/hld/r_riic_hld_prv.c ****  * @return    DRV_SUCCESS         : Success of RIIC operation
 461:../generate/sc_drivers/r_riic/src/hld/r_riic_hld_prv.c ****  *            DRV_ERROR   : RIIC operation timed out
 462:../generate/sc_drivers/r_riic/src/hld/r_riic_hld_prv.c ****  **/
 463:../generate/sc_drivers/r_riic/src/hld/r_riic_hld_prv.c **** static int_t riic_receive (int_t channel, e_riic_rx_mode_t mode, uint8_t *pdata)
 464:../generate/sc_drivers/r_riic/src/hld/r_riic_hld_prv.c **** {
 465:../generate/sc_drivers/r_riic/src/hld/r_riic_hld_prv.c ****     int_t ret;
 466:../generate/sc_drivers/r_riic/src/hld/r_riic_hld_prv.c **** 
 467:../generate/sc_drivers/r_riic/src/hld/r_riic_hld_prv.c ****     /* Wait until Receive data full conditions and clear receive-data-full
 468:../generate/sc_drivers/r_riic/src/hld/r_riic_hld_prv.c ****      condition have been satisfied */
 469:../generate/sc_drivers/r_riic/src/hld/r_riic_hld_prv.c ****     ret = wait_rx_full(channel);
 470:../generate/sc_drivers/r_riic/src/hld/r_riic_hld_prv.c **** 
 471:../generate/sc_drivers/r_riic/src/hld/r_riic_hld_prv.c ****     if (DRV_SUCCESS == ret)
 472:../generate/sc_drivers/r_riic/src/hld/r_riic_hld_prv.c ****     {
 473:../generate/sc_drivers/r_riic/src/hld/r_riic_hld_prv.c ****         /* reset rx full flag prior to reception */
 474:../generate/sc_drivers/r_riic/src/hld/r_riic_hld_prv.c ****         gs_riic_receive_full_flg[channel] = DRV_FLAG_OFF_PRV_;
 475:../generate/sc_drivers/r_riic/src/hld/r_riic_hld_prv.c **** 
 476:../generate/sc_drivers/r_riic/src/hld/r_riic_hld_prv.c ****         switch (mode)
 477:../generate/sc_drivers/r_riic/src/hld/r_riic_hld_prv.c ****         {
 478:../generate/sc_drivers/r_riic/src/hld/r_riic_hld_prv.c ****             case RIIC_RX_MODE_ACK:
 479:../generate/sc_drivers/r_riic/src/hld/r_riic_hld_prv.c ****             {
 480:../generate/sc_drivers/r_riic/src/hld/r_riic_hld_prv.c ****                 /* send ACK */
 481:../generate/sc_drivers/r_riic/src/hld/r_riic_hld_prv.c ****                 R_RIIC_TransmitAck(channel);
 482:../generate/sc_drivers/r_riic/src/hld/r_riic_hld_prv.c ****             }
 483:../generate/sc_drivers/r_riic/src/hld/r_riic_hld_prv.c ****             break;
 484:../generate/sc_drivers/r_riic/src/hld/r_riic_hld_prv.c **** 
 485:../generate/sc_drivers/r_riic/src/hld/r_riic_hld_prv.c ****             case RIIC_RX_MODE_LOW_HOLD:
 486:../generate/sc_drivers/r_riic/src/hld/r_riic_hld_prv.c ****             {
 487:../generate/sc_drivers/r_riic/src/hld/r_riic_hld_prv.c ****                 /* Period between ninth clock cycle and first
 488:../generate/sc_drivers/r_riic/src/hld/r_riic_hld_prv.c ****                  * clock cycle is held low */
 489:../generate/sc_drivers/r_riic/src/hld/r_riic_hld_prv.c ****                 R_RIIC_AssertLowHold(channel);
 490:../generate/sc_drivers/r_riic/src/hld/r_riic_hld_prv.c ****             }
 491:../generate/sc_drivers/r_riic/src/hld/r_riic_hld_prv.c ****             break;
 492:../generate/sc_drivers/r_riic/src/hld/r_riic_hld_prv.c **** 
 493:../generate/sc_drivers/r_riic/src/hld/r_riic_hld_prv.c ****             case RIIC_RX_MODE_NACK:
 494:../generate/sc_drivers/r_riic/src/hld/r_riic_hld_prv.c ****             {
 495:../generate/sc_drivers/r_riic/src/hld/r_riic_hld_prv.c ****                 /* send NACK */
 496:../generate/sc_drivers/r_riic/src/hld/r_riic_hld_prv.c ****                 R_RIIC_TransmitNack(channel);
 497:../generate/sc_drivers/r_riic/src/hld/r_riic_hld_prv.c ****             }
 498:../generate/sc_drivers/r_riic/src/hld/r_riic_hld_prv.c ****             break;
 499:../generate/sc_drivers/r_riic/src/hld/r_riic_hld_prv.c **** 
 500:../generate/sc_drivers/r_riic/src/hld/r_riic_hld_prv.c ****             case RIIC_RX_MODE_STOP:
 501:../generate/sc_drivers/r_riic/src/hld/r_riic_hld_prv.c ****             {
 502:../generate/sc_drivers/r_riic/src/hld/r_riic_hld_prv.c ****                 gs_riic_stop_flg[channel] = DRV_FLAG_OFF_PRV_;
 503:../generate/sc_drivers/r_riic/src/hld/r_riic_hld_prv.c **** 
 504:../generate/sc_drivers/r_riic/src/hld/r_riic_hld_prv.c ****                 /* Stop condition request */
 505:../generate/sc_drivers/r_riic/src/hld/r_riic_hld_prv.c ****                 R_RIIC_TransmitStop(channel);
 506:../generate/sc_drivers/r_riic/src/hld/r_riic_hld_prv.c ****             }
 507:../generate/sc_drivers/r_riic/src/hld/r_riic_hld_prv.c ****             break;
 508:../generate/sc_drivers/r_riic/src/hld/r_riic_hld_prv.c ****             case RIIC_RX_MODE_NORMAL:
 509:../generate/sc_drivers/r_riic/src/hld/r_riic_hld_prv.c ****             {
 510:../generate/sc_drivers/r_riic/src/hld/r_riic_hld_prv.c ****                 /* Do Nothing */
 511:../generate/sc_drivers/r_riic/src/hld/r_riic_hld_prv.c ****                 ret = DRV_SUCCESS;
 512:../generate/sc_drivers/r_riic/src/hld/r_riic_hld_prv.c ****             }
 513:../generate/sc_drivers/r_riic/src/hld/r_riic_hld_prv.c ****             break;
 514:../generate/sc_drivers/r_riic/src/hld/r_riic_hld_prv.c ****             default:
 515:../generate/sc_drivers/r_riic/src/hld/r_riic_hld_prv.c ****             {
 516:../generate/sc_drivers/r_riic/src/hld/r_riic_hld_prv.c ****                 /* Invalid selection */
 517:../generate/sc_drivers/r_riic/src/hld/r_riic_hld_prv.c ****                 ret = DRV_ERROR;
 518:../generate/sc_drivers/r_riic/src/hld/r_riic_hld_prv.c ****             }
 519:../generate/sc_drivers/r_riic/src/hld/r_riic_hld_prv.c ****             break;
 520:../generate/sc_drivers/r_riic/src/hld/r_riic_hld_prv.c ****         }
 521:../generate/sc_drivers/r_riic/src/hld/r_riic_hld_prv.c **** 
 522:../generate/sc_drivers/r_riic/src/hld/r_riic_hld_prv.c ****         /* Read data from wire */
 523:../generate/sc_drivers/r_riic/src/hld/r_riic_hld_prv.c ****         ( *pdata) = R_RIIC_ReadByte(channel);
 524:../generate/sc_drivers/r_riic/src/hld/r_riic_hld_prv.c ****     }
 525:../generate/sc_drivers/r_riic/src/hld/r_riic_hld_prv.c **** 
 526:../generate/sc_drivers/r_riic/src/hld/r_riic_hld_prv.c ****     /* report status */
 527:../generate/sc_drivers/r_riic/src/hld/r_riic_hld_prv.c ****     return (ret);
 528:../generate/sc_drivers/r_riic/src/hld/r_riic_hld_prv.c **** }
 529:../generate/sc_drivers/r_riic/src/hld/r_riic_hld_prv.c **** /*******************************************************************************
 530:../generate/sc_drivers/r_riic/src/hld/r_riic_hld_prv.c ****  End of function riic_receive
 531:../generate/sc_drivers/r_riic/src/hld/r_riic_hld_prv.c ****  *******************************************************************************/
 532:../generate/sc_drivers/r_riic/src/hld/r_riic_hld_prv.c **** 
 533:../generate/sc_drivers/r_riic/src/hld/r_riic_hld_prv.c **** /**
 534:../generate/sc_drivers/r_riic/src/hld/r_riic_hld_prv.c ****  * @brief Transmit data (single byte)
 535:../generate/sc_drivers/r_riic/src/hld/r_riic_hld_prv.c ****  * @param[in] channel : the device specific channel number (< RIIC_CFG_LLD_NUM_CHANNELS)
 536:../generate/sc_drivers/r_riic/src/hld/r_riic_hld_prv.c ****  * @param[in] data    : data to transmit
 537:../generate/sc_drivers/r_riic/src/hld/r_riic_hld_prv.c ****  * @return    DRV_SUCCESS         : Success of RIIC operation
 538:../generate/sc_drivers/r_riic/src/hld/r_riic_hld_prv.c ****  *            DRV_ERROR           : Failure of RIIC operation
 539:../generate/sc_drivers/r_riic/src/hld/r_riic_hld_prv.c ****  *            DRV_ERROR   : RIIC operation timed out
 540:../generate/sc_drivers/r_riic/src/hld/r_riic_hld_prv.c ****  **/
 541:../generate/sc_drivers/r_riic/src/hld/r_riic_hld_prv.c **** static int_t riic_transmit (int_t channel, uint8_t data)
 542:../generate/sc_drivers/r_riic/src/hld/r_riic_hld_prv.c **** {
 543:../generate/sc_drivers/r_riic/src/hld/r_riic_hld_prv.c ****     int_t ret = DRV_ERROR;
 544:../generate/sc_drivers/r_riic/src/hld/r_riic_hld_prv.c **** 
 545:../generate/sc_drivers/r_riic/src/hld/r_riic_hld_prv.c ****     /* test for ACK */
 546:../generate/sc_drivers/r_riic/src/hld/r_riic_hld_prv.c ****     if (DRV_FLAG_OFF_PRV_ == gs_riic_nack_flg[channel])
 547:../generate/sc_drivers/r_riic/src/hld/r_riic_hld_prv.c ****     {
 548:../generate/sc_drivers/r_riic/src/hld/r_riic_hld_prv.c ****         /* ACK received */
 549:../generate/sc_drivers/r_riic/src/hld/r_riic_hld_prv.c ****         ret = DRV_SUCCESS;
 550:../generate/sc_drivers/r_riic/src/hld/r_riic_hld_prv.c ****     }
 551:../generate/sc_drivers/r_riic/src/hld/r_riic_hld_prv.c ****     else
 552:../generate/sc_drivers/r_riic/src/hld/r_riic_hld_prv.c ****     {
 553:../generate/sc_drivers/r_riic/src/hld/r_riic_hld_prv.c ****         /* NACK */
 554:../generate/sc_drivers/r_riic/src/hld/r_riic_hld_prv.c **** 
 555:../generate/sc_drivers/r_riic/src/hld/r_riic_hld_prv.c ****         /* reset flag */
 556:../generate/sc_drivers/r_riic/src/hld/r_riic_hld_prv.c ****         gs_riic_nack_flg[channel] = DRV_FLAG_OFF_PRV_;
 557:../generate/sc_drivers/r_riic/src/hld/r_riic_hld_prv.c ****         ret = DRV_ERROR;
 558:../generate/sc_drivers/r_riic/src/hld/r_riic_hld_prv.c ****     }
 559:../generate/sc_drivers/r_riic/src/hld/r_riic_hld_prv.c **** 
 560:../generate/sc_drivers/r_riic/src/hld/r_riic_hld_prv.c ****     if (DRV_SUCCESS == ret)
 561:../generate/sc_drivers/r_riic/src/hld/r_riic_hld_prv.c ****     {
 562:../generate/sc_drivers/r_riic/src/hld/r_riic_hld_prv.c ****         /* ensure no current traffic on bus */
 563:../generate/sc_drivers/r_riic/src/hld/r_riic_hld_prv.c ****         ret = wait_tx_empty(channel);
 564:../generate/sc_drivers/r_riic/src/hld/r_riic_hld_prv.c **** 
 565:../generate/sc_drivers/r_riic/src/hld/r_riic_hld_prv.c ****         if (DRV_SUCCESS == ret)
 566:../generate/sc_drivers/r_riic/src/hld/r_riic_hld_prv.c ****         {
 567:../generate/sc_drivers/r_riic/src/hld/r_riic_hld_prv.c ****             /* clear tx empty flag prior to tx */
 568:../generate/sc_drivers/r_riic/src/hld/r_riic_hld_prv.c ****             gs_riic_transmit_empty_flg[channel] = DRV_FLAG_OFF_PRV_;
 569:../generate/sc_drivers/r_riic/src/hld/r_riic_hld_prv.c **** 
 570:../generate/sc_drivers/r_riic/src/hld/r_riic_hld_prv.c ****             /* Write data to wire */
 571:../generate/sc_drivers/r_riic/src/hld/r_riic_hld_prv.c ****             R_RIIC_WriteByte(channel, data);
 572:../generate/sc_drivers/r_riic/src/hld/r_riic_hld_prv.c ****         }
 573:../generate/sc_drivers/r_riic/src/hld/r_riic_hld_prv.c ****     }
 574:../generate/sc_drivers/r_riic/src/hld/r_riic_hld_prv.c **** 
 575:../generate/sc_drivers/r_riic/src/hld/r_riic_hld_prv.c ****     return (ret);
 576:../generate/sc_drivers/r_riic/src/hld/r_riic_hld_prv.c **** }
 577:../generate/sc_drivers/r_riic/src/hld/r_riic_hld_prv.c **** /*******************************************************************************
 578:../generate/sc_drivers/r_riic/src/hld/r_riic_hld_prv.c ****  End of function riic_transmit
 579:../generate/sc_drivers/r_riic/src/hld/r_riic_hld_prv.c ****  *******************************************************************************/
 580:../generate/sc_drivers/r_riic/src/hld/r_riic_hld_prv.c **** 
 581:../generate/sc_drivers/r_riic/src/hld/r_riic_hld_prv.c **** /**
 582:../generate/sc_drivers/r_riic/src/hld/r_riic_hld_prv.c ****  * @brief Make the request to issue a start condition for the selected channel
 583:../generate/sc_drivers/r_riic/src/hld/r_riic_hld_prv.c ****  *        Perform the following sequence of actions
 584:../generate/sc_drivers/r_riic/src/hld/r_riic_hld_prv.c ****  *              1: Wait till bus is free
 585:../generate/sc_drivers/r_riic/src/hld/r_riic_hld_prv.c ****  *              2: Clear Receive data full flag
 586:../generate/sc_drivers/r_riic/src/hld/r_riic_hld_prv.c ****  *              3: Clear transmit end flag
 587:../generate/sc_drivers/r_riic/src/hld/r_riic_hld_prv.c ****  *              4: Clear transmit-data-empty flag
 588:../generate/sc_drivers/r_riic/src/hld/r_riic_hld_prv.c ****  *              5: Request to issue a start condition
 589:../generate/sc_drivers/r_riic/src/hld/r_riic_hld_prv.c ****  * @param[in] channel   : the device specific channel number (< RIIC_CFG_LLD_NUM_CHANNELS)
 590:../generate/sc_drivers/r_riic/src/hld/r_riic_hld_prv.c ****  * @return    DRV_SUCCESS         : Success of RIIC operation
 591:../generate/sc_drivers/r_riic/src/hld/r_riic_hld_prv.c ****  *            DRV_ERROR           : Failure of RIIC operation
 592:../generate/sc_drivers/r_riic/src/hld/r_riic_hld_prv.c ****  **/
 593:../generate/sc_drivers/r_riic/src/hld/r_riic_hld_prv.c **** static int_t transmit_start (int_t channel)
 594:../generate/sc_drivers/r_riic/src/hld/r_riic_hld_prv.c **** {
 595:../generate/sc_drivers/r_riic/src/hld/r_riic_hld_prv.c ****     /* Wait for the bus to be free */
 596:../generate/sc_drivers/r_riic/src/hld/r_riic_hld_prv.c ****     int_t ret = wait_bus_master(channel, RIIC_BUS_MASTERSHIP_WAIT_FREE);
 597:../generate/sc_drivers/r_riic/src/hld/r_riic_hld_prv.c **** 
 598:../generate/sc_drivers/r_riic/src/hld/r_riic_hld_prv.c ****     /* Start timing for operation */
 599:../generate/sc_drivers/r_riic/src/hld/r_riic_hld_prv.c ****     start_timeout_monitor(channel);
 600:../generate/sc_drivers/r_riic/src/hld/r_riic_hld_prv.c **** 
 601:../generate/sc_drivers/r_riic/src/hld/r_riic_hld_prv.c ****     if (DRV_SUCCESS == ret)
 602:../generate/sc_drivers/r_riic/src/hld/r_riic_hld_prv.c ****     {
 603:../generate/sc_drivers/r_riic/src/hld/r_riic_hld_prv.c ****         /* reset flags */
 604:../generate/sc_drivers/r_riic/src/hld/r_riic_hld_prv.c ****         gs_riic_receive_full_flg[channel] = DRV_FLAG_OFF_PRV_;
 605:../generate/sc_drivers/r_riic/src/hld/r_riic_hld_prv.c ****         gs_riic_transmit_empty_flg[channel] = DRV_FLAG_OFF_PRV_;
 606:../generate/sc_drivers/r_riic/src/hld/r_riic_hld_prv.c ****         gs_riic_transmit_end_flg[channel] = DRV_FLAG_OFF_PRV_;
 607:../generate/sc_drivers/r_riic/src/hld/r_riic_hld_prv.c **** 
 608:../generate/sc_drivers/r_riic/src/hld/r_riic_hld_prv.c ****         /* initiate start condition */
 609:../generate/sc_drivers/r_riic/src/hld/r_riic_hld_prv.c ****         R_RIIC_TransmitStart(channel);
 610:../generate/sc_drivers/r_riic/src/hld/r_riic_hld_prv.c ****     }
 611:../generate/sc_drivers/r_riic/src/hld/r_riic_hld_prv.c **** 
 612:../generate/sc_drivers/r_riic/src/hld/r_riic_hld_prv.c ****     /* report status */
 613:../generate/sc_drivers/r_riic/src/hld/r_riic_hld_prv.c ****     return (ret);
 614:../generate/sc_drivers/r_riic/src/hld/r_riic_hld_prv.c **** }
 615:../generate/sc_drivers/r_riic/src/hld/r_riic_hld_prv.c **** /*******************************************************************************
 616:../generate/sc_drivers/r_riic/src/hld/r_riic_hld_prv.c ****  End of function transmit_start
 617:../generate/sc_drivers/r_riic/src/hld/r_riic_hld_prv.c ****  *******************************************************************************/
 618:../generate/sc_drivers/r_riic/src/hld/r_riic_hld_prv.c **** 
 619:../generate/sc_drivers/r_riic/src/hld/r_riic_hld_prv.c **** /**
 620:../generate/sc_drivers/r_riic/src/hld/r_riic_hld_prv.c ****  * @brief Make the request to issue a restart condition for the selected channel.
 621:../generate/sc_drivers/r_riic/src/hld/r_riic_hld_prv.c ****  *        Perform the following sequence of actions
 622:../generate/sc_drivers/r_riic/src/hld/r_riic_hld_prv.c ****  *              1: Wait till bus is busy
 623:../generate/sc_drivers/r_riic/src/hld/r_riic_hld_prv.c ****  *              2: Clear Receive data full flag
 624:../generate/sc_drivers/r_riic/src/hld/r_riic_hld_prv.c ****  *              3: Clear transmit end flag
 625:../generate/sc_drivers/r_riic/src/hld/r_riic_hld_prv.c ****  *              4: Clear transmit-data-empty flag
 626:../generate/sc_drivers/r_riic/src/hld/r_riic_hld_prv.c ****  *              5: Request to issue a restart condition
 627:../generate/sc_drivers/r_riic/src/hld/r_riic_hld_prv.c ****  * @param[in] channel   : the device specific channel number (< RIIC_CFG_LLD_NUM_CHANNELS)
 628:../generate/sc_drivers/r_riic/src/hld/r_riic_hld_prv.c ****  * @return    DRV_SUCCESS         : Success of RIIC operation
 629:../generate/sc_drivers/r_riic/src/hld/r_riic_hld_prv.c ****  *            DRV_ERROR           : Failure of RIIC operation
 630:../generate/sc_drivers/r_riic/src/hld/r_riic_hld_prv.c ****  **/
 631:../generate/sc_drivers/r_riic/src/hld/r_riic_hld_prv.c **** static int_t transmit_restart (int_t channel)
 632:../generate/sc_drivers/r_riic/src/hld/r_riic_hld_prv.c **** {
 633:../generate/sc_drivers/r_riic/src/hld/r_riic_hld_prv.c ****     /* Wait for the bus to be busy */
 634:../generate/sc_drivers/r_riic/src/hld/r_riic_hld_prv.c ****     int_t ret = wait_bus_master(channel, RIIC_BUS_MASTERSHIP_WAIT_BUSY);
 635:../generate/sc_drivers/r_riic/src/hld/r_riic_hld_prv.c **** 
 636:../generate/sc_drivers/r_riic/src/hld/r_riic_hld_prv.c ****     /* Start timing for operation */
 637:../generate/sc_drivers/r_riic/src/hld/r_riic_hld_prv.c ****     start_timeout_monitor(channel);
 638:../generate/sc_drivers/r_riic/src/hld/r_riic_hld_prv.c **** 
 639:../generate/sc_drivers/r_riic/src/hld/r_riic_hld_prv.c ****     if (DRV_SUCCESS == ret)
 640:../generate/sc_drivers/r_riic/src/hld/r_riic_hld_prv.c ****     {
 641:../generate/sc_drivers/r_riic/src/hld/r_riic_hld_prv.c ****         /* reset flags */
 642:../generate/sc_drivers/r_riic/src/hld/r_riic_hld_prv.c ****         gs_riic_receive_full_flg[channel] = DRV_FLAG_OFF_PRV_;
 643:../generate/sc_drivers/r_riic/src/hld/r_riic_hld_prv.c ****         gs_riic_transmit_empty_flg[channel] = DRV_FLAG_OFF_PRV_;
 644:../generate/sc_drivers/r_riic/src/hld/r_riic_hld_prv.c ****         gs_riic_transmit_end_flg[channel] = DRV_FLAG_OFF_PRV_;
 645:../generate/sc_drivers/r_riic/src/hld/r_riic_hld_prv.c **** 
 646:../generate/sc_drivers/r_riic/src/hld/r_riic_hld_prv.c ****         /* set restart condition on bus */
 647:../generate/sc_drivers/r_riic/src/hld/r_riic_hld_prv.c ****         R_RIIC_TransmitRestart(channel);
 648:../generate/sc_drivers/r_riic/src/hld/r_riic_hld_prv.c ****     }
 649:../generate/sc_drivers/r_riic/src/hld/r_riic_hld_prv.c **** 
 650:../generate/sc_drivers/r_riic/src/hld/r_riic_hld_prv.c ****     return (ret);
 651:../generate/sc_drivers/r_riic/src/hld/r_riic_hld_prv.c **** }
 652:../generate/sc_drivers/r_riic/src/hld/r_riic_hld_prv.c **** /*******************************************************************************
 653:../generate/sc_drivers/r_riic/src/hld/r_riic_hld_prv.c ****  End of function transmit_restart
 654:../generate/sc_drivers/r_riic/src/hld/r_riic_hld_prv.c ****  *******************************************************************************/
 655:../generate/sc_drivers/r_riic/src/hld/r_riic_hld_prv.c **** 
 656:../generate/sc_drivers/r_riic/src/hld/r_riic_hld_prv.c **** /**
 657:../generate/sc_drivers/r_riic/src/hld/r_riic_hld_prv.c ****  * @brief Read data from device
 658:../generate/sc_drivers/r_riic/src/hld/r_riic_hld_prv.c ****  * @param[in] channel   : the device specific channel number (< RIIC_CFG_LLD_NUM_CHANNELS)
 659:../generate/sc_drivers/r_riic/src/hld/r_riic_hld_prv.c ****  * @param[in] p_transfer          : pointer to transfer parameters
 660:../generate/sc_drivers/r_riic/src/hld/r_riic_hld_prv.c ****  * @return    DRV_SUCCESS         : Success of RIIC operation
 661:../generate/sc_drivers/r_riic/src/hld/r_riic_hld_prv.c ****  *            DRV_ERROR           : Failure of RIIC operation
 662:../generate/sc_drivers/r_riic/src/hld/r_riic_hld_prv.c ****  **/
 663:../generate/sc_drivers/r_riic/src/hld/r_riic_hld_prv.c **** int_t read_data (int_t channel, st_r_drv_riic_transfer_t *p_transfer)
 664:../generate/sc_drivers/r_riic/src/hld/r_riic_hld_prv.c **** {
 665:../generate/sc_drivers/r_riic/src/hld/r_riic_hld_prv.c ****     int_t ret = DRV_ERROR;
 666:../generate/sc_drivers/r_riic/src/hld/r_riic_hld_prv.c ****     uint8_t pw_buffer[10];
 667:../generate/sc_drivers/r_riic/src/hld/r_riic_hld_prv.c ****     uint8_t buffer_count = 0u;
 668:../generate/sc_drivers/r_riic/src/hld/r_riic_hld_prv.c **** 
 669:../generate/sc_drivers/r_riic/src/hld/r_riic_hld_prv.c ****     /* ensure that channel is valid */
 670:../generate/sc_drivers/r_riic/src/hld/r_riic_hld_prv.c ****     ret = validate_channel(channel);
 671:../generate/sc_drivers/r_riic/src/hld/r_riic_hld_prv.c **** 
 672:../generate/sc_drivers/r_riic/src/hld/r_riic_hld_prv.c ****     if (RIIC_SUB_ADDR_MAX <= p_transfer->sub_address_type)
 673:../generate/sc_drivers/r_riic/src/hld/r_riic_hld_prv.c ****     {
 674:../generate/sc_drivers/r_riic/src/hld/r_riic_hld_prv.c ****         /* unrecognised sub-address mode */
 675:../generate/sc_drivers/r_riic/src/hld/r_riic_hld_prv.c ****         ret = DRV_ERROR;
 676:../generate/sc_drivers/r_riic/src/hld/r_riic_hld_prv.c ****     }
 677:../generate/sc_drivers/r_riic/src/hld/r_riic_hld_prv.c **** 
 678:../generate/sc_drivers/r_riic/src/hld/r_riic_hld_prv.c ****     /* Construct header to send sub address (if required) to device & start operation */
 679:../generate/sc_drivers/r_riic/src/hld/r_riic_hld_prv.c ****     if (DRV_SUCCESS == ret)
 680:../generate/sc_drivers/r_riic/src/hld/r_riic_hld_prv.c ****     {
 681:../generate/sc_drivers/r_riic/src/hld/r_riic_hld_prv.c ****         if (RIIC_SUB_ADDR_NONE != p_transfer->sub_address_type)
 682:../generate/sc_drivers/r_riic/src/hld/r_riic_hld_prv.c ****         {
 683:../generate/sc_drivers/r_riic/src/hld/r_riic_hld_prv.c ****             /* Adding device addressing and write control (for sub-address) */
 684:../generate/sc_drivers/r_riic/src/hld/r_riic_hld_prv.c ****             pw_buffer[buffer_count++] =
 685:../generate/sc_drivers/r_riic/src/hld/r_riic_hld_prv.c ****                     (uint8_t) (p_transfer->device_address & ((uint8_t) ( ~SAMPLE_RIIC_RWCODE_PRV_))
 686:../generate/sc_drivers/r_riic/src/hld/r_riic_hld_prv.c **** 
 687:../generate/sc_drivers/r_riic/src/hld/r_riic_hld_prv.c ****             /* Note that 10-bit addressing mode would add an extra byte here to hold the address LS
 688:../generate/sc_drivers/r_riic/src/hld/r_riic_hld_prv.c ****         }
 689:../generate/sc_drivers/r_riic/src/hld/r_riic_hld_prv.c **** 
 690:../generate/sc_drivers/r_riic/src/hld/r_riic_hld_prv.c ****         if (RIIC_SUB_ADDR_WIDTH_8_BITS == p_transfer->sub_address_type)
 691:../generate/sc_drivers/r_riic/src/hld/r_riic_hld_prv.c ****         {
 692:../generate/sc_drivers/r_riic/src/hld/r_riic_hld_prv.c ****             /* 8-bit address to be provided */
 693:../generate/sc_drivers/r_riic/src/hld/r_riic_hld_prv.c ****             pw_buffer[buffer_count++] = (uint8_t) (p_transfer->sub_address & 0x00ff);
 694:../generate/sc_drivers/r_riic/src/hld/r_riic_hld_prv.c ****         }
 695:../generate/sc_drivers/r_riic/src/hld/r_riic_hld_prv.c **** 
 696:../generate/sc_drivers/r_riic/src/hld/r_riic_hld_prv.c ****         if (RIIC_SUB_ADDR_WIDTH_16_BITS == p_transfer->sub_address_type)
 697:../generate/sc_drivers/r_riic/src/hld/r_riic_hld_prv.c ****         {
 698:../generate/sc_drivers/r_riic/src/hld/r_riic_hld_prv.c ****             /* 16-bit address to be provided */
 699:../generate/sc_drivers/r_riic/src/hld/r_riic_hld_prv.c **** 
 700:../generate/sc_drivers/r_riic/src/hld/r_riic_hld_prv.c ****             /* Adding sub-address MSB */
 701:../generate/sc_drivers/r_riic/src/hld/r_riic_hld_prv.c ****             pw_buffer[buffer_count++] = (uint8_t) (p_transfer->sub_address >> 8);
 702:../generate/sc_drivers/r_riic/src/hld/r_riic_hld_prv.c **** 
 703:../generate/sc_drivers/r_riic/src/hld/r_riic_hld_prv.c ****             /* Adding sub-address LSB */
 704:../generate/sc_drivers/r_riic/src/hld/r_riic_hld_prv.c ****             pw_buffer[buffer_count++] = (uint8_t) (p_transfer->sub_address & 0x00ff);
 705:../generate/sc_drivers/r_riic/src/hld/r_riic_hld_prv.c ****         }
 706:../generate/sc_drivers/r_riic/src/hld/r_riic_hld_prv.c **** 
 707:../generate/sc_drivers/r_riic/src/hld/r_riic_hld_prv.c ****         if (RIIC_SUB_ADDR_WIDTH_32_BITS == p_transfer->sub_address_type)
 708:../generate/sc_drivers/r_riic/src/hld/r_riic_hld_prv.c ****         {
 709:../generate/sc_drivers/r_riic/src/hld/r_riic_hld_prv.c ****             /* 32-bit address to be provided */
 710:../generate/sc_drivers/r_riic/src/hld/r_riic_hld_prv.c **** 
 711:../generate/sc_drivers/r_riic/src/hld/r_riic_hld_prv.c ****             /* Adding slave sub-address MSB */
 712:../generate/sc_drivers/r_riic/src/hld/r_riic_hld_prv.c ****             pw_buffer[buffer_count++] = (uint8_t) (p_transfer->sub_address >> 24);
 713:../generate/sc_drivers/r_riic/src/hld/r_riic_hld_prv.c **** 
 714:../generate/sc_drivers/r_riic/src/hld/r_riic_hld_prv.c ****             /* Adding slave sub-address 3rd byte */
 715:../generate/sc_drivers/r_riic/src/hld/r_riic_hld_prv.c ****             pw_buffer[buffer_count++] = (uint8_t) (p_transfer->sub_address >> 16);
 716:../generate/sc_drivers/r_riic/src/hld/r_riic_hld_prv.c **** 
 717:../generate/sc_drivers/r_riic/src/hld/r_riic_hld_prv.c ****             /* Adding sub-address 2nd byte */
 718:../generate/sc_drivers/r_riic/src/hld/r_riic_hld_prv.c ****             pw_buffer[buffer_count++] = (uint8_t) (p_transfer->sub_address >> 8);
 719:../generate/sc_drivers/r_riic/src/hld/r_riic_hld_prv.c **** 
 720:../generate/sc_drivers/r_riic/src/hld/r_riic_hld_prv.c ****             /* Adding sub-address LSB */
 721:../generate/sc_drivers/r_riic/src/hld/r_riic_hld_prv.c ****             pw_buffer[buffer_count++] = (uint8_t) (p_transfer->sub_address & 0x00ff);
 722:../generate/sc_drivers/r_riic/src/hld/r_riic_hld_prv.c ****         }
 723:../generate/sc_drivers/r_riic/src/hld/r_riic_hld_prv.c **** 
 724:../generate/sc_drivers/r_riic/src/hld/r_riic_hld_prv.c ****         /* Setting slave device address and read control */
 725:../generate/sc_drivers/r_riic/src/hld/r_riic_hld_prv.c ****         pw_buffer[buffer_count++] = (uint8_t) (p_transfer->device_address | ((uint8_t) SAMPLE_RIIC_
 726:../generate/sc_drivers/r_riic/src/hld/r_riic_hld_prv.c **** 
 727:../generate/sc_drivers/r_riic/src/hld/r_riic_hld_prv.c ****         /* Note that 10-bit addressing mode would add an extra byte here to hold the address LSB */
 728:../generate/sc_drivers/r_riic/src/hld/r_riic_hld_prv.c ****     }
 729:../generate/sc_drivers/r_riic/src/hld/r_riic_hld_prv.c **** 
 730:../generate/sc_drivers/r_riic/src/hld/r_riic_hld_prv.c ****     if (DRV_SUCCESS == ret)
 731:../generate/sc_drivers/r_riic/src/hld/r_riic_hld_prv.c ****     {
 732:../generate/sc_drivers/r_riic/src/hld/r_riic_hld_prv.c ****         /* wait for bus to be free */
 733:../generate/sc_drivers/r_riic/src/hld/r_riic_hld_prv.c ****         ret = wait_bus_master(channel, RIIC_BUS_MASTERSHIP_WAIT_FREE);
 734:../generate/sc_drivers/r_riic/src/hld/r_riic_hld_prv.c ****     }
 735:../generate/sc_drivers/r_riic/src/hld/r_riic_hld_prv.c **** 
 736:../generate/sc_drivers/r_riic/src/hld/r_riic_hld_prv.c ****     if (DRV_SUCCESS == ret)
 737:../generate/sc_drivers/r_riic/src/hld/r_riic_hld_prv.c ****     {
 738:../generate/sc_drivers/r_riic/src/hld/r_riic_hld_prv.c ****         /* start condition */
 739:../generate/sc_drivers/r_riic/src/hld/r_riic_hld_prv.c ****         ret = transmit_start(channel);
 740:../generate/sc_drivers/r_riic/src/hld/r_riic_hld_prv.c ****     }
 741:../generate/sc_drivers/r_riic/src/hld/r_riic_hld_prv.c **** 
 742:../generate/sc_drivers/r_riic/src/hld/r_riic_hld_prv.c ****     if (RIIC_SUB_ADDR_NONE != p_transfer->sub_address_type)
 743:../generate/sc_drivers/r_riic/src/hld/r_riic_hld_prv.c ****     {
 744:../generate/sc_drivers/r_riic/src/hld/r_riic_hld_prv.c ****         if (DRV_SUCCESS == ret)
 745:../generate/sc_drivers/r_riic/src/hld/r_riic_hld_prv.c ****         {
 746:../generate/sc_drivers/r_riic/src/hld/r_riic_hld_prv.c ****             /* write address header to device if required */
 747:../generate/sc_drivers/r_riic/src/hld/r_riic_hld_prv.c ****             ret = riic_write(channel, pw_buffer, (buffer_count - 1u));
 748:../generate/sc_drivers/r_riic/src/hld/r_riic_hld_prv.c ****         }
 749:../generate/sc_drivers/r_riic/src/hld/r_riic_hld_prv.c **** 
 750:../generate/sc_drivers/r_riic/src/hld/r_riic_hld_prv.c ****         /* Now setup read command */
 751:../generate/sc_drivers/r_riic/src/hld/r_riic_hld_prv.c ****         if (DRV_SUCCESS == ret)
 752:../generate/sc_drivers/r_riic/src/hld/r_riic_hld_prv.c ****         {
 753:../generate/sc_drivers/r_riic/src/hld/r_riic_hld_prv.c ****             ret = transmit_restart(channel);
 754:../generate/sc_drivers/r_riic/src/hld/r_riic_hld_prv.c ****         }
 755:../generate/sc_drivers/r_riic/src/hld/r_riic_hld_prv.c ****     }
 756:../generate/sc_drivers/r_riic/src/hld/r_riic_hld_prv.c **** 
 757:../generate/sc_drivers/r_riic/src/hld/r_riic_hld_prv.c ****     if (DRV_SUCCESS == ret)
 758:../generate/sc_drivers/r_riic/src/hld/r_riic_hld_prv.c ****     {
 759:../generate/sc_drivers/r_riic/src/hld/r_riic_hld_prv.c ****         /* issue read command */
 760:../generate/sc_drivers/r_riic/src/hld/r_riic_hld_prv.c ****         ret = riic_single_write(channel, pw_buffer[(buffer_count - 1u)], RIIC_TEND_WAIT_RECEIVE);
 761:../generate/sc_drivers/r_riic/src/hld/r_riic_hld_prv.c ****     }
 762:../generate/sc_drivers/r_riic/src/hld/r_riic_hld_prv.c **** 
 763:../generate/sc_drivers/r_riic/src/hld/r_riic_hld_prv.c ****     if (DRV_SUCCESS == ret)
 764:../generate/sc_drivers/r_riic/src/hld/r_riic_hld_prv.c ****     {
 765:../generate/sc_drivers/r_riic/src/hld/r_riic_hld_prv.c ****         /* read data */
 766:../generate/sc_drivers/r_riic/src/hld/r_riic_hld_prv.c ****         riic_read(channel, p_transfer->p_data_buffer, p_transfer->number_of_bytes);
 767:../generate/sc_drivers/r_riic/src/hld/r_riic_hld_prv.c ****     }
 768:../generate/sc_drivers/r_riic/src/hld/r_riic_hld_prv.c ****     else
 769:../generate/sc_drivers/r_riic/src/hld/r_riic_hld_prv.c ****     {
 770:../generate/sc_drivers/r_riic/src/hld/r_riic_hld_prv.c ****         gs_riic_stop_flg[channel] = DRV_FLAG_OFF_PRV_;
 771:../generate/sc_drivers/r_riic/src/hld/r_riic_hld_prv.c **** 
 772:../generate/sc_drivers/r_riic/src/hld/r_riic_hld_prv.c ****         /* exit cleanly in event of an error */
 773:../generate/sc_drivers/r_riic/src/hld/r_riic_hld_prv.c ****         R_RIIC_TransmitStop(channel);
 774:../generate/sc_drivers/r_riic/src/hld/r_riic_hld_prv.c ****     }
 775:../generate/sc_drivers/r_riic/src/hld/r_riic_hld_prv.c **** 
 776:../generate/sc_drivers/r_riic/src/hld/r_riic_hld_prv.c ****     return (ret);
 777:../generate/sc_drivers/r_riic/src/hld/r_riic_hld_prv.c **** }
 778:../generate/sc_drivers/r_riic/src/hld/r_riic_hld_prv.c **** /*******************************************************************************
 779:../generate/sc_drivers/r_riic/src/hld/r_riic_hld_prv.c ****  End of function read_data
 780:../generate/sc_drivers/r_riic/src/hld/r_riic_hld_prv.c ****  *******************************************************************************/
 781:../generate/sc_drivers/r_riic/src/hld/r_riic_hld_prv.c **** 
 782:../generate/sc_drivers/r_riic/src/hld/r_riic_hld_prv.c **** /**
 783:../generate/sc_drivers/r_riic/src/hld/r_riic_hld_prv.c ****  * @brief Read data from slave
 784:../generate/sc_drivers/r_riic/src/hld/r_riic_hld_prv.c ****  * @param[in] channel   : the device specific channel number (< RIIC_CFG_LLD_NUM_CHANNELS)
 785:../generate/sc_drivers/r_riic/src/hld/r_riic_hld_prv.c ****  * @param[in] d_adr     : Slave device address
 786:../generate/sc_drivers/r_riic/src/hld/r_riic_hld_prv.c ****  *            r_byte    : Number of bytes
 787:../generate/sc_drivers/r_riic/src/hld/r_riic_hld_prv.c ****  *            pr_buffer : buffer for data
 788:../generate/sc_drivers/r_riic/src/hld/r_riic_hld_prv.c ****  * @return    DRV_SUCCESS         : Success of RIIC operation
 789:../generate/sc_drivers/r_riic/src/hld/r_riic_hld_prv.c ****  *            DRV_ERROR           : Failure of RIIC operation
 790:../generate/sc_drivers/r_riic/src/hld/r_riic_hld_prv.c ****  **/
 791:../generate/sc_drivers/r_riic/src/hld/r_riic_hld_prv.c **** int_t read_next_data (int_t channel, uint8_t d_adr, uint32_t r_byte, uint8_t *pr_buffer)
 792:../generate/sc_drivers/r_riic/src/hld/r_riic_hld_prv.c **** {
 793:../generate/sc_drivers/r_riic/src/hld/r_riic_hld_prv.c ****     int_t ret;
 794:../generate/sc_drivers/r_riic/src/hld/r_riic_hld_prv.c ****     uint8_t pw_buffer;
 795:../generate/sc_drivers/r_riic/src/hld/r_riic_hld_prv.c **** 
 796:../generate/sc_drivers/r_riic/src/hld/r_riic_hld_prv.c ****     /* ensure that channel is valid */
 797:../generate/sc_drivers/r_riic/src/hld/r_riic_hld_prv.c ****     ret = validate_channel(channel);
 798:../generate/sc_drivers/r_riic/src/hld/r_riic_hld_prv.c **** 
 799:../generate/sc_drivers/r_riic/src/hld/r_riic_hld_prv.c ****     /* Setting slave device address and read control */
 800:../generate/sc_drivers/r_riic/src/hld/r_riic_hld_prv.c ****     pw_buffer = (uint8_t) (d_adr | ((uint8_t) SAMPLE_RIIC_RWCODE_PRV_));
 801:../generate/sc_drivers/r_riic/src/hld/r_riic_hld_prv.c **** 
 802:../generate/sc_drivers/r_riic/src/hld/r_riic_hld_prv.c ****     if (DRV_SUCCESS == ret)
 803:../generate/sc_drivers/r_riic/src/hld/r_riic_hld_prv.c ****     {
 804:../generate/sc_drivers/r_riic/src/hld/r_riic_hld_prv.c ****         /* wait for bus to be free */
 805:../generate/sc_drivers/r_riic/src/hld/r_riic_hld_prv.c ****         ret = wait_bus_master(channel, RIIC_BUS_MASTERSHIP_WAIT_FREE);
 806:../generate/sc_drivers/r_riic/src/hld/r_riic_hld_prv.c ****     }
 807:../generate/sc_drivers/r_riic/src/hld/r_riic_hld_prv.c **** 
 808:../generate/sc_drivers/r_riic/src/hld/r_riic_hld_prv.c ****     if (DRV_SUCCESS == ret)
 809:../generate/sc_drivers/r_riic/src/hld/r_riic_hld_prv.c ****     {
 810:../generate/sc_drivers/r_riic/src/hld/r_riic_hld_prv.c ****         /* start condition */
 811:../generate/sc_drivers/r_riic/src/hld/r_riic_hld_prv.c ****         ret = transmit_start(channel);
 812:../generate/sc_drivers/r_riic/src/hld/r_riic_hld_prv.c ****     }
 813:../generate/sc_drivers/r_riic/src/hld/r_riic_hld_prv.c **** 
 814:../generate/sc_drivers/r_riic/src/hld/r_riic_hld_prv.c ****     if (DRV_SUCCESS == ret)
 815:../generate/sc_drivers/r_riic/src/hld/r_riic_hld_prv.c ****     {
 816:../generate/sc_drivers/r_riic/src/hld/r_riic_hld_prv.c ****         ret = riic_single_write(channel, pw_buffer, RIIC_TEND_WAIT_RECEIVE);
 817:../generate/sc_drivers/r_riic/src/hld/r_riic_hld_prv.c ****     }
 818:../generate/sc_drivers/r_riic/src/hld/r_riic_hld_prv.c **** 
 819:../generate/sc_drivers/r_riic/src/hld/r_riic_hld_prv.c ****     if (DRV_SUCCESS == ret)
 820:../generate/sc_drivers/r_riic/src/hld/r_riic_hld_prv.c ****     {
 821:../generate/sc_drivers/r_riic/src/hld/r_riic_hld_prv.c ****         /* read data */
 822:../generate/sc_drivers/r_riic/src/hld/r_riic_hld_prv.c ****         riic_read(channel, pr_buffer, r_byte);
 823:../generate/sc_drivers/r_riic/src/hld/r_riic_hld_prv.c ****     }
 824:../generate/sc_drivers/r_riic/src/hld/r_riic_hld_prv.c ****     else
 825:../generate/sc_drivers/r_riic/src/hld/r_riic_hld_prv.c ****     {
 826:../generate/sc_drivers/r_riic/src/hld/r_riic_hld_prv.c ****         gs_riic_stop_flg[channel] = DRV_FLAG_OFF_PRV_;
 827:../generate/sc_drivers/r_riic/src/hld/r_riic_hld_prv.c **** 
 828:../generate/sc_drivers/r_riic/src/hld/r_riic_hld_prv.c ****         /* exit cleanly in event of an error */
 829:../generate/sc_drivers/r_riic/src/hld/r_riic_hld_prv.c ****         R_RIIC_TransmitStop(channel);
 830:../generate/sc_drivers/r_riic/src/hld/r_riic_hld_prv.c ****     }
 831:../generate/sc_drivers/r_riic/src/hld/r_riic_hld_prv.c **** 
 832:../generate/sc_drivers/r_riic/src/hld/r_riic_hld_prv.c ****     return (ret);
 833:../generate/sc_drivers/r_riic/src/hld/r_riic_hld_prv.c **** }
 834:../generate/sc_drivers/r_riic/src/hld/r_riic_hld_prv.c **** /*******************************************************************************
 835:../generate/sc_drivers/r_riic/src/hld/r_riic_hld_prv.c ****  End of function read_next_data
 836:../generate/sc_drivers/r_riic/src/hld/r_riic_hld_prv.c ****  *******************************************************************************/
 837:../generate/sc_drivers/r_riic/src/hld/r_riic_hld_prv.c **** 
 838:../generate/sc_drivers/r_riic/src/hld/r_riic_hld_prv.c **** /**
 839:../generate/sc_drivers/r_riic/src/hld/r_riic_hld_prv.c ****  * @brief Write data to slave in single byte addressing mode
 840:../generate/sc_drivers/r_riic/src/hld/r_riic_hld_prv.c ****  * @param[in] channel   : the device specific channel number (< RIIC_CFG_LLD_NUM_CHANNELS)
 841:../generate/sc_drivers/r_riic/src/hld/r_riic_hld_prv.c ****  * @param[in] d_adr     : Slave device address
 842:../generate/sc_drivers/r_riic/src/hld/r_riic_hld_prv.c ****  *            w_adr     : Slave sub-address
 843:../generate/sc_drivers/r_riic/src/hld/r_riic_hld_prv.c ****  *            w_byte    : Number of bytes
 844:../generate/sc_drivers/r_riic/src/hld/r_riic_hld_prv.c ****  *            pw_buffer : buffer for data
 845:../generate/sc_drivers/r_riic/src/hld/r_riic_hld_prv.c ****  * @return    DRV_SUCCESS         : Success of RIIC operation
 846:../generate/sc_drivers/r_riic/src/hld/r_riic_hld_prv.c ****  *            DRV_ERROR           : Failure of RIIC operation
 847:../generate/sc_drivers/r_riic/src/hld/r_riic_hld_prv.c ****  *            DRV_ERROR_RIIC_NACK : Failure of RIIC transmission due to
 848:../generate/sc_drivers/r_riic/src/hld/r_riic_hld_prv.c ****  *                                     NACK reception
 849:../generate/sc_drivers/r_riic/src/hld/r_riic_hld_prv.c ****  *            DRV_ERROR   : IIC operation timed out
 850:../generate/sc_drivers/r_riic/src/hld/r_riic_hld_prv.c ****  **/
 851:../generate/sc_drivers/r_riic/src/hld/r_riic_hld_prv.c **** int_t write_data (int_t channel, st_r_drv_riic_transfer_t *p_transfer)
 852:../generate/sc_drivers/r_riic/src/hld/r_riic_hld_prv.c **** {
 853:../generate/sc_drivers/r_riic/src/hld/r_riic_hld_prv.c ****     int_t ret = DRV_ERROR;
 854:../generate/sc_drivers/r_riic/src/hld/r_riic_hld_prv.c ****     uint8_t pw_buffer[10];
 855:../generate/sc_drivers/r_riic/src/hld/r_riic_hld_prv.c ****     uint8_t buffer_count = 0u;
 856:../generate/sc_drivers/r_riic/src/hld/r_riic_hld_prv.c **** 
 857:../generate/sc_drivers/r_riic/src/hld/r_riic_hld_prv.c ****     /* ensure that channel is valid */
 858:../generate/sc_drivers/r_riic/src/hld/r_riic_hld_prv.c ****     ret = validate_channel(channel);
 859:../generate/sc_drivers/r_riic/src/hld/r_riic_hld_prv.c **** 
 860:../generate/sc_drivers/r_riic/src/hld/r_riic_hld_prv.c ****     if (RIIC_SUB_ADDR_MAX <= p_transfer->sub_address_type)
 861:../generate/sc_drivers/r_riic/src/hld/r_riic_hld_prv.c ****     {
 862:../generate/sc_drivers/r_riic/src/hld/r_riic_hld_prv.c ****         /* unrecognised sub-address mode */
 863:../generate/sc_drivers/r_riic/src/hld/r_riic_hld_prv.c ****         ret = DRV_ERROR;
 864:../generate/sc_drivers/r_riic/src/hld/r_riic_hld_prv.c ****     }
 865:../generate/sc_drivers/r_riic/src/hld/r_riic_hld_prv.c **** 
 866:../generate/sc_drivers/r_riic/src/hld/r_riic_hld_prv.c ****     /* Construct header to send sub address (if required) to device & start operation */
 867:../generate/sc_drivers/r_riic/src/hld/r_riic_hld_prv.c ****     if (DRV_SUCCESS == ret)
 868:../generate/sc_drivers/r_riic/src/hld/r_riic_hld_prv.c ****     {
 869:../generate/sc_drivers/r_riic/src/hld/r_riic_hld_prv.c ****         /* Adding device addressing and write control (for sub-address) */
 870:../generate/sc_drivers/r_riic/src/hld/r_riic_hld_prv.c ****         pw_buffer[buffer_count++] = (uint8_t) (p_transfer->device_address & ((uint8_t) ( ~SAMPLE_RI
 871:../generate/sc_drivers/r_riic/src/hld/r_riic_hld_prv.c **** 
 872:../generate/sc_drivers/r_riic/src/hld/r_riic_hld_prv.c ****         /* Note that 10-bit addressing mode would add an extra byte here to hold the address LSB */
 873:../generate/sc_drivers/r_riic/src/hld/r_riic_hld_prv.c **** 
 874:../generate/sc_drivers/r_riic/src/hld/r_riic_hld_prv.c ****         if (RIIC_SUB_ADDR_WIDTH_8_BITS == p_transfer->sub_address_type)
 875:../generate/sc_drivers/r_riic/src/hld/r_riic_hld_prv.c ****         {
 876:../generate/sc_drivers/r_riic/src/hld/r_riic_hld_prv.c ****             /* 8-bit address to be provided */
 877:../generate/sc_drivers/r_riic/src/hld/r_riic_hld_prv.c ****             pw_buffer[buffer_count++] = (uint8_t) (p_transfer->sub_address & 0x00ff);
 878:../generate/sc_drivers/r_riic/src/hld/r_riic_hld_prv.c ****         }
 879:../generate/sc_drivers/r_riic/src/hld/r_riic_hld_prv.c **** 
 880:../generate/sc_drivers/r_riic/src/hld/r_riic_hld_prv.c ****         if (RIIC_SUB_ADDR_WIDTH_16_BITS == p_transfer->sub_address_type)
 881:../generate/sc_drivers/r_riic/src/hld/r_riic_hld_prv.c ****         {
 882:../generate/sc_drivers/r_riic/src/hld/r_riic_hld_prv.c ****             /* 16-bit address to be provided */
 883:../generate/sc_drivers/r_riic/src/hld/r_riic_hld_prv.c **** 
 884:../generate/sc_drivers/r_riic/src/hld/r_riic_hld_prv.c ****             /* Adding sub-address MSB */
 885:../generate/sc_drivers/r_riic/src/hld/r_riic_hld_prv.c ****             pw_buffer[buffer_count++] = (uint8_t) (p_transfer->sub_address >> 8);
 886:../generate/sc_drivers/r_riic/src/hld/r_riic_hld_prv.c **** 
 887:../generate/sc_drivers/r_riic/src/hld/r_riic_hld_prv.c ****             /* Adding sub-address LSB */
 888:../generate/sc_drivers/r_riic/src/hld/r_riic_hld_prv.c ****             pw_buffer[buffer_count++] = (uint8_t) (p_transfer->sub_address & 0x00ff);
 889:../generate/sc_drivers/r_riic/src/hld/r_riic_hld_prv.c ****         }
 890:../generate/sc_drivers/r_riic/src/hld/r_riic_hld_prv.c **** 
 891:../generate/sc_drivers/r_riic/src/hld/r_riic_hld_prv.c ****         if (RIIC_SUB_ADDR_WIDTH_32_BITS == p_transfer->sub_address_type)
 892:../generate/sc_drivers/r_riic/src/hld/r_riic_hld_prv.c ****         {
 893:../generate/sc_drivers/r_riic/src/hld/r_riic_hld_prv.c ****             /* 32-bit address to be provided */
 894:../generate/sc_drivers/r_riic/src/hld/r_riic_hld_prv.c **** 
 895:../generate/sc_drivers/r_riic/src/hld/r_riic_hld_prv.c ****             /* Adding slave sub-address MSB */
 896:../generate/sc_drivers/r_riic/src/hld/r_riic_hld_prv.c ****             pw_buffer[buffer_count++] = (uint8_t) (p_transfer->sub_address >> 24);
 897:../generate/sc_drivers/r_riic/src/hld/r_riic_hld_prv.c **** 
 898:../generate/sc_drivers/r_riic/src/hld/r_riic_hld_prv.c ****             /* Adding slave sub-address 3rd byte */
 899:../generate/sc_drivers/r_riic/src/hld/r_riic_hld_prv.c ****             pw_buffer[buffer_count++] = (uint8_t) (p_transfer->sub_address >> 16);
 900:../generate/sc_drivers/r_riic/src/hld/r_riic_hld_prv.c **** 
 901:../generate/sc_drivers/r_riic/src/hld/r_riic_hld_prv.c ****             /* Adding sub-address 2nd byte */
 902:../generate/sc_drivers/r_riic/src/hld/r_riic_hld_prv.c ****             pw_buffer[buffer_count++] = (uint8_t) (p_transfer->sub_address >> 8);
 903:../generate/sc_drivers/r_riic/src/hld/r_riic_hld_prv.c **** 
 904:../generate/sc_drivers/r_riic/src/hld/r_riic_hld_prv.c ****             /* Adding sub-address LSB */
 905:../generate/sc_drivers/r_riic/src/hld/r_riic_hld_prv.c ****             pw_buffer[buffer_count++] = (uint8_t) (p_transfer->sub_address & 0x00ff);
 906:../generate/sc_drivers/r_riic/src/hld/r_riic_hld_prv.c ****         }
 907:../generate/sc_drivers/r_riic/src/hld/r_riic_hld_prv.c ****     }
 908:../generate/sc_drivers/r_riic/src/hld/r_riic_hld_prv.c **** 
 909:../generate/sc_drivers/r_riic/src/hld/r_riic_hld_prv.c ****     if (DRV_SUCCESS == ret)
 910:../generate/sc_drivers/r_riic/src/hld/r_riic_hld_prv.c ****     {
 911:../generate/sc_drivers/r_riic/src/hld/r_riic_hld_prv.c ****         /* wait for bus to be free */
 912:../generate/sc_drivers/r_riic/src/hld/r_riic_hld_prv.c ****         ret = wait_bus_master(channel, RIIC_BUS_MASTERSHIP_WAIT_FREE);
 913:../generate/sc_drivers/r_riic/src/hld/r_riic_hld_prv.c ****     }
 914:../generate/sc_drivers/r_riic/src/hld/r_riic_hld_prv.c **** 
 915:../generate/sc_drivers/r_riic/src/hld/r_riic_hld_prv.c ****     if (DRV_SUCCESS == ret)
 916:../generate/sc_drivers/r_riic/src/hld/r_riic_hld_prv.c ****     {
 917:../generate/sc_drivers/r_riic/src/hld/r_riic_hld_prv.c ****         /* start condition */
 918:../generate/sc_drivers/r_riic/src/hld/r_riic_hld_prv.c ****         ret = transmit_start(channel);
 919:../generate/sc_drivers/r_riic/src/hld/r_riic_hld_prv.c ****     }
 920:../generate/sc_drivers/r_riic/src/hld/r_riic_hld_prv.c **** 
 921:../generate/sc_drivers/r_riic/src/hld/r_riic_hld_prv.c ****     if (DRV_SUCCESS == ret)
 922:../generate/sc_drivers/r_riic/src/hld/r_riic_hld_prv.c ****     {
 923:../generate/sc_drivers/r_riic/src/hld/r_riic_hld_prv.c ****         /* write address header to device if required */
 924:../generate/sc_drivers/r_riic/src/hld/r_riic_hld_prv.c ****         ret = riic_write(channel, pw_buffer, buffer_count);
 925:../generate/sc_drivers/r_riic/src/hld/r_riic_hld_prv.c ****     }
 926:../generate/sc_drivers/r_riic/src/hld/r_riic_hld_prv.c **** 
 927:../generate/sc_drivers/r_riic/src/hld/r_riic_hld_prv.c ****     if (DRV_SUCCESS == ret)
 928:../generate/sc_drivers/r_riic/src/hld/r_riic_hld_prv.c ****     {
 929:../generate/sc_drivers/r_riic/src/hld/r_riic_hld_prv.c ****         /* write remaining bytes */
 930:../generate/sc_drivers/r_riic/src/hld/r_riic_hld_prv.c ****         ret = riic_write(channel, p_transfer->p_data_buffer, p_transfer->number_of_bytes);
 931:../generate/sc_drivers/r_riic/src/hld/r_riic_hld_prv.c ****     }
 932:../generate/sc_drivers/r_riic/src/hld/r_riic_hld_prv.c **** 
 933:../generate/sc_drivers/r_riic/src/hld/r_riic_hld_prv.c ****     gs_riic_stop_flg[channel] = DRV_FLAG_OFF_PRV_;
 934:../generate/sc_drivers/r_riic/src/hld/r_riic_hld_prv.c **** 
 935:../generate/sc_drivers/r_riic/src/hld/r_riic_hld_prv.c ****     /* stop condition */
 936:../generate/sc_drivers/r_riic/src/hld/r_riic_hld_prv.c ****     R_RIIC_TransmitStop(channel);
 937:../generate/sc_drivers/r_riic/src/hld/r_riic_hld_prv.c **** 
 938:../generate/sc_drivers/r_riic/src/hld/r_riic_hld_prv.c ****     /* wait for finish */
 939:../generate/sc_drivers/r_riic/src/hld/r_riic_hld_prv.c ****     wait_stop(channel);
 940:../generate/sc_drivers/r_riic/src/hld/r_riic_hld_prv.c **** 
 941:../generate/sc_drivers/r_riic/src/hld/r_riic_hld_prv.c ****     return (ret);
 942:../generate/sc_drivers/r_riic/src/hld/r_riic_hld_prv.c **** }
 943:../generate/sc_drivers/r_riic/src/hld/r_riic_hld_prv.c **** /*******************************************************************************
 944:../generate/sc_drivers/r_riic/src/hld/r_riic_hld_prv.c ****  End of function write_data
 945:../generate/sc_drivers/r_riic/src/hld/r_riic_hld_prv.c ****  *******************************************************************************/
 946:../generate/sc_drivers/r_riic/src/hld/r_riic_hld_prv.c **** 
 947:../generate/sc_drivers/r_riic/src/hld/r_riic_hld_prv.c **** /**
 948:../generate/sc_drivers/r_riic/src/hld/r_riic_hld_prv.c ****  * @brief Wait for transmit end flag set for selected channel
 949:../generate/sc_drivers/r_riic/src/hld/r_riic_hld_prv.c ****  * @param[in] channel : the device specific channel number (< RIIC_CFG_LLD_NUM_CHANNELS)
 950:../generate/sc_drivers/r_riic/src/hld/r_riic_hld_prv.c ****  * @param[in] mode    : RIIC_TEND_WAIT_TRANSMIT
 951:../generate/sc_drivers/r_riic/src/hld/r_riic_hld_prv.c ****  *                    : RIIC_TEND_WAIT_RECEIVE
 952:../generate/sc_drivers/r_riic/src/hld/r_riic_hld_prv.c ****  * @return    DRV_ERROR or DRV_SUCCESS
 953:../generate/sc_drivers/r_riic/src/hld/r_riic_hld_prv.c ****  **/
 954:../generate/sc_drivers/r_riic/src/hld/r_riic_hld_prv.c **** static int_t wait_tx_end (int_t channel, uint32_t mode)
 955:../generate/sc_drivers/r_riic/src/hld/r_riic_hld_prv.c **** {
 956:../generate/sc_drivers/r_riic/src/hld/r_riic_hld_prv.c ****     int_t timeout_monitor = DRV_SUCCESS;
 957:../generate/sc_drivers/r_riic/src/hld/r_riic_hld_prv.c **** 
 958:../generate/sc_drivers/r_riic/src/hld/r_riic_hld_prv.c ****     /* Start timing for operation */
 959:../generate/sc_drivers/r_riic/src/hld/r_riic_hld_prv.c ****     start_timeout_monitor(channel);
 960:../generate/sc_drivers/r_riic/src/hld/r_riic_hld_prv.c **** 
 961:../generate/sc_drivers/r_riic/src/hld/r_riic_hld_prv.c ****     if (RIIC_TEND_WAIT_TRANSMIT == mode)
 962:../generate/sc_drivers/r_riic/src/hld/r_riic_hld_prv.c ****     {
 963:../generate/sc_drivers/r_riic/src/hld/r_riic_hld_prv.c ****         R_RIIC_EnableTransEndIntr(channel);
 964:../generate/sc_drivers/r_riic/src/hld/r_riic_hld_prv.c ****         /* Wait */
 965:../generate/sc_drivers/r_riic/src/hld/r_riic_hld_prv.c ****         while ((DRV_FLAG_OFF_PRV_ == gs_riic_transmit_end_flg[channel]) && (DRV_SUCCESS == timeout_
 966:../generate/sc_drivers/r_riic/src/hld/r_riic_hld_prv.c ****         {
 967:../generate/sc_drivers/r_riic/src/hld/r_riic_hld_prv.c ****             /* get timeout status */
 968:../generate/sc_drivers/r_riic/src/hld/r_riic_hld_prv.c ****             timeout_monitor = get_timeout_status(channel);
 969:../generate/sc_drivers/r_riic/src/hld/r_riic_hld_prv.c ****         }
 970:../generate/sc_drivers/r_riic/src/hld/r_riic_hld_prv.c ****         R_RIIC_DisableTransEndIntr(channel);
 971:../generate/sc_drivers/r_riic/src/hld/r_riic_hld_prv.c ****     }
 972:../generate/sc_drivers/r_riic/src/hld/r_riic_hld_prv.c ****     else
 973:../generate/sc_drivers/r_riic/src/hld/r_riic_hld_prv.c ****     {
 974:../generate/sc_drivers/r_riic/src/hld/r_riic_hld_prv.c ****         /* RIIC_TEND_WAIT_RECEIVE */
 975:../generate/sc_drivers/r_riic/src/hld/r_riic_hld_prv.c ****         while ((DRV_FLAG_OFF_PRV_ == gs_riic_receive_full_flg[channel]) && (DRV_SUCCESS == timeout_
 976:../generate/sc_drivers/r_riic/src/hld/r_riic_hld_prv.c ****         {
 977:../generate/sc_drivers/r_riic/src/hld/r_riic_hld_prv.c ****             /* get timeout status */
 978:../generate/sc_drivers/r_riic/src/hld/r_riic_hld_prv.c ****             timeout_monitor = get_timeout_status(channel);
 979:../generate/sc_drivers/r_riic/src/hld/r_riic_hld_prv.c ****         }
 980:../generate/sc_drivers/r_riic/src/hld/r_riic_hld_prv.c ****     }
 981:../generate/sc_drivers/r_riic/src/hld/r_riic_hld_prv.c **** 
 982:../generate/sc_drivers/r_riic/src/hld/r_riic_hld_prv.c ****     /* Stop timeout monitoring */
 983:../generate/sc_drivers/r_riic/src/hld/r_riic_hld_prv.c ****     stop_timeout_monitor(channel);
 984:../generate/sc_drivers/r_riic/src/hld/r_riic_hld_prv.c **** 
 985:../generate/sc_drivers/r_riic/src/hld/r_riic_hld_prv.c ****     /* return status */
 986:../generate/sc_drivers/r_riic/src/hld/r_riic_hld_prv.c ****     return (timeout_monitor);
 987:../generate/sc_drivers/r_riic/src/hld/r_riic_hld_prv.c **** }
 988:../generate/sc_drivers/r_riic/src/hld/r_riic_hld_prv.c **** /*******************************************************************************
 989:../generate/sc_drivers/r_riic/src/hld/r_riic_hld_prv.c ****  End of function wait_tx_end
 990:../generate/sc_drivers/r_riic/src/hld/r_riic_hld_prv.c ****  ******************************************************************************/
 991:../generate/sc_drivers/r_riic/src/hld/r_riic_hld_prv.c **** 
 992:../generate/sc_drivers/r_riic/src/hld/r_riic_hld_prv.c **** /**
 993:../generate/sc_drivers/r_riic/src/hld/r_riic_hld_prv.c ****  * @brief Wait for receive full flag set for selected channel
 994:../generate/sc_drivers/r_riic/src/hld/r_riic_hld_prv.c ****  * @param[in] channel : the device specific channel number (< RIIC_CFG_LLD_NUM_CHANNELS)
 995:../generate/sc_drivers/r_riic/src/hld/r_riic_hld_prv.c ****  * @return    DRV_ERROR or DRV_SUCCESS
 996:../generate/sc_drivers/r_riic/src/hld/r_riic_hld_prv.c ****  **/
 997:../generate/sc_drivers/r_riic/src/hld/r_riic_hld_prv.c **** static int_t wait_rx_full (int_t channel)
 998:../generate/sc_drivers/r_riic/src/hld/r_riic_hld_prv.c **** {
 999:../generate/sc_drivers/r_riic/src/hld/r_riic_hld_prv.c ****     int_t timeout_monitor = DRV_SUCCESS;
1000:../generate/sc_drivers/r_riic/src/hld/r_riic_hld_prv.c **** 
1001:../generate/sc_drivers/r_riic/src/hld/r_riic_hld_prv.c ****     /* Start timing for operation */
1002:../generate/sc_drivers/r_riic/src/hld/r_riic_hld_prv.c ****     start_timeout_monitor(channel);
1003:../generate/sc_drivers/r_riic/src/hld/r_riic_hld_prv.c **** 
1004:../generate/sc_drivers/r_riic/src/hld/r_riic_hld_prv.c ****     /* Wait */
1005:../generate/sc_drivers/r_riic/src/hld/r_riic_hld_prv.c ****     while ((DRV_FLAG_OFF_PRV_ == gs_riic_receive_full_flg[channel]) && (DRV_SUCCESS == timeout_moni
1006:../generate/sc_drivers/r_riic/src/hld/r_riic_hld_prv.c ****     {
1007:../generate/sc_drivers/r_riic/src/hld/r_riic_hld_prv.c ****         /* get timeout status */
1008:../generate/sc_drivers/r_riic/src/hld/r_riic_hld_prv.c ****         timeout_monitor = get_timeout_status(channel);
1009:../generate/sc_drivers/r_riic/src/hld/r_riic_hld_prv.c ****     }
1010:../generate/sc_drivers/r_riic/src/hld/r_riic_hld_prv.c **** 
1011:../generate/sc_drivers/r_riic/src/hld/r_riic_hld_prv.c ****     /* Stop timeout monitoring */
1012:../generate/sc_drivers/r_riic/src/hld/r_riic_hld_prv.c ****     stop_timeout_monitor(channel);
1013:../generate/sc_drivers/r_riic/src/hld/r_riic_hld_prv.c **** 
1014:../generate/sc_drivers/r_riic/src/hld/r_riic_hld_prv.c ****     /* return status */
1015:../generate/sc_drivers/r_riic/src/hld/r_riic_hld_prv.c ****     return (timeout_monitor);
1016:../generate/sc_drivers/r_riic/src/hld/r_riic_hld_prv.c **** }
1017:../generate/sc_drivers/r_riic/src/hld/r_riic_hld_prv.c **** /*******************************************************************************
1018:../generate/sc_drivers/r_riic/src/hld/r_riic_hld_prv.c ****  End of function wait_rx_full
1019:../generate/sc_drivers/r_riic/src/hld/r_riic_hld_prv.c ****  *******************************************************************************/
1020:../generate/sc_drivers/r_riic/src/hld/r_riic_hld_prv.c **** 
1021:../generate/sc_drivers/r_riic/src/hld/r_riic_hld_prv.c **** /**
1022:../generate/sc_drivers/r_riic/src/hld/r_riic_hld_prv.c ****  * @brief Wait for transmit empty flag set for selected channel
1023:../generate/sc_drivers/r_riic/src/hld/r_riic_hld_prv.c ****  * @param[in] channel : the device specific channel number (< RIIC_CFG_LLD_NUM_CHANNELS)
1024:../generate/sc_drivers/r_riic/src/hld/r_riic_hld_prv.c ****  * @return    DRV_ERROR or DRV_SUCCESS
1025:../generate/sc_drivers/r_riic/src/hld/r_riic_hld_prv.c ****  **/
1026:../generate/sc_drivers/r_riic/src/hld/r_riic_hld_prv.c **** static int_t wait_tx_empty (int_t channel)
1027:../generate/sc_drivers/r_riic/src/hld/r_riic_hld_prv.c **** {
1028:../generate/sc_drivers/r_riic/src/hld/r_riic_hld_prv.c ****     int_t timeout_monitor = DRV_SUCCESS;
1029:../generate/sc_drivers/r_riic/src/hld/r_riic_hld_prv.c **** 
1030:../generate/sc_drivers/r_riic/src/hld/r_riic_hld_prv.c ****     /* Start timing for operation */
1031:../generate/sc_drivers/r_riic/src/hld/r_riic_hld_prv.c ****     start_timeout_monitor(channel);
1032:../generate/sc_drivers/r_riic/src/hld/r_riic_hld_prv.c **** 
1033:../generate/sc_drivers/r_riic/src/hld/r_riic_hld_prv.c ****     /* Wait */
1034:../generate/sc_drivers/r_riic/src/hld/r_riic_hld_prv.c ****     while ((DRV_FLAG_OFF_PRV_ == gs_riic_transmit_empty_flg[channel]) && (DRV_SUCCESS == timeout_mo
1035:../generate/sc_drivers/r_riic/src/hld/r_riic_hld_prv.c ****     {
1036:../generate/sc_drivers/r_riic/src/hld/r_riic_hld_prv.c ****         /* get timeout status */
1037:../generate/sc_drivers/r_riic/src/hld/r_riic_hld_prv.c ****         timeout_monitor = get_timeout_status(channel);
1038:../generate/sc_drivers/r_riic/src/hld/r_riic_hld_prv.c ****     }
1039:../generate/sc_drivers/r_riic/src/hld/r_riic_hld_prv.c **** 
1040:../generate/sc_drivers/r_riic/src/hld/r_riic_hld_prv.c ****     /* Stop timeout monitoring */
1041:../generate/sc_drivers/r_riic/src/hld/r_riic_hld_prv.c ****     stop_timeout_monitor(channel);
1042:../generate/sc_drivers/r_riic/src/hld/r_riic_hld_prv.c **** 
1043:../generate/sc_drivers/r_riic/src/hld/r_riic_hld_prv.c ****     /* return status */
1044:../generate/sc_drivers/r_riic/src/hld/r_riic_hld_prv.c ****     return (timeout_monitor);
1045:../generate/sc_drivers/r_riic/src/hld/r_riic_hld_prv.c **** }
1046:../generate/sc_drivers/r_riic/src/hld/r_riic_hld_prv.c **** /*******************************************************************************
1047:../generate/sc_drivers/r_riic/src/hld/r_riic_hld_prv.c ****  End of function wait_tx_empty
1048:../generate/sc_drivers/r_riic/src/hld/r_riic_hld_prv.c ****  ******************************************************************************/
1049:../generate/sc_drivers/r_riic/src/hld/r_riic_hld_prv.c **** 
1050:../generate/sc_drivers/r_riic/src/hld/r_riic_hld_prv.c **** /**
1051:../generate/sc_drivers/r_riic/src/hld/r_riic_hld_prv.c ****  * @brief Wait for bus busy or bus free state for selected channel
1052:../generate/sc_drivers/r_riic/src/hld/r_riic_hld_prv.c ****  * @param[in] channel : the device specific channel number (< RIIC_CFG_LLD_NUM_CHANNELS)
1053:../generate/sc_drivers/r_riic/src/hld/r_riic_hld_prv.c ****  * @param[in] mode    : RIIC_BUS_MASTERSHIP_WAIT_FREE : wait till bus free
1054:../generate/sc_drivers/r_riic/src/hld/r_riic_hld_prv.c ****  *                    : RIIC_BUS_MASTERSHIP_WAIT_BUSY : wait till bus busy
1055:../generate/sc_drivers/r_riic/src/hld/r_riic_hld_prv.c ****  * @return    DRV_ERROR or DRV_SUCCESS
1056:../generate/sc_drivers/r_riic/src/hld/r_riic_hld_prv.c ****  **/
1057:../generate/sc_drivers/r_riic/src/hld/r_riic_hld_prv.c **** static int_t wait_bus_master (int_t channel, uint32_t mode)
1058:../generate/sc_drivers/r_riic/src/hld/r_riic_hld_prv.c **** {
1059:../generate/sc_drivers/r_riic/src/hld/r_riic_hld_prv.c ****     int_t timeout_monitor = DRV_SUCCESS;
1060:../generate/sc_drivers/r_riic/src/hld/r_riic_hld_prv.c ****     uint8_t level_check = 0u;
1061:../generate/sc_drivers/r_riic/src/hld/r_riic_hld_prv.c **** 
1062:../generate/sc_drivers/r_riic/src/hld/r_riic_hld_prv.c ****     R_RIIC_ReleaseLowHold(channel);
1063:../generate/sc_drivers/r_riic/src/hld/r_riic_hld_prv.c **** 
1064:../generate/sc_drivers/r_riic/src/hld/r_riic_hld_prv.c ****     /* Start timing for operation */
1065:../generate/sc_drivers/r_riic/src/hld/r_riic_hld_prv.c ****     start_timeout_monitor(channel);
1066:../generate/sc_drivers/r_riic/src/hld/r_riic_hld_prv.c **** 
1067:../generate/sc_drivers/r_riic/src/hld/r_riic_hld_prv.c ****     if (RIIC_BUS_MASTERSHIP_WAIT_FREE == mode)
1068:../generate/sc_drivers/r_riic/src/hld/r_riic_hld_prv.c ****     {
1069:../generate/sc_drivers/r_riic/src/hld/r_riic_hld_prv.c ****         level_check = 1u;
1070:../generate/sc_drivers/r_riic/src/hld/r_riic_hld_prv.c ****     }
1071:../generate/sc_drivers/r_riic/src/hld/r_riic_hld_prv.c **** 
1072:../generate/sc_drivers/r_riic/src/hld/r_riic_hld_prv.c ****     while ((R_RIIC_IsBusBusy(channel) == level_check) && (DRV_SUCCESS == timeout_monitor))
1073:../generate/sc_drivers/r_riic/src/hld/r_riic_hld_prv.c ****     {
1074:../generate/sc_drivers/r_riic/src/hld/r_riic_hld_prv.c ****         /* get timeout status */
1075:../generate/sc_drivers/r_riic/src/hld/r_riic_hld_prv.c ****         timeout_monitor = get_timeout_status(channel);
1076:../generate/sc_drivers/r_riic/src/hld/r_riic_hld_prv.c ****     }
1077:../generate/sc_drivers/r_riic/src/hld/r_riic_hld_prv.c **** 
1078:../generate/sc_drivers/r_riic/src/hld/r_riic_hld_prv.c ****     /* Stop timeout monitoring */
1079:../generate/sc_drivers/r_riic/src/hld/r_riic_hld_prv.c ****     stop_timeout_monitor(channel);
1080:../generate/sc_drivers/r_riic/src/hld/r_riic_hld_prv.c **** 
1081:../generate/sc_drivers/r_riic/src/hld/r_riic_hld_prv.c ****     /* return status */
1082:../generate/sc_drivers/r_riic/src/hld/r_riic_hld_prv.c ****     return (timeout_monitor);
1083:../generate/sc_drivers/r_riic/src/hld/r_riic_hld_prv.c **** }
1084:../generate/sc_drivers/r_riic/src/hld/r_riic_hld_prv.c **** /*******************************************************************************
1085:../generate/sc_drivers/r_riic/src/hld/r_riic_hld_prv.c ****  End of function wait_bus_master
1086:../generate/sc_drivers/r_riic/src/hld/r_riic_hld_prv.c ****  ******************************************************************************/
1087:../generate/sc_drivers/r_riic/src/hld/r_riic_hld_prv.c **** 
1088:../generate/sc_drivers/r_riic/src/hld/r_riic_hld_prv.c **** /**
1089:../generate/sc_drivers/r_riic/src/hld/r_riic_hld_prv.c ****  * @brief Wait for stop bit state for selected channel
1090:../generate/sc_drivers/r_riic/src/hld/r_riic_hld_prv.c ****  * @param[in] channel : the device specific channel number (< RIIC_CFG_LLD_NUM_CHANNELS)
1091:../generate/sc_drivers/r_riic/src/hld/r_riic_hld_prv.c ****  * @return    DRV_ERROR or DRV_SUCCESS
1092:../generate/sc_drivers/r_riic/src/hld/r_riic_hld_prv.c ****  **/
1093:../generate/sc_drivers/r_riic/src/hld/r_riic_hld_prv.c **** static int_t wait_stop (int_t channel)
1094:../generate/sc_drivers/r_riic/src/hld/r_riic_hld_prv.c **** {
1095:../generate/sc_drivers/r_riic/src/hld/r_riic_hld_prv.c ****     int_t timeout_monitor = DRV_SUCCESS;
1096:../generate/sc_drivers/r_riic/src/hld/r_riic_hld_prv.c **** 
1097:../generate/sc_drivers/r_riic/src/hld/r_riic_hld_prv.c ****     /* Start timing for operation */
1098:../generate/sc_drivers/r_riic/src/hld/r_riic_hld_prv.c ****     start_timeout_monitor(channel);
1099:../generate/sc_drivers/r_riic/src/hld/r_riic_hld_prv.c **** 
1100:../generate/sc_drivers/r_riic/src/hld/r_riic_hld_prv.c ****     /* Wait */
1101:../generate/sc_drivers/r_riic/src/hld/r_riic_hld_prv.c ****     while ((DRV_FLAG_OFF_PRV_ == gs_riic_stop_flg[channel]) && (DRV_SUCCESS == timeout_monitor))
1102:../generate/sc_drivers/r_riic/src/hld/r_riic_hld_prv.c ****     {
1103:../generate/sc_drivers/r_riic/src/hld/r_riic_hld_prv.c ****         /* get timeout status */
1104:../generate/sc_drivers/r_riic/src/hld/r_riic_hld_prv.c ****         timeout_monitor = get_timeout_status(channel);
1105:../generate/sc_drivers/r_riic/src/hld/r_riic_hld_prv.c ****     }
1106:../generate/sc_drivers/r_riic/src/hld/r_riic_hld_prv.c **** 
1107:../generate/sc_drivers/r_riic/src/hld/r_riic_hld_prv.c ****     /* Stop timeout monitoring */
1108:../generate/sc_drivers/r_riic/src/hld/r_riic_hld_prv.c ****     stop_timeout_monitor(channel);
1109:../generate/sc_drivers/r_riic/src/hld/r_riic_hld_prv.c **** 
1110:../generate/sc_drivers/r_riic/src/hld/r_riic_hld_prv.c ****     /* return status */
1111:../generate/sc_drivers/r_riic/src/hld/r_riic_hld_prv.c ****     return (timeout_monitor);
1112:../generate/sc_drivers/r_riic/src/hld/r_riic_hld_prv.c **** }
1113:../generate/sc_drivers/r_riic/src/hld/r_riic_hld_prv.c **** /*******************************************************************************
1114:../generate/sc_drivers/r_riic/src/hld/r_riic_hld_prv.c ****  End of function wait_stop
1115:../generate/sc_drivers/r_riic/src/hld/r_riic_hld_prv.c ****  *******************************************************************************/
1116:../generate/sc_drivers/r_riic/src/hld/r_riic_hld_prv.c **** 
1117:../generate/sc_drivers/r_riic/src/hld/r_riic_hld_prv.c **** /**
1118:../generate/sc_drivers/r_riic/src/hld/r_riic_hld_prv.c ****  * @brief Enable timeout monitor
1119:../generate/sc_drivers/r_riic/src/hld/r_riic_hld_prv.c ****  * @param[in] channel : the device specific channel number (< RIIC_CFG_LLD_NUM_CHANNELS)
1120:../generate/sc_drivers/r_riic/src/hld/r_riic_hld_prv.c ****  * @return    DRV_ERROR or DRV_SUCCESS
1121:../generate/sc_drivers/r_riic/src/hld/r_riic_hld_prv.c ****  **/
1122:../generate/sc_drivers/r_riic/src/hld/r_riic_hld_prv.c **** static void start_timeout_monitor (int_t channel)
1123:../generate/sc_drivers/r_riic/src/hld/r_riic_hld_prv.c **** {
1124:../generate/sc_drivers/r_riic/src/hld/r_riic_hld_prv.c **** #if (1u == SW_TIMEOUT_ENABLED_PRV_)
1125:../generate/sc_drivers/r_riic/src/hld/r_riic_hld_prv.c ****     gs_sw_timeout_counter = ICC_MAX_TIMEOUT;
1126:../generate/sc_drivers/r_riic/src/hld/r_riic_hld_prv.c **** 
1127:../generate/sc_drivers/r_riic/src/hld/r_riic_hld_prv.c **** #else
1128:../generate/sc_drivers/r_riic/src/hld/r_riic_hld_prv.c **** 
1129:../generate/sc_drivers/r_riic/src/hld/r_riic_hld_prv.c ****     /* reset flag */
1130:../generate/sc_drivers/r_riic/src/hld/r_riic_hld_prv.c ****     gs_riic_timeout_flg[channel] = DRV_FLAG_OFF_PRV_;
1131:../generate/sc_drivers/r_riic/src/hld/r_riic_hld_prv.c **** 
1132:../generate/sc_drivers/r_riic/src/hld/r_riic_hld_prv.c ****     /* start timeout monitor */
1133:../generate/sc_drivers/r_riic/src/hld/r_riic_hld_prv.c ****     R_RIIC_DetectTimeoutStart(channel);
1134:../generate/sc_drivers/r_riic/src/hld/r_riic_hld_prv.c **** 
1135:../generate/sc_drivers/r_riic/src/hld/r_riic_hld_prv.c **** #endif /* SW_TIMEOUT_ENABLED_PRV_ */
1136:../generate/sc_drivers/r_riic/src/hld/r_riic_hld_prv.c **** }
1137:../generate/sc_drivers/r_riic/src/hld/r_riic_hld_prv.c **** /*******************************************************************************
1138:../generate/sc_drivers/r_riic/src/hld/r_riic_hld_prv.c ****  End of function start_timeout_monitor
1139:../generate/sc_drivers/r_riic/src/hld/r_riic_hld_prv.c ****  ******************************************************************************/
1140:../generate/sc_drivers/r_riic/src/hld/r_riic_hld_prv.c **** 
1141:../generate/sc_drivers/r_riic/src/hld/r_riic_hld_prv.c **** /**
1142:../generate/sc_drivers/r_riic/src/hld/r_riic_hld_prv.c ****  * @brief Disable timeout monitor
1143:../generate/sc_drivers/r_riic/src/hld/r_riic_hld_prv.c ****  * @param[in] channel : the device specific channel number (< RIIC_CFG_LLD_NUM_CHANNELS)
1144:../generate/sc_drivers/r_riic/src/hld/r_riic_hld_prv.c ****  * @return    void
1145:../generate/sc_drivers/r_riic/src/hld/r_riic_hld_prv.c ****  **/
1146:../generate/sc_drivers/r_riic/src/hld/r_riic_hld_prv.c **** static void stop_timeout_monitor (int_t channel)
1147:../generate/sc_drivers/r_riic/src/hld/r_riic_hld_prv.c **** {
1148:../generate/sc_drivers/r_riic/src/hld/r_riic_hld_prv.c **** #if (1u == SW_TIMEOUT_ENABLED_PRV_)
1149:../generate/sc_drivers/r_riic/src/hld/r_riic_hld_prv.c ****     /* nothing to do for software timeout */
1150:../generate/sc_drivers/r_riic/src/hld/r_riic_hld_prv.c ****     ;
1151:../generate/sc_drivers/r_riic/src/hld/r_riic_hld_prv.c **** 
1152:../generate/sc_drivers/r_riic/src/hld/r_riic_hld_prv.c **** #else
1153:../generate/sc_drivers/r_riic/src/hld/r_riic_hld_prv.c **** 
1154:../generate/sc_drivers/r_riic/src/hld/r_riic_hld_prv.c ****     /* reset flag */
1155:../generate/sc_drivers/r_riic/src/hld/r_riic_hld_prv.c ****     gs_riic_timeout_flg[channel] = DRV_FLAG_OFF_PRV_;
1156:../generate/sc_drivers/r_riic/src/hld/r_riic_hld_prv.c **** 
1157:../generate/sc_drivers/r_riic/src/hld/r_riic_hld_prv.c ****     /* stop timeout monitor */
1158:../generate/sc_drivers/r_riic/src/hld/r_riic_hld_prv.c ****     R_RIIC_DetectTimeoutStop(channel);
1159:../generate/sc_drivers/r_riic/src/hld/r_riic_hld_prv.c **** 
1160:../generate/sc_drivers/r_riic/src/hld/r_riic_hld_prv.c **** #endif /* SW_TIMEOUT_ENABLED_PRV_ */
1161:../generate/sc_drivers/r_riic/src/hld/r_riic_hld_prv.c **** }
1162:../generate/sc_drivers/r_riic/src/hld/r_riic_hld_prv.c **** /*******************************************************************************
1163:../generate/sc_drivers/r_riic/src/hld/r_riic_hld_prv.c ****  End of function stop_timeout_monitor
1164:../generate/sc_drivers/r_riic/src/hld/r_riic_hld_prv.c ****  ******************************************************************************/
1165:../generate/sc_drivers/r_riic/src/hld/r_riic_hld_prv.c **** 
1166:../generate/sc_drivers/r_riic/src/hld/r_riic_hld_prv.c **** /**
1167:../generate/sc_drivers/r_riic/src/hld/r_riic_hld_prv.c ****  * @brief Determine timeout status
1168:../generate/sc_drivers/r_riic/src/hld/r_riic_hld_prv.c ****  * @param[in] channel : the device specific channel number (< RIIC_CFG_LLD_NUM_CHANNELS)
1169:../generate/sc_drivers/r_riic/src/hld/r_riic_hld_prv.c ****  * @return    DRV_ERROR or DRV_SUCCESS
1170:../generate/sc_drivers/r_riic/src/hld/r_riic_hld_prv.c ****  **/
1171:../generate/sc_drivers/r_riic/src/hld/r_riic_hld_prv.c **** static int_t get_timeout_status (int_t channel)
1172:../generate/sc_drivers/r_riic/src/hld/r_riic_hld_prv.c **** {
  29              		.loc 1 1172 1 view -0
  30              		.cfi_startproc
  31              		@ args = 0, pretend = 0, frame = 0
  32              		@ frame_needed = 0, uses_anonymous_args = 0
  33              		@ link register save eliminated.
  34              		.loc 1 1172 1 is_stmt 0 view .LVU1
  35 0000 0030A0E1 		mov	r3, r0
1173:../generate/sc_drivers/r_riic/src/hld/r_riic_hld_prv.c ****     int_t status = DRV_SUCCESS;
  36              		.loc 1 1173 5 is_stmt 1 view .LVU2
  37              	.LVL1:
1174:../generate/sc_drivers/r_riic/src/hld/r_riic_hld_prv.c **** 
1175:../generate/sc_drivers/r_riic/src/hld/r_riic_hld_prv.c **** #if (1u == SW_TIMEOUT_ENABLED_PRV_)
1176:../generate/sc_drivers/r_riic/src/hld/r_riic_hld_prv.c **** 
1177:../generate/sc_drivers/r_riic/src/hld/r_riic_hld_prv.c ****     /* decrement timer */
1178:../generate/sc_drivers/r_riic/src/hld/r_riic_hld_prv.c ****     if (gs_sw_timeout_counter)
1179:../generate/sc_drivers/r_riic/src/hld/r_riic_hld_prv.c ****     {
1180:../generate/sc_drivers/r_riic/src/hld/r_riic_hld_prv.c ****         gs_sw_timeout_counter--;
1181:../generate/sc_drivers/r_riic/src/hld/r_riic_hld_prv.c ****     }
1182:../generate/sc_drivers/r_riic/src/hld/r_riic_hld_prv.c **** 
1183:../generate/sc_drivers/r_riic/src/hld/r_riic_hld_prv.c ****     /* check for timeout */
1184:../generate/sc_drivers/r_riic/src/hld/r_riic_hld_prv.c ****     if (0u == gs_sw_timeout_counter)
1185:../generate/sc_drivers/r_riic/src/hld/r_riic_hld_prv.c ****     {
1186:../generate/sc_drivers/r_riic/src/hld/r_riic_hld_prv.c ****         status = DRV_ERROR;
1187:../generate/sc_drivers/r_riic/src/hld/r_riic_hld_prv.c ****     }
1188:../generate/sc_drivers/r_riic/src/hld/r_riic_hld_prv.c **** 
1189:../generate/sc_drivers/r_riic/src/hld/r_riic_hld_prv.c **** #else
1190:../generate/sc_drivers/r_riic/src/hld/r_riic_hld_prv.c **** 
1191:../generate/sc_drivers/r_riic/src/hld/r_riic_hld_prv.c ****     if (DRV_FLAG_OFF_PRV_ != gs_riic_timeout_flg[channel])
  38              		.loc 1 1191 5 view .LVU3
  39              		.loc 1 1191 49 is_stmt 0 view .LVU4
  40 0004 002000E3 		movw	r2, #:lower16:.LANCHOR0
  41 0008 002040E3 		movt	r2, #:upper16:.LANCHOR0
  42 000c 0020D2E7 		ldrb	r2, [r2, r0]	@ zero_extendqisi2
  43              		.loc 1 1191 8 view .LVU5
  44 0010 FF0012E3 		tst	r2, #255
  45 0014 0500001A 		bne	.L3
1173:../generate/sc_drivers/r_riic/src/hld/r_riic_hld_prv.c ****     int_t status = DRV_SUCCESS;
  46              		.loc 1 1173 11 view .LVU6
  47 0018 0000A0E3 		mov	r0, #0
  48              	.LVL2:
  49              	.L2:
1192:../generate/sc_drivers/r_riic/src/hld/r_riic_hld_prv.c ****     {
1193:../generate/sc_drivers/r_riic/src/hld/r_riic_hld_prv.c ****         status = DRV_ERROR;
1194:../generate/sc_drivers/r_riic/src/hld/r_riic_hld_prv.c ****     }
1195:../generate/sc_drivers/r_riic/src/hld/r_riic_hld_prv.c **** 
1196:../generate/sc_drivers/r_riic/src/hld/r_riic_hld_prv.c ****     /* reset flag if set */
1197:../generate/sc_drivers/r_riic/src/hld/r_riic_hld_prv.c ****     gs_riic_timeout_flg[channel] = DRV_FLAG_OFF_PRV_;
  50              		.loc 1 1197 5 is_stmt 1 view .LVU7
  51              		.loc 1 1197 34 is_stmt 0 view .LVU8
  52 001c 002000E3 		movw	r2, #:lower16:.LANCHOR0
  53 0020 002040E3 		movt	r2, #:upper16:.LANCHOR0
  54 0024 0010A0E3 		mov	r1, #0
  55 0028 0310C2E7 		strb	r1, [r2, r3]
1198:../generate/sc_drivers/r_riic/src/hld/r_riic_hld_prv.c **** 
1199:../generate/sc_drivers/r_riic/src/hld/r_riic_hld_prv.c **** #endif /* SW_TIMEOUT_ENABLED_PRV_ */
1200:../generate/sc_drivers/r_riic/src/hld/r_riic_hld_prv.c **** 
1201:../generate/sc_drivers/r_riic/src/hld/r_riic_hld_prv.c ****     /* return status */
1202:../generate/sc_drivers/r_riic/src/hld/r_riic_hld_prv.c ****     return (status);
  56              		.loc 1 1202 5 is_stmt 1 view .LVU9
1203:../generate/sc_drivers/r_riic/src/hld/r_riic_hld_prv.c **** }
  57              		.loc 1 1203 1 is_stmt 0 view .LVU10
  58 002c 1EFF2FE1 		bx	lr
  59              	.LVL3:
  60              	.L3:
1193:../generate/sc_drivers/r_riic/src/hld/r_riic_hld_prv.c ****     }
  61              		.loc 1 1193 16 view .LVU11
  62 0030 0000E0E3 		mvn	r0, #0
  63              	.LVL4:
1193:../generate/sc_drivers/r_riic/src/hld/r_riic_hld_prv.c ****     }
  64              		.loc 1 1193 16 view .LVU12
  65 0034 F8FFFFEA 		b	.L2
  66              		.cfi_endproc
  67              	.LFE23:
  69              		.section	.rodata.riic_setup.str1.4,"aMS",%progbits,1
  70              		.align	2
  71              	.LC0:
  72 0000 6770696F 		.ascii	"gpio\000"
  72      00
  73              		.section	.text.riic_setup,"ax",%progbits
  74              		.align	2
  75              		.syntax unified
  76              		.arm
  77              		.fpu neon
  79              	riic_setup:
  80              	.LVL5:
  81              	.LFB3:
 120:../generate/sc_drivers/r_riic/src/hld/r_riic_hld_prv.c ****     int_t gpio_handle = ( -1);
  82              		.loc 1 120 1 is_stmt 1 view -0
  83              		.cfi_startproc
  84              		@ args = 0, pretend = 0, frame = 0
  85              		@ frame_needed = 0, uses_anonymous_args = 0
 120:../generate/sc_drivers/r_riic/src/hld/r_riic_hld_prv.c ****     int_t gpio_handle = ( -1);
  86              		.loc 1 120 1 is_stmt 0 view .LVU14
  87 0000 70402DE9 		push	{r4, r5, r6, lr}
  88              		.cfi_def_cfa_offset 16
  89              		.cfi_offset 4, -16
  90              		.cfi_offset 5, -12
  91              		.cfi_offset 6, -8
  92              		.cfi_offset 14, -4
  93 0004 0050A0E1 		mov	r5, r0
 121:../generate/sc_drivers/r_riic/src/hld/r_riic_hld_prv.c ****     gpio_handle = direct_open("gpio", 0);
  94              		.loc 1 121 5 is_stmt 1 view .LVU15
  95              	.LVL6:
 122:../generate/sc_drivers/r_riic/src/hld/r_riic_hld_prv.c **** 
  96              		.loc 1 122 5 view .LVU16
 122:../generate/sc_drivers/r_riic/src/hld/r_riic_hld_prv.c **** 
  97              		.loc 1 122 19 is_stmt 0 view .LVU17
  98 0008 0010A0E3 		mov	r1, #0
  99 000c 000000E3 		movw	r0, #:lower16:.LC0
 100              	.LVL7:
 122:../generate/sc_drivers/r_riic/src/hld/r_riic_hld_prv.c **** 
 101              		.loc 1 122 19 view .LVU18
 102 0010 000040E3 		movt	r0, #:upper16:.LC0
 103 0014 FEFFFFEB 		bl	direct_open
 104              	.LVL8:
 124:../generate/sc_drivers/r_riic/src/hld/r_riic_hld_prv.c ****     {
 105              		.loc 1 124 5 is_stmt 1 view .LVU19
 124:../generate/sc_drivers/r_riic/src/hld/r_riic_hld_prv.c ****     {
 106              		.loc 1 124 8 is_stmt 0 view .LVU20
 107 0018 010070E3 		cmn	r0, #1
 108 001c 0100001A 		bne	.L7
 109              	.LVL9:
 110              	.L5:
 131:../generate/sc_drivers/r_riic/src/hld/r_riic_hld_prv.c **** }
 111              		.loc 1 131 5 is_stmt 1 view .LVU21
 132:../generate/sc_drivers/r_riic/src/hld/r_riic_hld_prv.c **** /******************************************************************************
 112              		.loc 1 132 1 is_stmt 0 view .LVU22
 113 0020 0000A0E3 		mov	r0, #0
 114 0024 7080BDE8 		pop	{r4, r5, r6, pc}
 115              	.LVL10:
 116              	.L7:
 132:../generate/sc_drivers/r_riic/src/hld/r_riic_hld_prv.c **** /******************************************************************************
 117              		.loc 1 132 1 view .LVU23
 118 0028 0040A0E1 		mov	r4, r0
 127:../generate/sc_drivers/r_riic/src/hld/r_riic_hld_prv.c ****         direct_close(gpio_handle);
 119              		.loc 1 127 9 is_stmt 1 view .LVU24
 120 002c 382085E2 		add	r2, r5, #56
 121 0030 0410A0E3 		mov	r1, #4
 122 0034 FEFFFFEB 		bl	direct_control
 123              	.LVL11:
 128:../generate/sc_drivers/r_riic/src/hld/r_riic_hld_prv.c ****     }
 124              		.loc 1 128 9 view .LVU25
 125 0038 0400A0E1 		mov	r0, r4
 126 003c FEFFFFEB 		bl	direct_close
 127              	.LVL12:
 128 0040 F6FFFFEA 		b	.L5
 129              		.cfi_endproc
 130              	.LFE3:
 132              		.section	.text.start_timeout_monitor,"ax",%progbits
 133              		.align	2
 134              		.syntax unified
 135              		.arm
 136              		.fpu neon
 138              	start_timeout_monitor:
 139              	.LVL13:
 140              	.LFB21:
1123:../generate/sc_drivers/r_riic/src/hld/r_riic_hld_prv.c **** #if (1u == SW_TIMEOUT_ENABLED_PRV_)
 141              		.loc 1 1123 1 view -0
 142              		.cfi_startproc
 143              		@ args = 0, pretend = 0, frame = 0
 144              		@ frame_needed = 0, uses_anonymous_args = 0
1123:../generate/sc_drivers/r_riic/src/hld/r_riic_hld_prv.c **** #if (1u == SW_TIMEOUT_ENABLED_PRV_)
 145              		.loc 1 1123 1 is_stmt 0 view .LVU27
 146 0000 10402DE9 		push	{r4, lr}
 147              		.cfi_def_cfa_offset 8
 148              		.cfi_offset 4, -8
 149              		.cfi_offset 14, -4
1130:../generate/sc_drivers/r_riic/src/hld/r_riic_hld_prv.c **** 
 150              		.loc 1 1130 5 is_stmt 1 view .LVU28
1130:../generate/sc_drivers/r_riic/src/hld/r_riic_hld_prv.c **** 
 151              		.loc 1 1130 34 is_stmt 0 view .LVU29
 152 0004 002000E3 		movw	r2, #:lower16:.LANCHOR0
 153 0008 002040E3 		movt	r2, #:upper16:.LANCHOR0
 154 000c 0010A0E3 		mov	r1, #0
 155 0010 0010C2E7 		strb	r1, [r2, r0]
1133:../generate/sc_drivers/r_riic/src/hld/r_riic_hld_prv.c **** 
 156              		.loc 1 1133 5 is_stmt 1 view .LVU30
 157 0014 FEFFFFEB 		bl	R_RIIC_DetectTimeoutStart
 158              	.LVL14:
1136:../generate/sc_drivers/r_riic/src/hld/r_riic_hld_prv.c **** /*******************************************************************************
 159              		.loc 1 1136 1 is_stmt 0 view .LVU31
 160 0018 1080BDE8 		pop	{r4, pc}
 161              		.cfi_endproc
 162              	.LFE21:
 164              		.section	.text.stop_timeout_monitor,"ax",%progbits
 165              		.align	2
 166              		.syntax unified
 167              		.arm
 168              		.fpu neon
 170              	stop_timeout_monitor:
 171              	.LVL15:
 172              	.LFB22:
1147:../generate/sc_drivers/r_riic/src/hld/r_riic_hld_prv.c **** #if (1u == SW_TIMEOUT_ENABLED_PRV_)
 173              		.loc 1 1147 1 is_stmt 1 view -0
 174              		.cfi_startproc
 175              		@ args = 0, pretend = 0, frame = 0
 176              		@ frame_needed = 0, uses_anonymous_args = 0
1147:../generate/sc_drivers/r_riic/src/hld/r_riic_hld_prv.c **** #if (1u == SW_TIMEOUT_ENABLED_PRV_)
 177              		.loc 1 1147 1 is_stmt 0 view .LVU33
 178 0000 10402DE9 		push	{r4, lr}
 179              		.cfi_def_cfa_offset 8
 180              		.cfi_offset 4, -8
 181              		.cfi_offset 14, -4
1155:../generate/sc_drivers/r_riic/src/hld/r_riic_hld_prv.c **** 
 182              		.loc 1 1155 5 is_stmt 1 view .LVU34
1155:../generate/sc_drivers/r_riic/src/hld/r_riic_hld_prv.c **** 
 183              		.loc 1 1155 34 is_stmt 0 view .LVU35
 184 0004 002000E3 		movw	r2, #:lower16:.LANCHOR0
 185 0008 002040E3 		movt	r2, #:upper16:.LANCHOR0
 186 000c 0010A0E3 		mov	r1, #0
 187 0010 0010C2E7 		strb	r1, [r2, r0]
1158:../generate/sc_drivers/r_riic/src/hld/r_riic_hld_prv.c **** 
 188              		.loc 1 1158 5 is_stmt 1 view .LVU36
 189 0014 FEFFFFEB 		bl	R_RIIC_DetectTimeoutStop
 190              	.LVL16:
1161:../generate/sc_drivers/r_riic/src/hld/r_riic_hld_prv.c **** /*******************************************************************************
 191              		.loc 1 1161 1 is_stmt 0 view .LVU37
 192 0018 1080BDE8 		pop	{r4, pc}
 193              		.cfi_endproc
 194              	.LFE22:
 196              		.section	.text.wait_bus_master,"ax",%progbits
 197              		.align	2
 198              		.syntax unified
 199              		.arm
 200              		.fpu neon
 202              	wait_bus_master:
 203              	.LVL17:
 204              	.LFB19:
1058:../generate/sc_drivers/r_riic/src/hld/r_riic_hld_prv.c ****     int_t timeout_monitor = DRV_SUCCESS;
 205              		.loc 1 1058 1 is_stmt 1 view -0
 206              		.cfi_startproc
 207              		@ args = 0, pretend = 0, frame = 0
 208              		@ frame_needed = 0, uses_anonymous_args = 0
1058:../generate/sc_drivers/r_riic/src/hld/r_riic_hld_prv.c ****     int_t timeout_monitor = DRV_SUCCESS;
 209              		.loc 1 1058 1 is_stmt 0 view .LVU39
 210 0000 70402DE9 		push	{r4, r5, r6, lr}
 211              		.cfi_def_cfa_offset 16
 212              		.cfi_offset 4, -16
 213              		.cfi_offset 5, -12
 214              		.cfi_offset 6, -8
 215              		.cfi_offset 14, -4
 216 0004 0050A0E1 		mov	r5, r0
 217 0008 0140A0E1 		mov	r4, r1
1059:../generate/sc_drivers/r_riic/src/hld/r_riic_hld_prv.c ****     uint8_t level_check = 0u;
 218              		.loc 1 1059 5 is_stmt 1 view .LVU40
 219              	.LVL18:
1060:../generate/sc_drivers/r_riic/src/hld/r_riic_hld_prv.c **** 
 220              		.loc 1 1060 5 view .LVU41
1062:../generate/sc_drivers/r_riic/src/hld/r_riic_hld_prv.c **** 
 221              		.loc 1 1062 5 view .LVU42
 222 000c FEFFFFEB 		bl	R_RIIC_ReleaseLowHold
 223              	.LVL19:
1065:../generate/sc_drivers/r_riic/src/hld/r_riic_hld_prv.c **** 
 224              		.loc 1 1065 5 view .LVU43
 225 0010 0500A0E1 		mov	r0, r5
 226 0014 FEFFFFEB 		bl	start_timeout_monitor
 227              	.LVL20:
1067:../generate/sc_drivers/r_riic/src/hld/r_riic_hld_prv.c ****     {
 228              		.loc 1 1067 5 view .LVU44
1067:../generate/sc_drivers/r_riic/src/hld/r_riic_hld_prv.c ****     {
 229              		.loc 1 1067 8 is_stmt 0 view .LVU45
 230 0018 000054E3 		cmp	r4, #0
 231 001c 0B00000A 		beq	.L17
1060:../generate/sc_drivers/r_riic/src/hld/r_riic_hld_prv.c **** 
 232              		.loc 1 1060 13 view .LVU46
 233 0020 0060A0E3 		mov	r6, #0
 234              	.L13:
 235              	.LVL21:
1060:../generate/sc_drivers/r_riic/src/hld/r_riic_hld_prv.c **** 
 236              		.loc 1 1060 13 view .LVU47
 237 0024 0040A0E3 		mov	r4, #0
 238              	.LVL22:
 239              	.L14:
1072:../generate/sc_drivers/r_riic/src/hld/r_riic_hld_prv.c ****     {
 240              		.loc 1 1072 11 is_stmt 1 view .LVU48
1072:../generate/sc_drivers/r_riic/src/hld/r_riic_hld_prv.c ****     {
 241              		.loc 1 1072 13 is_stmt 0 view .LVU49
 242 0028 0500A0E1 		mov	r0, r5
 243 002c FEFFFFEB 		bl	R_RIIC_IsBusBusy
 244              	.LVL23:
1072:../generate/sc_drivers/r_riic/src/hld/r_riic_hld_prv.c ****     {
 245              		.loc 1 1072 11 view .LVU50
 246 0030 060050E1 		cmp	r0, r6
 247 0034 0700001A 		bne	.L15
1072:../generate/sc_drivers/r_riic/src/hld/r_riic_hld_prv.c ****     {
 248              		.loc 1 1072 55 discriminator 1 view .LVU51
 249 0038 000054E3 		cmp	r4, #0
 250 003c 0500001A 		bne	.L15
1075:../generate/sc_drivers/r_riic/src/hld/r_riic_hld_prv.c ****     }
 251              		.loc 1 1075 9 is_stmt 1 view .LVU52
1075:../generate/sc_drivers/r_riic/src/hld/r_riic_hld_prv.c ****     }
 252              		.loc 1 1075 27 is_stmt 0 view .LVU53
 253 0040 0500A0E1 		mov	r0, r5
 254 0044 FEFFFFEB 		bl	get_timeout_status
 255              	.LVL24:
 256 0048 0040A0E1 		mov	r4, r0
 257              	.LVL25:
1075:../generate/sc_drivers/r_riic/src/hld/r_riic_hld_prv.c ****     }
 258              		.loc 1 1075 27 view .LVU54
 259 004c F5FFFFEA 		b	.L14
 260              	.LVL26:
 261              	.L17:
1069:../generate/sc_drivers/r_riic/src/hld/r_riic_hld_prv.c ****     }
 262              		.loc 1 1069 21 view .LVU55
 263 0050 0160A0E3 		mov	r6, #1
 264 0054 F2FFFFEA 		b	.L13
 265              	.LVL27:
 266              	.L15:
1079:../generate/sc_drivers/r_riic/src/hld/r_riic_hld_prv.c **** 
 267              		.loc 1 1079 5 is_stmt 1 view .LVU56
 268 0058 0500A0E1 		mov	r0, r5
 269 005c FEFFFFEB 		bl	stop_timeout_monitor
 270              	.LVL28:
1082:../generate/sc_drivers/r_riic/src/hld/r_riic_hld_prv.c **** }
 271              		.loc 1 1082 5 view .LVU57
1083:../generate/sc_drivers/r_riic/src/hld/r_riic_hld_prv.c **** /*******************************************************************************
 272              		.loc 1 1083 1 is_stmt 0 view .LVU58
 273 0060 0400A0E1 		mov	r0, r4
 274 0064 7080BDE8 		pop	{r4, r5, r6, pc}
 275              		.cfi_endproc
 276              	.LFE19:
 278              		.section	.text.wait_tx_empty,"ax",%progbits
 279              		.align	2
 280              		.syntax unified
 281              		.arm
 282              		.fpu neon
 284              	wait_tx_empty:
 285              	.LVL29:
 286              	.LFB18:
1027:../generate/sc_drivers/r_riic/src/hld/r_riic_hld_prv.c ****     int_t timeout_monitor = DRV_SUCCESS;
 287              		.loc 1 1027 1 is_stmt 1 view -0
 288              		.cfi_startproc
 289              		@ args = 0, pretend = 0, frame = 0
 290              		@ frame_needed = 0, uses_anonymous_args = 0
1027:../generate/sc_drivers/r_riic/src/hld/r_riic_hld_prv.c ****     int_t timeout_monitor = DRV_SUCCESS;
 291              		.loc 1 1027 1 is_stmt 0 view .LVU60
 292 0000 70402DE9 		push	{r4, r5, r6, lr}
 293              		.cfi_def_cfa_offset 16
 294              		.cfi_offset 4, -16
 295              		.cfi_offset 5, -12
 296              		.cfi_offset 6, -8
 297              		.cfi_offset 14, -4
 298 0004 0050A0E1 		mov	r5, r0
1028:../generate/sc_drivers/r_riic/src/hld/r_riic_hld_prv.c **** 
 299              		.loc 1 1028 5 is_stmt 1 view .LVU61
 300              	.LVL30:
1031:../generate/sc_drivers/r_riic/src/hld/r_riic_hld_prv.c **** 
 301              		.loc 1 1031 5 view .LVU62
 302 0008 FEFFFFEB 		bl	start_timeout_monitor
 303              	.LVL31:
1034:../generate/sc_drivers/r_riic/src/hld/r_riic_hld_prv.c ****     {
 304              		.loc 1 1034 5 view .LVU63
1028:../generate/sc_drivers/r_riic/src/hld/r_riic_hld_prv.c **** 
 305              		.loc 1 1028 11 is_stmt 0 view .LVU64
 306 000c 0040A0E3 		mov	r4, #0
 307              	.LVL32:
 308              	.L20:
1034:../generate/sc_drivers/r_riic/src/hld/r_riic_hld_prv.c ****     {
 309              		.loc 1 1034 11 is_stmt 1 view .LVU65
1034:../generate/sc_drivers/r_riic/src/hld/r_riic_hld_prv.c ****     {
 310              		.loc 1 1034 60 is_stmt 0 view .LVU66
 311 0010 003000E3 		movw	r3, #:lower16:.LANCHOR1
 312 0014 003040E3 		movt	r3, #:upper16:.LANCHOR1
 313 0018 0530D3E7 		ldrb	r3, [r3, r5]	@ zero_extendqisi2
1034:../generate/sc_drivers/r_riic/src/hld/r_riic_hld_prv.c ****     {
 314              		.loc 1 1034 11 view .LVU67
 315 001c FF0013E3 		tst	r3, #255
 316 0020 0500001A 		bne	.L21
1034:../generate/sc_drivers/r_riic/src/hld/r_riic_hld_prv.c ****     {
 317              		.loc 1 1034 71 discriminator 1 view .LVU68
 318 0024 000054E3 		cmp	r4, #0
 319 0028 0300001A 		bne	.L21
1037:../generate/sc_drivers/r_riic/src/hld/r_riic_hld_prv.c ****     }
 320              		.loc 1 1037 9 is_stmt 1 view .LVU69
1037:../generate/sc_drivers/r_riic/src/hld/r_riic_hld_prv.c ****     }
 321              		.loc 1 1037 27 is_stmt 0 view .LVU70
 322 002c 0500A0E1 		mov	r0, r5
 323 0030 FEFFFFEB 		bl	get_timeout_status
 324              	.LVL33:
 325 0034 0040A0E1 		mov	r4, r0
 326              	.LVL34:
1037:../generate/sc_drivers/r_riic/src/hld/r_riic_hld_prv.c ****     }
 327              		.loc 1 1037 27 view .LVU71
 328 0038 F4FFFFEA 		b	.L20
 329              	.LVL35:
 330              	.L21:
1041:../generate/sc_drivers/r_riic/src/hld/r_riic_hld_prv.c **** 
 331              		.loc 1 1041 5 is_stmt 1 view .LVU72
 332 003c 0500A0E1 		mov	r0, r5
 333 0040 FEFFFFEB 		bl	stop_timeout_monitor
 334              	.LVL36:
1044:../generate/sc_drivers/r_riic/src/hld/r_riic_hld_prv.c **** }
 335              		.loc 1 1044 5 view .LVU73
1045:../generate/sc_drivers/r_riic/src/hld/r_riic_hld_prv.c **** /*******************************************************************************
 336              		.loc 1 1045 1 is_stmt 0 view .LVU74
 337 0044 0400A0E1 		mov	r0, r4
 338 0048 7080BDE8 		pop	{r4, r5, r6, pc}
 339              		.cfi_endproc
 340              	.LFE18:
 342              		.section	.text.wait_rx_full,"ax",%progbits
 343              		.align	2
 344              		.syntax unified
 345              		.arm
 346              		.fpu neon
 348              	wait_rx_full:
 349              	.LVL37:
 350              	.LFB17:
 998:../generate/sc_drivers/r_riic/src/hld/r_riic_hld_prv.c ****     int_t timeout_monitor = DRV_SUCCESS;
 351              		.loc 1 998 1 is_stmt 1 view -0
 352              		.cfi_startproc
 353              		@ args = 0, pretend = 0, frame = 0
 354              		@ frame_needed = 0, uses_anonymous_args = 0
 998:../generate/sc_drivers/r_riic/src/hld/r_riic_hld_prv.c ****     int_t timeout_monitor = DRV_SUCCESS;
 355              		.loc 1 998 1 is_stmt 0 view .LVU76
 356 0000 70402DE9 		push	{r4, r5, r6, lr}
 357              		.cfi_def_cfa_offset 16
 358              		.cfi_offset 4, -16
 359              		.cfi_offset 5, -12
 360              		.cfi_offset 6, -8
 361              		.cfi_offset 14, -4
 362 0004 0050A0E1 		mov	r5, r0
 999:../generate/sc_drivers/r_riic/src/hld/r_riic_hld_prv.c **** 
 363              		.loc 1 999 5 is_stmt 1 view .LVU77
 364              	.LVL38:
1002:../generate/sc_drivers/r_riic/src/hld/r_riic_hld_prv.c **** 
 365              		.loc 1 1002 5 view .LVU78
 366 0008 FEFFFFEB 		bl	start_timeout_monitor
 367              	.LVL39:
1005:../generate/sc_drivers/r_riic/src/hld/r_riic_hld_prv.c ****     {
 368              		.loc 1 1005 5 view .LVU79
 999:../generate/sc_drivers/r_riic/src/hld/r_riic_hld_prv.c **** 
 369              		.loc 1 999 11 is_stmt 0 view .LVU80
 370 000c 0040A0E3 		mov	r4, #0
 371              	.LVL40:
 372              	.L25:
1005:../generate/sc_drivers/r_riic/src/hld/r_riic_hld_prv.c ****     {
 373              		.loc 1 1005 11 is_stmt 1 view .LVU81
1005:../generate/sc_drivers/r_riic/src/hld/r_riic_hld_prv.c ****     {
 374              		.loc 1 1005 58 is_stmt 0 view .LVU82
 375 0010 003000E3 		movw	r3, #:lower16:.LANCHOR2
 376 0014 003040E3 		movt	r3, #:upper16:.LANCHOR2
 377 0018 0530D3E7 		ldrb	r3, [r3, r5]	@ zero_extendqisi2
1005:../generate/sc_drivers/r_riic/src/hld/r_riic_hld_prv.c ****     {
 378              		.loc 1 1005 11 view .LVU83
 379 001c FF0013E3 		tst	r3, #255
 380 0020 0500001A 		bne	.L26
1005:../generate/sc_drivers/r_riic/src/hld/r_riic_hld_prv.c ****     {
 381              		.loc 1 1005 69 discriminator 1 view .LVU84
 382 0024 000054E3 		cmp	r4, #0
 383 0028 0300001A 		bne	.L26
1008:../generate/sc_drivers/r_riic/src/hld/r_riic_hld_prv.c ****     }
 384              		.loc 1 1008 9 is_stmt 1 view .LVU85
1008:../generate/sc_drivers/r_riic/src/hld/r_riic_hld_prv.c ****     }
 385              		.loc 1 1008 27 is_stmt 0 view .LVU86
 386 002c 0500A0E1 		mov	r0, r5
 387 0030 FEFFFFEB 		bl	get_timeout_status
 388              	.LVL41:
 389 0034 0040A0E1 		mov	r4, r0
 390              	.LVL42:
1008:../generate/sc_drivers/r_riic/src/hld/r_riic_hld_prv.c ****     }
 391              		.loc 1 1008 27 view .LVU87
 392 0038 F4FFFFEA 		b	.L25
 393              	.LVL43:
 394              	.L26:
1012:../generate/sc_drivers/r_riic/src/hld/r_riic_hld_prv.c **** 
 395              		.loc 1 1012 5 is_stmt 1 view .LVU88
 396 003c 0500A0E1 		mov	r0, r5
 397 0040 FEFFFFEB 		bl	stop_timeout_monitor
 398              	.LVL44:
1015:../generate/sc_drivers/r_riic/src/hld/r_riic_hld_prv.c **** }
 399              		.loc 1 1015 5 view .LVU89
1016:../generate/sc_drivers/r_riic/src/hld/r_riic_hld_prv.c **** /*******************************************************************************
 400              		.loc 1 1016 1 is_stmt 0 view .LVU90
 401 0044 0400A0E1 		mov	r0, r4
 402 0048 7080BDE8 		pop	{r4, r5, r6, pc}
 403              		.cfi_endproc
 404              	.LFE17:
 406              		.section	.text.wait_stop,"ax",%progbits
 407              		.align	2
 408              		.syntax unified
 409              		.arm
 410              		.fpu neon
 412              	wait_stop:
 413              	.LVL45:
 414              	.LFB20:
1094:../generate/sc_drivers/r_riic/src/hld/r_riic_hld_prv.c ****     int_t timeout_monitor = DRV_SUCCESS;
 415              		.loc 1 1094 1 is_stmt 1 view -0
 416              		.cfi_startproc
 417              		@ args = 0, pretend = 0, frame = 0
 418              		@ frame_needed = 0, uses_anonymous_args = 0
1094:../generate/sc_drivers/r_riic/src/hld/r_riic_hld_prv.c ****     int_t timeout_monitor = DRV_SUCCESS;
 419              		.loc 1 1094 1 is_stmt 0 view .LVU92
 420 0000 70402DE9 		push	{r4, r5, r6, lr}
 421              		.cfi_def_cfa_offset 16
 422              		.cfi_offset 4, -16
 423              		.cfi_offset 5, -12
 424              		.cfi_offset 6, -8
 425              		.cfi_offset 14, -4
 426 0004 0050A0E1 		mov	r5, r0
1095:../generate/sc_drivers/r_riic/src/hld/r_riic_hld_prv.c **** 
 427              		.loc 1 1095 5 is_stmt 1 view .LVU93
 428              	.LVL46:
1098:../generate/sc_drivers/r_riic/src/hld/r_riic_hld_prv.c **** 
 429              		.loc 1 1098 5 view .LVU94
 430 0008 FEFFFFEB 		bl	start_timeout_monitor
 431              	.LVL47:
1101:../generate/sc_drivers/r_riic/src/hld/r_riic_hld_prv.c ****     {
 432              		.loc 1 1101 5 view .LVU95
1095:../generate/sc_drivers/r_riic/src/hld/r_riic_hld_prv.c **** 
 433              		.loc 1 1095 11 is_stmt 0 view .LVU96
 434 000c 0040A0E3 		mov	r4, #0
 435              	.LVL48:
 436              	.L30:
1101:../generate/sc_drivers/r_riic/src/hld/r_riic_hld_prv.c ****     {
 437              		.loc 1 1101 11 is_stmt 1 view .LVU97
1101:../generate/sc_drivers/r_riic/src/hld/r_riic_hld_prv.c ****     {
 438              		.loc 1 1101 50 is_stmt 0 view .LVU98
 439 0010 003000E3 		movw	r3, #:lower16:.LANCHOR3
 440 0014 003040E3 		movt	r3, #:upper16:.LANCHOR3
 441 0018 0530D3E7 		ldrb	r3, [r3, r5]	@ zero_extendqisi2
1101:../generate/sc_drivers/r_riic/src/hld/r_riic_hld_prv.c ****     {
 442              		.loc 1 1101 11 view .LVU99
 443 001c FF0013E3 		tst	r3, #255
 444 0020 0500001A 		bne	.L31
1101:../generate/sc_drivers/r_riic/src/hld/r_riic_hld_prv.c ****     {
 445              		.loc 1 1101 61 discriminator 1 view .LVU100
 446 0024 000054E3 		cmp	r4, #0
 447 0028 0300001A 		bne	.L31
1104:../generate/sc_drivers/r_riic/src/hld/r_riic_hld_prv.c ****     }
 448              		.loc 1 1104 9 is_stmt 1 view .LVU101
1104:../generate/sc_drivers/r_riic/src/hld/r_riic_hld_prv.c ****     }
 449              		.loc 1 1104 27 is_stmt 0 view .LVU102
 450 002c 0500A0E1 		mov	r0, r5
 451 0030 FEFFFFEB 		bl	get_timeout_status
 452              	.LVL49:
 453 0034 0040A0E1 		mov	r4, r0
 454              	.LVL50:
1104:../generate/sc_drivers/r_riic/src/hld/r_riic_hld_prv.c ****     }
 455              		.loc 1 1104 27 view .LVU103
 456 0038 F4FFFFEA 		b	.L30
 457              	.LVL51:
 458              	.L31:
1108:../generate/sc_drivers/r_riic/src/hld/r_riic_hld_prv.c **** 
 459              		.loc 1 1108 5 is_stmt 1 view .LVU104
 460 003c 0500A0E1 		mov	r0, r5
 461 0040 FEFFFFEB 		bl	stop_timeout_monitor
 462              	.LVL52:
1111:../generate/sc_drivers/r_riic/src/hld/r_riic_hld_prv.c **** }
 463              		.loc 1 1111 5 view .LVU105
1112:../generate/sc_drivers/r_riic/src/hld/r_riic_hld_prv.c **** /*******************************************************************************
 464              		.loc 1 1112 1 is_stmt 0 view .LVU106
 465 0044 0400A0E1 		mov	r0, r4
 466 0048 7080BDE8 		pop	{r4, r5, r6, pc}
 467              		.cfi_endproc
 468              	.LFE20:
 470              		.section	.text.transmit_start,"ax",%progbits
 471              		.align	2
 472              		.syntax unified
 473              		.arm
 474              		.fpu neon
 476              	transmit_start:
 477              	.LVL53:
 478              	.LFB11:
 594:../generate/sc_drivers/r_riic/src/hld/r_riic_hld_prv.c ****     /* Wait for the bus to be free */
 479              		.loc 1 594 1 is_stmt 1 view -0
 480              		.cfi_startproc
 481              		@ args = 0, pretend = 0, frame = 0
 482              		@ frame_needed = 0, uses_anonymous_args = 0
 594:../generate/sc_drivers/r_riic/src/hld/r_riic_hld_prv.c ****     /* Wait for the bus to be free */
 483              		.loc 1 594 1 is_stmt 0 view .LVU108
 484 0000 70402DE9 		push	{r4, r5, r6, lr}
 485              		.cfi_def_cfa_offset 16
 486              		.cfi_offset 4, -16
 487              		.cfi_offset 5, -12
 488              		.cfi_offset 6, -8
 489              		.cfi_offset 14, -4
 490 0004 0040A0E1 		mov	r4, r0
 596:../generate/sc_drivers/r_riic/src/hld/r_riic_hld_prv.c **** 
 491              		.loc 1 596 5 is_stmt 1 view .LVU109
 596:../generate/sc_drivers/r_riic/src/hld/r_riic_hld_prv.c **** 
 492              		.loc 1 596 17 is_stmt 0 view .LVU110
 493 0008 0010A0E3 		mov	r1, #0
 494 000c FEFFFFEB 		bl	wait_bus_master
 495              	.LVL54:
 596:../generate/sc_drivers/r_riic/src/hld/r_riic_hld_prv.c **** 
 496              		.loc 1 596 17 view .LVU111
 497 0010 0050A0E1 		mov	r5, r0
 498              	.LVL55:
 599:../generate/sc_drivers/r_riic/src/hld/r_riic_hld_prv.c **** 
 499              		.loc 1 599 5 is_stmt 1 view .LVU112
 500 0014 0400A0E1 		mov	r0, r4
 501              	.LVL56:
 599:../generate/sc_drivers/r_riic/src/hld/r_riic_hld_prv.c **** 
 502              		.loc 1 599 5 is_stmt 0 view .LVU113
 503 0018 FEFFFFEB 		bl	start_timeout_monitor
 504              	.LVL57:
 601:../generate/sc_drivers/r_riic/src/hld/r_riic_hld_prv.c ****     {
 505              		.loc 1 601 5 is_stmt 1 view .LVU114
 601:../generate/sc_drivers/r_riic/src/hld/r_riic_hld_prv.c ****     {
 506              		.loc 1 601 8 is_stmt 0 view .LVU115
 507 001c 000055E3 		cmp	r5, #0
 508 0020 0100000A 		beq	.L37
 509              	.L34:
 614:../generate/sc_drivers/r_riic/src/hld/r_riic_hld_prv.c **** /*******************************************************************************
 510              		.loc 1 614 1 view .LVU116
 511 0024 0500A0E1 		mov	r0, r5
 512 0028 7080BDE8 		pop	{r4, r5, r6, pc}
 513              	.L37:
 604:../generate/sc_drivers/r_riic/src/hld/r_riic_hld_prv.c ****         gs_riic_transmit_empty_flg[channel] = DRV_FLAG_OFF_PRV_;
 514              		.loc 1 604 9 is_stmt 1 view .LVU117
 604:../generate/sc_drivers/r_riic/src/hld/r_riic_hld_prv.c ****         gs_riic_transmit_empty_flg[channel] = DRV_FLAG_OFF_PRV_;
 515              		.loc 1 604 43 is_stmt 0 view .LVU118
 516 002c 003000E3 		movw	r3, #:lower16:.LANCHOR2
 517 0030 003040E3 		movt	r3, #:upper16:.LANCHOR2
 518 0034 0020A0E3 		mov	r2, #0
 519 0038 0420C3E7 		strb	r2, [r3, r4]
 605:../generate/sc_drivers/r_riic/src/hld/r_riic_hld_prv.c ****         gs_riic_transmit_end_flg[channel] = DRV_FLAG_OFF_PRV_;
 520              		.loc 1 605 9 is_stmt 1 view .LVU119
 605:../generate/sc_drivers/r_riic/src/hld/r_riic_hld_prv.c ****         gs_riic_transmit_end_flg[channel] = DRV_FLAG_OFF_PRV_;
 521              		.loc 1 605 45 is_stmt 0 view .LVU120
 522 003c 003000E3 		movw	r3, #:lower16:.LANCHOR1
 523 0040 003040E3 		movt	r3, #:upper16:.LANCHOR1
 524 0044 0420C3E7 		strb	r2, [r3, r4]
 606:../generate/sc_drivers/r_riic/src/hld/r_riic_hld_prv.c **** 
 525              		.loc 1 606 9 is_stmt 1 view .LVU121
 606:../generate/sc_drivers/r_riic/src/hld/r_riic_hld_prv.c **** 
 526              		.loc 1 606 43 is_stmt 0 view .LVU122
 527 0048 003000E3 		movw	r3, #:lower16:.LANCHOR4
 528 004c 003040E3 		movt	r3, #:upper16:.LANCHOR4
 529 0050 0420C3E7 		strb	r2, [r3, r4]
 609:../generate/sc_drivers/r_riic/src/hld/r_riic_hld_prv.c ****     }
 530              		.loc 1 609 9 is_stmt 1 view .LVU123
 531 0054 0400A0E1 		mov	r0, r4
 532 0058 FEFFFFEB 		bl	R_RIIC_TransmitStart
 533              	.LVL58:
 613:../generate/sc_drivers/r_riic/src/hld/r_riic_hld_prv.c **** }
 534              		.loc 1 613 5 view .LVU124
 613:../generate/sc_drivers/r_riic/src/hld/r_riic_hld_prv.c **** }
 535              		.loc 1 613 12 is_stmt 0 view .LVU125
 536 005c F0FFFFEA 		b	.L34
 537              		.cfi_endproc
 538              	.LFE11:
 540              		.section	.text.riic_transmit,"ax",%progbits
 541              		.align	2
 542              		.syntax unified
 543              		.arm
 544              		.fpu neon
 546              	riic_transmit:
 547              	.LVL59:
 548              	.LFB10:
 542:../generate/sc_drivers/r_riic/src/hld/r_riic_hld_prv.c ****     int_t ret = DRV_ERROR;
 549              		.loc 1 542 1 is_stmt 1 view -0
 550              		.cfi_startproc
 551              		@ args = 0, pretend = 0, frame = 0
 552              		@ frame_needed = 0, uses_anonymous_args = 0
 542:../generate/sc_drivers/r_riic/src/hld/r_riic_hld_prv.c ****     int_t ret = DRV_ERROR;
 553              		.loc 1 542 1 is_stmt 0 view .LVU127
 554 0000 70402DE9 		push	{r4, r5, r6, lr}
 555              		.cfi_def_cfa_offset 16
 556              		.cfi_offset 4, -16
 557              		.cfi_offset 5, -12
 558              		.cfi_offset 6, -8
 559              		.cfi_offset 14, -4
 560 0004 0040A0E1 		mov	r4, r0
 543:../generate/sc_drivers/r_riic/src/hld/r_riic_hld_prv.c **** 
 561              		.loc 1 543 5 is_stmt 1 view .LVU128
 562              	.LVL60:
 546:../generate/sc_drivers/r_riic/src/hld/r_riic_hld_prv.c ****     {
 563              		.loc 1 546 5 view .LVU129
 546:../generate/sc_drivers/r_riic/src/hld/r_riic_hld_prv.c ****     {
 564              		.loc 1 546 46 is_stmt 0 view .LVU130
 565 0008 003000E3 		movw	r3, #:lower16:.LANCHOR5
 566 000c 003040E3 		movt	r3, #:upper16:.LANCHOR5
 567 0010 0030D3E7 		ldrb	r3, [r3, r0]	@ zero_extendqisi2
 546:../generate/sc_drivers/r_riic/src/hld/r_riic_hld_prv.c ****     {
 568              		.loc 1 546 8 view .LVU131
 569 0014 FF0013E3 		tst	r3, #255
 570 0018 0500001A 		bne	.L39
 571 001c 0160A0E1 		mov	r6, r1
 572              	.LVL61:
 560:../generate/sc_drivers/r_riic/src/hld/r_riic_hld_prv.c ****     {
 573              		.loc 1 560 5 is_stmt 1 view .LVU132
 563:../generate/sc_drivers/r_riic/src/hld/r_riic_hld_prv.c **** 
 574              		.loc 1 563 9 view .LVU133
 563:../generate/sc_drivers/r_riic/src/hld/r_riic_hld_prv.c **** 
 575              		.loc 1 563 15 is_stmt 0 view .LVU134
 576 0020 FEFFFFEB 		bl	wait_tx_empty
 577              	.LVL62:
 565:../generate/sc_drivers/r_riic/src/hld/r_riic_hld_prv.c ****         {
 578              		.loc 1 565 9 is_stmt 1 view .LVU135
 565:../generate/sc_drivers/r_riic/src/hld/r_riic_hld_prv.c ****         {
 579              		.loc 1 565 12 is_stmt 0 view .LVU136
 580 0024 005050E2 		subs	r5, r0, #0
 581 0028 0700000A 		beq	.L43
 582              	.LVL63:
 583              	.L38:
 576:../generate/sc_drivers/r_riic/src/hld/r_riic_hld_prv.c **** /*******************************************************************************
 584              		.loc 1 576 1 view .LVU137
 585 002c 0500A0E1 		mov	r0, r5
 586 0030 7080BDE8 		pop	{r4, r5, r6, pc}
 587              	.LVL64:
 588              	.L39:
 556:../generate/sc_drivers/r_riic/src/hld/r_riic_hld_prv.c ****         ret = DRV_ERROR;
 589              		.loc 1 556 9 is_stmt 1 view .LVU138
 556:../generate/sc_drivers/r_riic/src/hld/r_riic_hld_prv.c ****         ret = DRV_ERROR;
 590              		.loc 1 556 35 is_stmt 0 view .LVU139
 591 0034 003000E3 		movw	r3, #:lower16:.LANCHOR5
 592 0038 003040E3 		movt	r3, #:upper16:.LANCHOR5
 593 003c 0020A0E3 		mov	r2, #0
 594 0040 0020C3E7 		strb	r2, [r3, r0]
 557:../generate/sc_drivers/r_riic/src/hld/r_riic_hld_prv.c ****     }
 595              		.loc 1 557 9 is_stmt 1 view .LVU140
 560:../generate/sc_drivers/r_riic/src/hld/r_riic_hld_prv.c ****     {
 596              		.loc 1 560 5 view .LVU141
 557:../generate/sc_drivers/r_riic/src/hld/r_riic_hld_prv.c ****     }
 597              		.loc 1 557 13 is_stmt 0 view .LVU142
 598 0044 0050E0E3 		mvn	r5, #0
 599 0048 F7FFFFEA 		b	.L38
 600              	.LVL65:
 601              	.L43:
 568:../generate/sc_drivers/r_riic/src/hld/r_riic_hld_prv.c **** 
 602              		.loc 1 568 13 is_stmt 1 view .LVU143
 568:../generate/sc_drivers/r_riic/src/hld/r_riic_hld_prv.c **** 
 603              		.loc 1 568 49 is_stmt 0 view .LVU144
 604 004c 003000E3 		movw	r3, #:lower16:.LANCHOR1
 605 0050 003040E3 		movt	r3, #:upper16:.LANCHOR1
 606 0054 0020A0E3 		mov	r2, #0
 607 0058 0420C3E7 		strb	r2, [r3, r4]
 571:../generate/sc_drivers/r_riic/src/hld/r_riic_hld_prv.c ****         }
 608              		.loc 1 571 13 is_stmt 1 view .LVU145
 609 005c 0610A0E1 		mov	r1, r6
 610 0060 0400A0E1 		mov	r0, r4
 611              	.LVL66:
 571:../generate/sc_drivers/r_riic/src/hld/r_riic_hld_prv.c ****         }
 612              		.loc 1 571 13 is_stmt 0 view .LVU146
 613 0064 FEFFFFEB 		bl	R_RIIC_WriteByte
 614              	.LVL67:
 575:../generate/sc_drivers/r_riic/src/hld/r_riic_hld_prv.c **** }
 615              		.loc 1 575 5 is_stmt 1 view .LVU147
 575:../generate/sc_drivers/r_riic/src/hld/r_riic_hld_prv.c **** }
 616              		.loc 1 575 12 is_stmt 0 view .LVU148
 617 0068 EFFFFFEA 		b	.L38
 618              		.cfi_endproc
 619              	.LFE10:
 621              		.section	.text.wait_tx_end,"ax",%progbits
 622              		.align	2
 623              		.syntax unified
 624              		.arm
 625              		.fpu neon
 627              	wait_tx_end:
 628              	.LVL68:
 629              	.LFB16:
 955:../generate/sc_drivers/r_riic/src/hld/r_riic_hld_prv.c ****     int_t timeout_monitor = DRV_SUCCESS;
 630              		.loc 1 955 1 is_stmt 1 view -0
 631              		.cfi_startproc
 632              		@ args = 0, pretend = 0, frame = 0
 633              		@ frame_needed = 0, uses_anonymous_args = 0
 955:../generate/sc_drivers/r_riic/src/hld/r_riic_hld_prv.c ****     int_t timeout_monitor = DRV_SUCCESS;
 634              		.loc 1 955 1 is_stmt 0 view .LVU150
 635 0000 70402DE9 		push	{r4, r5, r6, lr}
 636              		.cfi_def_cfa_offset 16
 637              		.cfi_offset 4, -16
 638              		.cfi_offset 5, -12
 639              		.cfi_offset 6, -8
 640              		.cfi_offset 14, -4
 641 0004 0050A0E1 		mov	r5, r0
 642 0008 0140A0E1 		mov	r4, r1
 956:../generate/sc_drivers/r_riic/src/hld/r_riic_hld_prv.c **** 
 643              		.loc 1 956 5 is_stmt 1 view .LVU151
 644              	.LVL69:
 959:../generate/sc_drivers/r_riic/src/hld/r_riic_hld_prv.c **** 
 645              		.loc 1 959 5 view .LVU152
 646 000c FEFFFFEB 		bl	start_timeout_monitor
 647              	.LVL70:
 961:../generate/sc_drivers/r_riic/src/hld/r_riic_hld_prv.c ****     {
 648              		.loc 1 961 5 view .LVU153
 961:../generate/sc_drivers/r_riic/src/hld/r_riic_hld_prv.c ****     {
 649              		.loc 1 961 8 is_stmt 0 view .LVU154
 650 0010 000054E3 		cmp	r4, #0
 651 0014 0B00000A 		beq	.L53
 956:../generate/sc_drivers/r_riic/src/hld/r_riic_hld_prv.c **** 
 652              		.loc 1 956 11 view .LVU155
 653 0018 0040A0E3 		mov	r4, #0
 654              	.LVL71:
 655              	.L45:
 975:../generate/sc_drivers/r_riic/src/hld/r_riic_hld_prv.c ****         {
 656              		.loc 1 975 15 is_stmt 1 view .LVU156
 975:../generate/sc_drivers/r_riic/src/hld/r_riic_hld_prv.c ****         {
 657              		.loc 1 975 62 is_stmt 0 view .LVU157
 658 001c 003000E3 		movw	r3, #:lower16:.LANCHOR2
 659 0020 003040E3 		movt	r3, #:upper16:.LANCHOR2
 660 0024 0530D3E7 		ldrb	r3, [r3, r5]	@ zero_extendqisi2
 975:../generate/sc_drivers/r_riic/src/hld/r_riic_hld_prv.c ****         {
 661              		.loc 1 975 15 view .LVU158
 662 0028 FF0013E3 		tst	r3, #255
 663 002c 1400001A 		bne	.L49
 975:../generate/sc_drivers/r_riic/src/hld/r_riic_hld_prv.c ****         {
 664              		.loc 1 975 73 discriminator 1 view .LVU159
 665 0030 000054E3 		cmp	r4, #0
 666 0034 1200001A 		bne	.L49
 978:../generate/sc_drivers/r_riic/src/hld/r_riic_hld_prv.c ****         }
 667              		.loc 1 978 13 is_stmt 1 view .LVU160
 978:../generate/sc_drivers/r_riic/src/hld/r_riic_hld_prv.c ****         }
 668              		.loc 1 978 31 is_stmt 0 view .LVU161
 669 0038 0500A0E1 		mov	r0, r5
 670 003c FEFFFFEB 		bl	get_timeout_status
 671              	.LVL72:
 672 0040 0040A0E1 		mov	r4, r0
 673              	.LVL73:
 978:../generate/sc_drivers/r_riic/src/hld/r_riic_hld_prv.c ****         }
 674              		.loc 1 978 31 view .LVU162
 675 0044 F4FFFFEA 		b	.L45
 676              	.LVL74:
 677              	.L53:
 963:../generate/sc_drivers/r_riic/src/hld/r_riic_hld_prv.c ****         /* Wait */
 678              		.loc 1 963 9 is_stmt 1 view .LVU163
 679 0048 0500A0E1 		mov	r0, r5
 680 004c FEFFFFEB 		bl	R_RIIC_EnableTransEndIntr
 681              	.LVL75:
 965:../generate/sc_drivers/r_riic/src/hld/r_riic_hld_prv.c ****         {
 682              		.loc 1 965 9 view .LVU164
 965:../generate/sc_drivers/r_riic/src/hld/r_riic_hld_prv.c ****         {
 683              		.loc 1 965 15 is_stmt 0 view .LVU165
 684 0050 020000EA 		b	.L46
 685              	.LVL76:
 686              	.L48:
 968:../generate/sc_drivers/r_riic/src/hld/r_riic_hld_prv.c ****         }
 687              		.loc 1 968 13 is_stmt 1 view .LVU166
 968:../generate/sc_drivers/r_riic/src/hld/r_riic_hld_prv.c ****         }
 688              		.loc 1 968 31 is_stmt 0 view .LVU167
 689 0054 0500A0E1 		mov	r0, r5
 690 0058 FEFFFFEB 		bl	get_timeout_status
 691              	.LVL77:
 692 005c 0040A0E1 		mov	r4, r0
 693              	.LVL78:
 694              	.L46:
 965:../generate/sc_drivers/r_riic/src/hld/r_riic_hld_prv.c ****         {
 695              		.loc 1 965 15 is_stmt 1 view .LVU168
 965:../generate/sc_drivers/r_riic/src/hld/r_riic_hld_prv.c ****         {
 696              		.loc 1 965 62 is_stmt 0 view .LVU169
 697 0060 003000E3 		movw	r3, #:lower16:.LANCHOR4
 698 0064 003040E3 		movt	r3, #:upper16:.LANCHOR4
 699 0068 0530D3E7 		ldrb	r3, [r3, r5]	@ zero_extendqisi2
 965:../generate/sc_drivers/r_riic/src/hld/r_riic_hld_prv.c ****         {
 700              		.loc 1 965 15 view .LVU170
 701 006c FF0013E3 		tst	r3, #255
 702 0070 0100001A 		bne	.L47
 965:../generate/sc_drivers/r_riic/src/hld/r_riic_hld_prv.c ****         {
 703              		.loc 1 965 73 discriminator 1 view .LVU171
 704 0074 000054E3 		cmp	r4, #0
 705 0078 F5FFFF0A 		beq	.L48
 706              	.L47:
 970:../generate/sc_drivers/r_riic/src/hld/r_riic_hld_prv.c ****     }
 707              		.loc 1 970 9 is_stmt 1 view .LVU172
 708 007c 0500A0E1 		mov	r0, r5
 709 0080 FEFFFFEB 		bl	R_RIIC_DisableTransEndIntr
 710              	.LVL79:
 711              	.L49:
 983:../generate/sc_drivers/r_riic/src/hld/r_riic_hld_prv.c **** 
 712              		.loc 1 983 5 view .LVU173
 713 0084 0500A0E1 		mov	r0, r5
 714 0088 FEFFFFEB 		bl	stop_timeout_monitor
 715              	.LVL80:
 986:../generate/sc_drivers/r_riic/src/hld/r_riic_hld_prv.c **** }
 716              		.loc 1 986 5 view .LVU174
 987:../generate/sc_drivers/r_riic/src/hld/r_riic_hld_prv.c **** /*******************************************************************************
 717              		.loc 1 987 1 is_stmt 0 view .LVU175
 718 008c 0400A0E1 		mov	r0, r4
 719 0090 7080BDE8 		pop	{r4, r5, r6, pc}
 720              		.cfi_endproc
 721              	.LFE16:
 723              		.section	.text.riic_write,"ax",%progbits
 724              		.align	2
 725              		.syntax unified
 726              		.arm
 727              		.fpu neon
 729              	riic_write:
 730              	.LVL81:
 731              	.LFB7:
 280:../generate/sc_drivers/r_riic/src/hld/r_riic_hld_prv.c ****     uint32_t offset;
 732              		.loc 1 280 1 is_stmt 1 view -0
 733              		.cfi_startproc
 734              		@ args = 0, pretend = 0, frame = 0
 735              		@ frame_needed = 0, uses_anonymous_args = 0
 280:../generate/sc_drivers/r_riic/src/hld/r_riic_hld_prv.c ****     uint32_t offset;
 736              		.loc 1 280 1 is_stmt 0 view .LVU177
 737 0000 F0412DE9 		push	{r4, r5, r6, r7, r8, lr}
 738              		.cfi_def_cfa_offset 24
 739              		.cfi_offset 4, -24
 740              		.cfi_offset 5, -20
 741              		.cfi_offset 6, -16
 742              		.cfi_offset 7, -12
 743              		.cfi_offset 8, -8
 744              		.cfi_offset 14, -4
 281:../generate/sc_drivers/r_riic/src/hld/r_riic_hld_prv.c ****     int_t ret = DRV_SUCCESS;
 745              		.loc 1 281 5 is_stmt 1 view .LVU178
 282:../generate/sc_drivers/r_riic/src/hld/r_riic_hld_prv.c **** 
 746              		.loc 1 282 5 view .LVU179
 747              	.LVL82:
 284:../generate/sc_drivers/r_riic/src/hld/r_riic_hld_prv.c ****     {
 748              		.loc 1 284 5 view .LVU180
 284:../generate/sc_drivers/r_riic/src/hld/r_riic_hld_prv.c ****     {
 749              		.loc 1 284 8 is_stmt 0 view .LVU181
 750 0004 005052E2 		subs	r5, r2, #0
 751 0008 0A00001A 		bne	.L59
 282:../generate/sc_drivers/r_riic/src/hld/r_riic_hld_prv.c **** 
 752              		.loc 1 282 11 view .LVU182
 753 000c 0000A0E3 		mov	r0, #0
 754              	.LVL83:
 282:../generate/sc_drivers/r_riic/src/hld/r_riic_hld_prv.c **** 
 755              		.loc 1 282 11 view .LVU183
 756 0010 F081BDE8 		pop	{r4, r5, r6, r7, r8, pc}
 757              	.LVL84:
 758              	.L57:
 286:../generate/sc_drivers/r_riic/src/hld/r_riic_hld_prv.c ****         {
 759              		.loc 1 286 41 is_stmt 1 discriminator 2 view .LVU184
 286:../generate/sc_drivers/r_riic/src/hld/r_riic_hld_prv.c ****         {
 760              		.loc 1 286 47 is_stmt 0 discriminator 2 view .LVU185
 761 0014 014084E2 		add	r4, r4, #1
 762              	.LVL85:
 763              	.L55:
 286:../generate/sc_drivers/r_riic/src/hld/r_riic_hld_prv.c ****         {
 764              		.loc 1 286 26 is_stmt 1 discriminator 1 view .LVU186
 286:../generate/sc_drivers/r_riic/src/hld/r_riic_hld_prv.c ****         {
 765              		.loc 1 286 9 is_stmt 0 discriminator 1 view .LVU187
 766 0018 050054E1 		cmp	r4, r5
 767 001c 0A00002A 		bcs	.L62
 289:../generate/sc_drivers/r_riic/src/hld/r_riic_hld_prv.c **** 
 768              		.loc 1 289 13 is_stmt 1 view .LVU188
 289:../generate/sc_drivers/r_riic/src/hld/r_riic_hld_prv.c **** 
 769              		.loc 1 289 19 is_stmt 0 view .LVU189
 770 0020 0410D7E7 		ldrb	r1, [r7, r4]	@ zero_extendqisi2
 771 0024 0600A0E1 		mov	r0, r6
 772              	.LVL86:
 289:../generate/sc_drivers/r_riic/src/hld/r_riic_hld_prv.c **** 
 773              		.loc 1 289 19 view .LVU190
 774 0028 FEFFFFEB 		bl	riic_transmit
 775              	.LVL87:
 291:../generate/sc_drivers/r_riic/src/hld/r_riic_hld_prv.c ****             {
 776              		.loc 1 291 13 is_stmt 1 view .LVU191
 291:../generate/sc_drivers/r_riic/src/hld/r_riic_hld_prv.c ****             {
 777              		.loc 1 291 16 is_stmt 0 view .LVU192
 778 002c 000050E3 		cmp	r0, #0
 291:../generate/sc_drivers/r_riic/src/hld/r_riic_hld_prv.c ****             {
 779              		.loc 1 291 16 view .LVU193
 294:../generate/sc_drivers/r_riic/src/hld/r_riic_hld_prv.c ****             }
 780              		.loc 1 294 24 view .LVU194
 781 0030 0540A011 		movne	r4, r5
 782              	.LVL88:
 294:../generate/sc_drivers/r_riic/src/hld/r_riic_hld_prv.c ****             }
 783              		.loc 1 294 24 view .LVU195
 784 0034 F6FFFFEA 		b	.L57
 785              	.LVL89:
 786              	.L59:
 294:../generate/sc_drivers/r_riic/src/hld/r_riic_hld_prv.c ****             }
 787              		.loc 1 294 24 view .LVU196
 788 0038 0060A0E1 		mov	r6, r0
 789 003c 0170A0E1 		mov	r7, r1
 282:../generate/sc_drivers/r_riic/src/hld/r_riic_hld_prv.c **** 
 790              		.loc 1 282 11 view .LVU197
 791 0040 0000A0E3 		mov	r0, #0
 792              	.LVL90:
 286:../generate/sc_drivers/r_riic/src/hld/r_riic_hld_prv.c ****         {
 793              		.loc 1 286 21 view .LVU198
 794 0044 0040A0E1 		mov	r4, r0
 795 0048 F2FFFFEA 		b	.L55
 796              	.LVL91:
 797              	.L62:
 298:../generate/sc_drivers/r_riic/src/hld/r_riic_hld_prv.c ****         {
 798              		.loc 1 298 9 is_stmt 1 view .LVU199
 298:../generate/sc_drivers/r_riic/src/hld/r_riic_hld_prv.c ****         {
 799              		.loc 1 298 12 is_stmt 0 view .LVU200
 800 004c 000050E3 		cmp	r0, #0
 801 0050 F081BD18 		popne	{r4, r5, r6, r7, r8, pc}
 300:../generate/sc_drivers/r_riic/src/hld/r_riic_hld_prv.c **** 
 802              		.loc 1 300 13 is_stmt 1 view .LVU201
 300:../generate/sc_drivers/r_riic/src/hld/r_riic_hld_prv.c **** 
 803              		.loc 1 300 19 is_stmt 0 view .LVU202
 804 0054 0010A0E3 		mov	r1, #0
 805 0058 0600A0E1 		mov	r0, r6
 806              	.LVL92:
 300:../generate/sc_drivers/r_riic/src/hld/r_riic_hld_prv.c **** 
 807              		.loc 1 300 19 view .LVU203
 808 005c FEFFFFEB 		bl	wait_tx_end
 809              	.LVL93:
 302:../generate/sc_drivers/r_riic/src/hld/r_riic_hld_prv.c ****             {
 810              		.loc 1 302 13 is_stmt 1 view .LVU204
 302:../generate/sc_drivers/r_riic/src/hld/r_riic_hld_prv.c ****             {
 811              		.loc 1 302 16 is_stmt 0 view .LVU205
 812 0060 000050E3 		cmp	r0, #0
 302:../generate/sc_drivers/r_riic/src/hld/r_riic_hld_prv.c ****             {
 813              		.loc 1 302 16 view .LVU206
 814 0064 F081BD18 		popne	{r4, r5, r6, r7, r8, pc}
 305:../generate/sc_drivers/r_riic/src/hld/r_riic_hld_prv.c **** 
 815              		.loc 1 305 17 is_stmt 1 view .LVU207
 305:../generate/sc_drivers/r_riic/src/hld/r_riic_hld_prv.c **** 
 816              		.loc 1 305 51 is_stmt 0 view .LVU208
 817 0068 003000E3 		movw	r3, #:lower16:.LANCHOR4
 818 006c 003040E3 		movt	r3, #:upper16:.LANCHOR4
 819 0070 0020A0E3 		mov	r2, #0
 820 0074 0620C3E7 		strb	r2, [r3, r6]
 308:../generate/sc_drivers/r_riic/src/hld/r_riic_hld_prv.c ****                 {
 821              		.loc 1 308 17 is_stmt 1 view .LVU209
 308:../generate/sc_drivers/r_riic/src/hld/r_riic_hld_prv.c ****                 {
 822              		.loc 1 308 58 is_stmt 0 view .LVU210
 823 0078 003000E3 		movw	r3, #:lower16:.LANCHOR5
 824 007c 003040E3 		movt	r3, #:upper16:.LANCHOR5
 825 0080 0630D3E7 		ldrb	r3, [r3, r6]	@ zero_extendqisi2
 308:../generate/sc_drivers/r_riic/src/hld/r_riic_hld_prv.c ****                 {
 826              		.loc 1 308 20 view .LVU211
 827 0084 FF0013E3 		tst	r3, #255
 828 0088 F081BD08 		popeq	{r4, r5, r6, r7, r8, pc}
 318:../generate/sc_drivers/r_riic/src/hld/r_riic_hld_prv.c ****                     ret = DRV_ERROR;
 829              		.loc 1 318 21 is_stmt 1 view .LVU212
 318:../generate/sc_drivers/r_riic/src/hld/r_riic_hld_prv.c ****                     ret = DRV_ERROR;
 830              		.loc 1 318 47 is_stmt 0 view .LVU213
 831 008c 003000E3 		movw	r3, #:lower16:.LANCHOR5
 832 0090 003040E3 		movt	r3, #:upper16:.LANCHOR5
 833 0094 0620C3E7 		strb	r2, [r3, r6]
 319:../generate/sc_drivers/r_riic/src/hld/r_riic_hld_prv.c ****                 }
 834              		.loc 1 319 21 is_stmt 1 view .LVU214
 835              	.LVL94:
 319:../generate/sc_drivers/r_riic/src/hld/r_riic_hld_prv.c ****                 }
 836              		.loc 1 319 25 is_stmt 0 view .LVU215
 837 0098 0000E0E3 		mvn	r0, #0
 326:../generate/sc_drivers/r_riic/src/hld/r_riic_hld_prv.c **** }
 838              		.loc 1 326 5 is_stmt 1 view .LVU216
 327:../generate/sc_drivers/r_riic/src/hld/r_riic_hld_prv.c **** /******************************************************************************
 839              		.loc 1 327 1 is_stmt 0 view .LVU217
 840 009c F081BDE8 		pop	{r4, r5, r6, r7, r8, pc}
 841              		.cfi_endproc
 842              	.LFE7:
 844              		.section	.text.riic_single_write,"ax",%progbits
 845              		.align	2
 846              		.syntax unified
 847              		.arm
 848              		.fpu neon
 850              	riic_single_write:
 851              	.LVL95:
 852              	.LFB6:
 234:../generate/sc_drivers/r_riic/src/hld/r_riic_hld_prv.c ****     int_t ret;
 853              		.loc 1 234 1 is_stmt 1 view -0
 854              		.cfi_startproc
 855              		@ args = 0, pretend = 0, frame = 0
 856              		@ frame_needed = 0, uses_anonymous_args = 0
 234:../generate/sc_drivers/r_riic/src/hld/r_riic_hld_prv.c ****     int_t ret;
 857              		.loc 1 234 1 is_stmt 0 view .LVU219
 858 0000 70402DE9 		push	{r4, r5, r6, lr}
 859              		.cfi_def_cfa_offset 16
 860              		.cfi_offset 4, -16
 861              		.cfi_offset 5, -12
 862              		.cfi_offset 6, -8
 863              		.cfi_offset 14, -4
 864 0004 0050A0E1 		mov	r5, r0
 865 0008 0240A0E1 		mov	r4, r2
 235:../generate/sc_drivers/r_riic/src/hld/r_riic_hld_prv.c **** 
 866              		.loc 1 235 5 is_stmt 1 view .LVU220
 238:../generate/sc_drivers/r_riic/src/hld/r_riic_hld_prv.c **** 
 867              		.loc 1 238 5 view .LVU221
 238:../generate/sc_drivers/r_riic/src/hld/r_riic_hld_prv.c **** 
 868              		.loc 1 238 11 is_stmt 0 view .LVU222
 869 000c FEFFFFEB 		bl	riic_transmit
 870              	.LVL96:
 240:../generate/sc_drivers/r_riic/src/hld/r_riic_hld_prv.c ****     {
 871              		.loc 1 240 5 is_stmt 1 view .LVU223
 240:../generate/sc_drivers/r_riic/src/hld/r_riic_hld_prv.c ****     {
 872              		.loc 1 240 8 is_stmt 0 view .LVU224
 873 0010 000050E3 		cmp	r0, #0
 240:../generate/sc_drivers/r_riic/src/hld/r_riic_hld_prv.c ****     {
 874              		.loc 1 240 8 view .LVU225
 875 0014 7080BD18 		popne	{r4, r5, r6, pc}
 243:../generate/sc_drivers/r_riic/src/hld/r_riic_hld_prv.c **** 
 876              		.loc 1 243 9 is_stmt 1 view .LVU226
 243:../generate/sc_drivers/r_riic/src/hld/r_riic_hld_prv.c **** 
 877              		.loc 1 243 15 is_stmt 0 view .LVU227
 878 0018 0410A0E1 		mov	r1, r4
 879 001c 0500A0E1 		mov	r0, r5
 880              	.LVL97:
 243:../generate/sc_drivers/r_riic/src/hld/r_riic_hld_prv.c **** 
 881              		.loc 1 243 15 view .LVU228
 882 0020 FEFFFFEB 		bl	wait_tx_end
 883              	.LVL98:
 245:../generate/sc_drivers/r_riic/src/hld/r_riic_hld_prv.c ****         {
 884              		.loc 1 245 9 is_stmt 1 view .LVU229
 245:../generate/sc_drivers/r_riic/src/hld/r_riic_hld_prv.c ****         {
 885              		.loc 1 245 12 is_stmt 0 view .LVU230
 886 0024 000050E3 		cmp	r0, #0
 245:../generate/sc_drivers/r_riic/src/hld/r_riic_hld_prv.c ****         {
 887              		.loc 1 245 12 view .LVU231
 888 0028 7080BD18 		popne	{r4, r5, r6, pc}
 248:../generate/sc_drivers/r_riic/src/hld/r_riic_hld_prv.c ****             {
 889              		.loc 1 248 13 is_stmt 1 view .LVU232
 248:../generate/sc_drivers/r_riic/src/hld/r_riic_hld_prv.c ****             {
 890              		.loc 1 248 54 is_stmt 0 view .LVU233
 891 002c 003000E3 		movw	r3, #:lower16:.LANCHOR5
 892 0030 003040E3 		movt	r3, #:upper16:.LANCHOR5
 893 0034 0530D3E7 		ldrb	r3, [r3, r5]	@ zero_extendqisi2
 248:../generate/sc_drivers/r_riic/src/hld/r_riic_hld_prv.c ****             {
 894              		.loc 1 248 16 view .LVU234
 895 0038 FF0013E3 		tst	r3, #255
 896 003c 7080BD08 		popeq	{r4, r5, r6, pc}
 256:../generate/sc_drivers/r_riic/src/hld/r_riic_hld_prv.c ****                 ret = DRV_ERROR;
 897              		.loc 1 256 17 is_stmt 1 view .LVU235
 256:../generate/sc_drivers/r_riic/src/hld/r_riic_hld_prv.c ****                 ret = DRV_ERROR;
 898              		.loc 1 256 43 is_stmt 0 view .LVU236
 899 0040 003000E3 		movw	r3, #:lower16:.LANCHOR5
 900 0044 003040E3 		movt	r3, #:upper16:.LANCHOR5
 901 0048 0020A0E3 		mov	r2, #0
 902 004c 0520C3E7 		strb	r2, [r3, r5]
 257:../generate/sc_drivers/r_riic/src/hld/r_riic_hld_prv.c ****             }
 903              		.loc 1 257 17 is_stmt 1 view .LVU237
 904              	.LVL99:
 257:../generate/sc_drivers/r_riic/src/hld/r_riic_hld_prv.c ****             }
 905              		.loc 1 257 21 is_stmt 0 view .LVU238
 906 0050 0000E0E3 		mvn	r0, #0
 262:../generate/sc_drivers/r_riic/src/hld/r_riic_hld_prv.c **** }
 907              		.loc 1 262 5 is_stmt 1 view .LVU239
 263:../generate/sc_drivers/r_riic/src/hld/r_riic_hld_prv.c **** /******************************************************************************
 908              		.loc 1 263 1 is_stmt 0 view .LVU240
 909 0054 7080BDE8 		pop	{r4, r5, r6, pc}
 910              		.cfi_endproc
 911              	.LFE6:
 913              		.section	.text.transmit_restart,"ax",%progbits
 914              		.align	2
 915              		.syntax unified
 916              		.arm
 917              		.fpu neon
 919              	transmit_restart:
 920              	.LVL100:
 921              	.LFB12:
 632:../generate/sc_drivers/r_riic/src/hld/r_riic_hld_prv.c ****     /* Wait for the bus to be busy */
 922              		.loc 1 632 1 is_stmt 1 view -0
 923              		.cfi_startproc
 924              		@ args = 0, pretend = 0, frame = 0
 925              		@ frame_needed = 0, uses_anonymous_args = 0
 632:../generate/sc_drivers/r_riic/src/hld/r_riic_hld_prv.c ****     /* Wait for the bus to be busy */
 926              		.loc 1 632 1 is_stmt 0 view .LVU242
 927 0000 70402DE9 		push	{r4, r5, r6, lr}
 928              		.cfi_def_cfa_offset 16
 929              		.cfi_offset 4, -16
 930              		.cfi_offset 5, -12
 931              		.cfi_offset 6, -8
 932              		.cfi_offset 14, -4
 933 0004 0040A0E1 		mov	r4, r0
 634:../generate/sc_drivers/r_riic/src/hld/r_riic_hld_prv.c **** 
 934              		.loc 1 634 5 is_stmt 1 view .LVU243
 634:../generate/sc_drivers/r_riic/src/hld/r_riic_hld_prv.c **** 
 935              		.loc 1 634 17 is_stmt 0 view .LVU244
 936 0008 0110A0E3 		mov	r1, #1
 937 000c FEFFFFEB 		bl	wait_bus_master
 938              	.LVL101:
 634:../generate/sc_drivers/r_riic/src/hld/r_riic_hld_prv.c **** 
 939              		.loc 1 634 17 view .LVU245
 940 0010 0050A0E1 		mov	r5, r0
 941              	.LVL102:
 637:../generate/sc_drivers/r_riic/src/hld/r_riic_hld_prv.c **** 
 942              		.loc 1 637 5 is_stmt 1 view .LVU246
 943 0014 0400A0E1 		mov	r0, r4
 944              	.LVL103:
 637:../generate/sc_drivers/r_riic/src/hld/r_riic_hld_prv.c **** 
 945              		.loc 1 637 5 is_stmt 0 view .LVU247
 946 0018 FEFFFFEB 		bl	start_timeout_monitor
 947              	.LVL104:
 639:../generate/sc_drivers/r_riic/src/hld/r_riic_hld_prv.c ****     {
 948              		.loc 1 639 5 is_stmt 1 view .LVU248
 639:../generate/sc_drivers/r_riic/src/hld/r_riic_hld_prv.c ****     {
 949              		.loc 1 639 8 is_stmt 0 view .LVU249
 950 001c 000055E3 		cmp	r5, #0
 951 0020 0100000A 		beq	.L69
 952              	.L66:
 651:../generate/sc_drivers/r_riic/src/hld/r_riic_hld_prv.c **** /*******************************************************************************
 953              		.loc 1 651 1 view .LVU250
 954 0024 0500A0E1 		mov	r0, r5
 955 0028 7080BDE8 		pop	{r4, r5, r6, pc}
 956              	.L69:
 642:../generate/sc_drivers/r_riic/src/hld/r_riic_hld_prv.c ****         gs_riic_transmit_empty_flg[channel] = DRV_FLAG_OFF_PRV_;
 957              		.loc 1 642 9 is_stmt 1 view .LVU251
 642:../generate/sc_drivers/r_riic/src/hld/r_riic_hld_prv.c ****         gs_riic_transmit_empty_flg[channel] = DRV_FLAG_OFF_PRV_;
 958              		.loc 1 642 43 is_stmt 0 view .LVU252
 959 002c 003000E3 		movw	r3, #:lower16:.LANCHOR2
 960 0030 003040E3 		movt	r3, #:upper16:.LANCHOR2
 961 0034 0020A0E3 		mov	r2, #0
 962 0038 0420C3E7 		strb	r2, [r3, r4]
 643:../generate/sc_drivers/r_riic/src/hld/r_riic_hld_prv.c ****         gs_riic_transmit_end_flg[channel] = DRV_FLAG_OFF_PRV_;
 963              		.loc 1 643 9 is_stmt 1 view .LVU253
 643:../generate/sc_drivers/r_riic/src/hld/r_riic_hld_prv.c ****         gs_riic_transmit_end_flg[channel] = DRV_FLAG_OFF_PRV_;
 964              		.loc 1 643 45 is_stmt 0 view .LVU254
 965 003c 003000E3 		movw	r3, #:lower16:.LANCHOR1
 966 0040 003040E3 		movt	r3, #:upper16:.LANCHOR1
 967 0044 0420C3E7 		strb	r2, [r3, r4]
 644:../generate/sc_drivers/r_riic/src/hld/r_riic_hld_prv.c **** 
 968              		.loc 1 644 9 is_stmt 1 view .LVU255
 644:../generate/sc_drivers/r_riic/src/hld/r_riic_hld_prv.c **** 
 969              		.loc 1 644 43 is_stmt 0 view .LVU256
 970 0048 003000E3 		movw	r3, #:lower16:.LANCHOR4
 971 004c 003040E3 		movt	r3, #:upper16:.LANCHOR4
 972 0050 0420C3E7 		strb	r2, [r3, r4]
 647:../generate/sc_drivers/r_riic/src/hld/r_riic_hld_prv.c ****     }
 973              		.loc 1 647 9 is_stmt 1 view .LVU257
 974 0054 0400A0E1 		mov	r0, r4
 975 0058 FEFFFFEB 		bl	R_RIIC_TransmitRestart
 976              	.LVL105:
 650:../generate/sc_drivers/r_riic/src/hld/r_riic_hld_prv.c **** }
 977              		.loc 1 650 5 view .LVU258
 650:../generate/sc_drivers/r_riic/src/hld/r_riic_hld_prv.c **** }
 978              		.loc 1 650 12 is_stmt 0 view .LVU259
 979 005c F0FFFFEA 		b	.L66
 980              		.cfi_endproc
 981              	.LFE12:
 983              		.section	.text.riic_receive,"ax",%progbits
 984              		.align	2
 985              		.syntax unified
 986              		.arm
 987              		.fpu neon
 989              	riic_receive:
 990              	.LVL106:
 991              	.LFB9:
 464:../generate/sc_drivers/r_riic/src/hld/r_riic_hld_prv.c ****     int_t ret;
 992              		.loc 1 464 1 is_stmt 1 view -0
 993              		.cfi_startproc
 994              		@ args = 0, pretend = 0, frame = 0
 995              		@ frame_needed = 0, uses_anonymous_args = 0
 464:../generate/sc_drivers/r_riic/src/hld/r_riic_hld_prv.c ****     int_t ret;
 996              		.loc 1 464 1 is_stmt 0 view .LVU261
 997 0000 F0412DE9 		push	{r4, r5, r6, r7, r8, lr}
 998              		.cfi_def_cfa_offset 24
 999              		.cfi_offset 4, -24
 1000              		.cfi_offset 5, -20
 1001              		.cfi_offset 6, -16
 1002              		.cfi_offset 7, -12
 1003              		.cfi_offset 8, -8
 1004              		.cfi_offset 14, -4
 1005 0004 0060A0E1 		mov	r6, r0
 1006 0008 0140A0E1 		mov	r4, r1
 1007 000c 0270A0E1 		mov	r7, r2
 465:../generate/sc_drivers/r_riic/src/hld/r_riic_hld_prv.c **** 
 1008              		.loc 1 465 5 is_stmt 1 view .LVU262
 469:../generate/sc_drivers/r_riic/src/hld/r_riic_hld_prv.c **** 
 1009              		.loc 1 469 5 view .LVU263
 469:../generate/sc_drivers/r_riic/src/hld/r_riic_hld_prv.c **** 
 1010              		.loc 1 469 11 is_stmt 0 view .LVU264
 1011 0010 FEFFFFEB 		bl	wait_rx_full
 1012              	.LVL107:
 471:../generate/sc_drivers/r_riic/src/hld/r_riic_hld_prv.c ****     {
 1013              		.loc 1 471 5 is_stmt 1 view .LVU265
 471:../generate/sc_drivers/r_riic/src/hld/r_riic_hld_prv.c ****     {
 1014              		.loc 1 471 8 is_stmt 0 view .LVU266
 1015 0014 005050E2 		subs	r5, r0, #0
 1016 0018 1000001A 		bne	.L70
 474:../generate/sc_drivers/r_riic/src/hld/r_riic_hld_prv.c **** 
 1017              		.loc 1 474 9 is_stmt 1 view .LVU267
 474:../generate/sc_drivers/r_riic/src/hld/r_riic_hld_prv.c **** 
 1018              		.loc 1 474 43 is_stmt 0 view .LVU268
 1019 001c 003000E3 		movw	r3, #:lower16:.LANCHOR2
 1020 0020 003040E3 		movt	r3, #:upper16:.LANCHOR2
 1021 0024 0020A0E3 		mov	r2, #0
 1022 0028 0620C3E7 		strb	r2, [r3, r6]
 476:../generate/sc_drivers/r_riic/src/hld/r_riic_hld_prv.c ****         {
 1023              		.loc 1 476 9 is_stmt 1 view .LVU269
 1024 002c 040054E3 		cmp	r4, #4
 1025 0030 04F19F97 		ldrls	pc, [pc, r4, asl #2]
 1026 0034 180000EA 		b	.L79
 1027              	.L74:
 1028 0038 54000000 		.word	.L72
 1029 003c 4C000000 		.word	.L77
 1030 0040 68000000 		.word	.L76
 1031 0044 74000000 		.word	.L75
 1032 0048 80000000 		.word	.L73
 1033              	.L77:
 481:../generate/sc_drivers/r_riic/src/hld/r_riic_hld_prv.c ****             }
 1034              		.loc 1 481 17 view .LVU270
 1035 004c 0600A0E1 		mov	r0, r6
 1036              	.LVL108:
 481:../generate/sc_drivers/r_riic/src/hld/r_riic_hld_prv.c ****             }
 1037              		.loc 1 481 17 is_stmt 0 view .LVU271
 1038 0050 FEFFFFEB 		bl	R_RIIC_TransmitAck
 1039              	.LVL109:
 483:../generate/sc_drivers/r_riic/src/hld/r_riic_hld_prv.c **** 
 1040              		.loc 1 483 13 is_stmt 1 view .LVU272
 1041              	.L72:
 523:../generate/sc_drivers/r_riic/src/hld/r_riic_hld_prv.c ****     }
 1042              		.loc 1 523 9 view .LVU273
 523:../generate/sc_drivers/r_riic/src/hld/r_riic_hld_prv.c ****     }
 1043              		.loc 1 523 21 is_stmt 0 view .LVU274
 1044 0054 0600A0E1 		mov	r0, r6
 1045 0058 FEFFFFEB 		bl	R_RIIC_ReadByte
 1046              	.LVL110:
 523:../generate/sc_drivers/r_riic/src/hld/r_riic_hld_prv.c ****     }
 1047              		.loc 1 523 19 view .LVU275
 1048 005c 0000C7E5 		strb	r0, [r7]
 527:../generate/sc_drivers/r_riic/src/hld/r_riic_hld_prv.c **** }
 1049              		.loc 1 527 5 is_stmt 1 view .LVU276
 1050              	.L70:
 528:../generate/sc_drivers/r_riic/src/hld/r_riic_hld_prv.c **** /*******************************************************************************
 1051              		.loc 1 528 1 is_stmt 0 view .LVU277
 1052 0060 0500A0E1 		mov	r0, r5
 1053 0064 F081BDE8 		pop	{r4, r5, r6, r7, r8, pc}
 1054              	.LVL111:
 1055              	.L76:
 489:../generate/sc_drivers/r_riic/src/hld/r_riic_hld_prv.c ****             }
 1056              		.loc 1 489 17 is_stmt 1 view .LVU278
 1057 0068 0600A0E1 		mov	r0, r6
 1058              	.LVL112:
 489:../generate/sc_drivers/r_riic/src/hld/r_riic_hld_prv.c ****             }
 1059              		.loc 1 489 17 is_stmt 0 view .LVU279
 1060 006c FEFFFFEB 		bl	R_RIIC_AssertLowHold
 1061              	.LVL113:
 491:../generate/sc_drivers/r_riic/src/hld/r_riic_hld_prv.c **** 
 1062              		.loc 1 491 13 is_stmt 1 view .LVU280
 1063 0070 F7FFFFEA 		b	.L72
 1064              	.LVL114:
 1065              	.L75:
 496:../generate/sc_drivers/r_riic/src/hld/r_riic_hld_prv.c ****             }
 1066              		.loc 1 496 17 view .LVU281
 1067 0074 0600A0E1 		mov	r0, r6
 1068              	.LVL115:
 496:../generate/sc_drivers/r_riic/src/hld/r_riic_hld_prv.c ****             }
 1069              		.loc 1 496 17 is_stmt 0 view .LVU282
 1070 0078 FEFFFFEB 		bl	R_RIIC_TransmitNack
 1071              	.LVL116:
 498:../generate/sc_drivers/r_riic/src/hld/r_riic_hld_prv.c **** 
 1072              		.loc 1 498 13 is_stmt 1 view .LVU283
 1073 007c F4FFFFEA 		b	.L72
 1074              	.LVL117:
 1075              	.L73:
 502:../generate/sc_drivers/r_riic/src/hld/r_riic_hld_prv.c **** 
 1076              		.loc 1 502 17 view .LVU284
 502:../generate/sc_drivers/r_riic/src/hld/r_riic_hld_prv.c **** 
 1077              		.loc 1 502 43 is_stmt 0 view .LVU285
 1078 0080 003000E3 		movw	r3, #:lower16:.LANCHOR3
 1079 0084 003040E3 		movt	r3, #:upper16:.LANCHOR3
 1080 0088 0020A0E3 		mov	r2, #0
 1081 008c 0620C3E7 		strb	r2, [r3, r6]
 505:../generate/sc_drivers/r_riic/src/hld/r_riic_hld_prv.c ****             }
 1082              		.loc 1 505 17 is_stmt 1 view .LVU286
 1083 0090 0600A0E1 		mov	r0, r6
 1084              	.LVL118:
 505:../generate/sc_drivers/r_riic/src/hld/r_riic_hld_prv.c ****             }
 1085              		.loc 1 505 17 is_stmt 0 view .LVU287
 1086 0094 FEFFFFEB 		bl	R_RIIC_TransmitStop
 1087              	.LVL119:
 507:../generate/sc_drivers/r_riic/src/hld/r_riic_hld_prv.c ****             case RIIC_RX_MODE_NORMAL:
 1088              		.loc 1 507 13 is_stmt 1 view .LVU288
 1089 0098 EDFFFFEA 		b	.L72
 1090              	.LVL120:
 1091              	.L79:
 517:../generate/sc_drivers/r_riic/src/hld/r_riic_hld_prv.c ****             }
 1092              		.loc 1 517 21 is_stmt 0 view .LVU289
 1093 009c 0050E0E3 		mvn	r5, #0
 1094 00a0 EBFFFFEA 		b	.L72
 1095              		.cfi_endproc
 1096              	.LFE9:
 1098              		.section	.text.riic_read,"ax",%progbits
 1099              		.align	2
 1100              		.syntax unified
 1101              		.arm
 1102              		.fpu neon
 1104              	riic_read:
 1105              	.LVL121:
 1106              	.LFB8:
 342:../generate/sc_drivers/r_riic/src/hld/r_riic_hld_prv.c ****     uint8_t *p_buffer2;
 1107              		.loc 1 342 1 is_stmt 1 view -0
 1108              		.cfi_startproc
 1109              		@ args = 0, pretend = 0, frame = 0
 1110              		@ frame_needed = 0, uses_anonymous_args = 0
 342:../generate/sc_drivers/r_riic/src/hld/r_riic_hld_prv.c ****     uint8_t *p_buffer2;
 1111              		.loc 1 342 1 is_stmt 0 view .LVU291
 1112 0000 F0412DE9 		push	{r4, r5, r6, r7, r8, lr}
 1113              		.cfi_def_cfa_offset 24
 1114              		.cfi_offset 4, -24
 1115              		.cfi_offset 5, -20
 1116              		.cfi_offset 6, -16
 1117              		.cfi_offset 7, -12
 1118              		.cfi_offset 8, -8
 1119              		.cfi_offset 14, -4
 343:../generate/sc_drivers/r_riic/src/hld/r_riic_hld_prv.c ****     int_t ret;
 1120              		.loc 1 343 5 is_stmt 1 view .LVU292
 344:../generate/sc_drivers/r_riic/src/hld/r_riic_hld_prv.c **** 
 1121              		.loc 1 344 5 view .LVU293
 347:../generate/sc_drivers/r_riic/src/hld/r_riic_hld_prv.c ****     {
 1122              		.loc 1 347 5 view .LVU294
 347:../generate/sc_drivers/r_riic/src/hld/r_riic_hld_prv.c ****     {
 1123              		.loc 1 347 8 is_stmt 0 view .LVU295
 1124 0004 007052E2 		subs	r7, r2, #0
 1125 0008 4500000A 		beq	.L91
 1126 000c 0060A0E1 		mov	r6, r0
 1127 0010 0150A0E1 		mov	r5, r1
 352:../generate/sc_drivers/r_riic/src/hld/r_riic_hld_prv.c **** 
 1128              		.loc 1 352 5 is_stmt 1 view .LVU296
 1129              	.LVL122:
 355:../generate/sc_drivers/r_riic/src/hld/r_riic_hld_prv.c ****     {
 1130              		.loc 1 355 5 view .LVU297
 355:../generate/sc_drivers/r_riic/src/hld/r_riic_hld_prv.c ****     {
 1131              		.loc 1 355 8 is_stmt 0 view .LVU298
 1132 0014 010057E3 		cmp	r7, #1
 1133 0018 0800000A 		beq	.L93
 379:../generate/sc_drivers/r_riic/src/hld/r_riic_hld_prv.c ****         {
 1134              		.loc 1 379 9 is_stmt 1 view .LVU299
 379:../generate/sc_drivers/r_riic/src/hld/r_riic_hld_prv.c ****         {
 1135              		.loc 1 379 12 is_stmt 0 view .LVU300
 1136 001c 020057E3 		cmp	r7, #2
 1137 0020 1400000A 		beq	.L94
 387:../generate/sc_drivers/r_riic/src/hld/r_riic_hld_prv.c ****         }
 1138              		.loc 1 387 13 is_stmt 1 view .LVU301
 387:../generate/sc_drivers/r_riic/src/hld/r_riic_hld_prv.c ****         }
 1139              		.loc 1 387 19 is_stmt 0 view .LVU302
 1140 0024 0120A0E1 		mov	r2, r1
 1141              	.LVL123:
 387:../generate/sc_drivers/r_riic/src/hld/r_riic_hld_prv.c ****         }
 1142              		.loc 1 387 19 view .LVU303
 1143 0028 0110A0E3 		mov	r1, #1
 1144              	.LVL124:
 387:../generate/sc_drivers/r_riic/src/hld/r_riic_hld_prv.c ****         }
 1145              		.loc 1 387 19 view .LVU304
 1146 002c FEFFFFEB 		bl	riic_receive
 1147              	.LVL125:
 387:../generate/sc_drivers/r_riic/src/hld/r_riic_hld_prv.c ****         }
 1148              		.loc 1 387 19 view .LVU305
 1149 0030 0040A0E1 		mov	r4, r0
 1150              	.LVL126:
 1151              	.L86:
 390:../generate/sc_drivers/r_riic/src/hld/r_riic_hld_prv.c ****         {
 1152              		.loc 1 390 9 is_stmt 1 view .LVU306
 390:../generate/sc_drivers/r_riic/src/hld/r_riic_hld_prv.c ****         {
 1153              		.loc 1 390 12 is_stmt 0 view .LVU307
 1154 0034 000054E3 		cmp	r4, #0
 1155 0038 1C00000A 		beq	.L87
 390:../generate/sc_drivers/r_riic/src/hld/r_riic_hld_prv.c ****         {
 1156              		.loc 1 390 12 view .LVU308
 1157 003c 390000EA 		b	.L81
 1158              	.LVL127:
 1159              	.L93:
 357:../generate/sc_drivers/r_riic/src/hld/r_riic_hld_prv.c **** 
 1160              		.loc 1 357 9 is_stmt 1 view .LVU309
 1161 0040 FEFFFFEB 		bl	R_RIIC_AssertLowHold
 1162              	.LVL128:
 360:../generate/sc_drivers/r_riic/src/hld/r_riic_hld_prv.c **** 
 1163              		.loc 1 360 9 view .LVU310
 360:../generate/sc_drivers/r_riic/src/hld/r_riic_hld_prv.c **** 
 1164              		.loc 1 360 15 is_stmt 0 view .LVU311
 1165 0044 0520A0E1 		mov	r2, r5
 1166 0048 0310A0E3 		mov	r1, #3
 1167 004c 0600A0E1 		mov	r0, r6
 1168 0050 FEFFFFEB 		bl	riic_receive
 1169              	.LVL129:
 362:../generate/sc_drivers/r_riic/src/hld/r_riic_hld_prv.c ****         {
 1170              		.loc 1 362 9 is_stmt 1 view .LVU312
 362:../generate/sc_drivers/r_riic/src/hld/r_riic_hld_prv.c ****         {
 1171              		.loc 1 362 12 is_stmt 0 view .LVU313
 1172 0054 004050E2 		subs	r4, r0, #0
 1173 0058 3200001A 		bne	.L81
 368:../generate/sc_drivers/r_riic/src/hld/r_riic_hld_prv.c **** 
 1174              		.loc 1 368 9 is_stmt 1 view .LVU314
 368:../generate/sc_drivers/r_riic/src/hld/r_riic_hld_prv.c **** 
 1175              		.loc 1 368 15 is_stmt 0 view .LVU315
 1176 005c 0520A0E1 		mov	r2, r5
 1177 0060 0410A0E3 		mov	r1, #4
 1178 0064 0600A0E1 		mov	r0, r6
 1179              	.LVL130:
 368:../generate/sc_drivers/r_riic/src/hld/r_riic_hld_prv.c **** 
 1180              		.loc 1 368 15 view .LVU316
 1181 0068 FEFFFFEB 		bl	riic_receive
 1182              	.LVL131:
 370:../generate/sc_drivers/r_riic/src/hld/r_riic_hld_prv.c ****         {
 1183              		.loc 1 370 9 is_stmt 1 view .LVU317
 370:../generate/sc_drivers/r_riic/src/hld/r_riic_hld_prv.c ****         {
 1184              		.loc 1 370 12 is_stmt 0 view .LVU318
 1185 006c 004050E2 		subs	r4, r0, #0
 1186 0070 2300000A 		beq	.L84
 1187 0074 2B0000EA 		b	.L81
 1188              	.LVL132:
 1189              	.L94:
 382:../generate/sc_drivers/r_riic/src/hld/r_riic_hld_prv.c ****         }
 1190              		.loc 1 382 13 is_stmt 1 view .LVU319
 382:../generate/sc_drivers/r_riic/src/hld/r_riic_hld_prv.c ****         }
 1191              		.loc 1 382 19 is_stmt 0 view .LVU320
 1192 0078 0120A0E1 		mov	r2, r1
 1193              	.LVL133:
 382:../generate/sc_drivers/r_riic/src/hld/r_riic_hld_prv.c ****         }
 1194              		.loc 1 382 19 view .LVU321
 1195 007c 0210A0E3 		mov	r1, #2
 1196              	.LVL134:
 382:../generate/sc_drivers/r_riic/src/hld/r_riic_hld_prv.c ****         }
 1197              		.loc 1 382 19 view .LVU322
 1198 0080 FEFFFFEB 		bl	riic_receive
 1199              	.LVL135:
 382:../generate/sc_drivers/r_riic/src/hld/r_riic_hld_prv.c ****         }
 1200              		.loc 1 382 19 view .LVU323
 1201 0084 0040A0E1 		mov	r4, r0
 1202              	.LVL136:
 382:../generate/sc_drivers/r_riic/src/hld/r_riic_hld_prv.c ****         }
 1203              		.loc 1 382 19 view .LVU324
 1204 0088 E9FFFFEA 		b	.L86
 1205              	.LVL137:
 1206              	.L96:
 401:../generate/sc_drivers/r_riic/src/hld/r_riic_hld_prv.c ****             }
 1207              		.loc 1 401 17 is_stmt 1 view .LVU325
 401:../generate/sc_drivers/r_riic/src/hld/r_riic_hld_prv.c ****             }
 1208              		.loc 1 401 23 is_stmt 0 view .LVU326
 1209 008c 0520A0E1 		mov	r2, r5
 1210 0090 0210A0E3 		mov	r1, #2
 1211 0094 0600A0E1 		mov	r0, r6
 1212              	.LVL138:
 401:../generate/sc_drivers/r_riic/src/hld/r_riic_hld_prv.c ****             }
 1213              		.loc 1 401 23 view .LVU327
 1214 0098 FEFFFFEB 		bl	riic_receive
 1215              	.LVL139:
 1216 009c 0040A0E1 		mov	r4, r0
 1217              	.LVL140:
 1218              	.L89:
 409:../generate/sc_drivers/r_riic/src/hld/r_riic_hld_prv.c ****             {
 1219              		.loc 1 409 13 is_stmt 1 view .LVU328
 409:../generate/sc_drivers/r_riic/src/hld/r_riic_hld_prv.c ****             {
 1220              		.loc 1 409 16 is_stmt 0 view .LVU329
 1221 00a0 000054E3 		cmp	r4, #0
 1222 00a4 1F00001A 		bne	.L81
 414:../generate/sc_drivers/r_riic/src/hld/r_riic_hld_prv.c ****             byte--;
 1223              		.loc 1 414 13 is_stmt 1 view .LVU330
 414:../generate/sc_drivers/r_riic/src/hld/r_riic_hld_prv.c ****             byte--;
 1224              		.loc 1 414 22 is_stmt 0 view .LVU331
 1225 00a8 015085E2 		add	r5, r5, #1
 1226              	.LVL141:
 415:../generate/sc_drivers/r_riic/src/hld/r_riic_hld_prv.c ****         }
 1227              		.loc 1 415 13 is_stmt 1 view .LVU332
 415:../generate/sc_drivers/r_riic/src/hld/r_riic_hld_prv.c ****         }
 1228              		.loc 1 415 17 is_stmt 0 view .LVU333
 1229 00ac 017047E2 		sub	r7, r7, #1
 1230              	.LVL142:
 1231              	.L87:
 396:../generate/sc_drivers/r_riic/src/hld/r_riic_hld_prv.c ****         {
 1232              		.loc 1 396 15 is_stmt 1 view .LVU334
 1233 00b0 020057E3 		cmp	r7, #2
 1234 00b4 0700009A 		bls	.L95
 398:../generate/sc_drivers/r_riic/src/hld/r_riic_hld_prv.c ****             {
 1235              		.loc 1 398 13 view .LVU335
 398:../generate/sc_drivers/r_riic/src/hld/r_riic_hld_prv.c ****             {
 1236              		.loc 1 398 16 is_stmt 0 view .LVU336
 1237 00b8 030057E3 		cmp	r7, #3
 1238 00bc F2FFFF0A 		beq	.L96
 406:../generate/sc_drivers/r_riic/src/hld/r_riic_hld_prv.c ****             }
 1239              		.loc 1 406 17 is_stmt 1 view .LVU337
 406:../generate/sc_drivers/r_riic/src/hld/r_riic_hld_prv.c ****             }
 1240              		.loc 1 406 23 is_stmt 0 view .LVU338
 1241 00c0 0520A0E1 		mov	r2, r5
 1242 00c4 0110A0E3 		mov	r1, #1
 1243 00c8 0600A0E1 		mov	r0, r6
 1244              	.LVL143:
 406:../generate/sc_drivers/r_riic/src/hld/r_riic_hld_prv.c ****             }
 1245              		.loc 1 406 23 view .LVU339
 1246 00cc FEFFFFEB 		bl	riic_receive
 1247              	.LVL144:
 1248 00d0 0040A0E1 		mov	r4, r0
 1249              	.LVL145:
 406:../generate/sc_drivers/r_riic/src/hld/r_riic_hld_prv.c ****             }
 1250              		.loc 1 406 23 view .LVU340
 1251 00d4 F1FFFFEA 		b	.L89
 1252              	.L95:
 419:../generate/sc_drivers/r_riic/src/hld/r_riic_hld_prv.c ****         if (DRV_SUCCESS != ret)
 1253              		.loc 1 419 9 is_stmt 1 view .LVU341
 419:../generate/sc_drivers/r_riic/src/hld/r_riic_hld_prv.c ****         if (DRV_SUCCESS != ret)
 1254              		.loc 1 419 15 is_stmt 0 view .LVU342
 1255 00d8 0520A0E1 		mov	r2, r5
 1256 00dc 0310A0E3 		mov	r1, #3
 1257 00e0 0600A0E1 		mov	r0, r6
 1258              	.LVL146:
 419:../generate/sc_drivers/r_riic/src/hld/r_riic_hld_prv.c ****         if (DRV_SUCCESS != ret)
 1259              		.loc 1 419 15 view .LVU343
 1260 00e4 FEFFFFEB 		bl	riic_receive
 1261              	.LVL147:
 420:../generate/sc_drivers/r_riic/src/hld/r_riic_hld_prv.c ****         {
 1262              		.loc 1 420 9 is_stmt 1 view .LVU344
 420:../generate/sc_drivers/r_riic/src/hld/r_riic_hld_prv.c ****         {
 1263              		.loc 1 420 12 is_stmt 0 view .LVU345
 1264 00e8 004050E2 		subs	r4, r0, #0
 1265 00ec 0D00001A 		bne	.L81
 425:../generate/sc_drivers/r_riic/src/hld/r_riic_hld_prv.c ****         byte--;
 1266              		.loc 1 425 9 is_stmt 1 view .LVU346
 1267              	.LVL148:
 426:../generate/sc_drivers/r_riic/src/hld/r_riic_hld_prv.c **** 
 1268              		.loc 1 426 9 view .LVU347
 428:../generate/sc_drivers/r_riic/src/hld/r_riic_hld_prv.c ****         {
 1269              		.loc 1 428 9 view .LVU348
 431:../generate/sc_drivers/r_riic/src/hld/r_riic_hld_prv.c ****         }
 1270              		.loc 1 431 13 view .LVU349
 431:../generate/sc_drivers/r_riic/src/hld/r_riic_hld_prv.c ****         }
 1271              		.loc 1 431 19 is_stmt 0 view .LVU350
 1272 00f0 012085E2 		add	r2, r5, #1
 1273              	.LVL149:
 431:../generate/sc_drivers/r_riic/src/hld/r_riic_hld_prv.c ****         }
 1274              		.loc 1 431 19 view .LVU351
 1275 00f4 0410A0E3 		mov	r1, #4
 1276 00f8 0600A0E1 		mov	r0, r6
 1277              	.LVL150:
 431:../generate/sc_drivers/r_riic/src/hld/r_riic_hld_prv.c ****         }
 1278              		.loc 1 431 19 view .LVU352
 1279 00fc FEFFFFEB 		bl	riic_receive
 1280              	.LVL151:
 431:../generate/sc_drivers/r_riic/src/hld/r_riic_hld_prv.c ****         }
 1281              		.loc 1 431 19 view .LVU353
 1282 0100 0040A0E1 		mov	r4, r0
 1283              	.LVL152:
 1284              	.L84:
 436:../generate/sc_drivers/r_riic/src/hld/r_riic_hld_prv.c **** 
 1285              		.loc 1 436 5 is_stmt 1 view .LVU354
 1286 0104 0600A0E1 		mov	r0, r6
 1287              	.LVL153:
 436:../generate/sc_drivers/r_riic/src/hld/r_riic_hld_prv.c **** 
 1288              		.loc 1 436 5 is_stmt 0 view .LVU355
 1289 0108 FEFFFFEB 		bl	R_RIIC_ReleaseLowHold
 1290              	.LVL154:
 438:../generate/sc_drivers/r_riic/src/hld/r_riic_hld_prv.c ****     {
 1291              		.loc 1 438 5 is_stmt 1 view .LVU356
 438:../generate/sc_drivers/r_riic/src/hld/r_riic_hld_prv.c ****     {
 1292              		.loc 1 438 8 is_stmt 0 view .LVU357
 1293 010c 000054E3 		cmp	r4, #0
 1294 0110 0400001A 		bne	.L81
 441:../generate/sc_drivers/r_riic/src/hld/r_riic_hld_prv.c ****     }
 1295              		.loc 1 441 9 is_stmt 1 view .LVU358
 441:../generate/sc_drivers/r_riic/src/hld/r_riic_hld_prv.c ****     }
 1296              		.loc 1 441 15 is_stmt 0 view .LVU359
 1297 0114 0600A0E1 		mov	r0, r6
 1298 0118 FEFFFFEB 		bl	wait_stop
 1299              	.LVL155:
 1300 011c 0040A0E1 		mov	r4, r0
 1301              	.LVL156:
 441:../generate/sc_drivers/r_riic/src/hld/r_riic_hld_prv.c ****     }
 1302              		.loc 1 441 15 view .LVU360
 1303 0120 000000EA 		b	.L81
 1304              	.LVL157:
 1305              	.L91:
 349:../generate/sc_drivers/r_riic/src/hld/r_riic_hld_prv.c ****     }
 1306              		.loc 1 349 16 view .LVU361
 1307 0124 0040A0E3 		mov	r4, #0
 1308              	.LVL158:
 1309              	.L81:
 445:../generate/sc_drivers/r_riic/src/hld/r_riic_hld_prv.c **** /******************************************************************************
 1310              		.loc 1 445 1 view .LVU362
 1311 0128 0400A0E1 		mov	r0, r4
 1312 012c F081BDE8 		pop	{r4, r5, r6, r7, r8, pc}
 1313              		.cfi_endproc
 1314              	.LFE8:
 1316              		.section	.text.open_channel,"ax",%progbits
 1317              		.align	2
 1318              		.global	open_channel
 1319              		.syntax unified
 1320              		.arm
 1321              		.fpu neon
 1323              	open_channel:
 1324              	.LVL159:
 1325              	.LFB4:
 145:../generate/sc_drivers/r_riic/src/hld/r_riic_hld_prv.c ****     int_t retval = DRV_ERROR;
 1326              		.loc 1 145 1 is_stmt 1 view -0
 1327              		.cfi_startproc
 1328              		@ args = 0, pretend = 0, frame = 0
 1329              		@ frame_needed = 0, uses_anonymous_args = 0
 145:../generate/sc_drivers/r_riic/src/hld/r_riic_hld_prv.c ****     int_t retval = DRV_ERROR;
 1330              		.loc 1 145 1 is_stmt 0 view .LVU364
 1331 0000 10402DE9 		push	{r4, lr}
 1332              		.cfi_def_cfa_offset 8
 1333              		.cfi_offset 4, -8
 1334              		.cfi_offset 14, -4
 1335 0004 0040A0E1 		mov	r4, r0
 146:../generate/sc_drivers/r_riic/src/hld/r_riic_hld_prv.c ****     int_t sc_index = 0;
 1336              		.loc 1 146 5 is_stmt 1 view .LVU365
 1337              	.LVL160:
 147:../generate/sc_drivers/r_riic/src/hld/r_riic_hld_prv.c ****     int_t sc_loop = 0;
 1338              		.loc 1 147 5 view .LVU366
 148:../generate/sc_drivers/r_riic/src/hld/r_riic_hld_prv.c ****     int_t sc_table_size = (sizeof(RIIC_SC_TABLE)) / (sizeof(st_r_drv_riic_sc_config_t));
 1339              		.loc 1 148 5 view .LVU367
 149:../generate/sc_drivers/r_riic/src/hld/r_riic_hld_prv.c **** 
 1340              		.loc 1 149 5 view .LVU368
 151:../generate/sc_drivers/r_riic/src/hld/r_riic_hld_prv.c ****     {
 1341              		.loc 1 151 5 view .LVU369
 148:../generate/sc_drivers/r_riic/src/hld/r_riic_hld_prv.c ****     int_t sc_table_size = (sizeof(RIIC_SC_TABLE)) / (sizeof(st_r_drv_riic_sc_config_t));
 1342              		.loc 1 148 11 is_stmt 0 view .LVU370
 1343 0008 0030A0E3 		mov	r3, #0
 151:../generate/sc_drivers/r_riic/src/hld/r_riic_hld_prv.c ****     {
 1344              		.loc 1 151 19 view .LVU371
 1345 000c 0310A0E1 		mov	r1, r3
 146:../generate/sc_drivers/r_riic/src/hld/r_riic_hld_prv.c ****     int_t sc_index = 0;
 1346              		.loc 1 146 11 view .LVU372
 1347 0010 0000E0E3 		mvn	r0, #0
 1348              	.LVL161:
 1349              	.L98:
 151:../generate/sc_drivers/r_riic/src/hld/r_riic_hld_prv.c ****     {
 1350              		.loc 1 151 24 is_stmt 1 discriminator 1 view .LVU373
 151:../generate/sc_drivers/r_riic/src/hld/r_riic_hld_prv.c ****     {
 1351              		.loc 1 151 5 is_stmt 0 discriminator 1 view .LVU374
 1352 0014 000053E3 		cmp	r3, #0
 1353 0018 200000DA 		ble	.L100
 160:../generate/sc_drivers/r_riic/src/hld/r_riic_hld_prv.c ****     {
 1354              		.loc 1 160 5 is_stmt 1 view .LVU375
 160:../generate/sc_drivers/r_riic/src/hld/r_riic_hld_prv.c ****     {
 1355              		.loc 1 160 8 is_stmt 0 view .LVU376
 1356 001c 000050E3 		cmp	r0, #0
 1357 0020 1080BD18 		popne	{r4, pc}
 163:../generate/sc_drivers/r_riic/src/hld/r_riic_hld_prv.c **** 
 1358              		.loc 1 163 9 is_stmt 1 view .LVU377
 163:../generate/sc_drivers/r_riic/src/hld/r_riic_hld_prv.c **** 
 1359              		.loc 1 163 18 is_stmt 0 view .LVU378
 1360 0024 000000E3 		movw	r0, #:lower16:.LANCHOR6
 1361              	.LVL162:
 163:../generate/sc_drivers/r_riic/src/hld/r_riic_hld_prv.c **** 
 1362              		.loc 1 163 18 view .LVU379
 1363 0028 000040E3 		movt	r0, #:upper16:.LANCHOR6
 1364 002c 011281E0 		add	r1, r1, r1, lsl #4
 1365              	.LVL163:
 163:../generate/sc_drivers/r_riic/src/hld/r_riic_hld_prv.c **** 
 1366              		.loc 1 163 18 view .LVU380
 1367 0030 010180E0 		add	r0, r0, r1, lsl #2
 1368 0034 FEFFFFEB 		bl	riic_setup
 1369              	.LVL164:
 166:../generate/sc_drivers/r_riic/src/hld/r_riic_hld_prv.c ****         gs_riic_transmit_empty_flg[channel] = DRV_FLAG_OFF_PRV_;
 1370              		.loc 1 166 9 is_stmt 1 view .LVU381
 166:../generate/sc_drivers/r_riic/src/hld/r_riic_hld_prv.c ****         gs_riic_transmit_empty_flg[channel] = DRV_FLAG_OFF_PRV_;
 1371              		.loc 1 166 43 is_stmt 0 view .LVU382
 1372 0038 002000E3 		movw	r2, #:lower16:.LANCHOR2
 1373 003c 002040E3 		movt	r2, #:upper16:.LANCHOR2
 1374 0040 0030A0E3 		mov	r3, #0
 1375 0044 0430C2E7 		strb	r3, [r2, r4]
 167:../generate/sc_drivers/r_riic/src/hld/r_riic_hld_prv.c ****         gs_riic_transmit_end_flg[channel] = DRV_FLAG_OFF_PRV_;
 1376              		.loc 1 167 9 is_stmt 1 view .LVU383
 167:../generate/sc_drivers/r_riic/src/hld/r_riic_hld_prv.c ****         gs_riic_transmit_end_flg[channel] = DRV_FLAG_OFF_PRV_;
 1377              		.loc 1 167 45 is_stmt 0 view .LVU384
 1378 0048 002000E3 		movw	r2, #:lower16:.LANCHOR1
 1379 004c 002040E3 		movt	r2, #:upper16:.LANCHOR1
 1380 0050 0430C2E7 		strb	r3, [r2, r4]
 168:../generate/sc_drivers/r_riic/src/hld/r_riic_hld_prv.c ****         gs_riic_stop_flg[channel] = DRV_FLAG_OFF_PRV_;
 1381              		.loc 1 168 9 is_stmt 1 view .LVU385
 168:../generate/sc_drivers/r_riic/src/hld/r_riic_hld_prv.c ****         gs_riic_stop_flg[channel] = DRV_FLAG_OFF_PRV_;
 1382              		.loc 1 168 43 is_stmt 0 view .LVU386
 1383 0054 002000E3 		movw	r2, #:lower16:.LANCHOR4
 1384 0058 002040E3 		movt	r2, #:upper16:.LANCHOR4
 1385 005c 0430C2E7 		strb	r3, [r2, r4]
 169:../generate/sc_drivers/r_riic/src/hld/r_riic_hld_prv.c ****         gs_riic_start_flg[channel] = DRV_FLAG_OFF_PRV_;
 1386              		.loc 1 169 9 is_stmt 1 view .LVU387
 169:../generate/sc_drivers/r_riic/src/hld/r_riic_hld_prv.c ****         gs_riic_start_flg[channel] = DRV_FLAG_OFF_PRV_;
 1387              		.loc 1 169 35 is_stmt 0 view .LVU388
 1388 0060 002000E3 		movw	r2, #:lower16:.LANCHOR3
 1389 0064 002040E3 		movt	r2, #:upper16:.LANCHOR3
 1390 0068 0430C2E7 		strb	r3, [r2, r4]
 170:../generate/sc_drivers/r_riic/src/hld/r_riic_hld_prv.c ****         gs_riic_nack_flg[channel] = DRV_FLAG_OFF_PRV_;
 1391              		.loc 1 170 9 is_stmt 1 view .LVU389
 170:../generate/sc_drivers/r_riic/src/hld/r_riic_hld_prv.c ****         gs_riic_nack_flg[channel] = DRV_FLAG_OFF_PRV_;
 1392              		.loc 1 170 36 is_stmt 0 view .LVU390
 1393 006c 002000E3 		movw	r2, #:lower16:.LANCHOR7
 1394 0070 002040E3 		movt	r2, #:upper16:.LANCHOR7
 1395 0074 0430C2E7 		strb	r3, [r2, r4]
 171:../generate/sc_drivers/r_riic/src/hld/r_riic_hld_prv.c ****         gs_riic_arbitration_flg[channel] = DRV_FLAG_OFF_PRV_;
 1396              		.loc 1 171 9 is_stmt 1 view .LVU391
 171:../generate/sc_drivers/r_riic/src/hld/r_riic_hld_prv.c ****         gs_riic_arbitration_flg[channel] = DRV_FLAG_OFF_PRV_;
 1397              		.loc 1 171 35 is_stmt 0 view .LVU392
 1398 0078 002000E3 		movw	r2, #:lower16:.LANCHOR5
 1399 007c 002040E3 		movt	r2, #:upper16:.LANCHOR5
 1400 0080 0430C2E7 		strb	r3, [r2, r4]
 172:../generate/sc_drivers/r_riic/src/hld/r_riic_hld_prv.c ****         gs_riic_timeout_flg[channel] = DRV_FLAG_OFF_PRV_;
 1401              		.loc 1 172 9 is_stmt 1 view .LVU393
 172:../generate/sc_drivers/r_riic/src/hld/r_riic_hld_prv.c ****         gs_riic_timeout_flg[channel] = DRV_FLAG_OFF_PRV_;
 1402              		.loc 1 172 42 is_stmt 0 view .LVU394
 1403 0084 002000E3 		movw	r2, #:lower16:.LANCHOR8
 1404 0088 002040E3 		movt	r2, #:upper16:.LANCHOR8
 1405 008c 0430C2E7 		strb	r3, [r2, r4]
 173:../generate/sc_drivers/r_riic/src/hld/r_riic_hld_prv.c ****     }
 1406              		.loc 1 173 9 is_stmt 1 view .LVU395
 173:../generate/sc_drivers/r_riic/src/hld/r_riic_hld_prv.c ****     }
 1407              		.loc 1 173 38 is_stmt 0 view .LVU396
 1408 0090 002000E3 		movw	r2, #:lower16:.LANCHOR0
 1409 0094 002040E3 		movt	r2, #:upper16:.LANCHOR0
 1410 0098 0430C2E7 		strb	r3, [r2, r4]
 177:../generate/sc_drivers/r_riic/src/hld/r_riic_hld_prv.c **** }
 1411              		.loc 1 177 5 is_stmt 1 view .LVU397
 178:../generate/sc_drivers/r_riic/src/hld/r_riic_hld_prv.c **** /*******************************************************************************
 1412              		.loc 1 178 1 is_stmt 0 view .LVU398
 1413 009c 1080BDE8 		pop	{r4, pc}
 1414              	.LVL165:
 1415              	.L100:
 153:../generate/sc_drivers/r_riic/src/hld/r_riic_hld_prv.c ****         {
 1416              		.loc 1 153 9 is_stmt 1 view .LVU399
 153:../generate/sc_drivers/r_riic/src/hld/r_riic_hld_prv.c ****         {
 1417              		.loc 1 153 35 is_stmt 0 view .LVU400
 1418 00a0 002000E3 		movw	r2, #:lower16:.LANCHOR6
 1419 00a4 002040E3 		movt	r2, #:upper16:.LANCHOR6
 1420 00a8 03C283E0 		add	ip, r3, r3, lsl #4
 1421 00ac 0C2192E7 		ldr	r2, [r2, ip, lsl #2]
 153:../generate/sc_drivers/r_riic/src/hld/r_riic_hld_prv.c ****         {
 1422              		.loc 1 153 12 view .LVU401
 1423 00b0 040052E1 		cmp	r2, r4
 1424 00b4 0100000A 		beq	.L104
 1425              	.LVL166:
 1426              	.L99:
 151:../generate/sc_drivers/r_riic/src/hld/r_riic_hld_prv.c ****     {
 1427              		.loc 1 151 51 is_stmt 1 discriminator 2 view .LVU402
 151:../generate/sc_drivers/r_riic/src/hld/r_riic_hld_prv.c ****     {
 1428              		.loc 1 151 58 is_stmt 0 discriminator 2 view .LVU403
 1429 00b8 013083E2 		add	r3, r3, #1
 1430              	.LVL167:
 151:../generate/sc_drivers/r_riic/src/hld/r_riic_hld_prv.c ****     {
 1431              		.loc 1 151 58 discriminator 2 view .LVU404
 1432 00bc D4FFFFEA 		b	.L98
 1433              	.L104:
 155:../generate/sc_drivers/r_riic/src/hld/r_riic_hld_prv.c ****             retval = DRV_SUCCESS;
 1434              		.loc 1 155 22 view .LVU405
 1435 00c0 0310A0E1 		mov	r1, r3
 1436              	.LVL168:
 156:../generate/sc_drivers/r_riic/src/hld/r_riic_hld_prv.c ****         }
 1437              		.loc 1 156 20 view .LVU406
 1438 00c4 0000A0E3 		mov	r0, #0
 1439              	.LVL169:
 156:../generate/sc_drivers/r_riic/src/hld/r_riic_hld_prv.c ****         }
 1440              		.loc 1 156 20 view .LVU407
 1441 00c8 FAFFFFEA 		b	.L99
 1442              		.cfi_endproc
 1443              	.LFE4:
 1445              		.section	.text.close_channel,"ax",%progbits
 1446              		.align	2
 1447              		.global	close_channel
 1448              		.syntax unified
 1449              		.arm
 1450              		.fpu neon
 1452              	close_channel:
 1453              	.LVL170:
 1454              	.LFB5:
 188:../generate/sc_drivers/r_riic/src/hld/r_riic_hld_prv.c ****     uint32_t loop;
 1455              		.loc 1 188 1 is_stmt 1 view -0
 1456              		.cfi_startproc
 1457              		@ args = 0, pretend = 0, frame = 0
 1458              		@ frame_needed = 0, uses_anonymous_args = 0
 188:../generate/sc_drivers/r_riic/src/hld/r_riic_hld_prv.c ****     uint32_t loop;
 1459              		.loc 1 188 1 is_stmt 0 view .LVU409
 1460 0000 70402DE9 		push	{r4, r5, r6, lr}
 1461              		.cfi_def_cfa_offset 16
 1462              		.cfi_offset 4, -16
 1463              		.cfi_offset 5, -12
 1464              		.cfi_offset 6, -8
 1465              		.cfi_offset 14, -4
 1466 0004 0050A0E1 		mov	r5, r0
 189:../generate/sc_drivers/r_riic/src/hld/r_riic_hld_prv.c ****     uint32_t count = 0u;
 1467              		.loc 1 189 5 is_stmt 1 view .LVU410
 190:../generate/sc_drivers/r_riic/src/hld/r_riic_hld_prv.c **** 
 1468              		.loc 1 190 5 view .LVU411
 1469              	.LVL171:
 193:../generate/sc_drivers/r_riic/src/hld/r_riic_hld_prv.c **** 
 1470              		.loc 1 193 5 view .LVU412
 193:../generate/sc_drivers/r_riic/src/hld/r_riic_hld_prv.c **** 
 1471              		.loc 1 193 17 is_stmt 0 view .LVU413
 1472 0008 FEFFFFEB 		bl	validate_channel
 1473              	.LVL172:
 195:../generate/sc_drivers/r_riic/src/hld/r_riic_hld_prv.c ****     {
 1474              		.loc 1 195 5 is_stmt 1 view .LVU414
 195:../generate/sc_drivers/r_riic/src/hld/r_riic_hld_prv.c ****     {
 1475              		.loc 1 195 8 is_stmt 0 view .LVU415
 1476 000c 000050E3 		cmp	r0, #0
 1477 0010 7080BD18 		popne	{r4, r5, r6, pc}
 198:../generate/sc_drivers/r_riic/src/hld/r_riic_hld_prv.c **** 
 1478              		.loc 1 198 9 is_stmt 1 view .LVU416
 198:../generate/sc_drivers/r_riic/src/hld/r_riic_hld_prv.c **** 
 1479              		.loc 1 198 46 is_stmt 0 view .LVU417
 1480 0014 003000E3 		movw	r3, #:lower16:.LANCHOR9
 1481 0018 003040E3 		movt	r3, #:upper16:.LANCHOR9
 1482 001c 0040A0E3 		mov	r4, #0
 1483 0020 054183E7 		str	r4, [r3, r5, lsl #2]
 201:../generate/sc_drivers/r_riic/src/hld/r_riic_hld_prv.c **** 
 1484              		.loc 1 201 9 is_stmt 1 view .LVU418
 1485 0024 0500A0E1 		mov	r0, r5
 1486              	.LVL173:
 201:../generate/sc_drivers/r_riic/src/hld/r_riic_hld_prv.c **** 
 1487              		.loc 1 201 9 is_stmt 0 view .LVU419
 1488 0028 FEFFFFEB 		bl	R_RIIC_CloseChannel
 1489              	.LVL174:
 204:../generate/sc_drivers/r_riic/src/hld/r_riic_hld_prv.c ****         {
 1490              		.loc 1 204 9 is_stmt 1 view .LVU420
 204:../generate/sc_drivers/r_riic/src/hld/r_riic_hld_prv.c ****         {
 1491              		.loc 1 204 19 is_stmt 0 view .LVU421
 1492 002c 0430A0E1 		mov	r3, r4
 204:../generate/sc_drivers/r_riic/src/hld/r_riic_hld_prv.c ****         {
 1493              		.loc 1 204 9 view .LVU422
 1494 0030 000000EA 		b	.L107
 1495              	.LVL175:
 1496              	.L110:
 206:../generate/sc_drivers/r_riic/src/hld/r_riic_hld_prv.c ****             {
 1497              		.loc 1 206 13 is_stmt 1 view .LVU423
 204:../generate/sc_drivers/r_riic/src/hld/r_riic_hld_prv.c ****         {
 1498              		.loc 1 204 58 view .LVU424
 204:../generate/sc_drivers/r_riic/src/hld/r_riic_hld_prv.c ****         {
 1499              		.loc 1 204 62 is_stmt 0 view .LVU425
 1500 0034 013083E2 		add	r3, r3, #1
 1501              	.LVL176:
 1502              	.L107:
 204:../generate/sc_drivers/r_riic/src/hld/r_riic_hld_prv.c ****         {
 1503              		.loc 1 204 24 is_stmt 1 discriminator 1 view .LVU426
 204:../generate/sc_drivers/r_riic/src/hld/r_riic_hld_prv.c ****         {
 1504              		.loc 1 204 9 is_stmt 0 discriminator 1 view .LVU427
 1505 0038 030053E3 		cmp	r3, #3
 1506 003c FCFFFF9A 		bls	.L110
 1507 0040 7080BDE8 		pop	{r4, r5, r6, pc}
 1508              		.cfi_endproc
 1509              	.LFE5:
 1511              		.section	.text.read_data,"ax",%progbits
 1512              		.align	2
 1513              		.global	read_data
 1514              		.syntax unified
 1515              		.arm
 1516              		.fpu neon
 1518              	read_data:
 1519              	.LVL177:
 1520              	.LFB13:
 664:../generate/sc_drivers/r_riic/src/hld/r_riic_hld_prv.c ****     int_t ret = DRV_ERROR;
 1521              		.loc 1 664 1 is_stmt 1 view -0
 1522              		.cfi_startproc
 1523              		@ args = 0, pretend = 0, frame = 16
 1524              		@ frame_needed = 0, uses_anonymous_args = 0
 664:../generate/sc_drivers/r_riic/src/hld/r_riic_hld_prv.c ****     int_t ret = DRV_ERROR;
 1525              		.loc 1 664 1 is_stmt 0 view .LVU429
 1526 0000 F0402DE9 		push	{r4, r5, r6, r7, lr}
 1527              		.cfi_def_cfa_offset 20
 1528              		.cfi_offset 4, -20
 1529              		.cfi_offset 5, -16
 1530              		.cfi_offset 6, -12
 1531              		.cfi_offset 7, -8
 1532              		.cfi_offset 14, -4
 1533 0004 14D04DE2 		sub	sp, sp, #20
 1534              		.cfi_def_cfa_offset 40
 1535 0008 0060A0E1 		mov	r6, r0
 1536 000c 0150A0E1 		mov	r5, r1
 665:../generate/sc_drivers/r_riic/src/hld/r_riic_hld_prv.c ****     uint8_t pw_buffer[10];
 1537              		.loc 1 665 5 is_stmt 1 view .LVU430
 1538              	.LVL178:
 666:../generate/sc_drivers/r_riic/src/hld/r_riic_hld_prv.c ****     uint8_t buffer_count = 0u;
 1539              		.loc 1 666 5 view .LVU431
 667:../generate/sc_drivers/r_riic/src/hld/r_riic_hld_prv.c **** 
 1540              		.loc 1 667 5 view .LVU432
 670:../generate/sc_drivers/r_riic/src/hld/r_riic_hld_prv.c **** 
 1541              		.loc 1 670 5 view .LVU433
 670:../generate/sc_drivers/r_riic/src/hld/r_riic_hld_prv.c **** 
 1542              		.loc 1 670 11 is_stmt 0 view .LVU434
 1543 0010 FEFFFFEB 		bl	validate_channel
 1544              	.LVL179:
 672:../generate/sc_drivers/r_riic/src/hld/r_riic_hld_prv.c ****     {
 1545              		.loc 1 672 5 is_stmt 1 view .LVU435
 672:../generate/sc_drivers/r_riic/src/hld/r_riic_hld_prv.c ****     {
 1546              		.loc 1 672 40 is_stmt 0 view .LVU436
 1547 0014 0220D5E5 		ldrb	r2, [r5, #2]	@ zero_extendqisi2
 672:../generate/sc_drivers/r_riic/src/hld/r_riic_hld_prv.c ****     {
 1548              		.loc 1 672 8 view .LVU437
 1549 0018 030052E3 		cmp	r2, #3
 1550 001c 4500008A 		bhi	.L124
 1551 0020 0040A0E1 		mov	r4, r0
 679:../generate/sc_drivers/r_riic/src/hld/r_riic_hld_prv.c ****     {
 1552              		.loc 1 679 5 is_stmt 1 view .LVU438
 679:../generate/sc_drivers/r_riic/src/hld/r_riic_hld_prv.c ****     {
 1553              		.loc 1 679 8 is_stmt 0 view .LVU439
 1554 0024 000050E3 		cmp	r0, #0
 1555 0028 5A00001A 		bne	.L125
 681:../generate/sc_drivers/r_riic/src/hld/r_riic_hld_prv.c ****         {
 1556              		.loc 1 681 9 is_stmt 1 view .LVU440
 681:../generate/sc_drivers/r_riic/src/hld/r_riic_hld_prv.c ****         {
 1557              		.loc 1 681 12 is_stmt 0 view .LVU441
 1558 002c 000052E3 		cmp	r2, #0
 1559 0030 1300000A 		beq	.L126
 684:../generate/sc_drivers/r_riic/src/hld/r_riic_hld_prv.c ****                     (uint8_t) (p_transfer->device_address & ((uint8_t) ( ~SAMPLE_RIIC_RWCODE_PRV_))
 1560              		.loc 1 684 13 is_stmt 1 view .LVU442
 685:../generate/sc_drivers/r_riic/src/hld/r_riic_hld_prv.c **** 
 1561              		.loc 1 685 59 is_stmt 0 view .LVU443
 1562 0034 0030D5E5 		ldrb	r3, [r5]	@ zero_extendqisi2
 1563              	.LVL180:
 685:../generate/sc_drivers/r_riic/src/hld/r_riic_hld_prv.c **** 
 1564              		.loc 1 685 21 view .LVU444
 1565 0038 FE3003E2 		and	r3, r3, #254
 684:../generate/sc_drivers/r_riic/src/hld/r_riic_hld_prv.c ****                     (uint8_t) (p_transfer->device_address & ((uint8_t) ( ~SAMPLE_RIIC_RWCODE_PRV_))
 1566              		.loc 1 684 39 view .LVU445
 1567 003c 0430CDE5 		strb	r3, [sp, #4]
 684:../generate/sc_drivers/r_riic/src/hld/r_riic_hld_prv.c ****                     (uint8_t) (p_transfer->device_address & ((uint8_t) ( ~SAMPLE_RIIC_RWCODE_PRV_))
 1568              		.loc 1 684 35 view .LVU446
 1569 0040 0130A0E3 		mov	r3, #1
 1570              	.LVL181:
 1571              	.L113:
 690:../generate/sc_drivers/r_riic/src/hld/r_riic_hld_prv.c ****         {
 1572              		.loc 1 690 9 is_stmt 1 view .LVU447
 690:../generate/sc_drivers/r_riic/src/hld/r_riic_hld_prv.c ****         {
 1573              		.loc 1 690 12 is_stmt 0 view .LVU448
 1574 0044 010052E3 		cmp	r2, #1
 1575 0048 0F00000A 		beq	.L128
 1576              	.LVL182:
 1577              	.L114:
 696:../generate/sc_drivers/r_riic/src/hld/r_riic_hld_prv.c ****         {
 1578              		.loc 1 696 9 is_stmt 1 view .LVU449
 696:../generate/sc_drivers/r_riic/src/hld/r_riic_hld_prv.c ****         {
 1579              		.loc 1 696 54 is_stmt 0 view .LVU450
 1580 004c 0220D5E5 		ldrb	r2, [r5, #2]	@ zero_extendqisi2
 696:../generate/sc_drivers/r_riic/src/hld/r_riic_hld_prv.c ****         {
 1581              		.loc 1 696 12 view .LVU451
 1582 0050 020052E3 		cmp	r2, #2
 1583 0054 1300000A 		beq	.L129
 1584              	.L115:
 707:../generate/sc_drivers/r_riic/src/hld/r_riic_hld_prv.c ****         {
 1585              		.loc 1 707 9 is_stmt 1 view .LVU452
 707:../generate/sc_drivers/r_riic/src/hld/r_riic_hld_prv.c ****         {
 1586              		.loc 1 707 54 is_stmt 0 view .LVU453
 1587 0058 0220D5E5 		ldrb	r2, [r5, #2]	@ zero_extendqisi2
 707:../generate/sc_drivers/r_riic/src/hld/r_riic_hld_prv.c ****         {
 1588              		.loc 1 707 12 view .LVU454
 1589 005c 030052E3 		cmp	r2, #3
 1590 0060 1D00000A 		beq	.L130
 1591              	.L116:
 725:../generate/sc_drivers/r_riic/src/hld/r_riic_hld_prv.c **** 
 1592              		.loc 1 725 9 is_stmt 1 view .LVU455
 725:../generate/sc_drivers/r_riic/src/hld/r_riic_hld_prv.c **** 
 1593              		.loc 1 725 58 is_stmt 0 view .LVU456
 1594 0064 B020D5E1 		ldrh	r2, [r5]
 725:../generate/sc_drivers/r_riic/src/hld/r_riic_hld_prv.c **** 
 1595              		.loc 1 725 31 view .LVU457
 1596 0068 017083E2 		add	r7, r3, #1
 1597 006c 7770EFE6 		uxtb	r7, r7
 1598              	.LVL183:
 725:../generate/sc_drivers/r_riic/src/hld/r_riic_hld_prv.c **** 
 1599              		.loc 1 725 37 view .LVU458
 1600 0070 012082E3 		orr	r2, r2, #1
 725:../generate/sc_drivers/r_riic/src/hld/r_riic_hld_prv.c **** 
 1601              		.loc 1 725 35 view .LVU459
 1602 0074 10108DE2 		add	r1, sp, #16
 1603 0078 033081E0 		add	r3, r1, r3
 1604 007c 0C2043E5 		strb	r2, [r3, #-12]
 1605 0080 2E0000EA 		b	.L112
 1606              	.LVL184:
 1607              	.L126:
 667:../generate/sc_drivers/r_riic/src/hld/r_riic_hld_prv.c **** 
 1608              		.loc 1 667 13 view .LVU460
 1609 0084 0230A0E1 		mov	r3, r2
 1610 0088 EDFFFFEA 		b	.L113
 1611              	.LVL185:
 1612              	.L128:
 693:../generate/sc_drivers/r_riic/src/hld/r_riic_hld_prv.c ****         }
 1613              		.loc 1 693 13 is_stmt 1 view .LVU461
 693:../generate/sc_drivers/r_riic/src/hld/r_riic_hld_prv.c ****         }
 1614              		.loc 1 693 35 is_stmt 0 view .LVU462
 1615 008c 012083E2 		add	r2, r3, #1
 1616              	.LVL186:
 693:../generate/sc_drivers/r_riic/src/hld/r_riic_hld_prv.c ****         }
 1617              		.loc 1 693 41 view .LVU463
 1618 0090 0410D5E5 		ldrb	r1, [r5, #4]	@ zero_extendqisi2
 693:../generate/sc_drivers/r_riic/src/hld/r_riic_hld_prv.c ****         }
 1619              		.loc 1 693 39 view .LVU464
 1620 0094 10008DE2 		add	r0, sp, #16
 1621              	.LVL187:
 693:../generate/sc_drivers/r_riic/src/hld/r_riic_hld_prv.c ****         }
 1622              		.loc 1 693 39 view .LVU465
 1623 0098 033080E0 		add	r3, r0, r3
 1624 009c 0C1043E5 		strb	r1, [r3, #-12]
 693:../generate/sc_drivers/r_riic/src/hld/r_riic_hld_prv.c ****         }
 1625              		.loc 1 693 35 view .LVU466
 1626 00a0 7230EFE6 		uxtb	r3, r2
 1627 00a4 E8FFFFEA 		b	.L114
 1628              	.LVL188:
 1629              	.L129:
 701:../generate/sc_drivers/r_riic/src/hld/r_riic_hld_prv.c **** 
 1630              		.loc 1 701 13 is_stmt 1 view .LVU467
 701:../generate/sc_drivers/r_riic/src/hld/r_riic_hld_prv.c **** 
 1631              		.loc 1 701 62 is_stmt 0 view .LVU468
 1632 00a8 041095E5 		ldr	r1, [r5, #4]
 701:../generate/sc_drivers/r_riic/src/hld/r_riic_hld_prv.c **** 
 1633              		.loc 1 701 35 view .LVU469
 1634 00ac 012083E2 		add	r2, r3, #1
 1635 00b0 7220EFE6 		uxtb	r2, r2
 1636              	.LVL189:
 701:../generate/sc_drivers/r_riic/src/hld/r_riic_hld_prv.c **** 
 1637              		.loc 1 701 41 view .LVU470
 1638 00b4 51C4E7E7 		ubfx	ip, r1, #8, #8
 701:../generate/sc_drivers/r_riic/src/hld/r_riic_hld_prv.c **** 
 1639              		.loc 1 701 39 view .LVU471
 1640 00b8 10008DE2 		add	r0, sp, #16
 1641 00bc 030080E0 		add	r0, r0, r3
 1642 00c0 0CC040E5 		strb	ip, [r0, #-12]
 704:../generate/sc_drivers/r_riic/src/hld/r_riic_hld_prv.c ****         }
 1643              		.loc 1 704 13 is_stmt 1 view .LVU472
 704:../generate/sc_drivers/r_riic/src/hld/r_riic_hld_prv.c ****         }
 1644              		.loc 1 704 35 is_stmt 0 view .LVU473
 1645 00c4 023083E2 		add	r3, r3, #2
 1646 00c8 7330EFE6 		uxtb	r3, r3
 1647              	.LVL190:
 704:../generate/sc_drivers/r_riic/src/hld/r_riic_hld_prv.c ****         }
 1648              		.loc 1 704 39 view .LVU474
 1649 00cc 10008DE2 		add	r0, sp, #16
 1650 00d0 022080E0 		add	r2, r0, r2
 1651 00d4 0C1042E5 		strb	r1, [r2, #-12]
 1652 00d8 DEFFFFEA 		b	.L115
 1653              	.L130:
 712:../generate/sc_drivers/r_riic/src/hld/r_riic_hld_prv.c **** 
 1654              		.loc 1 712 13 is_stmt 1 view .LVU475
 712:../generate/sc_drivers/r_riic/src/hld/r_riic_hld_prv.c **** 
 1655              		.loc 1 712 62 is_stmt 0 view .LVU476
 1656 00dc 040095E5 		ldr	r0, [r5, #4]
 712:../generate/sc_drivers/r_riic/src/hld/r_riic_hld_prv.c **** 
 1657              		.loc 1 712 35 view .LVU477
 1658 00e0 012083E2 		add	r2, r3, #1
 1659 00e4 7220EFE6 		uxtb	r2, r2
 1660              	.LVL191:
 712:../generate/sc_drivers/r_riic/src/hld/r_riic_hld_prv.c **** 
 1661              		.loc 1 712 41 view .LVU478
 1662 00e8 20CCA0E1 		lsr	ip, r0, #24
 712:../generate/sc_drivers/r_riic/src/hld/r_riic_hld_prv.c **** 
 1663              		.loc 1 712 39 view .LVU479
 1664 00ec 10108DE2 		add	r1, sp, #16
 1665 00f0 031081E0 		add	r1, r1, r3
 1666 00f4 0CC041E5 		strb	ip, [r1, #-12]
 715:../generate/sc_drivers/r_riic/src/hld/r_riic_hld_prv.c **** 
 1667              		.loc 1 715 13 is_stmt 1 view .LVU480
 715:../generate/sc_drivers/r_riic/src/hld/r_riic_hld_prv.c **** 
 1668              		.loc 1 715 35 is_stmt 0 view .LVU481
 1669 00f8 021083E2 		add	r1, r3, #2
 1670 00fc 7110EFE6 		uxtb	r1, r1
 1671              	.LVL192:
 715:../generate/sc_drivers/r_riic/src/hld/r_riic_hld_prv.c **** 
 1672              		.loc 1 715 41 view .LVU482
 1673 0100 50C8E7E7 		ubfx	ip, r0, #16, #8
 715:../generate/sc_drivers/r_riic/src/hld/r_riic_hld_prv.c **** 
 1674              		.loc 1 715 39 view .LVU483
 1675 0104 10E08DE2 		add	lr, sp, #16
 1676 0108 02208EE0 		add	r2, lr, r2
 1677 010c 0CC042E5 		strb	ip, [r2, #-12]
 718:../generate/sc_drivers/r_riic/src/hld/r_riic_hld_prv.c **** 
 1678              		.loc 1 718 13 is_stmt 1 view .LVU484
 718:../generate/sc_drivers/r_riic/src/hld/r_riic_hld_prv.c **** 
 1679              		.loc 1 718 35 is_stmt 0 view .LVU485
 1680 0110 032083E2 		add	r2, r3, #3
 1681 0114 7220EFE6 		uxtb	r2, r2
 1682              	.LVL193:
 718:../generate/sc_drivers/r_riic/src/hld/r_riic_hld_prv.c **** 
 1683              		.loc 1 718 41 view .LVU486
 1684 0118 50C4E7E7 		ubfx	ip, r0, #8, #8
 718:../generate/sc_drivers/r_riic/src/hld/r_riic_hld_prv.c **** 
 1685              		.loc 1 718 39 view .LVU487
 1686 011c 01108EE0 		add	r1, lr, r1
 1687 0120 0CC041E5 		strb	ip, [r1, #-12]
 721:../generate/sc_drivers/r_riic/src/hld/r_riic_hld_prv.c ****         }
 1688              		.loc 1 721 13 is_stmt 1 view .LVU488
 721:../generate/sc_drivers/r_riic/src/hld/r_riic_hld_prv.c ****         }
 1689              		.loc 1 721 35 is_stmt 0 view .LVU489
 1690 0124 043083E2 		add	r3, r3, #4
 1691 0128 7330EFE6 		uxtb	r3, r3
 1692              	.LVL194:
 721:../generate/sc_drivers/r_riic/src/hld/r_riic_hld_prv.c ****         }
 1693              		.loc 1 721 39 view .LVU490
 1694 012c 02208EE0 		add	r2, lr, r2
 1695 0130 0C0042E5 		strb	r0, [r2, #-12]
 1696 0134 CAFFFFEA 		b	.L116
 1697              	.LVL195:
 1698              	.L124:
 675:../generate/sc_drivers/r_riic/src/hld/r_riic_hld_prv.c ****     }
 1699              		.loc 1 675 13 view .LVU491
 1700 0138 0040E0E3 		mvn	r4, #0
 667:../generate/sc_drivers/r_riic/src/hld/r_riic_hld_prv.c **** 
 1701              		.loc 1 667 13 view .LVU492
 1702 013c 0070A0E3 		mov	r7, #0
 1703              	.LVL196:
 1704              	.L112:
 730:../generate/sc_drivers/r_riic/src/hld/r_riic_hld_prv.c ****     {
 1705              		.loc 1 730 5 is_stmt 1 view .LVU493
 730:../generate/sc_drivers/r_riic/src/hld/r_riic_hld_prv.c ****     {
 1706              		.loc 1 730 8 is_stmt 0 view .LVU494
 1707 0140 000054E3 		cmp	r4, #0
 1708 0144 1500000A 		beq	.L131
 1709              	.L117:
 1710              	.LVL197:
 736:../generate/sc_drivers/r_riic/src/hld/r_riic_hld_prv.c ****     {
 1711              		.loc 1 736 5 is_stmt 1 view .LVU495
 736:../generate/sc_drivers/r_riic/src/hld/r_riic_hld_prv.c ****     {
 1712              		.loc 1 736 8 is_stmt 0 view .LVU496
 1713 0148 000054E3 		cmp	r4, #0
 1714 014c 1800000A 		beq	.L132
 1715              	.L118:
 742:../generate/sc_drivers/r_riic/src/hld/r_riic_hld_prv.c ****     {
 1716              		.loc 1 742 5 is_stmt 1 view .LVU497
 742:../generate/sc_drivers/r_riic/src/hld/r_riic_hld_prv.c ****     {
 1717              		.loc 1 742 41 is_stmt 0 view .LVU498
 1718 0150 0230D5E5 		ldrb	r3, [r5, #2]	@ zero_extendqisi2
 742:../generate/sc_drivers/r_riic/src/hld/r_riic_hld_prv.c ****     {
 1719              		.loc 1 742 8 view .LVU499
 1720 0154 000053E3 		cmp	r3, #0
 1721 0158 0300000A 		beq	.L119
 744:../generate/sc_drivers/r_riic/src/hld/r_riic_hld_prv.c ****         {
 1722              		.loc 1 744 9 is_stmt 1 view .LVU500
 744:../generate/sc_drivers/r_riic/src/hld/r_riic_hld_prv.c ****         {
 1723              		.loc 1 744 12 is_stmt 0 view .LVU501
 1724 015c 000054E3 		cmp	r4, #0
 1725 0160 1700000A 		beq	.L133
 1726              	.L120:
 751:../generate/sc_drivers/r_riic/src/hld/r_riic_hld_prv.c ****         {
 1727              		.loc 1 751 9 is_stmt 1 view .LVU502
 751:../generate/sc_drivers/r_riic/src/hld/r_riic_hld_prv.c ****         {
 1728              		.loc 1 751 12 is_stmt 0 view .LVU503
 1729 0164 000054E3 		cmp	r4, #0
 1730 0168 1B00000A 		beq	.L134
 1731              	.L119:
 757:../generate/sc_drivers/r_riic/src/hld/r_riic_hld_prv.c ****     {
 1732              		.loc 1 757 5 is_stmt 1 view .LVU504
 757:../generate/sc_drivers/r_riic/src/hld/r_riic_hld_prv.c ****     {
 1733              		.loc 1 757 8 is_stmt 0 view .LVU505
 1734 016c 000054E3 		cmp	r4, #0
 1735 0170 1D00000A 		beq	.L135
 1736              	.LVL198:
 1737              	.L121:
 763:../generate/sc_drivers/r_riic/src/hld/r_riic_hld_prv.c ****     {
 1738              		.loc 1 763 5 is_stmt 1 view .LVU506
 763:../generate/sc_drivers/r_riic/src/hld/r_riic_hld_prv.c ****     {
 1739              		.loc 1 763 8 is_stmt 0 view .LVU507
 1740 0174 000054E3 		cmp	r4, #0
 1741 0178 2400001A 		bne	.L122
 766:../generate/sc_drivers/r_riic/src/hld/r_riic_hld_prv.c ****     }
 1742              		.loc 1 766 9 is_stmt 1 view .LVU508
 1743 017c 082095E5 		ldr	r2, [r5, #8]
 1744 0180 0C1095E5 		ldr	r1, [r5, #12]
 1745 0184 0600A0E1 		mov	r0, r6
 1746 0188 FEFFFFEB 		bl	riic_read
 1747              	.LVL199:
 1748              	.L111:
 777:../generate/sc_drivers/r_riic/src/hld/r_riic_hld_prv.c **** /*******************************************************************************
 1749              		.loc 1 777 1 is_stmt 0 view .LVU509
 1750 018c 0400A0E1 		mov	r0, r4
 1751 0190 14D08DE2 		add	sp, sp, #20
 1752              		.cfi_remember_state
 1753              		.cfi_def_cfa_offset 20
 1754              		@ sp needed
 1755 0194 F080BDE8 		pop	{r4, r5, r6, r7, pc}
 1756              	.LVL200:
 1757              	.L125:
 1758              		.cfi_restore_state
 667:../generate/sc_drivers/r_riic/src/hld/r_riic_hld_prv.c **** 
 1759              		.loc 1 667 13 view .LVU510
 1760 0198 0070A0E3 		mov	r7, #0
 1761 019c E7FFFFEA 		b	.L112
 1762              	.LVL201:
 1763              	.L131:
 733:../generate/sc_drivers/r_riic/src/hld/r_riic_hld_prv.c ****     }
 1764              		.loc 1 733 9 is_stmt 1 view .LVU511
 733:../generate/sc_drivers/r_riic/src/hld/r_riic_hld_prv.c ****     }
 1765              		.loc 1 733 15 is_stmt 0 view .LVU512
 1766 01a0 0010A0E3 		mov	r1, #0
 1767 01a4 0600A0E1 		mov	r0, r6
 1768 01a8 FEFFFFEB 		bl	wait_bus_master
 1769              	.LVL202:
 1770 01ac 0040A0E1 		mov	r4, r0
 1771              	.LVL203:
 733:../generate/sc_drivers/r_riic/src/hld/r_riic_hld_prv.c ****     }
 1772              		.loc 1 733 15 view .LVU513
 1773 01b0 E4FFFFEA 		b	.L117
 1774              	.LVL204:
 1775              	.L132:
 739:../generate/sc_drivers/r_riic/src/hld/r_riic_hld_prv.c ****     }
 1776              		.loc 1 739 9 is_stmt 1 view .LVU514
 739:../generate/sc_drivers/r_riic/src/hld/r_riic_hld_prv.c ****     }
 1777              		.loc 1 739 15 is_stmt 0 view .LVU515
 1778 01b4 0600A0E1 		mov	r0, r6
 1779 01b8 FEFFFFEB 		bl	transmit_start
 1780              	.LVL205:
 1781 01bc 0040A0E1 		mov	r4, r0
 1782              	.LVL206:
 739:../generate/sc_drivers/r_riic/src/hld/r_riic_hld_prv.c ****     }
 1783              		.loc 1 739 15 view .LVU516
 1784 01c0 E2FFFFEA 		b	.L118
 1785              	.LVL207:
 1786              	.L133:
 747:../generate/sc_drivers/r_riic/src/hld/r_riic_hld_prv.c ****         }
 1787              		.loc 1 747 13 is_stmt 1 view .LVU517
 747:../generate/sc_drivers/r_riic/src/hld/r_riic_hld_prv.c ****         }
 1788              		.loc 1 747 19 is_stmt 0 view .LVU518
 1789 01c4 012047E2 		sub	r2, r7, #1
 1790 01c8 04108DE2 		add	r1, sp, #4
 1791 01cc 0600A0E1 		mov	r0, r6
 1792 01d0 FEFFFFEB 		bl	riic_write
 1793              	.LVL208:
 1794 01d4 0040A0E1 		mov	r4, r0
 1795              	.LVL209:
 747:../generate/sc_drivers/r_riic/src/hld/r_riic_hld_prv.c ****         }
 1796              		.loc 1 747 19 view .LVU519
 1797 01d8 E1FFFFEA 		b	.L120
 1798              	.LVL210:
 1799              	.L134:
 753:../generate/sc_drivers/r_riic/src/hld/r_riic_hld_prv.c ****         }
 1800              		.loc 1 753 13 is_stmt 1 view .LVU520
 753:../generate/sc_drivers/r_riic/src/hld/r_riic_hld_prv.c ****         }
 1801              		.loc 1 753 19 is_stmt 0 view .LVU521
 1802 01dc 0600A0E1 		mov	r0, r6
 1803 01e0 FEFFFFEB 		bl	transmit_restart
 1804              	.LVL211:
 1805 01e4 0040A0E1 		mov	r4, r0
 1806              	.LVL212:
 753:../generate/sc_drivers/r_riic/src/hld/r_riic_hld_prv.c ****         }
 1807              		.loc 1 753 19 view .LVU522
 1808 01e8 DFFFFFEA 		b	.L119
 1809              	.LVL213:
 1810              	.L135:
 760:../generate/sc_drivers/r_riic/src/hld/r_riic_hld_prv.c ****     }
 1811              		.loc 1 760 9 is_stmt 1 view .LVU523
 760:../generate/sc_drivers/r_riic/src/hld/r_riic_hld_prv.c ****     }
 1812              		.loc 1 760 66 is_stmt 0 view .LVU524
 1813 01ec 017047E2 		sub	r7, r7, #1
 1814              	.LVL214:
 760:../generate/sc_drivers/r_riic/src/hld/r_riic_hld_prv.c ****     }
 1815              		.loc 1 760 15 view .LVU525
 1816 01f0 10308DE2 		add	r3, sp, #16
 1817 01f4 077083E0 		add	r7, r3, r7
 1818 01f8 0120A0E3 		mov	r2, #1
 1819 01fc 0C1057E5 		ldrb	r1, [r7, #-12]	@ zero_extendqisi2
 1820 0200 0600A0E1 		mov	r0, r6
 1821 0204 FEFFFFEB 		bl	riic_single_write
 1822              	.LVL215:
 1823 0208 0040A0E1 		mov	r4, r0
 1824              	.LVL216:
 760:../generate/sc_drivers/r_riic/src/hld/r_riic_hld_prv.c ****     }
 1825              		.loc 1 760 15 view .LVU526
 1826 020c D8FFFFEA 		b	.L121
 1827              	.LVL217:
 1828              	.L122:
 770:../generate/sc_drivers/r_riic/src/hld/r_riic_hld_prv.c **** 
 1829              		.loc 1 770 9 is_stmt 1 view .LVU527
 770:../generate/sc_drivers/r_riic/src/hld/r_riic_hld_prv.c **** 
 1830              		.loc 1 770 35 is_stmt 0 view .LVU528
 1831 0210 003000E3 		movw	r3, #:lower16:.LANCHOR3
 1832 0214 003040E3 		movt	r3, #:upper16:.LANCHOR3
 1833 0218 0020A0E3 		mov	r2, #0
 1834 021c 0620C3E7 		strb	r2, [r3, r6]
 773:../generate/sc_drivers/r_riic/src/hld/r_riic_hld_prv.c ****     }
 1835              		.loc 1 773 9 is_stmt 1 view .LVU529
 1836 0220 0600A0E1 		mov	r0, r6
 1837 0224 FEFFFFEB 		bl	R_RIIC_TransmitStop
 1838              	.LVL218:
 776:../generate/sc_drivers/r_riic/src/hld/r_riic_hld_prv.c **** }
 1839              		.loc 1 776 5 view .LVU530
 776:../generate/sc_drivers/r_riic/src/hld/r_riic_hld_prv.c **** }
 1840              		.loc 1 776 12 is_stmt 0 view .LVU531
 1841 0228 D7FFFFEA 		b	.L111
 1842              		.cfi_endproc
 1843              	.LFE13:
 1845              		.section	.text.read_next_data,"ax",%progbits
 1846              		.align	2
 1847              		.global	read_next_data
 1848              		.syntax unified
 1849              		.arm
 1850              		.fpu neon
 1852              	read_next_data:
 1853              	.LVL219:
 1854              	.LFB14:
 792:../generate/sc_drivers/r_riic/src/hld/r_riic_hld_prv.c ****     int_t ret;
 1855              		.loc 1 792 1 is_stmt 1 view -0
 1856              		.cfi_startproc
 1857              		@ args = 0, pretend = 0, frame = 0
 1858              		@ frame_needed = 0, uses_anonymous_args = 0
 792:../generate/sc_drivers/r_riic/src/hld/r_riic_hld_prv.c ****     int_t ret;
 1859              		.loc 1 792 1 is_stmt 0 view .LVU533
 1860 0000 F0412DE9 		push	{r4, r5, r6, r7, r8, lr}
 1861              		.cfi_def_cfa_offset 24
 1862              		.cfi_offset 4, -24
 1863              		.cfi_offset 5, -20
 1864              		.cfi_offset 6, -16
 1865              		.cfi_offset 7, -12
 1866              		.cfi_offset 8, -8
 1867              		.cfi_offset 14, -4
 1868 0004 0050A0E1 		mov	r5, r0
 1869 0008 0180A0E1 		mov	r8, r1
 1870 000c 0270A0E1 		mov	r7, r2
 1871 0010 0360A0E1 		mov	r6, r3
 793:../generate/sc_drivers/r_riic/src/hld/r_riic_hld_prv.c ****     uint8_t pw_buffer;
 1872              		.loc 1 793 5 is_stmt 1 view .LVU534
 794:../generate/sc_drivers/r_riic/src/hld/r_riic_hld_prv.c **** 
 1873              		.loc 1 794 5 view .LVU535
 797:../generate/sc_drivers/r_riic/src/hld/r_riic_hld_prv.c **** 
 1874              		.loc 1 797 5 view .LVU536
 797:../generate/sc_drivers/r_riic/src/hld/r_riic_hld_prv.c **** 
 1875              		.loc 1 797 11 is_stmt 0 view .LVU537
 1876 0014 FEFFFFEB 		bl	validate_channel
 1877              	.LVL220:
 800:../generate/sc_drivers/r_riic/src/hld/r_riic_hld_prv.c **** 
 1878              		.loc 1 800 5 is_stmt 1 view .LVU538
 800:../generate/sc_drivers/r_riic/src/hld/r_riic_hld_prv.c **** 
 1879              		.loc 1 800 15 is_stmt 0 view .LVU539
 1880 0018 018088E3 		orr	r8, r8, #1
 1881              	.LVL221:
 802:../generate/sc_drivers/r_riic/src/hld/r_riic_hld_prv.c ****     {
 1882              		.loc 1 802 5 is_stmt 1 view .LVU540
 802:../generate/sc_drivers/r_riic/src/hld/r_riic_hld_prv.c ****     {
 1883              		.loc 1 802 8 is_stmt 0 view .LVU541
 1884 001c 004050E2 		subs	r4, r0, #0
 1885 0020 0B00000A 		beq	.L143
 1886              	.L137:
 808:../generate/sc_drivers/r_riic/src/hld/r_riic_hld_prv.c ****     {
 1887              		.loc 1 808 5 is_stmt 1 view .LVU542
 808:../generate/sc_drivers/r_riic/src/hld/r_riic_hld_prv.c ****     {
 1888              		.loc 1 808 8 is_stmt 0 view .LVU543
 1889 0024 000054E3 		cmp	r4, #0
 1890 0028 0E00000A 		beq	.L144
 1891              	.L138:
 814:../generate/sc_drivers/r_riic/src/hld/r_riic_hld_prv.c ****     {
 1892              		.loc 1 814 5 is_stmt 1 view .LVU544
 814:../generate/sc_drivers/r_riic/src/hld/r_riic_hld_prv.c ****     {
 1893              		.loc 1 814 8 is_stmt 0 view .LVU545
 1894 002c 000054E3 		cmp	r4, #0
 1895 0030 1000000A 		beq	.L145
 1896              	.L139:
 819:../generate/sc_drivers/r_riic/src/hld/r_riic_hld_prv.c ****     {
 1897              		.loc 1 819 5 is_stmt 1 view .LVU546
 819:../generate/sc_drivers/r_riic/src/hld/r_riic_hld_prv.c ****     {
 1898              		.loc 1 819 8 is_stmt 0 view .LVU547
 1899 0034 000054E3 		cmp	r4, #0
 1900 0038 1400001A 		bne	.L140
 822:../generate/sc_drivers/r_riic/src/hld/r_riic_hld_prv.c ****     }
 1901              		.loc 1 822 9 is_stmt 1 view .LVU548
 1902 003c 0720A0E1 		mov	r2, r7
 1903 0040 0610A0E1 		mov	r1, r6
 1904 0044 0500A0E1 		mov	r0, r5
 1905              	.LVL222:
 822:../generate/sc_drivers/r_riic/src/hld/r_riic_hld_prv.c ****     }
 1906              		.loc 1 822 9 is_stmt 0 view .LVU549
 1907 0048 FEFFFFEB 		bl	riic_read
 1908              	.LVL223:
 1909              	.L136:
 833:../generate/sc_drivers/r_riic/src/hld/r_riic_hld_prv.c **** /*******************************************************************************
 1910              		.loc 1 833 1 view .LVU550
 1911 004c 0400A0E1 		mov	r0, r4
 1912 0050 F081BDE8 		pop	{r4, r5, r6, r7, r8, pc}
 1913              	.LVL224:
 1914              	.L143:
 805:../generate/sc_drivers/r_riic/src/hld/r_riic_hld_prv.c ****     }
 1915              		.loc 1 805 9 is_stmt 1 view .LVU551
 805:../generate/sc_drivers/r_riic/src/hld/r_riic_hld_prv.c ****     }
 1916              		.loc 1 805 15 is_stmt 0 view .LVU552
 1917 0054 0010A0E3 		mov	r1, #0
 1918 0058 0500A0E1 		mov	r0, r5
 1919              	.LVL225:
 805:../generate/sc_drivers/r_riic/src/hld/r_riic_hld_prv.c ****     }
 1920              		.loc 1 805 15 view .LVU553
 1921 005c FEFFFFEB 		bl	wait_bus_master
 1922              	.LVL226:
 1923 0060 0040A0E1 		mov	r4, r0
 1924              	.LVL227:
 805:../generate/sc_drivers/r_riic/src/hld/r_riic_hld_prv.c ****     }
 1925              		.loc 1 805 15 view .LVU554
 1926 0064 EEFFFFEA 		b	.L137
 1927              	.L144:
 811:../generate/sc_drivers/r_riic/src/hld/r_riic_hld_prv.c ****     }
 1928              		.loc 1 811 9 is_stmt 1 view .LVU555
 811:../generate/sc_drivers/r_riic/src/hld/r_riic_hld_prv.c ****     }
 1929              		.loc 1 811 15 is_stmt 0 view .LVU556
 1930 0068 0500A0E1 		mov	r0, r5
 1931              	.LVL228:
 811:../generate/sc_drivers/r_riic/src/hld/r_riic_hld_prv.c ****     }
 1932              		.loc 1 811 15 view .LVU557
 1933 006c FEFFFFEB 		bl	transmit_start
 1934              	.LVL229:
 1935 0070 0040A0E1 		mov	r4, r0
 1936              	.LVL230:
 811:../generate/sc_drivers/r_riic/src/hld/r_riic_hld_prv.c ****     }
 1937              		.loc 1 811 15 view .LVU558
 1938 0074 ECFFFFEA 		b	.L138
 1939              	.L145:
 816:../generate/sc_drivers/r_riic/src/hld/r_riic_hld_prv.c ****     }
 1940              		.loc 1 816 9 is_stmt 1 view .LVU559
 816:../generate/sc_drivers/r_riic/src/hld/r_riic_hld_prv.c ****     }
 1941              		.loc 1 816 15 is_stmt 0 view .LVU560
 1942 0078 0120A0E3 		mov	r2, #1
 1943 007c 0810A0E1 		mov	r1, r8
 1944 0080 0500A0E1 		mov	r0, r5
 1945              	.LVL231:
 816:../generate/sc_drivers/r_riic/src/hld/r_riic_hld_prv.c ****     }
 1946              		.loc 1 816 15 view .LVU561
 1947 0084 FEFFFFEB 		bl	riic_single_write
 1948              	.LVL232:
 1949 0088 0040A0E1 		mov	r4, r0
 1950              	.LVL233:
 816:../generate/sc_drivers/r_riic/src/hld/r_riic_hld_prv.c ****     }
 1951              		.loc 1 816 15 view .LVU562
 1952 008c E8FFFFEA 		b	.L139
 1953              	.L140:
 826:../generate/sc_drivers/r_riic/src/hld/r_riic_hld_prv.c **** 
 1954              		.loc 1 826 9 is_stmt 1 view .LVU563
 826:../generate/sc_drivers/r_riic/src/hld/r_riic_hld_prv.c **** 
 1955              		.loc 1 826 35 is_stmt 0 view .LVU564
 1956 0090 003000E3 		movw	r3, #:lower16:.LANCHOR3
 1957 0094 003040E3 		movt	r3, #:upper16:.LANCHOR3
 1958 0098 0020A0E3 		mov	r2, #0
 1959 009c 0520C3E7 		strb	r2, [r3, r5]
 829:../generate/sc_drivers/r_riic/src/hld/r_riic_hld_prv.c ****     }
 1960              		.loc 1 829 9 is_stmt 1 view .LVU565
 1961 00a0 0500A0E1 		mov	r0, r5
 1962              	.LVL234:
 829:../generate/sc_drivers/r_riic/src/hld/r_riic_hld_prv.c ****     }
 1963              		.loc 1 829 9 is_stmt 0 view .LVU566
 1964 00a4 FEFFFFEB 		bl	R_RIIC_TransmitStop
 1965              	.LVL235:
 832:../generate/sc_drivers/r_riic/src/hld/r_riic_hld_prv.c **** }
 1966              		.loc 1 832 5 is_stmt 1 view .LVU567
 832:../generate/sc_drivers/r_riic/src/hld/r_riic_hld_prv.c **** }
 1967              		.loc 1 832 12 is_stmt 0 view .LVU568
 1968 00a8 E7FFFFEA 		b	.L136
 1969              		.cfi_endproc
 1970              	.LFE14:
 1972              		.section	.text.write_data,"ax",%progbits
 1973              		.align	2
 1974              		.global	write_data
 1975              		.syntax unified
 1976              		.arm
 1977              		.fpu neon
 1979              	write_data:
 1980              	.LVL236:
 1981              	.LFB15:
 852:../generate/sc_drivers/r_riic/src/hld/r_riic_hld_prv.c ****     int_t ret = DRV_ERROR;
 1982              		.loc 1 852 1 is_stmt 1 view -0
 1983              		.cfi_startproc
 1984              		@ args = 0, pretend = 0, frame = 16
 1985              		@ frame_needed = 0, uses_anonymous_args = 0
 852:../generate/sc_drivers/r_riic/src/hld/r_riic_hld_prv.c ****     int_t ret = DRV_ERROR;
 1986              		.loc 1 852 1 is_stmt 0 view .LVU570
 1987 0000 F0402DE9 		push	{r4, r5, r6, r7, lr}
 1988              		.cfi_def_cfa_offset 20
 1989              		.cfi_offset 4, -20
 1990              		.cfi_offset 5, -16
 1991              		.cfi_offset 6, -12
 1992              		.cfi_offset 7, -8
 1993              		.cfi_offset 14, -4
 1994 0004 14D04DE2 		sub	sp, sp, #20
 1995              		.cfi_def_cfa_offset 40
 1996 0008 0070A0E1 		mov	r7, r0
 1997 000c 0150A0E1 		mov	r5, r1
 853:../generate/sc_drivers/r_riic/src/hld/r_riic_hld_prv.c ****     uint8_t pw_buffer[10];
 1998              		.loc 1 853 5 is_stmt 1 view .LVU571
 1999              	.LVL237:
 854:../generate/sc_drivers/r_riic/src/hld/r_riic_hld_prv.c ****     uint8_t buffer_count = 0u;
 2000              		.loc 1 854 5 view .LVU572
 855:../generate/sc_drivers/r_riic/src/hld/r_riic_hld_prv.c **** 
 2001              		.loc 1 855 5 view .LVU573
 858:../generate/sc_drivers/r_riic/src/hld/r_riic_hld_prv.c **** 
 2002              		.loc 1 858 5 view .LVU574
 858:../generate/sc_drivers/r_riic/src/hld/r_riic_hld_prv.c **** 
 2003              		.loc 1 858 11 is_stmt 0 view .LVU575
 2004 0010 FEFFFFEB 		bl	validate_channel
 2005              	.LVL238:
 860:../generate/sc_drivers/r_riic/src/hld/r_riic_hld_prv.c ****     {
 2006              		.loc 1 860 5 is_stmt 1 view .LVU576
 860:../generate/sc_drivers/r_riic/src/hld/r_riic_hld_prv.c ****     {
 2007              		.loc 1 860 40 is_stmt 0 view .LVU577
 2008 0014 0230D5E5 		ldrb	r3, [r5, #2]	@ zero_extendqisi2
 860:../generate/sc_drivers/r_riic/src/hld/r_riic_hld_prv.c ****     {
 2009              		.loc 1 860 8 view .LVU578
 2010 0018 030053E3 		cmp	r3, #3
 2011 001c 3500008A 		bhi	.L154
 2012 0020 0040A0E1 		mov	r4, r0
 867:../generate/sc_drivers/r_riic/src/hld/r_riic_hld_prv.c ****     {
 2013              		.loc 1 867 5 is_stmt 1 view .LVU579
 867:../generate/sc_drivers/r_riic/src/hld/r_riic_hld_prv.c ****     {
 2014              		.loc 1 867 8 is_stmt 0 view .LVU580
 2015 0024 000050E3 		cmp	r0, #0
 2016 0028 4700001A 		bne	.L155
 870:../generate/sc_drivers/r_riic/src/hld/r_riic_hld_prv.c **** 
 2017              		.loc 1 870 9 is_stmt 1 view .LVU581
 870:../generate/sc_drivers/r_riic/src/hld/r_riic_hld_prv.c **** 
 2018              		.loc 1 870 75 is_stmt 0 view .LVU582
 2019 002c 0020D5E5 		ldrb	r2, [r5]	@ zero_extendqisi2
 2020              	.LVL239:
 870:../generate/sc_drivers/r_riic/src/hld/r_riic_hld_prv.c **** 
 2021              		.loc 1 870 37 view .LVU583
 2022 0030 FE2002E2 		and	r2, r2, #254
 870:../generate/sc_drivers/r_riic/src/hld/r_riic_hld_prv.c **** 
 2023              		.loc 1 870 35 view .LVU584
 2024 0034 0420CDE5 		strb	r2, [sp, #4]
 874:../generate/sc_drivers/r_riic/src/hld/r_riic_hld_prv.c ****         {
 2025              		.loc 1 874 9 is_stmt 1 view .LVU585
 874:../generate/sc_drivers/r_riic/src/hld/r_riic_hld_prv.c ****         {
 2026              		.loc 1 874 12 is_stmt 0 view .LVU586
 2027 0038 010053E3 		cmp	r3, #1
 2028 003c 1C00000A 		beq	.L158
 870:../generate/sc_drivers/r_riic/src/hld/r_riic_hld_prv.c **** 
 2029              		.loc 1 870 31 view .LVU587
 2030 0040 0160A0E3 		mov	r6, #1
 2031              	.LVL240:
 2032              	.L148:
 880:../generate/sc_drivers/r_riic/src/hld/r_riic_hld_prv.c ****         {
 2033              		.loc 1 880 9 is_stmt 1 view .LVU588
 880:../generate/sc_drivers/r_riic/src/hld/r_riic_hld_prv.c ****         {
 2034              		.loc 1 880 12 is_stmt 0 view .LVU589
 2035 0044 020053E3 		cmp	r3, #2
 2036 0048 1D00000A 		beq	.L159
 2037              	.LVL241:
 2038              	.L149:
 891:../generate/sc_drivers/r_riic/src/hld/r_riic_hld_prv.c ****         {
 2039              		.loc 1 891 9 is_stmt 1 view .LVU590
 891:../generate/sc_drivers/r_riic/src/hld/r_riic_hld_prv.c ****         {
 2040              		.loc 1 891 54 is_stmt 0 view .LVU591
 2041 004c 0230D5E5 		ldrb	r3, [r5, #2]	@ zero_extendqisi2
 891:../generate/sc_drivers/r_riic/src/hld/r_riic_hld_prv.c ****         {
 2042              		.loc 1 891 12 view .LVU592
 2043 0050 030053E3 		cmp	r3, #3
 2044 0054 2900001A 		bne	.L147
 896:../generate/sc_drivers/r_riic/src/hld/r_riic_hld_prv.c **** 
 2045              		.loc 1 896 13 is_stmt 1 view .LVU593
 896:../generate/sc_drivers/r_riic/src/hld/r_riic_hld_prv.c **** 
 2046              		.loc 1 896 62 is_stmt 0 view .LVU594
 2047 0058 041095E5 		ldr	r1, [r5, #4]
 896:../generate/sc_drivers/r_riic/src/hld/r_riic_hld_prv.c **** 
 2048              		.loc 1 896 35 view .LVU595
 2049 005c 013086E2 		add	r3, r6, #1
 2050 0060 7330EFE6 		uxtb	r3, r3
 2051              	.LVL242:
 896:../generate/sc_drivers/r_riic/src/hld/r_riic_hld_prv.c **** 
 2052              		.loc 1 896 41 view .LVU596
 2053 0064 210CA0E1 		lsr	r0, r1, #24
 896:../generate/sc_drivers/r_riic/src/hld/r_riic_hld_prv.c **** 
 2054              		.loc 1 896 39 view .LVU597
 2055 0068 10208DE2 		add	r2, sp, #16
 2056 006c 062082E0 		add	r2, r2, r6
 2057 0070 0C0042E5 		strb	r0, [r2, #-12]
 899:../generate/sc_drivers/r_riic/src/hld/r_riic_hld_prv.c **** 
 2058              		.loc 1 899 13 is_stmt 1 view .LVU598
 899:../generate/sc_drivers/r_riic/src/hld/r_riic_hld_prv.c **** 
 2059              		.loc 1 899 35 is_stmt 0 view .LVU599
 2060 0074 022086E2 		add	r2, r6, #2
 2061 0078 7220EFE6 		uxtb	r2, r2
 2062              	.LVL243:
 899:../generate/sc_drivers/r_riic/src/hld/r_riic_hld_prv.c **** 
 2063              		.loc 1 899 41 view .LVU600
 2064 007c 5108E7E7 		ubfx	r0, r1, #16, #8
 899:../generate/sc_drivers/r_riic/src/hld/r_riic_hld_prv.c **** 
 2065              		.loc 1 899 39 view .LVU601
 2066 0080 10C08DE2 		add	ip, sp, #16
 2067 0084 03308CE0 		add	r3, ip, r3
 2068 0088 0C0043E5 		strb	r0, [r3, #-12]
 902:../generate/sc_drivers/r_riic/src/hld/r_riic_hld_prv.c **** 
 2069              		.loc 1 902 13 is_stmt 1 view .LVU602
 902:../generate/sc_drivers/r_riic/src/hld/r_riic_hld_prv.c **** 
 2070              		.loc 1 902 35 is_stmt 0 view .LVU603
 2071 008c 033086E2 		add	r3, r6, #3
 2072 0090 7330EFE6 		uxtb	r3, r3
 2073              	.LVL244:
 902:../generate/sc_drivers/r_riic/src/hld/r_riic_hld_prv.c **** 
 2074              		.loc 1 902 41 view .LVU604
 2075 0094 5104E7E7 		ubfx	r0, r1, #8, #8
 902:../generate/sc_drivers/r_riic/src/hld/r_riic_hld_prv.c **** 
 2076              		.loc 1 902 39 view .LVU605
 2077 0098 02208CE0 		add	r2, ip, r2
 2078 009c 0C0042E5 		strb	r0, [r2, #-12]
 905:../generate/sc_drivers/r_riic/src/hld/r_riic_hld_prv.c ****         }
 2079              		.loc 1 905 13 is_stmt 1 view .LVU606
 905:../generate/sc_drivers/r_riic/src/hld/r_riic_hld_prv.c ****         }
 2080              		.loc 1 905 35 is_stmt 0 view .LVU607
 2081 00a0 046086E2 		add	r6, r6, #4
 2082 00a4 7660EFE6 		uxtb	r6, r6
 2083              	.LVL245:
 905:../generate/sc_drivers/r_riic/src/hld/r_riic_hld_prv.c ****         }
 2084              		.loc 1 905 39 view .LVU608
 2085 00a8 03308CE0 		add	r3, ip, r3
 2086 00ac 0C1043E5 		strb	r1, [r3, #-12]
 2087 00b0 120000EA 		b	.L147
 2088              	.LVL246:
 2089              	.L158:
 877:../generate/sc_drivers/r_riic/src/hld/r_riic_hld_prv.c ****         }
 2090              		.loc 1 877 13 is_stmt 1 view .LVU609
 877:../generate/sc_drivers/r_riic/src/hld/r_riic_hld_prv.c ****         }
 2091              		.loc 1 877 41 is_stmt 0 view .LVU610
 2092 00b4 0420D5E5 		ldrb	r2, [r5, #4]	@ zero_extendqisi2
 877:../generate/sc_drivers/r_riic/src/hld/r_riic_hld_prv.c ****         }
 2093              		.loc 1 877 39 view .LVU611
 2094 00b8 0520CDE5 		strb	r2, [sp, #5]
 877:../generate/sc_drivers/r_riic/src/hld/r_riic_hld_prv.c ****         }
 2095              		.loc 1 877 35 view .LVU612
 2096 00bc 0260A0E3 		mov	r6, #2
 2097 00c0 DFFFFFEA 		b	.L148
 2098              	.LVL247:
 2099              	.L159:
 885:../generate/sc_drivers/r_riic/src/hld/r_riic_hld_prv.c **** 
 2100              		.loc 1 885 13 is_stmt 1 view .LVU613
 885:../generate/sc_drivers/r_riic/src/hld/r_riic_hld_prv.c **** 
 2101              		.loc 1 885 62 is_stmt 0 view .LVU614
 2102 00c4 042095E5 		ldr	r2, [r5, #4]
 885:../generate/sc_drivers/r_riic/src/hld/r_riic_hld_prv.c **** 
 2103              		.loc 1 885 35 view .LVU615
 2104 00c8 013086E2 		add	r3, r6, #1
 2105 00cc 7330EFE6 		uxtb	r3, r3
 2106              	.LVL248:
 885:../generate/sc_drivers/r_riic/src/hld/r_riic_hld_prv.c **** 
 2107              		.loc 1 885 41 view .LVU616
 2108 00d0 5204E7E7 		ubfx	r0, r2, #8, #8
 2109              	.LVL249:
 885:../generate/sc_drivers/r_riic/src/hld/r_riic_hld_prv.c **** 
 2110              		.loc 1 885 39 view .LVU617
 2111 00d4 10108DE2 		add	r1, sp, #16
 2112 00d8 061081E0 		add	r1, r1, r6
 2113 00dc 0C0041E5 		strb	r0, [r1, #-12]
 888:../generate/sc_drivers/r_riic/src/hld/r_riic_hld_prv.c ****         }
 2114              		.loc 1 888 13 is_stmt 1 view .LVU618
 888:../generate/sc_drivers/r_riic/src/hld/r_riic_hld_prv.c ****         }
 2115              		.loc 1 888 35 is_stmt 0 view .LVU619
 2116 00e0 026086E2 		add	r6, r6, #2
 2117 00e4 7660EFE6 		uxtb	r6, r6
 2118              	.LVL250:
 888:../generate/sc_drivers/r_riic/src/hld/r_riic_hld_prv.c ****         }
 2119              		.loc 1 888 39 view .LVU620
 2120 00e8 10108DE2 		add	r1, sp, #16
 2121 00ec 033081E0 		add	r3, r1, r3
 2122 00f0 0C2043E5 		strb	r2, [r3, #-12]
 2123 00f4 D4FFFFEA 		b	.L149
 2124              	.LVL251:
 2125              	.L154:
 863:../generate/sc_drivers/r_riic/src/hld/r_riic_hld_prv.c ****     }
 2126              		.loc 1 863 13 view .LVU621
 2127 00f8 0040E0E3 		mvn	r4, #0
 855:../generate/sc_drivers/r_riic/src/hld/r_riic_hld_prv.c **** 
 2128              		.loc 1 855 13 view .LVU622
 2129 00fc 0060A0E3 		mov	r6, #0
 2130              	.LVL252:
 2131              	.L147:
 909:../generate/sc_drivers/r_riic/src/hld/r_riic_hld_prv.c ****     {
 2132              		.loc 1 909 5 is_stmt 1 view .LVU623
 909:../generate/sc_drivers/r_riic/src/hld/r_riic_hld_prv.c ****     {
 2133              		.loc 1 909 8 is_stmt 0 view .LVU624
 2134 0100 000054E3 		cmp	r4, #0
 2135 0104 1200000A 		beq	.L160
 2136              	.L150:
 2137              	.LVL253:
 915:../generate/sc_drivers/r_riic/src/hld/r_riic_hld_prv.c ****     {
 2138              		.loc 1 915 5 is_stmt 1 view .LVU625
 915:../generate/sc_drivers/r_riic/src/hld/r_riic_hld_prv.c ****     {
 2139              		.loc 1 915 8 is_stmt 0 view .LVU626
 2140 0108 000054E3 		cmp	r4, #0
 2141 010c 1500000A 		beq	.L161
 2142              	.L151:
 921:../generate/sc_drivers/r_riic/src/hld/r_riic_hld_prv.c ****     {
 2143              		.loc 1 921 5 is_stmt 1 view .LVU627
 921:../generate/sc_drivers/r_riic/src/hld/r_riic_hld_prv.c ****     {
 2144              		.loc 1 921 8 is_stmt 0 view .LVU628
 2145 0110 000054E3 		cmp	r4, #0
 2146 0114 1700000A 		beq	.L162
 2147              	.L152:
 927:../generate/sc_drivers/r_riic/src/hld/r_riic_hld_prv.c ****     {
 2148              		.loc 1 927 5 is_stmt 1 view .LVU629
 927:../generate/sc_drivers/r_riic/src/hld/r_riic_hld_prv.c ****     {
 2149              		.loc 1 927 8 is_stmt 0 view .LVU630
 2150 0118 000054E3 		cmp	r4, #0
 2151 011c 1B00000A 		beq	.L163
 2152              	.L153:
 933:../generate/sc_drivers/r_riic/src/hld/r_riic_hld_prv.c **** 
 2153              		.loc 1 933 5 is_stmt 1 view .LVU631
 933:../generate/sc_drivers/r_riic/src/hld/r_riic_hld_prv.c **** 
 2154              		.loc 1 933 31 is_stmt 0 view .LVU632
 2155 0120 003000E3 		movw	r3, #:lower16:.LANCHOR3
 2156 0124 003040E3 		movt	r3, #:upper16:.LANCHOR3
 2157 0128 0020A0E3 		mov	r2, #0
 2158 012c 0720C3E7 		strb	r2, [r3, r7]
 936:../generate/sc_drivers/r_riic/src/hld/r_riic_hld_prv.c **** 
 2159              		.loc 1 936 5 is_stmt 1 view .LVU633
 2160 0130 0700A0E1 		mov	r0, r7
 2161 0134 FEFFFFEB 		bl	R_RIIC_TransmitStop
 2162              	.LVL254:
 939:../generate/sc_drivers/r_riic/src/hld/r_riic_hld_prv.c **** 
 2163              		.loc 1 939 5 view .LVU634
 2164 0138 0700A0E1 		mov	r0, r7
 2165 013c FEFFFFEB 		bl	wait_stop
 2166              	.LVL255:
 941:../generate/sc_drivers/r_riic/src/hld/r_riic_hld_prv.c **** }
 2167              		.loc 1 941 5 view .LVU635
 942:../generate/sc_drivers/r_riic/src/hld/r_riic_hld_prv.c **** /*******************************************************************************
 2168              		.loc 1 942 1 is_stmt 0 view .LVU636
 2169 0140 0400A0E1 		mov	r0, r4
 2170 0144 14D08DE2 		add	sp, sp, #20
 2171              		.cfi_remember_state
 2172              		.cfi_def_cfa_offset 20
 2173              		@ sp needed
 2174 0148 F080BDE8 		pop	{r4, r5, r6, r7, pc}
 2175              	.LVL256:
 2176              	.L155:
 2177              		.cfi_restore_state
 855:../generate/sc_drivers/r_riic/src/hld/r_riic_hld_prv.c **** 
 2178              		.loc 1 855 13 view .LVU637
 2179 014c 0060A0E3 		mov	r6, #0
 2180 0150 EAFFFFEA 		b	.L147
 2181              	.LVL257:
 2182              	.L160:
 912:../generate/sc_drivers/r_riic/src/hld/r_riic_hld_prv.c ****     }
 2183              		.loc 1 912 9 is_stmt 1 view .LVU638
 912:../generate/sc_drivers/r_riic/src/hld/r_riic_hld_prv.c ****     }
 2184              		.loc 1 912 15 is_stmt 0 view .LVU639
 2185 0154 0010A0E3 		mov	r1, #0
 2186 0158 0700A0E1 		mov	r0, r7
 2187 015c FEFFFFEB 		bl	wait_bus_master
 2188              	.LVL258:
 2189 0160 0040A0E1 		mov	r4, r0
 2190              	.LVL259:
 912:../generate/sc_drivers/r_riic/src/hld/r_riic_hld_prv.c ****     }
 2191              		.loc 1 912 15 view .LVU640
 2192 0164 E7FFFFEA 		b	.L150
 2193              	.LVL260:
 2194              	.L161:
 918:../generate/sc_drivers/r_riic/src/hld/r_riic_hld_prv.c ****     }
 2195              		.loc 1 918 9 is_stmt 1 view .LVU641
 918:../generate/sc_drivers/r_riic/src/hld/r_riic_hld_prv.c ****     }
 2196              		.loc 1 918 15 is_stmt 0 view .LVU642
 2197 0168 0700A0E1 		mov	r0, r7
 2198 016c FEFFFFEB 		bl	transmit_start
 2199              	.LVL261:
 2200 0170 0040A0E1 		mov	r4, r0
 2201              	.LVL262:
 918:../generate/sc_drivers/r_riic/src/hld/r_riic_hld_prv.c ****     }
 2202              		.loc 1 918 15 view .LVU643
 2203 0174 E5FFFFEA 		b	.L151
 2204              	.LVL263:
 2205              	.L162:
 924:../generate/sc_drivers/r_riic/src/hld/r_riic_hld_prv.c ****     }
 2206              		.loc 1 924 9 is_stmt 1 view .LVU644
 924:../generate/sc_drivers/r_riic/src/hld/r_riic_hld_prv.c ****     }
 2207              		.loc 1 924 15 is_stmt 0 view .LVU645
 2208 0178 0620A0E1 		mov	r2, r6
 2209 017c 04108DE2 		add	r1, sp, #4
 2210 0180 0700A0E1 		mov	r0, r7
 2211 0184 FEFFFFEB 		bl	riic_write
 2212              	.LVL264:
 2213 0188 0040A0E1 		mov	r4, r0
 2214              	.LVL265:
 924:../generate/sc_drivers/r_riic/src/hld/r_riic_hld_prv.c ****     }
 2215              		.loc 1 924 15 view .LVU646
 2216 018c E1FFFFEA 		b	.L152
 2217              	.LVL266:
 2218              	.L163:
 930:../generate/sc_drivers/r_riic/src/hld/r_riic_hld_prv.c ****     }
 2219              		.loc 1 930 9 is_stmt 1 view .LVU647
 930:../generate/sc_drivers/r_riic/src/hld/r_riic_hld_prv.c ****     }
 2220              		.loc 1 930 15 is_stmt 0 view .LVU648
 2221 0190 082095E5 		ldr	r2, [r5, #8]
 2222 0194 0C1095E5 		ldr	r1, [r5, #12]
 2223 0198 0700A0E1 		mov	r0, r7
 2224 019c FEFFFFEB 		bl	riic_write
 2225              	.LVL267:
 2226 01a0 0040A0E1 		mov	r4, r0
 2227              	.LVL268:
 930:../generate/sc_drivers/r_riic/src/hld/r_riic_hld_prv.c ****     }
 2228              		.loc 1 930 15 view .LVU649
 2229 01a4 DDFFFFEA 		b	.L153
 2230              		.cfi_endproc
 2231              	.LFE15:
 2233              		.section	.text.r_riic_hld_set_rx_full,"ax",%progbits
 2234              		.align	2
 2235              		.global	r_riic_hld_set_rx_full
 2236              		.syntax unified
 2237              		.arm
 2238              		.fpu neon
 2240              	r_riic_hld_set_rx_full:
 2241              	.LVL269:
 2242              	.LFB24:
1204:../generate/sc_drivers/r_riic/src/hld/r_riic_hld_prv.c **** /*******************************************************************************
1205:../generate/sc_drivers/r_riic/src/hld/r_riic_hld_prv.c ****  End of function get_timeout_status
1206:../generate/sc_drivers/r_riic/src/hld/r_riic_hld_prv.c ****  ******************************************************************************/
1207:../generate/sc_drivers/r_riic/src/hld/r_riic_hld_prv.c **** 
1208:../generate/sc_drivers/r_riic/src/hld/r_riic_hld_prv.c **** /**
1209:../generate/sc_drivers/r_riic/src/hld/r_riic_hld_prv.c ****  * @brief Hook for low level driver to indicate receive full for selected
1210:../generate/sc_drivers/r_riic/src/hld/r_riic_hld_prv.c ****  *        channel to the high level driver
1211:../generate/sc_drivers/r_riic/src/hld/r_riic_hld_prv.c ****  * @param[in] channel : the device specific channel number (< RIIC_CFG_LLD_NUM_CHANNELS)
1212:../generate/sc_drivers/r_riic/src/hld/r_riic_hld_prv.c ****  **/
1213:../generate/sc_drivers/r_riic/src/hld/r_riic_hld_prv.c **** void r_riic_hld_set_rx_full (int_t channel)
1214:../generate/sc_drivers/r_riic/src/hld/r_riic_hld_prv.c **** {
 2243              		.loc 1 1214 1 is_stmt 1 view -0
 2244              		.cfi_startproc
 2245              		@ args = 0, pretend = 0, frame = 0
 2246              		@ frame_needed = 0, uses_anonymous_args = 0
 2247              		@ link register save eliminated.
1215:../generate/sc_drivers/r_riic/src/hld/r_riic_hld_prv.c ****     gs_riic_receive_full_flg[channel] = DRV_FLAG_ON_PRV_;
 2248              		.loc 1 1215 5 view .LVU651
 2249              		.loc 1 1215 39 is_stmt 0 view .LVU652
 2250 0000 003000E3 		movw	r3, #:lower16:.LANCHOR2
 2251 0004 003040E3 		movt	r3, #:upper16:.LANCHOR2
 2252 0008 0120A0E3 		mov	r2, #1
 2253 000c 0020C3E7 		strb	r2, [r3, r0]
1216:../generate/sc_drivers/r_riic/src/hld/r_riic_hld_prv.c **** }
 2254              		.loc 1 1216 1 view .LVU653
 2255 0010 1EFF2FE1 		bx	lr
 2256              		.cfi_endproc
 2257              	.LFE24:
 2259              		.section	.text.r_riic_hld_set_tx_empty,"ax",%progbits
 2260              		.align	2
 2261              		.global	r_riic_hld_set_tx_empty
 2262              		.syntax unified
 2263              		.arm
 2264              		.fpu neon
 2266              	r_riic_hld_set_tx_empty:
 2267              	.LVL270:
 2268              	.LFB25:
1217:../generate/sc_drivers/r_riic/src/hld/r_riic_hld_prv.c **** /*******************************************************************************
1218:../generate/sc_drivers/r_riic/src/hld/r_riic_hld_prv.c ****  End of function r_riic_hld_set_rx_full
1219:../generate/sc_drivers/r_riic/src/hld/r_riic_hld_prv.c ****  *******************************************************************************/
1220:../generate/sc_drivers/r_riic/src/hld/r_riic_hld_prv.c **** 
1221:../generate/sc_drivers/r_riic/src/hld/r_riic_hld_prv.c **** /**
1222:../generate/sc_drivers/r_riic/src/hld/r_riic_hld_prv.c ****  * @brief Hook for the low level driver to indicate transmit empty for selected
1223:../generate/sc_drivers/r_riic/src/hld/r_riic_hld_prv.c ****  *        channel to the high level driver
1224:../generate/sc_drivers/r_riic/src/hld/r_riic_hld_prv.c ****  * @param[in] channel : the device specific channel number (< RIIC_CFG_LLD_NUM_CHANNELS)
1225:../generate/sc_drivers/r_riic/src/hld/r_riic_hld_prv.c ****  **/
1226:../generate/sc_drivers/r_riic/src/hld/r_riic_hld_prv.c **** void r_riic_hld_set_tx_empty (int_t channel)
1227:../generate/sc_drivers/r_riic/src/hld/r_riic_hld_prv.c **** {
 2269              		.loc 1 1227 1 is_stmt 1 view -0
 2270              		.cfi_startproc
 2271              		@ args = 0, pretend = 0, frame = 0
 2272              		@ frame_needed = 0, uses_anonymous_args = 0
 2273              		@ link register save eliminated.
1228:../generate/sc_drivers/r_riic/src/hld/r_riic_hld_prv.c ****     gs_riic_transmit_empty_flg[channel] = DRV_FLAG_ON_PRV_;
 2274              		.loc 1 1228 5 view .LVU655
 2275              		.loc 1 1228 41 is_stmt 0 view .LVU656
 2276 0000 003000E3 		movw	r3, #:lower16:.LANCHOR1
 2277 0004 003040E3 		movt	r3, #:upper16:.LANCHOR1
 2278 0008 0120A0E3 		mov	r2, #1
 2279 000c 0020C3E7 		strb	r2, [r3, r0]
1229:../generate/sc_drivers/r_riic/src/hld/r_riic_hld_prv.c **** }
 2280              		.loc 1 1229 1 view .LVU657
 2281 0010 1EFF2FE1 		bx	lr
 2282              		.cfi_endproc
 2283              	.LFE25:
 2285              		.section	.text.r_riic_hld_set_tx_end,"ax",%progbits
 2286              		.align	2
 2287              		.global	r_riic_hld_set_tx_end
 2288              		.syntax unified
 2289              		.arm
 2290              		.fpu neon
 2292              	r_riic_hld_set_tx_end:
 2293              	.LVL271:
 2294              	.LFB26:
1230:../generate/sc_drivers/r_riic/src/hld/r_riic_hld_prv.c **** /*******************************************************************************
1231:../generate/sc_drivers/r_riic/src/hld/r_riic_hld_prv.c ****  End of function r_riic_hld_set_tx_empty
1232:../generate/sc_drivers/r_riic/src/hld/r_riic_hld_prv.c ****  *******************************************************************************/
1233:../generate/sc_drivers/r_riic/src/hld/r_riic_hld_prv.c **** 
1234:../generate/sc_drivers/r_riic/src/hld/r_riic_hld_prv.c **** /**
1235:../generate/sc_drivers/r_riic/src/hld/r_riic_hld_prv.c ****  * @brief Hook for the low level driver to indicate transmit end for selected
1236:../generate/sc_drivers/r_riic/src/hld/r_riic_hld_prv.c ****  *        channel to the high level driver
1237:../generate/sc_drivers/r_riic/src/hld/r_riic_hld_prv.c ****  * @param[in] channel : the device specific channel number (< RIIC_CFG_LLD_NUM_CHANNELS)
1238:../generate/sc_drivers/r_riic/src/hld/r_riic_hld_prv.c ****  **/
1239:../generate/sc_drivers/r_riic/src/hld/r_riic_hld_prv.c **** void r_riic_hld_set_tx_end (int_t channel)
1240:../generate/sc_drivers/r_riic/src/hld/r_riic_hld_prv.c **** {
 2295              		.loc 1 1240 1 is_stmt 1 view -0
 2296              		.cfi_startproc
 2297              		@ args = 0, pretend = 0, frame = 0
 2298              		@ frame_needed = 0, uses_anonymous_args = 0
 2299              		@ link register save eliminated.
1241:../generate/sc_drivers/r_riic/src/hld/r_riic_hld_prv.c ****     gs_riic_transmit_end_flg[channel] = DRV_FLAG_ON_PRV_;
 2300              		.loc 1 1241 5 view .LVU659
 2301              		.loc 1 1241 39 is_stmt 0 view .LVU660
 2302 0000 003000E3 		movw	r3, #:lower16:.LANCHOR4
 2303 0004 003040E3 		movt	r3, #:upper16:.LANCHOR4
 2304 0008 0120A0E3 		mov	r2, #1
 2305 000c 0020C3E7 		strb	r2, [r3, r0]
1242:../generate/sc_drivers/r_riic/src/hld/r_riic_hld_prv.c **** }
 2306              		.loc 1 1242 1 view .LVU661
 2307 0010 1EFF2FE1 		bx	lr
 2308              		.cfi_endproc
 2309              	.LFE26:
 2311              		.section	.text.r_riic_hld_set_stop_asserted,"ax",%progbits
 2312              		.align	2
 2313              		.global	r_riic_hld_set_stop_asserted
 2314              		.syntax unified
 2315              		.arm
 2316              		.fpu neon
 2318              	r_riic_hld_set_stop_asserted:
 2319              	.LVL272:
 2320              	.LFB27:
1243:../generate/sc_drivers/r_riic/src/hld/r_riic_hld_prv.c **** /*******************************************************************************
1244:../generate/sc_drivers/r_riic/src/hld/r_riic_hld_prv.c ****  End of function r_riic_hld_set_tx_end
1245:../generate/sc_drivers/r_riic/src/hld/r_riic_hld_prv.c ****  *******************************************************************************/
1246:../generate/sc_drivers/r_riic/src/hld/r_riic_hld_prv.c **** 
1247:../generate/sc_drivers/r_riic/src/hld/r_riic_hld_prv.c **** /**
1248:../generate/sc_drivers/r_riic/src/hld/r_riic_hld_prv.c ****  * @brief Function to inform high layer driver when the RIIC channel's stop bit
1249:../generate/sc_drivers/r_riic/src/hld/r_riic_hld_prv.c ****  * has been asserted. This function should be called by the low layer
1250:../generate/sc_drivers/r_riic/src/hld/r_riic_hld_prv.c ****  * driver in it's stop bit asserted interrupt service routine for each channel
1251:../generate/sc_drivers/r_riic/src/hld/r_riic_hld_prv.c ****  * in use.
1252:../generate/sc_drivers/r_riic/src/hld/r_riic_hld_prv.c ****  * It informs the high layer driver that a stop bit has been detected and to
1253:../generate/sc_drivers/r_riic/src/hld/r_riic_hld_prv.c ****  * act appropriately.
1254:../generate/sc_drivers/r_riic/src/hld/r_riic_hld_prv.c ****  *
1255:../generate/sc_drivers/r_riic/src/hld/r_riic_hld_prv.c ****  * @param[in] channel RIIC channel (< RIIC_CFG_LLD_NUM_CHANNELS)
1256:../generate/sc_drivers/r_riic/src/hld/r_riic_hld_prv.c ****  * @return Nothing
1257:../generate/sc_drivers/r_riic/src/hld/r_riic_hld_prv.c ****  */
1258:../generate/sc_drivers/r_riic/src/hld/r_riic_hld_prv.c **** void r_riic_hld_set_stop_asserted (int_t channel)
1259:../generate/sc_drivers/r_riic/src/hld/r_riic_hld_prv.c **** {
 2321              		.loc 1 1259 1 is_stmt 1 view -0
 2322              		.cfi_startproc
 2323              		@ args = 0, pretend = 0, frame = 0
 2324              		@ frame_needed = 0, uses_anonymous_args = 0
 2325              		@ link register save eliminated.
1260:../generate/sc_drivers/r_riic/src/hld/r_riic_hld_prv.c ****     gs_riic_stop_flg[channel] = DRV_FLAG_ON_PRV_;
 2326              		.loc 1 1260 5 view .LVU663
 2327              		.loc 1 1260 31 is_stmt 0 view .LVU664
 2328 0000 003000E3 		movw	r3, #:lower16:.LANCHOR3
 2329 0004 003040E3 		movt	r3, #:upper16:.LANCHOR3
 2330 0008 0120A0E3 		mov	r2, #1
 2331 000c 0020C3E7 		strb	r2, [r3, r0]
1261:../generate/sc_drivers/r_riic/src/hld/r_riic_hld_prv.c **** }
 2332              		.loc 1 1261 1 view .LVU665
 2333 0010 1EFF2FE1 		bx	lr
 2334              		.cfi_endproc
 2335              	.LFE27:
 2337              		.section	.text.r_riic_hld_set_start_asserted,"ax",%progbits
 2338              		.align	2
 2339              		.global	r_riic_hld_set_start_asserted
 2340              		.syntax unified
 2341              		.arm
 2342              		.fpu neon
 2344              	r_riic_hld_set_start_asserted:
 2345              	.LVL273:
 2346              	.LFB28:
1262:../generate/sc_drivers/r_riic/src/hld/r_riic_hld_prv.c **** /*******************************************************************************
1263:../generate/sc_drivers/r_riic/src/hld/r_riic_hld_prv.c ****  End of function r_riic_hld_set_stop_asserted
1264:../generate/sc_drivers/r_riic/src/hld/r_riic_hld_prv.c ****  ******************************************************************************/
1265:../generate/sc_drivers/r_riic/src/hld/r_riic_hld_prv.c **** 
1266:../generate/sc_drivers/r_riic/src/hld/r_riic_hld_prv.c **** /**
1267:../generate/sc_drivers/r_riic/src/hld/r_riic_hld_prv.c ****  * @brief Function to inform high layer driver when the RIIC channel's start bit
1268:../generate/sc_drivers/r_riic/src/hld/r_riic_hld_prv.c ****  * has been asserted. This function should be called by the low layer
1269:../generate/sc_drivers/r_riic/src/hld/r_riic_hld_prv.c ****  * driver in it's start bit asserted interrupt service routine for each channel
1270:../generate/sc_drivers/r_riic/src/hld/r_riic_hld_prv.c ****  * in use.
1271:../generate/sc_drivers/r_riic/src/hld/r_riic_hld_prv.c ****  * It informs the high layer driver that a start bit has been detected and to
1272:../generate/sc_drivers/r_riic/src/hld/r_riic_hld_prv.c ****  * act appropriately.
1273:../generate/sc_drivers/r_riic/src/hld/r_riic_hld_prv.c ****  *
1274:../generate/sc_drivers/r_riic/src/hld/r_riic_hld_prv.c ****  * @param[in] channel RIIC channel (< RIIC_CFG_LLD_NUM_CHANNELS)
1275:../generate/sc_drivers/r_riic/src/hld/r_riic_hld_prv.c ****  * @return Nothing
1276:../generate/sc_drivers/r_riic/src/hld/r_riic_hld_prv.c ****  */
1277:../generate/sc_drivers/r_riic/src/hld/r_riic_hld_prv.c **** void r_riic_hld_set_start_asserted (int_t channel)
1278:../generate/sc_drivers/r_riic/src/hld/r_riic_hld_prv.c **** {
 2347              		.loc 1 1278 1 is_stmt 1 view -0
 2348              		.cfi_startproc
 2349              		@ args = 0, pretend = 0, frame = 0
 2350              		@ frame_needed = 0, uses_anonymous_args = 0
 2351              		@ link register save eliminated.
1279:../generate/sc_drivers/r_riic/src/hld/r_riic_hld_prv.c ****     gs_riic_start_flg[channel] = DRV_FLAG_ON_PRV_;
 2352              		.loc 1 1279 5 view .LVU667
 2353              		.loc 1 1279 32 is_stmt 0 view .LVU668
 2354 0000 003000E3 		movw	r3, #:lower16:.LANCHOR7
 2355 0004 003040E3 		movt	r3, #:upper16:.LANCHOR7
 2356 0008 0120A0E3 		mov	r2, #1
 2357 000c 0020C3E7 		strb	r2, [r3, r0]
1280:../generate/sc_drivers/r_riic/src/hld/r_riic_hld_prv.c **** }
 2358              		.loc 1 1280 1 view .LVU669
 2359 0010 1EFF2FE1 		bx	lr
 2360              		.cfi_endproc
 2361              	.LFE28:
 2363              		.section	.text.r_riic_hld_set_nack_asserted,"ax",%progbits
 2364              		.align	2
 2365              		.global	r_riic_hld_set_nack_asserted
 2366              		.syntax unified
 2367              		.arm
 2368              		.fpu neon
 2370              	r_riic_hld_set_nack_asserted:
 2371              	.LVL274:
 2372              	.LFB29:
1281:../generate/sc_drivers/r_riic/src/hld/r_riic_hld_prv.c **** /*******************************************************************************
1282:../generate/sc_drivers/r_riic/src/hld/r_riic_hld_prv.c ****  End of function r_riic_hld_set_start_asserted
1283:../generate/sc_drivers/r_riic/src/hld/r_riic_hld_prv.c ****  ******************************************************************************/
1284:../generate/sc_drivers/r_riic/src/hld/r_riic_hld_prv.c **** 
1285:../generate/sc_drivers/r_riic/src/hld/r_riic_hld_prv.c **** /**
1286:../generate/sc_drivers/r_riic/src/hld/r_riic_hld_prv.c ****  * @brief Function to inform high layer driver when the RIIC channel's NACK
1287:../generate/sc_drivers/r_riic/src/hld/r_riic_hld_prv.c ****  * has been asserted. This function should be called by the low layer
1288:../generate/sc_drivers/r_riic/src/hld/r_riic_hld_prv.c ****  * driver in it's NACK interrupt service routine for each channel
1289:../generate/sc_drivers/r_riic/src/hld/r_riic_hld_prv.c ****  * in use.
1290:../generate/sc_drivers/r_riic/src/hld/r_riic_hld_prv.c ****  * It informs the high layer driver that a NACK has been detected and to
1291:../generate/sc_drivers/r_riic/src/hld/r_riic_hld_prv.c ****  * act appropriately.
1292:../generate/sc_drivers/r_riic/src/hld/r_riic_hld_prv.c ****  *
1293:../generate/sc_drivers/r_riic/src/hld/r_riic_hld_prv.c ****  * @param[in] channel RIIC channel (< RIIC_CFG_LLD_NUM_CHANNELS)
1294:../generate/sc_drivers/r_riic/src/hld/r_riic_hld_prv.c ****  * @return Nothing
1295:../generate/sc_drivers/r_riic/src/hld/r_riic_hld_prv.c ****  */
1296:../generate/sc_drivers/r_riic/src/hld/r_riic_hld_prv.c **** void r_riic_hld_set_nack_asserted (int_t channel)
1297:../generate/sc_drivers/r_riic/src/hld/r_riic_hld_prv.c **** {
 2373              		.loc 1 1297 1 is_stmt 1 view -0
 2374              		.cfi_startproc
 2375              		@ args = 0, pretend = 0, frame = 0
 2376              		@ frame_needed = 0, uses_anonymous_args = 0
 2377              		@ link register save eliminated.
1298:../generate/sc_drivers/r_riic/src/hld/r_riic_hld_prv.c ****     gs_riic_nack_flg[channel] = DRV_FLAG_ON_PRV_;
 2378              		.loc 1 1298 5 view .LVU671
 2379              		.loc 1 1298 31 is_stmt 0 view .LVU672
 2380 0000 003000E3 		movw	r3, #:lower16:.LANCHOR5
 2381 0004 003040E3 		movt	r3, #:upper16:.LANCHOR5
 2382 0008 0120A0E3 		mov	r2, #1
 2383 000c 0020C3E7 		strb	r2, [r3, r0]
1299:../generate/sc_drivers/r_riic/src/hld/r_riic_hld_prv.c **** }
 2384              		.loc 1 1299 1 view .LVU673
 2385 0010 1EFF2FE1 		bx	lr
 2386              		.cfi_endproc
 2387              	.LFE29:
 2389              		.section	.text.r_riic_hld_set_arbitrate_assert,"ax",%progbits
 2390              		.align	2
 2391              		.global	r_riic_hld_set_arbitrate_assert
 2392              		.syntax unified
 2393              		.arm
 2394              		.fpu neon
 2396              	r_riic_hld_set_arbitrate_assert:
 2397              	.LVL275:
 2398              	.LFB30:
1300:../generate/sc_drivers/r_riic/src/hld/r_riic_hld_prv.c **** /*******************************************************************************
1301:../generate/sc_drivers/r_riic/src/hld/r_riic_hld_prv.c ****  End of function r_riic_hld_set_nack_asserted
1302:../generate/sc_drivers/r_riic/src/hld/r_riic_hld_prv.c ****  ******************************************************************************/
1303:../generate/sc_drivers/r_riic/src/hld/r_riic_hld_prv.c **** 
1304:../generate/sc_drivers/r_riic/src/hld/r_riic_hld_prv.c **** /**
1305:../generate/sc_drivers/r_riic/src/hld/r_riic_hld_prv.c ****  * @brief Function to inform high layer driver when a RIIC channel
1306:../generate/sc_drivers/r_riic/src/hld/r_riic_hld_prv.c ****  * arbitration failure has been detected. This function should be called
1307:../generate/sc_drivers/r_riic/src/hld/r_riic_hld_prv.c ****  * by the low layer driver in it's arbitration failure interrupt service
1308:../generate/sc_drivers/r_riic/src/hld/r_riic_hld_prv.c ****  * routine for each channel in use.
1309:../generate/sc_drivers/r_riic/src/hld/r_riic_hld_prv.c ****  * It informs the high layer driver that a arbitration failure has been
1310:../generate/sc_drivers/r_riic/src/hld/r_riic_hld_prv.c ****  * detected and to act appropriately.
1311:../generate/sc_drivers/r_riic/src/hld/r_riic_hld_prv.c ****  *
1312:../generate/sc_drivers/r_riic/src/hld/r_riic_hld_prv.c ****  * @param[in] channel RIIC channel (< RIIC_CFG_LLD_NUM_CHANNELS)
1313:../generate/sc_drivers/r_riic/src/hld/r_riic_hld_prv.c ****  * @return Nothing
1314:../generate/sc_drivers/r_riic/src/hld/r_riic_hld_prv.c ****  */
1315:../generate/sc_drivers/r_riic/src/hld/r_riic_hld_prv.c **** void r_riic_hld_set_arbitrate_assert (int_t channel)
1316:../generate/sc_drivers/r_riic/src/hld/r_riic_hld_prv.c **** {
 2399              		.loc 1 1316 1 is_stmt 1 view -0
 2400              		.cfi_startproc
 2401              		@ args = 0, pretend = 0, frame = 0
 2402              		@ frame_needed = 0, uses_anonymous_args = 0
 2403              		@ link register save eliminated.
1317:../generate/sc_drivers/r_riic/src/hld/r_riic_hld_prv.c ****     gs_riic_arbitration_flg[channel] = DRV_FLAG_ON_PRV_;
 2404              		.loc 1 1317 5 view .LVU675
 2405              		.loc 1 1317 38 is_stmt 0 view .LVU676
 2406 0000 003000E3 		movw	r3, #:lower16:.LANCHOR8
 2407 0004 003040E3 		movt	r3, #:upper16:.LANCHOR8
 2408 0008 0120A0E3 		mov	r2, #1
 2409 000c 0020C3E7 		strb	r2, [r3, r0]
1318:../generate/sc_drivers/r_riic/src/hld/r_riic_hld_prv.c **** }
 2410              		.loc 1 1318 1 view .LVU677
 2411 0010 1EFF2FE1 		bx	lr
 2412              		.cfi_endproc
 2413              	.LFE30:
 2415              		.section	.text.r_riic_hld_set_timeout_asserted,"ax",%progbits
 2416              		.align	2
 2417              		.global	r_riic_hld_set_timeout_asserted
 2418              		.syntax unified
 2419              		.arm
 2420              		.fpu neon
 2422              	r_riic_hld_set_timeout_asserted:
 2423              	.LVL276:
 2424              	.LFB31:
1319:../generate/sc_drivers/r_riic/src/hld/r_riic_hld_prv.c **** /*******************************************************************************
1320:../generate/sc_drivers/r_riic/src/hld/r_riic_hld_prv.c ****  End of function r_riic_hld_set_arbitrate_assert
1321:../generate/sc_drivers/r_riic/src/hld/r_riic_hld_prv.c ****  ******************************************************************************/
1322:../generate/sc_drivers/r_riic/src/hld/r_riic_hld_prv.c **** 
1323:../generate/sc_drivers/r_riic/src/hld/r_riic_hld_prv.c **** /**
1324:../generate/sc_drivers/r_riic/src/hld/r_riic_hld_prv.c ****  * @brief Function to inform high layer driver when a RIIC channel
1325:../generate/sc_drivers/r_riic/src/hld/r_riic_hld_prv.c ****  * timeout has occurred. This function should be called
1326:../generate/sc_drivers/r_riic/src/hld/r_riic_hld_prv.c ****  * by the low layer driver in it's timeout interrupt service
1327:../generate/sc_drivers/r_riic/src/hld/r_riic_hld_prv.c ****  * routine for each channel in use.
1328:../generate/sc_drivers/r_riic/src/hld/r_riic_hld_prv.c ****  * It informs the high layer driver that a timeout has been
1329:../generate/sc_drivers/r_riic/src/hld/r_riic_hld_prv.c ****  * detected and to act appropriately.
1330:../generate/sc_drivers/r_riic/src/hld/r_riic_hld_prv.c ****  *
1331:../generate/sc_drivers/r_riic/src/hld/r_riic_hld_prv.c ****  * @param[in] channel RIIC channel (< RIIC_CFG_LLD_NUM_CHANNELS)
1332:../generate/sc_drivers/r_riic/src/hld/r_riic_hld_prv.c ****  * @return Nothing
1333:../generate/sc_drivers/r_riic/src/hld/r_riic_hld_prv.c ****  */
1334:../generate/sc_drivers/r_riic/src/hld/r_riic_hld_prv.c **** void r_riic_hld_set_timeout_asserted (int_t channel)
1335:../generate/sc_drivers/r_riic/src/hld/r_riic_hld_prv.c **** {
 2425              		.loc 1 1335 1 is_stmt 1 view -0
 2426              		.cfi_startproc
 2427              		@ args = 0, pretend = 0, frame = 0
 2428              		@ frame_needed = 0, uses_anonymous_args = 0
 2429              		@ link register save eliminated.
1336:../generate/sc_drivers/r_riic/src/hld/r_riic_hld_prv.c ****     gs_riic_timeout_flg[channel] = DRV_FLAG_ON_PRV_;
 2430              		.loc 1 1336 5 view .LVU679
 2431              		.loc 1 1336 34 is_stmt 0 view .LVU680
 2432 0000 003000E3 		movw	r3, #:lower16:.LANCHOR0
 2433 0004 003040E3 		movt	r3, #:upper16:.LANCHOR0
 2434 0008 0120A0E3 		mov	r2, #1
 2435 000c 0020C3E7 		strb	r2, [r3, r0]
1337:../generate/sc_drivers/r_riic/src/hld/r_riic_hld_prv.c **** }
 2436              		.loc 1 1337 1 view .LVU681
 2437 0010 1EFF2FE1 		bx	lr
 2438              		.cfi_endproc
 2439              	.LFE31:
 2441              		.section	.bss.gs_channel_initialise_state,"aw",%nobits
 2442              		.align	2
 2443              		.set	.LANCHOR9,. + 0
 2446              	gs_channel_initialise_state:
 2447 0000 00000000 		.space	16
 2447      00000000 
 2447      00000000 
 2447      00000000 
 2448              		.section	.bss.gs_riic_arbitration_flg,"aw",%nobits
 2449              		.align	2
 2450              		.set	.LANCHOR8,. + 0
 2453              	gs_riic_arbitration_flg:
 2454 0000 00000000 		.space	4
 2455              		.section	.bss.gs_riic_nack_flg,"aw",%nobits
 2456              		.align	2
 2457              		.set	.LANCHOR5,. + 0
 2460              	gs_riic_nack_flg:
 2461 0000 00000000 		.space	4
 2462              		.section	.bss.gs_riic_receive_full_flg,"aw",%nobits
 2463              		.align	2
 2464              		.set	.LANCHOR2,. + 0
 2467              	gs_riic_receive_full_flg:
 2468 0000 00000000 		.space	4
 2469              		.section	.bss.gs_riic_start_flg,"aw",%nobits
 2470              		.align	2
 2471              		.set	.LANCHOR7,. + 0
 2474              	gs_riic_start_flg:
 2475 0000 00000000 		.space	4
 2476              		.section	.bss.gs_riic_stop_flg,"aw",%nobits
 2477              		.align	2
 2478              		.set	.LANCHOR3,. + 0
 2481              	gs_riic_stop_flg:
 2482 0000 00000000 		.space	4
 2483              		.section	.bss.gs_riic_timeout_flg,"aw",%nobits
 2484              		.align	2
 2485              		.set	.LANCHOR0,. + 0
 2488              	gs_riic_timeout_flg:
 2489 0000 00000000 		.space	4
 2490              		.section	.bss.gs_riic_transmit_empty_flg,"aw",%nobits
 2491              		.align	2
 2492              		.set	.LANCHOR1,. + 0
 2495              	gs_riic_transmit_empty_flg:
 2496 0000 00000000 		.space	4
 2497              		.section	.bss.gs_riic_transmit_end_flg,"aw",%nobits
 2498              		.align	2
 2499              		.set	.LANCHOR4,. + 0
 2502              	gs_riic_transmit_end_flg:
 2503 0000 00000000 		.space	4
 2504              		.section	.rodata.GPIO_SC_TABLE_riic1,"a"
 2505              		.align	2
 2508              	GPIO_SC_TABLE_riic1:
 2509 0000 020D     		.short	3330
 2510 0002 07       		.byte	7
 2511 0003 01       		.byte	1
 2512 0004 05       		.byte	5
 2513 0005 00       		.space	1
 2514 0006 030D     		.short	3331
 2515 0008 07       		.byte	7
 2516 0009 01       		.byte	1
 2517 000a 05       		.byte	5
 2518 000b 00       		.space	1
 2519              		.section	.rodata.RIIC_SC_TABLE,"a"
 2520              		.align	2
 2521              		.set	.LANCHOR6,. + 0
 2524              	RIIC_SC_TABLE:
 2525 0000 01000000 		.word	1
 2526 0004 00       		.byte	0
 2527 0005 000000   		.space	3
 2528 0008 01000000 		.word	1
 2529 000c 00000000 		.word	0
 2530 0010 00000000 		.word	0
 2531 0014 0100     		.short	1
 2532 0016 0100     		.short	1
 2533 0018 0100     		.short	1
 2534 001a 00       		.byte	0
 2535 001b 00       		.byte	0
 2536 001c 00       		.byte	0
 2537 001d 00       		.byte	0
 2538 001e 04       		.byte	4
 2539 001f 00       		.space	1
 2540 0020 00000000 		.word	0
 2541 0024 00000000 		.word	0
 2542 0028 00       		.byte	0
 2543 0029 00       		.byte	0
 2544 002a 00       		.byte	0
 2545 002b 00       		.space	1
 2546 002c 00000000 		.word	0
 2547 0030 09       		.byte	9
 2548 0031 09       		.byte	9
 2549 0032 09       		.byte	9
 2550 0033 09       		.byte	9
 2551 0034 09       		.byte	9
 2552 0035 09       		.byte	9
 2553 0036 09       		.byte	9
 2554 0037 09       		.byte	9
 2555 0038 00000000 		.word	GPIO_SC_TABLE_riic1
 2556 003c 02000000 		.word	2
 2557 0040 00000000 		.space	4
 2558              		.text
 2559              	.Letext0:
 2560              		.file 2 "c:\\program files (x86)\\gnu arm embedded toolchain\\9 2020-q2-update\\arm-none-eabi\\inc
 2561              		.file 3 "c:\\program files (x86)\\gnu arm embedded toolchain\\9 2020-q2-update\\arm-none-eabi\\inc
 2562              		.file 4 "c:\\program files (x86)\\gnu arm embedded toolchain\\9 2020-q2-update\\lib\\gcc\\arm-none
 2563              		.file 5 "c:\\program files (x86)\\gnu arm embedded toolchain\\9 2020-q2-update\\arm-none-eabi\\inc
 2564              		.file 6 "c:\\program files (x86)\\gnu arm embedded toolchain\\9 2020-q2-update\\arm-none-eabi\\inc
 2565              		.file 7 "c:\\program files (x86)\\gnu arm embedded toolchain\\9 2020-q2-update\\arm-none-eabi\\inc
 2566              		.file 8 "c:\\program files (x86)\\gnu arm embedded toolchain\\9 2020-q2-update\\arm-none-eabi\\inc
 2567              		.file 9 "C:/Users/ryota/e2_studio/workspace/rza2m_ssif_sample_freertos_gcc/generate/system/inc/r_t
 2568              		.file 10 "C:/Users/ryota/e2_studio/workspace/rza2m_ssif_sample_freertos_gcc/generate/system/inc/dr
 2569              		.file 11 "c:\\program files (x86)\\gnu arm embedded toolchain\\9 2020-q2-update\\arm-none-eabi\\in
 2570              		.file 12 "c:\\program files (x86)\\gnu arm embedded toolchain\\9 2020-q2-update\\arm-none-eabi\\in
 2571              		.file 13 "C:/Users/ryota/e2_studio/workspace/rza2m_ssif_sample_freertos_gcc/generate/drivers/r_gpi
 2572              		.file 14 "C:/Users/ryota/e2_studio/workspace/rza2m_ssif_sample_freertos_gcc/generate/drivers/r_gpi
 2573              		.file 15 "C:/Users/ryota/e2_studio/workspace/rza2m_ssif_sample_freertos_gcc/generate/drivers/r_gpi
 2574              		.file 16 "C:/Users/ryota/e2_studio/workspace/rza2m_ssif_sample_freertos_gcc/generate/sc_drivers/r_
 2575              		.file 17 "C:/Users/ryota/e2_studio/workspace/rza2m_ssif_sample_freertos_gcc/generate/sc_drivers/r_
 2576              		.file 18 "C:/Users/ryota/e2_studio/workspace/rza2m_ssif_sample_freertos_gcc/generate/sc_drivers/r_
 2577              		.file 19 "C:/Users/ryota/e2_studio/workspace/rza2m_ssif_sample_freertos_gcc/generate/sc_drivers/r_
 2578              		.file 20 "C:/Users/ryota/e2_studio/workspace/rza2m_ssif_sample_freertos_gcc/generate/system/inc/r_
DEFINED SYMBOLS
                            *ABS*:00000000 r_riic_hld_prv.c
C:\Users\ryota\AppData\Local\Temp\ccGYJoFk.s:17     .text.get_timeout_status:00000000 $a
C:\Users\ryota\AppData\Local\Temp\ccGYJoFk.s:25     .text.get_timeout_status:00000000 get_timeout_status
C:\Users\ryota\AppData\Local\Temp\ccGYJoFk.s:2485   .bss.gs_riic_timeout_flg:00000000 .LANCHOR0
C:\Users\ryota\AppData\Local\Temp\ccGYJoFk.s:70     .rodata.riic_setup.str1.4:00000000 $d
C:\Users\ryota\AppData\Local\Temp\ccGYJoFk.s:71     .rodata.riic_setup.str1.4:00000000 .LC0
C:\Users\ryota\AppData\Local\Temp\ccGYJoFk.s:74     .text.riic_setup:00000000 $a
C:\Users\ryota\AppData\Local\Temp\ccGYJoFk.s:79     .text.riic_setup:00000000 riic_setup
C:\Users\ryota\AppData\Local\Temp\ccGYJoFk.s:133    .text.start_timeout_monitor:00000000 $a
C:\Users\ryota\AppData\Local\Temp\ccGYJoFk.s:138    .text.start_timeout_monitor:00000000 start_timeout_monitor
C:\Users\ryota\AppData\Local\Temp\ccGYJoFk.s:165    .text.stop_timeout_monitor:00000000 $a
C:\Users\ryota\AppData\Local\Temp\ccGYJoFk.s:170    .text.stop_timeout_monitor:00000000 stop_timeout_monitor
C:\Users\ryota\AppData\Local\Temp\ccGYJoFk.s:197    .text.wait_bus_master:00000000 $a
C:\Users\ryota\AppData\Local\Temp\ccGYJoFk.s:202    .text.wait_bus_master:00000000 wait_bus_master
C:\Users\ryota\AppData\Local\Temp\ccGYJoFk.s:279    .text.wait_tx_empty:00000000 $a
C:\Users\ryota\AppData\Local\Temp\ccGYJoFk.s:284    .text.wait_tx_empty:00000000 wait_tx_empty
C:\Users\ryota\AppData\Local\Temp\ccGYJoFk.s:2492   .bss.gs_riic_transmit_empty_flg:00000000 .LANCHOR1
C:\Users\ryota\AppData\Local\Temp\ccGYJoFk.s:343    .text.wait_rx_full:00000000 $a
C:\Users\ryota\AppData\Local\Temp\ccGYJoFk.s:348    .text.wait_rx_full:00000000 wait_rx_full
C:\Users\ryota\AppData\Local\Temp\ccGYJoFk.s:2464   .bss.gs_riic_receive_full_flg:00000000 .LANCHOR2
C:\Users\ryota\AppData\Local\Temp\ccGYJoFk.s:407    .text.wait_stop:00000000 $a
C:\Users\ryota\AppData\Local\Temp\ccGYJoFk.s:412    .text.wait_stop:00000000 wait_stop
C:\Users\ryota\AppData\Local\Temp\ccGYJoFk.s:2478   .bss.gs_riic_stop_flg:00000000 .LANCHOR3
C:\Users\ryota\AppData\Local\Temp\ccGYJoFk.s:471    .text.transmit_start:00000000 $a
C:\Users\ryota\AppData\Local\Temp\ccGYJoFk.s:476    .text.transmit_start:00000000 transmit_start
C:\Users\ryota\AppData\Local\Temp\ccGYJoFk.s:2499   .bss.gs_riic_transmit_end_flg:00000000 .LANCHOR4
C:\Users\ryota\AppData\Local\Temp\ccGYJoFk.s:541    .text.riic_transmit:00000000 $a
C:\Users\ryota\AppData\Local\Temp\ccGYJoFk.s:546    .text.riic_transmit:00000000 riic_transmit
C:\Users\ryota\AppData\Local\Temp\ccGYJoFk.s:2457   .bss.gs_riic_nack_flg:00000000 .LANCHOR5
C:\Users\ryota\AppData\Local\Temp\ccGYJoFk.s:622    .text.wait_tx_end:00000000 $a
C:\Users\ryota\AppData\Local\Temp\ccGYJoFk.s:627    .text.wait_tx_end:00000000 wait_tx_end
C:\Users\ryota\AppData\Local\Temp\ccGYJoFk.s:724    .text.riic_write:00000000 $a
C:\Users\ryota\AppData\Local\Temp\ccGYJoFk.s:729    .text.riic_write:00000000 riic_write
C:\Users\ryota\AppData\Local\Temp\ccGYJoFk.s:845    .text.riic_single_write:00000000 $a
C:\Users\ryota\AppData\Local\Temp\ccGYJoFk.s:850    .text.riic_single_write:00000000 riic_single_write
C:\Users\ryota\AppData\Local\Temp\ccGYJoFk.s:914    .text.transmit_restart:00000000 $a
C:\Users\ryota\AppData\Local\Temp\ccGYJoFk.s:919    .text.transmit_restart:00000000 transmit_restart
C:\Users\ryota\AppData\Local\Temp\ccGYJoFk.s:984    .text.riic_receive:00000000 $a
C:\Users\ryota\AppData\Local\Temp\ccGYJoFk.s:989    .text.riic_receive:00000000 riic_receive
C:\Users\ryota\AppData\Local\Temp\ccGYJoFk.s:1028   .text.riic_receive:00000038 $d
C:\Users\ryota\AppData\Local\Temp\ccGYJoFk.s:1035   .text.riic_receive:0000004c $a
C:\Users\ryota\AppData\Local\Temp\ccGYJoFk.s:1099   .text.riic_read:00000000 $a
C:\Users\ryota\AppData\Local\Temp\ccGYJoFk.s:1104   .text.riic_read:00000000 riic_read
C:\Users\ryota\AppData\Local\Temp\ccGYJoFk.s:1317   .text.open_channel:00000000 $a
C:\Users\ryota\AppData\Local\Temp\ccGYJoFk.s:1323   .text.open_channel:00000000 open_channel
C:\Users\ryota\AppData\Local\Temp\ccGYJoFk.s:2521   .rodata.RIIC_SC_TABLE:00000000 .LANCHOR6
C:\Users\ryota\AppData\Local\Temp\ccGYJoFk.s:2471   .bss.gs_riic_start_flg:00000000 .LANCHOR7
C:\Users\ryota\AppData\Local\Temp\ccGYJoFk.s:2450   .bss.gs_riic_arbitration_flg:00000000 .LANCHOR8
C:\Users\ryota\AppData\Local\Temp\ccGYJoFk.s:1446   .text.close_channel:00000000 $a
C:\Users\ryota\AppData\Local\Temp\ccGYJoFk.s:1452   .text.close_channel:00000000 close_channel
C:\Users\ryota\AppData\Local\Temp\ccGYJoFk.s:2443   .bss.gs_channel_initialise_state:00000000 .LANCHOR9
C:\Users\ryota\AppData\Local\Temp\ccGYJoFk.s:1512   .text.read_data:00000000 $a
C:\Users\ryota\AppData\Local\Temp\ccGYJoFk.s:1518   .text.read_data:00000000 read_data
C:\Users\ryota\AppData\Local\Temp\ccGYJoFk.s:1846   .text.read_next_data:00000000 $a
C:\Users\ryota\AppData\Local\Temp\ccGYJoFk.s:1852   .text.read_next_data:00000000 read_next_data
C:\Users\ryota\AppData\Local\Temp\ccGYJoFk.s:1973   .text.write_data:00000000 $a
C:\Users\ryota\AppData\Local\Temp\ccGYJoFk.s:1979   .text.write_data:00000000 write_data
C:\Users\ryota\AppData\Local\Temp\ccGYJoFk.s:2234   .text.r_riic_hld_set_rx_full:00000000 $a
C:\Users\ryota\AppData\Local\Temp\ccGYJoFk.s:2240   .text.r_riic_hld_set_rx_full:00000000 r_riic_hld_set_rx_full
C:\Users\ryota\AppData\Local\Temp\ccGYJoFk.s:2260   .text.r_riic_hld_set_tx_empty:00000000 $a
C:\Users\ryota\AppData\Local\Temp\ccGYJoFk.s:2266   .text.r_riic_hld_set_tx_empty:00000000 r_riic_hld_set_tx_empty
C:\Users\ryota\AppData\Local\Temp\ccGYJoFk.s:2286   .text.r_riic_hld_set_tx_end:00000000 $a
C:\Users\ryota\AppData\Local\Temp\ccGYJoFk.s:2292   .text.r_riic_hld_set_tx_end:00000000 r_riic_hld_set_tx_end
C:\Users\ryota\AppData\Local\Temp\ccGYJoFk.s:2312   .text.r_riic_hld_set_stop_asserted:00000000 $a
C:\Users\ryota\AppData\Local\Temp\ccGYJoFk.s:2318   .text.r_riic_hld_set_stop_asserted:00000000 r_riic_hld_set_stop_asserted
C:\Users\ryota\AppData\Local\Temp\ccGYJoFk.s:2338   .text.r_riic_hld_set_start_asserted:00000000 $a
C:\Users\ryota\AppData\Local\Temp\ccGYJoFk.s:2344   .text.r_riic_hld_set_start_asserted:00000000 r_riic_hld_set_start_asserted
C:\Users\ryota\AppData\Local\Temp\ccGYJoFk.s:2364   .text.r_riic_hld_set_nack_asserted:00000000 $a
C:\Users\ryota\AppData\Local\Temp\ccGYJoFk.s:2370   .text.r_riic_hld_set_nack_asserted:00000000 r_riic_hld_set_nack_asserted
C:\Users\ryota\AppData\Local\Temp\ccGYJoFk.s:2390   .text.r_riic_hld_set_arbitrate_assert:00000000 $a
C:\Users\ryota\AppData\Local\Temp\ccGYJoFk.s:2396   .text.r_riic_hld_set_arbitrate_assert:00000000 r_riic_hld_set_arbitrate_assert
C:\Users\ryota\AppData\Local\Temp\ccGYJoFk.s:2416   .text.r_riic_hld_set_timeout_asserted:00000000 $a
C:\Users\ryota\AppData\Local\Temp\ccGYJoFk.s:2422   .text.r_riic_hld_set_timeout_asserted:00000000 r_riic_hld_set_timeout_asserted
C:\Users\ryota\AppData\Local\Temp\ccGYJoFk.s:2442   .bss.gs_channel_initialise_state:00000000 $d
C:\Users\ryota\AppData\Local\Temp\ccGYJoFk.s:2446   .bss.gs_channel_initialise_state:00000000 gs_channel_initialise_state
C:\Users\ryota\AppData\Local\Temp\ccGYJoFk.s:2449   .bss.gs_riic_arbitration_flg:00000000 $d
C:\Users\ryota\AppData\Local\Temp\ccGYJoFk.s:2453   .bss.gs_riic_arbitration_flg:00000000 gs_riic_arbitration_flg
C:\Users\ryota\AppData\Local\Temp\ccGYJoFk.s:2456   .bss.gs_riic_nack_flg:00000000 $d
C:\Users\ryota\AppData\Local\Temp\ccGYJoFk.s:2460   .bss.gs_riic_nack_flg:00000000 gs_riic_nack_flg
C:\Users\ryota\AppData\Local\Temp\ccGYJoFk.s:2463   .bss.gs_riic_receive_full_flg:00000000 $d
C:\Users\ryota\AppData\Local\Temp\ccGYJoFk.s:2467   .bss.gs_riic_receive_full_flg:00000000 gs_riic_receive_full_flg
C:\Users\ryota\AppData\Local\Temp\ccGYJoFk.s:2470   .bss.gs_riic_start_flg:00000000 $d
C:\Users\ryota\AppData\Local\Temp\ccGYJoFk.s:2474   .bss.gs_riic_start_flg:00000000 gs_riic_start_flg
C:\Users\ryota\AppData\Local\Temp\ccGYJoFk.s:2477   .bss.gs_riic_stop_flg:00000000 $d
C:\Users\ryota\AppData\Local\Temp\ccGYJoFk.s:2481   .bss.gs_riic_stop_flg:00000000 gs_riic_stop_flg
C:\Users\ryota\AppData\Local\Temp\ccGYJoFk.s:2484   .bss.gs_riic_timeout_flg:00000000 $d
C:\Users\ryota\AppData\Local\Temp\ccGYJoFk.s:2488   .bss.gs_riic_timeout_flg:00000000 gs_riic_timeout_flg
C:\Users\ryota\AppData\Local\Temp\ccGYJoFk.s:2491   .bss.gs_riic_transmit_empty_flg:00000000 $d
C:\Users\ryota\AppData\Local\Temp\ccGYJoFk.s:2495   .bss.gs_riic_transmit_empty_flg:00000000 gs_riic_transmit_empty_flg
C:\Users\ryota\AppData\Local\Temp\ccGYJoFk.s:2498   .bss.gs_riic_transmit_end_flg:00000000 $d
C:\Users\ryota\AppData\Local\Temp\ccGYJoFk.s:2502   .bss.gs_riic_transmit_end_flg:00000000 gs_riic_transmit_end_flg
C:\Users\ryota\AppData\Local\Temp\ccGYJoFk.s:2505   .rodata.GPIO_SC_TABLE_riic1:00000000 $d
C:\Users\ryota\AppData\Local\Temp\ccGYJoFk.s:2508   .rodata.GPIO_SC_TABLE_riic1:00000000 GPIO_SC_TABLE_riic1
C:\Users\ryota\AppData\Local\Temp\ccGYJoFk.s:2520   .rodata.RIIC_SC_TABLE:00000000 $d
C:\Users\ryota\AppData\Local\Temp\ccGYJoFk.s:2524   .rodata.RIIC_SC_TABLE:00000000 RIIC_SC_TABLE
                           .group:00000000 wm4.0.3d5c910ebb40df6df78b28e37cd67f3d
                           .group:00000000 wm4.stddef.h.39.144cf5ddcd53cbfdac30259dc1a6c87f
                           .group:00000000 wm4._newlib_version.h.4.1ef4e12f167f8b69d7c30054be56050d
                           .group:00000000 wm4.features.h.33.318b64d71e0957639cfb30f1db1f7ec8
                           .group:00000000 wm4._default_types.h.15.247e5cd201eca3442cbf5404108c4935
                           .group:00000000 wm4._intsup.h.10.48bafbb683905c4daa4565a85aeeb264
                           .group:00000000 wm4._stdint.h.10.c24fa3af3bc1706662bb5593a907e841
                           .group:00000000 wm4.stdint.h.23.d53047a68f4a85177f80b422d52785ed
                           .group:00000000 wm4.newlib.h.8.7cb3972cd43265932d4782d5eb589854
                           .group:00000000 wm4.ieeefp.h.77.3f06799abf5dd88bdddee084775a1223
                           .group:00000000 wm4.config.h.224.c701144a7b0518c6ee9b9b5465b79f81
                           .group:00000000 wm4._ansi.h.31.de524f58584151836e90d8620a16f8e8
                           .group:00000000 wm4._types.h.20.dd0d04dca3800a0d2a6129b87f3adbb2
                           .group:00000000 wm4.stddef.h.155.3588ebfdd1e8c7ede80509bb9c3b8009
                           .group:00000000 wm4._types.h.127.34941de1b2539d59d5cac00e0dd27a45
                           .group:00000000 wm4.reent.h.17.e292bf8b0bec6c96e131a54347145a30
                           .group:00000000 wm4.lock.h.2.1461d1fff82dffe8bfddc23307f6484f
                           .group:00000000 wm4.reent.h.77.dcd6129ff07fe81bd5636db29abe53b2
                           .group:00000000 wm4.cdefs.h.49.6260d97adb8d27534cbdc0f868b8ea87
                           .group:00000000 wm4.math.h.13.97100c05caf9f40dd9f5a3cda48ccc01
                           .group:00000000 wm4.r_typedefs.h.38.e90d9de5300d9ae020e5db8c5af88b3e
                           .group:00000000 wm4.driver.h.34.180df73e0731406f5e50150641059ede
                           .group:00000000 wm4.stdio.h.27.3fc80220048df77954e38daec3bb9670
                           .group:00000000 wm4.stddef.h.155.ba788add86a0e365f264484f110c3c29
                           .group:00000000 wm4.stdarg.h.34.3a23a216c0c293b3d2ea2e89281481e6
                           .group:00000000 wm4.types.h.40.8b6acba56cefbb11746718204edc8f5e
                           .group:00000000 wm4._endian.h.31.65a10590763c3dde1ac4a7f66d7d4891
                           .group:00000000 wm4.endian.h.9.49f3a4695c1b61e8a0808de3c4a106cb
                           .group:00000000 wm4._timeval.h.32.bec3221fa7a9bb0bdde696c9c57e47d2
                           .group:00000000 wm4.timespec.h.41.d855182eb0e690443ab8651bcedca6e1
                           .group:00000000 wm4.select.h.19.97ca6fd0c752a0f3b6719fd314d361e6
                           .group:00000000 wm4.types.h.51.5571ec98f267d17d3c670b7a3ba33afa
                           .group:00000000 wm4.sched.h.22.c60982713a5c428609783c78f9c78d95
                           .group:00000000 wm4._pthreadtypes.h.36.fcee9961c35163dde6267ef772ad1972
                           .group:00000000 wm4.stdio.h.2.4aa87247282eca6c8f36f9de33d8df1a
                           .group:00000000 wm4.stdio.h.81.932d0c162786b883f622b8d05c120c78
                           .group:00000000 wm4.stdlib.h.13.4ed386f5c1a80d71e72172885d946ef2
                           .group:00000000 wm4.alloca.h.8.dfc0c703c47ec3e69746825b17d9e66d
                           .group:00000000 wm4.stdlib.h.56.f4862cfbf4363a1db01842d5bdf72c18
                           .group:00000000 wm4.reent.h.91.b3ea049ebc5486622b61409b78486f84
                           .group:00000000 wm4._default_fcntl.h.6.791f38f41eee7843f224ce48f47caa9b
                           .group:00000000 wm4.time.h.8.db4619001f026d0b4874c029fef0e91f
                           .group:00000000 wm4.time.h.2.4581ce0ffb6627cfc02162c94bf846c9
                           .group:00000000 wm4.time.h.25.0e6a0fdbc9955f5707ed54246ed2e089
                           .group:00000000 wm4.time.h.162.85256a1e684b58f061361067da714e0e
                           .group:00000000 wm4.stat.h.54.5a9b823658423102e7a8de4ed089eedc
                           .group:00000000 wm4.fcntl.h.9.9336f33d7f5028f694c75e6e224e0cf7
                           .group:00000000 wm4.r_devlink_wrapper.h.72.ad1de4c851513efa3aed0532ebca7ca2
                           .group:00000000 wm4.adc_iodefine.h.29.14c6f50dce37432a7d004e4b1ce33da7
                           .group:00000000 wm4.bsc_iodefine.h.29.9281d1f3639266933964d6d0c2d42c4f
                           .group:00000000 wm4.ceu_iodefine.h.29.2a669d0b46fdde030a50db9e3c307fbf
                           .group:00000000 wm4.cpg_iodefine.h.29.d6fdc9cb4798723afd88b251d64c2ce2
                           .group:00000000 wm4.csi2link_iodefine.h.29.221c4531636a409f24d307b16341ada8
                           .group:00000000 wm4.dmac_iodefine.h.29.578fccc2cc1da886ec95a029bf874f01
                           .group:00000000 wm4.drpk_iodefine.h.29.580eb8588a2b2d43d2726fbe791e513f
                           .group:00000000 wm4.drw_iodefine.h.29.df30f4a4a34a79f6a86c4df91353dffe
                           .group:00000000 wm4.edmac_iodefine.h.29.33e8759349004a722f42f5429c1353f6
                           .group:00000000 wm4.eptpc_iodefine.h.29.74d8f9fab0f5549b56097fb9e937dde8
                           .group:00000000 wm4.etherc_iodefine.h.29.14602750383a574f1c21f994ad33a366
                           .group:00000000 wm4.gpio_iodefine.h.29.3d0b021c56839cee4ae5149903684e4b
                           .group:00000000 wm4.gpt_iodefine.h.29.557ead75d7b0585b898d3898b64c7f87
                           .group:00000000 wm4.hyper_iodefine.h.29.000caadbb74d881e97db55b39b432154
                           .group:00000000 wm4.imr_iodefine.h.29.77c022f017e711c4d51cc0145db1dad3
                           .group:00000000 wm4.intc_iodefine.h.29.b68f5799a35a7495d63b4cd458e1ba57
                           .group:00000000 wm4.irda_iodefine.h.29.37e67bd2005173d68a74d1cc937d8444
                           .group:00000000 wm4.jcu_iodefine.h.29.3aca452908962e7a7ccf26164751feda
                           .group:00000000 wm4.lvds_iodefine.h.29.c11cbe1900e5209c8dcc76c2336c16bc
                           .group:00000000 wm4.mtu_iodefine.h.29.5498fb974bb53caf05aa143c2deec781
                           .group:00000000 wm4.nandc_iodefine.h.29.e0b343306750f017ee86e169ad98efe9
                           .group:00000000 wm4.octa_iodefine.h.29.4cb0d62e4b9633e173858000dc1c626c
                           .group:00000000 wm4.ostm_iodefine.h.29.6914f7e330a1cf0008b34219adcdfed4
                           .group:00000000 wm4.pl_iodefine.h.29.abbb6d725aed990aa8343242bfe31416
                           .group:00000000 wm4.pmg_iodefine.h.29.8bcfbc4771a6f9b7dd4d6f504427219e
                           .group:00000000 wm4.poeg_iodefine.h.29.0d8e258d10986260cbc70cfb8c0ef273
                           .group:00000000 wm4.poe_iodefine.h.29.fe74e55e7b6b4afbe3596c74ba035e98
                           .group:00000000 wm4.prr_iodefine.h.29.c1f15576f7a27b9c83aa3b40f5b2f988
                           .group:00000000 wm4.ptpedmac_iodefine.h.29.cd24a93374ce35cebc41e26889d619ef
                           .group:00000000 wm4.rcanfd_iodefine.h.29.532dd48b82fcb61d63538aba4b6f1289
                           .group:00000000 wm4.rcan_iodefine.h.29.a47a89db1b35c12b54af48fa1956acba
                           .group:00000000 wm4.riic_iodefine.h.29.f96943d49800d297612c4af3bba5c943
                           .group:00000000 wm4.rspi_iodefine.h.29.7efa041fe34a7d27db66a7b337879dfe
                           .group:00000000 wm4.rtc_iodefine.h.29.6dc76be5ca3df69cecb5a81d06cc46b5
                           .group:00000000 wm4.scifa_iodefine.h.29.b04ccd664d71baaf31c75761c45b9c4d
                           .group:00000000 wm4.scim_iodefine.h.29.87d0760abf94446b00d826c797bf0ff2
                           .group:00000000 wm4.sdmmc_iodefine.h.29.e67e9815445e8057a3262d1566bea0db
                           .group:00000000 wm4.spdif_iodefine.h.29.59f5d70150fa200a4d8ee50be1ee34c8
                           .group:00000000 wm4.spibsc_iodefine.h.29.f4930f8b8da1140200204513a363c76f
                           .group:00000000 wm4.sprite_iodefine.h.29.55796d1fa083a2457fea4ece974a192e
                           .group:00000000 wm4.ssif_iodefine.h.29.054ec6d95f487f631f16aee39c85c47a
                           .group:00000000 wm4.usb_iodefine.h.29.6dc44ea388ba227e8fdcfb33c315887b
                           .group:00000000 wm4.vdc_iodefine.h.29.db282ded1f052d8567fbbd3b61ce8f7a
                           .group:00000000 wm4.vin_iodefine.h.29.9b392e5601347d53e64be3272934e170
                           .group:00000000 wm4.wdt_iodefine.h.29.ed07bb44b797072f8c28b41c64fdca30
                           .group:00000000 wm4.r_gpio_lld_rza2m.h.35.96c370653fb2c866d018d89b2befa42a
                           .group:00000000 wm4.r_gpio_drv_api.h.82.65cb5059c23a4e3e6bc10574003162e6
                           .group:00000000 wm4.r_rza2m_riic_lld_cfg.h.34.420dadece52c9d581310a82d03ef7a9c
                           .group:00000000 wm4.r_rza2m_riic_lld_api.h.36.fbae5305df069aab4ee8737f6b4cc155
                           .group:00000000 wm4.r_riic_drv_sc_cfg.h.61.5b602d36b67415ece823db1792791a3e
                           .group:00000000 wm4.r_riic_drv_api.h.81.8cfa166374387345d2e15a569d3903b9
                           .group:00000000 wm4.r_riic_hld_prv.h.63.1956f8dba580a3079e75aa1856078b51

UNDEFINED SYMBOLS
direct_open
direct_control
direct_close
R_RIIC_DetectTimeoutStart
R_RIIC_DetectTimeoutStop
R_RIIC_ReleaseLowHold
R_RIIC_IsBusBusy
R_RIIC_TransmitStart
R_RIIC_WriteByte
R_RIIC_EnableTransEndIntr
R_RIIC_DisableTransEndIntr
R_RIIC_TransmitRestart
R_RIIC_TransmitAck
R_RIIC_ReadByte
R_RIIC_AssertLowHold
R_RIIC_TransmitNack
R_RIIC_TransmitStop
validate_channel
R_RIIC_CloseChannel
