   1              		.cpu cortex-a9
   2              		.eabi_attribute 28, 1
   3              		.eabi_attribute 20, 1
   4              		.eabi_attribute 21, 1
   5              		.eabi_attribute 23, 3
   6              		.eabi_attribute 24, 1
   7              		.eabi_attribute 25, 1
   8              		.eabi_attribute 26, 1
   9              		.eabi_attribute 30, 1
  10              		.eabi_attribute 34, 0
  11              		.eabi_attribute 18, 4
  12              		.file	"r_cache_lld_rza2m.c"
  13              		.text
  14              	.Ltext0:
  15              		.cfi_sections	.debug_frame
  16              		.section	.text.cache_l2_sync,"ax",%progbits
  17              		.align	2
  18              		.arch armv7-a
  19              		.arch_extension mp
  20              		.arch_extension sec
  21              		.syntax unified
  22              		.arm
  23              		.fpu neon
  25              	cache_l2_sync:
  26              	.LFB25:
  27              		.file 1 "../generate/drivers/r_cache/src/lld/r_cache_lld_rza2m.c"
   1:../generate/drivers/r_cache/src/lld/r_cache_lld_rza2m.c **** /*******************************************************************************
   2:../generate/drivers/r_cache/src/lld/r_cache_lld_rza2m.c **** * DISCLAIMER
   3:../generate/drivers/r_cache/src/lld/r_cache_lld_rza2m.c **** * This software is supplied by Renesas Electronics Corporation and is only
   4:../generate/drivers/r_cache/src/lld/r_cache_lld_rza2m.c **** * intended for use with Renesas products. No other uses are authorized. This
   5:../generate/drivers/r_cache/src/lld/r_cache_lld_rza2m.c **** * software is owned by Renesas Electronics Corporation and is protected under
   6:../generate/drivers/r_cache/src/lld/r_cache_lld_rza2m.c **** * all applicable laws, including copyright laws.
   7:../generate/drivers/r_cache/src/lld/r_cache_lld_rza2m.c **** * THIS SOFTWARE IS PROVIDED "AS IS" AND RENESAS MAKES NO WARRANTIES REGARDING
   8:../generate/drivers/r_cache/src/lld/r_cache_lld_rza2m.c **** * THIS SOFTWARE, WHETHER EXPRESS, IMPLIED OR STATUTORY, INCLUDING BUT NOT
   9:../generate/drivers/r_cache/src/lld/r_cache_lld_rza2m.c **** * LIMITED TO WARRANTIES OF MERCHANTABILITY, FITNESS FOR A PARTICULAR PURPOSE
  10:../generate/drivers/r_cache/src/lld/r_cache_lld_rza2m.c **** * AND NON-INFRINGEMENT. ALL SUCH WARRANTIES ARE EXPRESSLY DISCLAIMED.
  11:../generate/drivers/r_cache/src/lld/r_cache_lld_rza2m.c **** * TO THE MAXIMUM EXTENT PERMITTED NOT PROHIBITED BY LAW, NEITHER RENESAS
  12:../generate/drivers/r_cache/src/lld/r_cache_lld_rza2m.c **** * ELECTRONICS CORPORATION NOR ANY OF ITS AFFILIATED COMPANIES SHALL BE LIABLE
  13:../generate/drivers/r_cache/src/lld/r_cache_lld_rza2m.c **** * FOR ANY DIRECT, INDIRECT, SPECIAL, INCIDENTAL OR CONSEQUENTIAL DAMAGES FOR
  14:../generate/drivers/r_cache/src/lld/r_cache_lld_rza2m.c **** * ANY REASON RELATED TO THIS SOFTWARE, EVEN IF RENESAS OR ITS AFFILIATES HAVE
  15:../generate/drivers/r_cache/src/lld/r_cache_lld_rza2m.c **** * BEEN ADVISED OF THE POSSIBILITY OF SUCH DAMAGES.
  16:../generate/drivers/r_cache/src/lld/r_cache_lld_rza2m.c **** * Renesas reserves the right, without notice, to make changes to this software
  17:../generate/drivers/r_cache/src/lld/r_cache_lld_rza2m.c **** * and to discontinue the availability of this software. By using this software,
  18:../generate/drivers/r_cache/src/lld/r_cache_lld_rza2m.c **** * you agree to the additional terms and conditions found by accessing the
  19:../generate/drivers/r_cache/src/lld/r_cache_lld_rza2m.c **** * following link:
  20:../generate/drivers/r_cache/src/lld/r_cache_lld_rza2m.c **** * http://www.renesas.com/disclaimer
  21:../generate/drivers/r_cache/src/lld/r_cache_lld_rza2m.c **** * Copyright (C) 2018 Renesas Electronics Corporation. All rights reserved.
  22:../generate/drivers/r_cache/src/lld/r_cache_lld_rza2m.c **** *******************************************************************************/
  23:../generate/drivers/r_cache/src/lld/r_cache_lld_rza2m.c **** /*******************************************************************************
  24:../generate/drivers/r_cache/src/lld/r_cache_lld_rza2m.c **** * File Name    : r_cache_lld_rza2m.c
  25:../generate/drivers/r_cache/src/lld/r_cache_lld_rza2m.c **** * Version      : 1.0
  26:../generate/drivers/r_cache/src/lld/r_cache_lld_rza2m.c **** * Description  : Declaration of the Cortex-A9 Cache API function.
  27:../generate/drivers/r_cache/src/lld/r_cache_lld_rza2m.c **** *******************************************************************************/
  28:../generate/drivers/r_cache/src/lld/r_cache_lld_rza2m.c **** 
  29:../generate/drivers/r_cache/src/lld/r_cache_lld_rza2m.c **** /******************************************************************************
  30:../generate/drivers/r_cache/src/lld/r_cache_lld_rza2m.c **** Includes   <System Includes> , "Project Includes"
  31:../generate/drivers/r_cache/src/lld/r_cache_lld_rza2m.c **** ******************************************************************************/
  32:../generate/drivers/r_cache/src/lld/r_cache_lld_rza2m.c **** #include <stdint.h>
  33:../generate/drivers/r_cache/src/lld/r_cache_lld_rza2m.c **** #include "iodefine.h"
  34:../generate/drivers/r_cache/src/lld/r_cache_lld_rza2m.c **** #include "iobitmask.h"
  35:../generate/drivers/r_cache/src/lld/r_cache_lld_rza2m.c **** #include "rza_io_regrw.h"
  36:../generate/drivers/r_cache/src/lld/r_cache_lld_rza2m.c **** #include "r_cache_lld_rza2m.h"
  37:../generate/drivers/r_cache/src/lld/r_cache_lld_rza2m.c **** #include "r_cache_l1_rza2m_asm.h"
  38:../generate/drivers/r_cache/src/lld/r_cache_lld_rza2m.c **** #include "r_cache_rza2_config.h"
  39:../generate/drivers/r_cache/src/lld/r_cache_lld_rza2m.c **** 
  40:../generate/drivers/r_cache/src/lld/r_cache_lld_rza2m.c **** /******************************************************************************
  41:../generate/drivers/r_cache/src/lld/r_cache_lld_rza2m.c **** Typedef definitions
  42:../generate/drivers/r_cache/src/lld/r_cache_lld_rza2m.c **** ******************************************************************************/
  43:../generate/drivers/r_cache/src/lld/r_cache_lld_rza2m.c **** 
  44:../generate/drivers/r_cache/src/lld/r_cache_lld_rza2m.c **** /******************************************************************************
  45:../generate/drivers/r_cache/src/lld/r_cache_lld_rza2m.c **** Macro definitions
  46:../generate/drivers/r_cache/src/lld/r_cache_lld_rza2m.c **** ******************************************************************************/
  47:../generate/drivers/r_cache/src/lld/r_cache_lld_rza2m.c **** #define CACHE_PRV_ADDR_MAX                (0xFFFFFFFFuLL)
  48:../generate/drivers/r_cache/src/lld/r_cache_lld_rza2m.c **** #define CACHE_PRV_ADDR_MASK               (0xFFFFFFFFuLL)
  49:../generate/drivers/r_cache/src/lld/r_cache_lld_rza2m.c **** 
  50:../generate/drivers/r_cache/src/lld/r_cache_lld_rza2m.c **** #define CACHE_PRV_L1_OP_D_INV_ALL         (0)
  51:../generate/drivers/r_cache/src/lld/r_cache_lld_rza2m.c **** #define CACHE_PRV_L1_OP_D_CLEAN_ALL       (1)
  52:../generate/drivers/r_cache/src/lld/r_cache_lld_rza2m.c **** #define CACHE_PRV_L1_OP_D_CLEAN_INV_ALL   (2)
  53:../generate/drivers/r_cache/src/lld/r_cache_lld_rza2m.c **** 
  54:../generate/drivers/r_cache/src/lld/r_cache_lld_rza2m.c **** #define CACHE_PRV_CA9_LINE_SIZE           (0x20u)
  55:../generate/drivers/r_cache/src/lld/r_cache_lld_rza2m.c **** #define CACHE_PRV_CA9_LINE_MASK           (0xFFFFFFE0u)
  56:../generate/drivers/r_cache/src/lld/r_cache_lld_rza2m.c **** 
  57:../generate/drivers/r_cache/src/lld/r_cache_lld_rza2m.c **** #define CACHE_PRV_PL310_ALLWAYBITS_8      (0x00FFu)
  58:../generate/drivers/r_cache/src/lld/r_cache_lld_rza2m.c **** 
  59:../generate/drivers/r_cache/src/lld/r_cache_lld_rza2m.c **** #define CACHE_PRV_PL310_CACHE_LINE_SIZE   (0x20u)
  60:../generate/drivers/r_cache/src/lld/r_cache_lld_rza2m.c **** #define CACHE_PRV_PL310_CACHE_LINE_MASK   (0xFFFFFFE0u)
  61:../generate/drivers/r_cache/src/lld/r_cache_lld_rza2m.c **** 
  62:../generate/drivers/r_cache/src/lld/r_cache_lld_rza2m.c **** #define CACHE_PRV_PL310_ALLINT            (0x1FFu)
  63:../generate/drivers/r_cache/src/lld/r_cache_lld_rza2m.c **** 
  64:../generate/drivers/r_cache/src/lld/r_cache_lld_rza2m.c **** /******************************************************************************
  65:../generate/drivers/r_cache/src/lld/r_cache_lld_rza2m.c **** Imported global variables and functions (from other files)
  66:../generate/drivers/r_cache/src/lld/r_cache_lld_rza2m.c **** ******************************************************************************/
  67:../generate/drivers/r_cache/src/lld/r_cache_lld_rza2m.c **** 
  68:../generate/drivers/r_cache/src/lld/r_cache_lld_rza2m.c **** /******************************************************************************
  69:../generate/drivers/r_cache/src/lld/r_cache_lld_rza2m.c **** Exported global variables and functions (to be accessed by other files)
  70:../generate/drivers/r_cache/src/lld/r_cache_lld_rza2m.c **** ******************************************************************************/
  71:../generate/drivers/r_cache/src/lld/r_cache_lld_rza2m.c **** 
  72:../generate/drivers/r_cache/src/lld/r_cache_lld_rza2m.c **** /******************************************************************************
  73:../generate/drivers/r_cache/src/lld/r_cache_lld_rza2m.c **** Private global variables and functions
  74:../generate/drivers/r_cache/src/lld/r_cache_lld_rza2m.c **** ******************************************************************************/
  75:../generate/drivers/r_cache/src/lld/r_cache_lld_rza2m.c **** /*! Version Information */
  76:../generate/drivers/r_cache/src/lld/r_cache_lld_rza2m.c **** static const st_drv_info_t gs_lld_info =
  77:../generate/drivers/r_cache/src/lld/r_cache_lld_rza2m.c **** {
  78:../generate/drivers/r_cache/src/lld/r_cache_lld_rza2m.c ****     {
  79:../generate/drivers/r_cache/src/lld/r_cache_lld_rza2m.c ****         ((STDIO_CACHE_RZ_LLD_VERSION_MAJOR << 16) + STDIO_CACHE_RZ_LLD_VERSION_MINOR)
  80:../generate/drivers/r_cache/src/lld/r_cache_lld_rza2m.c ****     },
  81:../generate/drivers/r_cache/src/lld/r_cache_lld_rza2m.c ****     STDIO_CACHE_RZ_LLD_BUILD_NUM,
  82:../generate/drivers/r_cache/src/lld/r_cache_lld_rza2m.c ****     STDIO_CACHE_RZ_LLD_DRV_NAME
  83:../generate/drivers/r_cache/src/lld/r_cache_lld_rza2m.c **** };
  84:../generate/drivers/r_cache/src/lld/r_cache_lld_rza2m.c **** 
  85:../generate/drivers/r_cache/src/lld/r_cache_lld_rza2m.c **** static void cache_l2_sync(void);
  86:../generate/drivers/r_cache/src/lld/r_cache_lld_rza2m.c **** 
  87:../generate/drivers/r_cache/src/lld/r_cache_lld_rza2m.c **** /*******************************************************************************
  88:../generate/drivers/r_cache/src/lld/r_cache_lld_rza2m.c **** * Function Name: R_CACHE_L1Init
  89:../generate/drivers/r_cache/src/lld/r_cache_lld_rza2m.c **** * Description  : Initialize Cortex-A9 cache.
  90:../generate/drivers/r_cache/src/lld/r_cache_lld_rza2m.c **** * Arguments    : none
  91:../generate/drivers/r_cache/src/lld/r_cache_lld_rza2m.c **** * Return Value : none
  92:../generate/drivers/r_cache/src/lld/r_cache_lld_rza2m.c **** * Note         : Invalidate data cache must be executed by reset handler before
  93:../generate/drivers/r_cache/src/lld/r_cache_lld_rza2m.c **** *                processing of this function.
  94:../generate/drivers/r_cache/src/lld/r_cache_lld_rza2m.c **** *******************************************************************************/
  95:../generate/drivers/r_cache/src/lld/r_cache_lld_rza2m.c **** void R_CACHE_L1Init(void)
  96:../generate/drivers/r_cache/src/lld/r_cache_lld_rza2m.c **** {
  97:../generate/drivers/r_cache/src/lld/r_cache_lld_rza2m.c ****     /* Enable I,D cache */
  98:../generate/drivers/r_cache/src/lld/r_cache_lld_rza2m.c ****     R_CACHE_L1DataEnable();
  99:../generate/drivers/r_cache/src/lld/r_cache_lld_rza2m.c ****     R_CACHE_L1InstEnable();
 100:../generate/drivers/r_cache/src/lld/r_cache_lld_rza2m.c **** 
 101:../generate/drivers/r_cache/src/lld/r_cache_lld_rza2m.c ****     /* Enable branch prediction */
 102:../generate/drivers/r_cache/src/lld/r_cache_lld_rza2m.c ****     R_CACHE_L1BtacEnable();
 103:../generate/drivers/r_cache/src/lld/r_cache_lld_rza2m.c **** 
 104:../generate/drivers/r_cache/src/lld/r_cache_lld_rza2m.c ****     /* Enable prefetch */
 105:../generate/drivers/r_cache/src/lld/r_cache_lld_rza2m.c ****     R_CACHE_L1PrefetchEnable();
 106:../generate/drivers/r_cache/src/lld/r_cache_lld_rza2m.c **** 
 107:../generate/drivers/r_cache/src/lld/r_cache_lld_rza2m.c ****     r_cache_l1_cache_init();
 108:../generate/drivers/r_cache/src/lld/r_cache_lld_rza2m.c ****     return;
 109:../generate/drivers/r_cache/src/lld/r_cache_lld_rza2m.c **** }
 110:../generate/drivers/r_cache/src/lld/r_cache_lld_rza2m.c **** /*******************************************************************************
 111:../generate/drivers/r_cache/src/lld/r_cache_lld_rza2m.c **** End of function R_CACHE_L1Init
 112:../generate/drivers/r_cache/src/lld/r_cache_lld_rza2m.c **** *******************************************************************************/
 113:../generate/drivers/r_cache/src/lld/r_cache_lld_rza2m.c **** 
 114:../generate/drivers/r_cache/src/lld/r_cache_lld_rza2m.c **** /*******************************************************************************
 115:../generate/drivers/r_cache/src/lld/r_cache_lld_rza2m.c **** * Function Name: R_CACHE_L1InstInvalidAll
 116:../generate/drivers/r_cache/src/lld/r_cache_lld_rza2m.c **** * Description  : Invalidate whole of the Cortex-A9 cache.
 117:../generate/drivers/r_cache/src/lld/r_cache_lld_rza2m.c **** * Arguments    : none
 118:../generate/drivers/r_cache/src/lld/r_cache_lld_rza2m.c **** * Return Value : none
 119:../generate/drivers/r_cache/src/lld/r_cache_lld_rza2m.c **** *******************************************************************************/
 120:../generate/drivers/r_cache/src/lld/r_cache_lld_rza2m.c **** void R_CACHE_L1InstInvalidAll(void)
 121:../generate/drivers/r_cache/src/lld/r_cache_lld_rza2m.c **** {
 122:../generate/drivers/r_cache/src/lld/r_cache_lld_rza2m.c ****     r_cache_l1_i_inv_all();
 123:../generate/drivers/r_cache/src/lld/r_cache_lld_rza2m.c ****     return;
 124:../generate/drivers/r_cache/src/lld/r_cache_lld_rza2m.c **** }
 125:../generate/drivers/r_cache/src/lld/r_cache_lld_rza2m.c **** /*******************************************************************************
 126:../generate/drivers/r_cache/src/lld/r_cache_lld_rza2m.c **** End of function R_CACHE_L1InstInvalidAll
 127:../generate/drivers/r_cache/src/lld/r_cache_lld_rza2m.c **** *******************************************************************************/
 128:../generate/drivers/r_cache/src/lld/r_cache_lld_rza2m.c **** 
 129:../generate/drivers/r_cache/src/lld/r_cache_lld_rza2m.c **** /*******************************************************************************
 130:../generate/drivers/r_cache/src/lld/r_cache_lld_rza2m.c **** * Function Name: R_CACHE_L1DataInvalidAll
 131:../generate/drivers/r_cache/src/lld/r_cache_lld_rza2m.c **** * Description  : Invalidate whole of the Cortex-A9 cache.
 132:../generate/drivers/r_cache/src/lld/r_cache_lld_rza2m.c **** * Arguments    : none
 133:../generate/drivers/r_cache/src/lld/r_cache_lld_rza2m.c **** * Return Value : none
 134:../generate/drivers/r_cache/src/lld/r_cache_lld_rza2m.c **** *******************************************************************************/
 135:../generate/drivers/r_cache/src/lld/r_cache_lld_rza2m.c **** void R_CACHE_L1DataInvalidAll(void)
 136:../generate/drivers/r_cache/src/lld/r_cache_lld_rza2m.c **** {
 137:../generate/drivers/r_cache/src/lld/r_cache_lld_rza2m.c ****     r_cache_l1_d_cache_operation(CACHE_PRV_L1_OP_D_INV_ALL);
 138:../generate/drivers/r_cache/src/lld/r_cache_lld_rza2m.c ****     return;
 139:../generate/drivers/r_cache/src/lld/r_cache_lld_rza2m.c **** }
 140:../generate/drivers/r_cache/src/lld/r_cache_lld_rza2m.c **** /*******************************************************************************
 141:../generate/drivers/r_cache/src/lld/r_cache_lld_rza2m.c **** End of function R_CACHE_L1DataInvalidAll
 142:../generate/drivers/r_cache/src/lld/r_cache_lld_rza2m.c **** *******************************************************************************/
 143:../generate/drivers/r_cache/src/lld/r_cache_lld_rza2m.c **** 
 144:../generate/drivers/r_cache/src/lld/r_cache_lld_rza2m.c **** /*******************************************************************************
 145:../generate/drivers/r_cache/src/lld/r_cache_lld_rza2m.c **** * Function Name: R_CACHE_L1DataCleanAll
 146:../generate/drivers/r_cache/src/lld/r_cache_lld_rza2m.c **** * Description  : Clean whole of the Cortex-A9 cache.
 147:../generate/drivers/r_cache/src/lld/r_cache_lld_rza2m.c **** * Arguments    : none
 148:../generate/drivers/r_cache/src/lld/r_cache_lld_rza2m.c **** * Return Value : none
 149:../generate/drivers/r_cache/src/lld/r_cache_lld_rza2m.c **** *******************************************************************************/
 150:../generate/drivers/r_cache/src/lld/r_cache_lld_rza2m.c **** void R_CACHE_L1DataCleanAll(void)
 151:../generate/drivers/r_cache/src/lld/r_cache_lld_rza2m.c **** {
 152:../generate/drivers/r_cache/src/lld/r_cache_lld_rza2m.c ****     r_cache_l1_d_cache_operation(CACHE_PRV_L1_OP_D_CLEAN_ALL);
 153:../generate/drivers/r_cache/src/lld/r_cache_lld_rza2m.c ****     return;
 154:../generate/drivers/r_cache/src/lld/r_cache_lld_rza2m.c **** }
 155:../generate/drivers/r_cache/src/lld/r_cache_lld_rza2m.c **** /*******************************************************************************
 156:../generate/drivers/r_cache/src/lld/r_cache_lld_rza2m.c **** End of function R_CACHE_L1DataCleanAll
 157:../generate/drivers/r_cache/src/lld/r_cache_lld_rza2m.c **** *******************************************************************************/
 158:../generate/drivers/r_cache/src/lld/r_cache_lld_rza2m.c **** 
 159:../generate/drivers/r_cache/src/lld/r_cache_lld_rza2m.c **** /*******************************************************************************
 160:../generate/drivers/r_cache/src/lld/r_cache_lld_rza2m.c **** * Function Name: R_CACHE_L1DataCleanInvalidAll
 161:../generate/drivers/r_cache/src/lld/r_cache_lld_rza2m.c **** * Description  : Clean&invalidate whole of the Cortex-A9 cache.
 162:../generate/drivers/r_cache/src/lld/r_cache_lld_rza2m.c **** * Arguments    : none
 163:../generate/drivers/r_cache/src/lld/r_cache_lld_rza2m.c **** * Return Value : none
 164:../generate/drivers/r_cache/src/lld/r_cache_lld_rza2m.c **** *******************************************************************************/
 165:../generate/drivers/r_cache/src/lld/r_cache_lld_rza2m.c **** void R_CACHE_L1DataCleanInvalidAll(void)
 166:../generate/drivers/r_cache/src/lld/r_cache_lld_rza2m.c **** {
 167:../generate/drivers/r_cache/src/lld/r_cache_lld_rza2m.c ****     r_cache_l1_d_cache_operation(CACHE_PRV_L1_OP_D_CLEAN_INV_ALL);
 168:../generate/drivers/r_cache/src/lld/r_cache_lld_rza2m.c ****     return;
 169:../generate/drivers/r_cache/src/lld/r_cache_lld_rza2m.c **** }
 170:../generate/drivers/r_cache/src/lld/r_cache_lld_rza2m.c **** /*******************************************************************************
 171:../generate/drivers/r_cache/src/lld/r_cache_lld_rza2m.c **** End of function R_CACHE_L1DataCleanInvalidAll
 172:../generate/drivers/r_cache/src/lld/r_cache_lld_rza2m.c **** *******************************************************************************/
 173:../generate/drivers/r_cache/src/lld/r_cache_lld_rza2m.c **** 
 174:../generate/drivers/r_cache/src/lld/r_cache_lld_rza2m.c **** /*******************************************************************************
 175:../generate/drivers/r_cache/src/lld/r_cache_lld_rza2m.c **** * Function Name: R_CACHE_L1DataInvalidLine
 176:../generate/drivers/r_cache/src/lld/r_cache_lld_rza2m.c **** * Description  : Apply invalidate operation to the cache lines which is included
 177:../generate/drivers/r_cache/src/lld/r_cache_lld_rza2m.c **** *                in the specified address range.
 178:../generate/drivers/r_cache/src/lld/r_cache_lld_rza2m.c **** * Arguments    : line_addr -
 179:../generate/drivers/r_cache/src/lld/r_cache_lld_rza2m.c **** *                    Starting address of cache operation (virtual address).
 180:../generate/drivers/r_cache/src/lld/r_cache_lld_rza2m.c **** *                size -
 181:../generate/drivers/r_cache/src/lld/r_cache_lld_rza2m.c **** *                    The byte size from line_addr. 
 182:../generate/drivers/r_cache/src/lld/r_cache_lld_rza2m.c **** * Return Value : DRV_SUCCESS : successful
 183:../generate/drivers/r_cache/src/lld/r_cache_lld_rza2m.c **** *                DRV_ERROR   : address overflow
 184:../generate/drivers/r_cache/src/lld/r_cache_lld_rza2m.c **** *******************************************************************************/
 185:../generate/drivers/r_cache/src/lld/r_cache_lld_rza2m.c **** e_err_code_t R_CACHE_L1DataInvalidLine(void* line_addr, uint32_t size)
 186:../generate/drivers/r_cache/src/lld/r_cache_lld_rza2m.c **** {
 187:../generate/drivers/r_cache/src/lld/r_cache_lld_rza2m.c ****     e_err_code_t ret   = DRV_SUCCESS;
 188:../generate/drivers/r_cache/src/lld/r_cache_lld_rza2m.c **** 
 189:../generate/drivers/r_cache/src/lld/r_cache_lld_rza2m.c ****     /* Casting void type address to uint32_t is valid because there is no loss of information. */
 190:../generate/drivers/r_cache/src/lld/r_cache_lld_rza2m.c ****     uint32_t addr     = (((uint32_t)line_addr) & CACHE_PRV_CA9_LINE_MASK);
 191:../generate/drivers/r_cache/src/lld/r_cache_lld_rza2m.c **** 
 192:../generate/drivers/r_cache/src/lld/r_cache_lld_rza2m.c ****     /* Casting void type address to uint64_t is valid because there is no loss of information. */
 193:../generate/drivers/r_cache/src/lld/r_cache_lld_rza2m.c ****     uint64_t end_addr = ((uint64_t)((uint32_t)line_addr) & CACHE_PRV_ADDR_MASK) + ((uint64_t)size);
 194:../generate/drivers/r_cache/src/lld/r_cache_lld_rza2m.c **** 
 195:../generate/drivers/r_cache/src/lld/r_cache_lld_rza2m.c ****     if (CACHE_PRV_ADDR_MAX < end_addr)
 196:../generate/drivers/r_cache/src/lld/r_cache_lld_rza2m.c ****     {
 197:../generate/drivers/r_cache/src/lld/r_cache_lld_rza2m.c ****         ret = DRV_ERROR;
 198:../generate/drivers/r_cache/src/lld/r_cache_lld_rza2m.c ****     }
 199:../generate/drivers/r_cache/src/lld/r_cache_lld_rza2m.c ****     else
 200:../generate/drivers/r_cache/src/lld/r_cache_lld_rza2m.c ****     {
 201:../generate/drivers/r_cache/src/lld/r_cache_lld_rza2m.c ****         for ( ; addr < end_addr; addr += CACHE_PRV_CA9_LINE_SIZE)
 202:../generate/drivers/r_cache/src/lld/r_cache_lld_rza2m.c ****         {
 203:../generate/drivers/r_cache/src/lld/r_cache_lld_rza2m.c ****             r_cache_l1_d_inv_mva(addr);
 204:../generate/drivers/r_cache/src/lld/r_cache_lld_rza2m.c ****         }
 205:../generate/drivers/r_cache/src/lld/r_cache_lld_rza2m.c ****     }
 206:../generate/drivers/r_cache/src/lld/r_cache_lld_rza2m.c ****     return ret;
 207:../generate/drivers/r_cache/src/lld/r_cache_lld_rza2m.c **** }
 208:../generate/drivers/r_cache/src/lld/r_cache_lld_rza2m.c **** /*******************************************************************************
 209:../generate/drivers/r_cache/src/lld/r_cache_lld_rza2m.c **** End of function R_CACHE_L1DataInvalidLine
 210:../generate/drivers/r_cache/src/lld/r_cache_lld_rza2m.c **** *******************************************************************************/
 211:../generate/drivers/r_cache/src/lld/r_cache_lld_rza2m.c **** 
 212:../generate/drivers/r_cache/src/lld/r_cache_lld_rza2m.c **** /*******************************************************************************
 213:../generate/drivers/r_cache/src/lld/r_cache_lld_rza2m.c **** * Function Name: R_CACHE_L1DataCleanLine
 214:../generate/drivers/r_cache/src/lld/r_cache_lld_rza2m.c **** * Description  : Apply clean operation to the cache lines which is included
 215:../generate/drivers/r_cache/src/lld/r_cache_lld_rza2m.c **** *                in the specified address range.
 216:../generate/drivers/r_cache/src/lld/r_cache_lld_rza2m.c **** * Arguments    : line_addr -
 217:../generate/drivers/r_cache/src/lld/r_cache_lld_rza2m.c **** *                    Starting address of cache operation (virtual address).
 218:../generate/drivers/r_cache/src/lld/r_cache_lld_rza2m.c **** *                size -
 219:../generate/drivers/r_cache/src/lld/r_cache_lld_rza2m.c **** *                    The byte size from line_addr. 
 220:../generate/drivers/r_cache/src/lld/r_cache_lld_rza2m.c **** * Return Value : DRV_SUCCESS : successful
 221:../generate/drivers/r_cache/src/lld/r_cache_lld_rza2m.c **** *                DRV_ERROR   : address overflow
 222:../generate/drivers/r_cache/src/lld/r_cache_lld_rza2m.c **** *******************************************************************************/
 223:../generate/drivers/r_cache/src/lld/r_cache_lld_rza2m.c **** e_err_code_t R_CACHE_L1DataCleanLine(void* line_addr, uint32_t size)
 224:../generate/drivers/r_cache/src/lld/r_cache_lld_rza2m.c **** {
 225:../generate/drivers/r_cache/src/lld/r_cache_lld_rza2m.c ****     e_err_code_t ret   = DRV_SUCCESS;
 226:../generate/drivers/r_cache/src/lld/r_cache_lld_rza2m.c **** 
 227:../generate/drivers/r_cache/src/lld/r_cache_lld_rza2m.c ****     /* Casting void type address to uint32_t is valid because there is no loss of information. */
 228:../generate/drivers/r_cache/src/lld/r_cache_lld_rza2m.c ****     uint32_t addr     = (((uint32_t)line_addr) & CACHE_PRV_CA9_LINE_MASK);
 229:../generate/drivers/r_cache/src/lld/r_cache_lld_rza2m.c **** 
 230:../generate/drivers/r_cache/src/lld/r_cache_lld_rza2m.c ****     /* Casting void type address to uint64_t is valid because there is no loss of information. */
 231:../generate/drivers/r_cache/src/lld/r_cache_lld_rza2m.c ****     uint64_t end_addr = ((uint64_t)((uint32_t)line_addr) & CACHE_PRV_ADDR_MASK) + ((uint64_t)size);
 232:../generate/drivers/r_cache/src/lld/r_cache_lld_rza2m.c **** 
 233:../generate/drivers/r_cache/src/lld/r_cache_lld_rza2m.c ****     if (CACHE_PRV_ADDR_MAX < end_addr)
 234:../generate/drivers/r_cache/src/lld/r_cache_lld_rza2m.c ****     {
 235:../generate/drivers/r_cache/src/lld/r_cache_lld_rza2m.c ****         ret = DRV_ERROR;
 236:../generate/drivers/r_cache/src/lld/r_cache_lld_rza2m.c ****     }
 237:../generate/drivers/r_cache/src/lld/r_cache_lld_rza2m.c ****     else
 238:../generate/drivers/r_cache/src/lld/r_cache_lld_rza2m.c ****     {
 239:../generate/drivers/r_cache/src/lld/r_cache_lld_rza2m.c ****         for ( ; addr < end_addr; addr += CACHE_PRV_CA9_LINE_SIZE)
 240:../generate/drivers/r_cache/src/lld/r_cache_lld_rza2m.c ****         {
 241:../generate/drivers/r_cache/src/lld/r_cache_lld_rza2m.c ****             r_cache_l1_d_clean_mva(addr);
 242:../generate/drivers/r_cache/src/lld/r_cache_lld_rza2m.c ****         }
 243:../generate/drivers/r_cache/src/lld/r_cache_lld_rza2m.c ****     }
 244:../generate/drivers/r_cache/src/lld/r_cache_lld_rza2m.c ****     return ret;
 245:../generate/drivers/r_cache/src/lld/r_cache_lld_rza2m.c **** }
 246:../generate/drivers/r_cache/src/lld/r_cache_lld_rza2m.c **** /*******************************************************************************
 247:../generate/drivers/r_cache/src/lld/r_cache_lld_rza2m.c **** End of function R_CACHE_L1DataCleanLine
 248:../generate/drivers/r_cache/src/lld/r_cache_lld_rza2m.c **** *******************************************************************************/
 249:../generate/drivers/r_cache/src/lld/r_cache_lld_rza2m.c **** 
 250:../generate/drivers/r_cache/src/lld/r_cache_lld_rza2m.c **** /*******************************************************************************
 251:../generate/drivers/r_cache/src/lld/r_cache_lld_rza2m.c **** * Function Name: R_CACHE_L1DataCleanInvalidLine
 252:../generate/drivers/r_cache/src/lld/r_cache_lld_rza2m.c **** * Description  : Apply clean&invalidate operation to the cache lines which is
 253:../generate/drivers/r_cache/src/lld/r_cache_lld_rza2m.c **** *                included in the specified address range.
 254:../generate/drivers/r_cache/src/lld/r_cache_lld_rza2m.c **** * Arguments    : line_addr -
 255:../generate/drivers/r_cache/src/lld/r_cache_lld_rza2m.c **** *                    Starting address of cache operation (virtual address).
 256:../generate/drivers/r_cache/src/lld/r_cache_lld_rza2m.c **** *                size -
 257:../generate/drivers/r_cache/src/lld/r_cache_lld_rza2m.c **** *                    The byte size from line_addr. 
 258:../generate/drivers/r_cache/src/lld/r_cache_lld_rza2m.c **** * Return Value : DRV_SUCCESS : successful
 259:../generate/drivers/r_cache/src/lld/r_cache_lld_rza2m.c **** *                DRV_ERROR   : address overflow
 260:../generate/drivers/r_cache/src/lld/r_cache_lld_rza2m.c **** *******************************************************************************/
 261:../generate/drivers/r_cache/src/lld/r_cache_lld_rza2m.c **** e_err_code_t R_CACHE_L1DataCleanInvalidLine(void* line_addr, uint32_t size)
 262:../generate/drivers/r_cache/src/lld/r_cache_lld_rza2m.c **** {
 263:../generate/drivers/r_cache/src/lld/r_cache_lld_rza2m.c ****     e_err_code_t ret   = DRV_SUCCESS;
 264:../generate/drivers/r_cache/src/lld/r_cache_lld_rza2m.c **** 
 265:../generate/drivers/r_cache/src/lld/r_cache_lld_rza2m.c ****     /* Casting void type address to uint32_t is valid because there is no loss of information. */
 266:../generate/drivers/r_cache/src/lld/r_cache_lld_rza2m.c ****     uint32_t addr     = (((uint32_t)line_addr) & CACHE_PRV_CA9_LINE_MASK);
 267:../generate/drivers/r_cache/src/lld/r_cache_lld_rza2m.c **** 
 268:../generate/drivers/r_cache/src/lld/r_cache_lld_rza2m.c ****     /* Casting void type address to uint64_t is valid because there is no loss of information. */
 269:../generate/drivers/r_cache/src/lld/r_cache_lld_rza2m.c ****     uint64_t end_addr = ((uint64_t)((uint32_t)line_addr) & CACHE_PRV_ADDR_MASK) + ((uint64_t)size);
 270:../generate/drivers/r_cache/src/lld/r_cache_lld_rza2m.c **** 
 271:../generate/drivers/r_cache/src/lld/r_cache_lld_rza2m.c ****     if (CACHE_PRV_ADDR_MAX < end_addr)
 272:../generate/drivers/r_cache/src/lld/r_cache_lld_rza2m.c ****     {
 273:../generate/drivers/r_cache/src/lld/r_cache_lld_rza2m.c ****         ret = DRV_ERROR;
 274:../generate/drivers/r_cache/src/lld/r_cache_lld_rza2m.c ****     }
 275:../generate/drivers/r_cache/src/lld/r_cache_lld_rza2m.c ****     else
 276:../generate/drivers/r_cache/src/lld/r_cache_lld_rza2m.c ****     {
 277:../generate/drivers/r_cache/src/lld/r_cache_lld_rza2m.c ****         for ( ; addr < end_addr; addr += CACHE_PRV_CA9_LINE_SIZE)
 278:../generate/drivers/r_cache/src/lld/r_cache_lld_rza2m.c ****         {
 279:../generate/drivers/r_cache/src/lld/r_cache_lld_rza2m.c ****             r_cache_l1_d_clean_inv_mva(addr);
 280:../generate/drivers/r_cache/src/lld/r_cache_lld_rza2m.c ****         }
 281:../generate/drivers/r_cache/src/lld/r_cache_lld_rza2m.c ****     }
 282:../generate/drivers/r_cache/src/lld/r_cache_lld_rza2m.c ****     return ret;
 283:../generate/drivers/r_cache/src/lld/r_cache_lld_rza2m.c **** }
 284:../generate/drivers/r_cache/src/lld/r_cache_lld_rza2m.c **** /*******************************************************************************
 285:../generate/drivers/r_cache/src/lld/r_cache_lld_rza2m.c **** End of function R_CACHE_L1DataCleanInvalidLine
 286:../generate/drivers/r_cache/src/lld/r_cache_lld_rza2m.c **** *******************************************************************************/
 287:../generate/drivers/r_cache/src/lld/r_cache_lld_rza2m.c **** 
 288:../generate/drivers/r_cache/src/lld/r_cache_lld_rza2m.c **** /*******************************************************************************
 289:../generate/drivers/r_cache/src/lld/r_cache_lld_rza2m.c **** * Function Name: R_CACHE_L1InstEnable
 290:../generate/drivers/r_cache/src/lld/r_cache_lld_rza2m.c **** * Description  : Enable the Cortex-A9 L1 cache.
 291:../generate/drivers/r_cache/src/lld/r_cache_lld_rza2m.c **** * Arguments    : none
 292:../generate/drivers/r_cache/src/lld/r_cache_lld_rza2m.c **** * Return Value : none
 293:../generate/drivers/r_cache/src/lld/r_cache_lld_rza2m.c **** *******************************************************************************/
 294:../generate/drivers/r_cache/src/lld/r_cache_lld_rza2m.c **** void R_CACHE_L1InstEnable(void)
 295:../generate/drivers/r_cache/src/lld/r_cache_lld_rza2m.c **** {
 296:../generate/drivers/r_cache/src/lld/r_cache_lld_rza2m.c ****     r_cache_l1_i_enable();
 297:../generate/drivers/r_cache/src/lld/r_cache_lld_rza2m.c ****     return;
 298:../generate/drivers/r_cache/src/lld/r_cache_lld_rza2m.c **** }
 299:../generate/drivers/r_cache/src/lld/r_cache_lld_rza2m.c **** /*******************************************************************************
 300:../generate/drivers/r_cache/src/lld/r_cache_lld_rza2m.c **** End of function R_CACHE_L1InstEnable
 301:../generate/drivers/r_cache/src/lld/r_cache_lld_rza2m.c **** *******************************************************************************/
 302:../generate/drivers/r_cache/src/lld/r_cache_lld_rza2m.c **** 
 303:../generate/drivers/r_cache/src/lld/r_cache_lld_rza2m.c **** /*******************************************************************************
 304:../generate/drivers/r_cache/src/lld/r_cache_lld_rza2m.c **** * Function Name: R_CACHE_L1InstDisable
 305:../generate/drivers/r_cache/src/lld/r_cache_lld_rza2m.c **** * Description  : Disable the Cortex-A9 L1 instruction cache.
 306:../generate/drivers/r_cache/src/lld/r_cache_lld_rza2m.c **** * Arguments    : none
 307:../generate/drivers/r_cache/src/lld/r_cache_lld_rza2m.c **** * Return Value : none
 308:../generate/drivers/r_cache/src/lld/r_cache_lld_rza2m.c **** *******************************************************************************/
 309:../generate/drivers/r_cache/src/lld/r_cache_lld_rza2m.c **** void R_CACHE_L1InstDisable(void)
 310:../generate/drivers/r_cache/src/lld/r_cache_lld_rza2m.c **** {
 311:../generate/drivers/r_cache/src/lld/r_cache_lld_rza2m.c ****     r_cache_l1_i_disable();
 312:../generate/drivers/r_cache/src/lld/r_cache_lld_rza2m.c ****     return;
 313:../generate/drivers/r_cache/src/lld/r_cache_lld_rza2m.c **** }
 314:../generate/drivers/r_cache/src/lld/r_cache_lld_rza2m.c **** /*******************************************************************************
 315:../generate/drivers/r_cache/src/lld/r_cache_lld_rza2m.c **** End of function R_CACHE_L1InstDisable
 316:../generate/drivers/r_cache/src/lld/r_cache_lld_rza2m.c **** *******************************************************************************/
 317:../generate/drivers/r_cache/src/lld/r_cache_lld_rza2m.c **** 
 318:../generate/drivers/r_cache/src/lld/r_cache_lld_rza2m.c **** /*******************************************************************************
 319:../generate/drivers/r_cache/src/lld/r_cache_lld_rza2m.c **** * Function Name: R_CACHE_L1DataEnable
 320:../generate/drivers/r_cache/src/lld/r_cache_lld_rza2m.c **** * Description  : Enable the Cortex-A9 L1 data cache.
 321:../generate/drivers/r_cache/src/lld/r_cache_lld_rza2m.c **** * Arguments    : none
 322:../generate/drivers/r_cache/src/lld/r_cache_lld_rza2m.c **** * Return Value : none
 323:../generate/drivers/r_cache/src/lld/r_cache_lld_rza2m.c **** *******************************************************************************/
 324:../generate/drivers/r_cache/src/lld/r_cache_lld_rza2m.c **** void R_CACHE_L1DataEnable(void)
 325:../generate/drivers/r_cache/src/lld/r_cache_lld_rza2m.c **** {
 326:../generate/drivers/r_cache/src/lld/r_cache_lld_rza2m.c ****     r_cache_l1_d_enable();
 327:../generate/drivers/r_cache/src/lld/r_cache_lld_rza2m.c ****     return;
 328:../generate/drivers/r_cache/src/lld/r_cache_lld_rza2m.c **** }
 329:../generate/drivers/r_cache/src/lld/r_cache_lld_rza2m.c **** /*******************************************************************************
 330:../generate/drivers/r_cache/src/lld/r_cache_lld_rza2m.c **** End of function R_CACHE_L1DataEnable
 331:../generate/drivers/r_cache/src/lld/r_cache_lld_rza2m.c **** *******************************************************************************/
 332:../generate/drivers/r_cache/src/lld/r_cache_lld_rza2m.c **** 
 333:../generate/drivers/r_cache/src/lld/r_cache_lld_rza2m.c **** /*******************************************************************************
 334:../generate/drivers/r_cache/src/lld/r_cache_lld_rza2m.c **** * Function Name: R_CACHE_L1DataDisable
 335:../generate/drivers/r_cache/src/lld/r_cache_lld_rza2m.c **** * Description  : Disable the Cortex-A9 L1 data cache.
 336:../generate/drivers/r_cache/src/lld/r_cache_lld_rza2m.c **** * Arguments    : none
 337:../generate/drivers/r_cache/src/lld/r_cache_lld_rza2m.c **** * Return Value : none
 338:../generate/drivers/r_cache/src/lld/r_cache_lld_rza2m.c **** *******************************************************************************/
 339:../generate/drivers/r_cache/src/lld/r_cache_lld_rza2m.c **** void R_CACHE_L1DataDisable(void)
 340:../generate/drivers/r_cache/src/lld/r_cache_lld_rza2m.c **** {
 341:../generate/drivers/r_cache/src/lld/r_cache_lld_rza2m.c ****     r_cache_l1_d_disable();
 342:../generate/drivers/r_cache/src/lld/r_cache_lld_rza2m.c ****     return;
 343:../generate/drivers/r_cache/src/lld/r_cache_lld_rza2m.c **** }
 344:../generate/drivers/r_cache/src/lld/r_cache_lld_rza2m.c **** /*******************************************************************************
 345:../generate/drivers/r_cache/src/lld/r_cache_lld_rza2m.c **** End of function R_CACHE_L1DataDisable
 346:../generate/drivers/r_cache/src/lld/r_cache_lld_rza2m.c **** *******************************************************************************/
 347:../generate/drivers/r_cache/src/lld/r_cache_lld_rza2m.c **** 
 348:../generate/drivers/r_cache/src/lld/r_cache_lld_rza2m.c **** /*******************************************************************************
 349:../generate/drivers/r_cache/src/lld/r_cache_lld_rza2m.c **** * Function Name: R_CACHE_L1BtacEnable
 350:../generate/drivers/r_cache/src/lld/r_cache_lld_rza2m.c **** * Description  : Enable the Cortex-A9 branch prediction.
 351:../generate/drivers/r_cache/src/lld/r_cache_lld_rza2m.c **** * Arguments    : none
 352:../generate/drivers/r_cache/src/lld/r_cache_lld_rza2m.c **** * Return Value : none
 353:../generate/drivers/r_cache/src/lld/r_cache_lld_rza2m.c **** *******************************************************************************/
 354:../generate/drivers/r_cache/src/lld/r_cache_lld_rza2m.c **** void R_CACHE_L1BtacEnable(void)
 355:../generate/drivers/r_cache/src/lld/r_cache_lld_rza2m.c **** {
 356:../generate/drivers/r_cache/src/lld/r_cache_lld_rza2m.c ****     r_cache_l1_btac_enable();
 357:../generate/drivers/r_cache/src/lld/r_cache_lld_rza2m.c ****     return;
 358:../generate/drivers/r_cache/src/lld/r_cache_lld_rza2m.c **** }
 359:../generate/drivers/r_cache/src/lld/r_cache_lld_rza2m.c **** /*******************************************************************************
 360:../generate/drivers/r_cache/src/lld/r_cache_lld_rza2m.c **** End of function R_CACHE_L1BtacEnable
 361:../generate/drivers/r_cache/src/lld/r_cache_lld_rza2m.c **** *******************************************************************************/
 362:../generate/drivers/r_cache/src/lld/r_cache_lld_rza2m.c **** 
 363:../generate/drivers/r_cache/src/lld/r_cache_lld_rza2m.c **** /*******************************************************************************
 364:../generate/drivers/r_cache/src/lld/r_cache_lld_rza2m.c **** * Function Name: R_CACHE_L1BtacDisable
 365:../generate/drivers/r_cache/src/lld/r_cache_lld_rza2m.c **** * Description  : Disable the Cortex-A9 branch prediction.
 366:../generate/drivers/r_cache/src/lld/r_cache_lld_rza2m.c **** * Arguments    : none
 367:../generate/drivers/r_cache/src/lld/r_cache_lld_rza2m.c **** * Return Value : none
 368:../generate/drivers/r_cache/src/lld/r_cache_lld_rza2m.c **** *******************************************************************************/
 369:../generate/drivers/r_cache/src/lld/r_cache_lld_rza2m.c **** void R_CACHE_L1BtacDisable(void)
 370:../generate/drivers/r_cache/src/lld/r_cache_lld_rza2m.c **** {
 371:../generate/drivers/r_cache/src/lld/r_cache_lld_rza2m.c ****     r_cache_l1_btac_disable();
 372:../generate/drivers/r_cache/src/lld/r_cache_lld_rza2m.c ****     return;
 373:../generate/drivers/r_cache/src/lld/r_cache_lld_rza2m.c **** }
 374:../generate/drivers/r_cache/src/lld/r_cache_lld_rza2m.c **** /*******************************************************************************
 375:../generate/drivers/r_cache/src/lld/r_cache_lld_rza2m.c **** End of function R_CACHE_L1BtacDisable
 376:../generate/drivers/r_cache/src/lld/r_cache_lld_rza2m.c **** *******************************************************************************/
 377:../generate/drivers/r_cache/src/lld/r_cache_lld_rza2m.c **** 
 378:../generate/drivers/r_cache/src/lld/r_cache_lld_rza2m.c **** /*******************************************************************************
 379:../generate/drivers/r_cache/src/lld/r_cache_lld_rza2m.c **** * Function Name: R_CACHE_L1BtacInvalidate
 380:../generate/drivers/r_cache/src/lld/r_cache_lld_rza2m.c **** * Description  : Invalidate the Cortex-A9 branch predictor.
 381:../generate/drivers/r_cache/src/lld/r_cache_lld_rza2m.c **** * Arguments    : none
 382:../generate/drivers/r_cache/src/lld/r_cache_lld_rza2m.c **** * Return Value : none
 383:../generate/drivers/r_cache/src/lld/r_cache_lld_rza2m.c **** *******************************************************************************/
 384:../generate/drivers/r_cache/src/lld/r_cache_lld_rza2m.c **** void R_CACHE_L1BtacInvalidate(void)
 385:../generate/drivers/r_cache/src/lld/r_cache_lld_rza2m.c **** {
 386:../generate/drivers/r_cache/src/lld/r_cache_lld_rza2m.c ****     r_cache_l1_btac_inv();
 387:../generate/drivers/r_cache/src/lld/r_cache_lld_rza2m.c ****     return;
 388:../generate/drivers/r_cache/src/lld/r_cache_lld_rza2m.c **** }
 389:../generate/drivers/r_cache/src/lld/r_cache_lld_rza2m.c **** /*******************************************************************************
 390:../generate/drivers/r_cache/src/lld/r_cache_lld_rza2m.c **** End of function R_CACHE_L1BtacInvalidate
 391:../generate/drivers/r_cache/src/lld/r_cache_lld_rza2m.c **** *******************************************************************************/
 392:../generate/drivers/r_cache/src/lld/r_cache_lld_rza2m.c **** 
 393:../generate/drivers/r_cache/src/lld/r_cache_lld_rza2m.c **** /*******************************************************************************
 394:../generate/drivers/r_cache/src/lld/r_cache_lld_rza2m.c **** * Function Name: R_CACHE_L1PrefetchEnable
 395:../generate/drivers/r_cache/src/lld/r_cache_lld_rza2m.c **** * Description  : Enable the Cortex-A9 instruction and data prefetching.
 396:../generate/drivers/r_cache/src/lld/r_cache_lld_rza2m.c **** * Arguments    : none
 397:../generate/drivers/r_cache/src/lld/r_cache_lld_rza2m.c **** * Return Value : none
 398:../generate/drivers/r_cache/src/lld/r_cache_lld_rza2m.c **** *******************************************************************************/
 399:../generate/drivers/r_cache/src/lld/r_cache_lld_rza2m.c **** void R_CACHE_L1PrefetchEnable(void)
 400:../generate/drivers/r_cache/src/lld/r_cache_lld_rza2m.c **** {
 401:../generate/drivers/r_cache/src/lld/r_cache_lld_rza2m.c ****     r_cache_l1_prefetch_enable();
 402:../generate/drivers/r_cache/src/lld/r_cache_lld_rza2m.c ****     return;
 403:../generate/drivers/r_cache/src/lld/r_cache_lld_rza2m.c **** }
 404:../generate/drivers/r_cache/src/lld/r_cache_lld_rza2m.c **** /*******************************************************************************
 405:../generate/drivers/r_cache/src/lld/r_cache_lld_rza2m.c **** End of function R_CACHE_L1PrefetchEnable
 406:../generate/drivers/r_cache/src/lld/r_cache_lld_rza2m.c **** *******************************************************************************/
 407:../generate/drivers/r_cache/src/lld/r_cache_lld_rza2m.c **** 
 408:../generate/drivers/r_cache/src/lld/r_cache_lld_rza2m.c **** /*******************************************************************************
 409:../generate/drivers/r_cache/src/lld/r_cache_lld_rza2m.c **** * Function Name: R_CACHE_L1PrefetchDisable
 410:../generate/drivers/r_cache/src/lld/r_cache_lld_rza2m.c **** * Description  : Disable the Cortex-A9 instruction and data prefetching.
 411:../generate/drivers/r_cache/src/lld/r_cache_lld_rza2m.c **** * Arguments    : none
 412:../generate/drivers/r_cache/src/lld/r_cache_lld_rza2m.c **** * Return Value : none
 413:../generate/drivers/r_cache/src/lld/r_cache_lld_rza2m.c **** *******************************************************************************/
 414:../generate/drivers/r_cache/src/lld/r_cache_lld_rza2m.c **** void R_CACHE_L1PrefetchDisable(void)
 415:../generate/drivers/r_cache/src/lld/r_cache_lld_rza2m.c **** {
 416:../generate/drivers/r_cache/src/lld/r_cache_lld_rza2m.c ****     r_cache_l1_prefetch_disable();
 417:../generate/drivers/r_cache/src/lld/r_cache_lld_rza2m.c ****     return;
 418:../generate/drivers/r_cache/src/lld/r_cache_lld_rza2m.c **** }
 419:../generate/drivers/r_cache/src/lld/r_cache_lld_rza2m.c **** /*******************************************************************************
 420:../generate/drivers/r_cache/src/lld/r_cache_lld_rza2m.c **** End of function R_CACHE_L1PrefetchDisable
 421:../generate/drivers/r_cache/src/lld/r_cache_lld_rza2m.c **** *******************************************************************************/
 422:../generate/drivers/r_cache/src/lld/r_cache_lld_rza2m.c **** 
 423:../generate/drivers/r_cache/src/lld/r_cache_lld_rza2m.c **** /*******************************************************************************
 424:../generate/drivers/r_cache/src/lld/r_cache_lld_rza2m.c **** * Function Name: R_CACHE_L2Init
 425:../generate/drivers/r_cache/src/lld/r_cache_lld_rza2m.c **** * Description  : Initialize PL310.
 426:../generate/drivers/r_cache/src/lld/r_cache_lld_rza2m.c **** * Arguments    : none
 427:../generate/drivers/r_cache/src/lld/r_cache_lld_rza2m.c **** * Return Value : none
 428:../generate/drivers/r_cache/src/lld/r_cache_lld_rza2m.c **** *******************************************************************************/
 429:../generate/drivers/r_cache/src/lld/r_cache_lld_rza2m.c **** void R_CACHE_L2Init(void)
 430:../generate/drivers/r_cache/src/lld/r_cache_lld_rza2m.c **** {
 431:../generate/drivers/r_cache/src/lld/r_cache_lld_rza2m.c ****     /* You must disable the L2 cache by writing to the Control Register 1 before
 432:../generate/drivers/r_cache/src/lld/r_cache_lld_rza2m.c ****      * writing to the Auxiliary, Tag RAM Latency, or Data RAM Latency Control
 433:../generate/drivers/r_cache/src/lld/r_cache_lld_rza2m.c ****      * Register.
 434:../generate/drivers/r_cache/src/lld/r_cache_lld_rza2m.c ****      */
 435:../generate/drivers/r_cache/src/lld/r_cache_lld_rza2m.c ****     R_CACHE_L2CacheDisable();
 436:../generate/drivers/r_cache/src/lld/r_cache_lld_rza2m.c **** 
 437:../generate/drivers/r_cache/src/lld/r_cache_lld_rza2m.c ****     /* 1. Write to the Auxiliary, Tag RAM Latency, Data RAM Latency, Prefetch,
 438:../generate/drivers/r_cache/src/lld/r_cache_lld_rza2m.c ****      *    and Power Control registers using a read-modify-write to set up global
 439:../generate/drivers/r_cache/src/lld/r_cache_lld_rza2m.c ****      * configurations:
 440:../generate/drivers/r_cache/src/lld/r_cache_lld_rza2m.c ****      */
 441:../generate/drivers/r_cache/src/lld/r_cache_lld_rza2m.c ****     R_CACHE_L2PrefetchEnable();
 442:../generate/drivers/r_cache/src/lld/r_cache_lld_rza2m.c **** 
 443:../generate/drivers/r_cache/src/lld/r_cache_lld_rza2m.c ****     /* 2. Secure write to the Invalidate by Way, offset 0x77C, to invalidate all
 444:../generate/drivers/r_cache/src/lld/r_cache_lld_rza2m.c ****      * entries in cache:
 445:../generate/drivers/r_cache/src/lld/r_cache_lld_rza2m.c ****      */
 446:../generate/drivers/r_cache/src/lld/r_cache_lld_rza2m.c ****     R_CACHE_L2InvalidAll();
 447:../generate/drivers/r_cache/src/lld/r_cache_lld_rza2m.c **** 
 448:../generate/drivers/r_cache/src/lld/r_cache_lld_rza2m.c ****     /* 3. Write to the Lockdown D and Lockdown I Register 9 if required. */
 449:../generate/drivers/r_cache/src/lld/r_cache_lld_rza2m.c ****     /* use default */
 450:../generate/drivers/r_cache/src/lld/r_cache_lld_rza2m.c **** 
 451:../generate/drivers/r_cache/src/lld/r_cache_lld_rza2m.c ****     /* 4. Write to interrupt clear register to clear any residual raw interrupts set. */
 452:../generate/drivers/r_cache/src/lld/r_cache_lld_rza2m.c ****     RZA_IO_RegWrite_32(&pl310.REG2_INT_CLEAR.LONG, CACHE_PRV_PL310_ALLINT, IOREG_NONSHIFT_ACCESS, I
 453:../generate/drivers/r_cache/src/lld/r_cache_lld_rza2m.c **** 
 454:../generate/drivers/r_cache/src/lld/r_cache_lld_rza2m.c ****     /* 5. Write to the Interrupt Mask Register if you want to enable interrupts. */
 455:../generate/drivers/r_cache/src/lld/r_cache_lld_rza2m.c ****     /* do nothing */
 456:../generate/drivers/r_cache/src/lld/r_cache_lld_rza2m.c **** 
 457:../generate/drivers/r_cache/src/lld/r_cache_lld_rza2m.c ****     /* 6. Write to Control Register 1 with the LSB set to 1 to enable the cache.
 458:../generate/drivers/r_cache/src/lld/r_cache_lld_rza2m.c ****      */
 459:../generate/drivers/r_cache/src/lld/r_cache_lld_rza2m.c ****     R_CACHE_L2CacheEnable();
 460:../generate/drivers/r_cache/src/lld/r_cache_lld_rza2m.c ****     return;
 461:../generate/drivers/r_cache/src/lld/r_cache_lld_rza2m.c **** }
 462:../generate/drivers/r_cache/src/lld/r_cache_lld_rza2m.c **** /*******************************************************************************
 463:../generate/drivers/r_cache/src/lld/r_cache_lld_rza2m.c **** End of function R_CACHE_L2Init
 464:../generate/drivers/r_cache/src/lld/r_cache_lld_rza2m.c **** *******************************************************************************/
 465:../generate/drivers/r_cache/src/lld/r_cache_lld_rza2m.c **** 
 466:../generate/drivers/r_cache/src/lld/r_cache_lld_rza2m.c **** /*******************************************************************************
 467:../generate/drivers/r_cache/src/lld/r_cache_lld_rza2m.c **** * Function Name: R_CACHE_L2CacheEnable
 468:../generate/drivers/r_cache/src/lld/r_cache_lld_rza2m.c **** * Description  : Enable the PL310 L2 cache.
 469:../generate/drivers/r_cache/src/lld/r_cache_lld_rza2m.c **** * Arguments    : none
 470:../generate/drivers/r_cache/src/lld/r_cache_lld_rza2m.c **** * Return Value : none
 471:../generate/drivers/r_cache/src/lld/r_cache_lld_rza2m.c **** *******************************************************************************/
 472:../generate/drivers/r_cache/src/lld/r_cache_lld_rza2m.c **** void R_CACHE_L2CacheEnable(void)
 473:../generate/drivers/r_cache/src/lld/r_cache_lld_rza2m.c **** {
 474:../generate/drivers/r_cache/src/lld/r_cache_lld_rza2m.c ****     /* Casting the pointer to a uint32_t type is valid because "unsigned long" is same 4byte unsign
 475:../generate/drivers/r_cache/src/lld/r_cache_lld_rza2m.c ****     RZA_IO_RegWrite_32(&pl310.REG1_CONTROL.LONG, 1, IOREG_NONSHIFT_ACCESS, IOREG_NONMASK_ACCESS);
 476:../generate/drivers/r_cache/src/lld/r_cache_lld_rza2m.c ****     cache_l2_sync();
 477:../generate/drivers/r_cache/src/lld/r_cache_lld_rza2m.c ****     return;
 478:../generate/drivers/r_cache/src/lld/r_cache_lld_rza2m.c **** }
 479:../generate/drivers/r_cache/src/lld/r_cache_lld_rza2m.c **** /*******************************************************************************
 480:../generate/drivers/r_cache/src/lld/r_cache_lld_rza2m.c **** End of function R_CACHE_L2CacheEnable
 481:../generate/drivers/r_cache/src/lld/r_cache_lld_rza2m.c **** *******************************************************************************/
 482:../generate/drivers/r_cache/src/lld/r_cache_lld_rza2m.c **** 
 483:../generate/drivers/r_cache/src/lld/r_cache_lld_rza2m.c **** /*******************************************************************************
 484:../generate/drivers/r_cache/src/lld/r_cache_lld_rza2m.c **** * Function Name: R_CACHE_L2CacheDisable
 485:../generate/drivers/r_cache/src/lld/r_cache_lld_rza2m.c **** * Description  : Disable the PL310 L2 cache.
 486:../generate/drivers/r_cache/src/lld/r_cache_lld_rza2m.c **** * Arguments    : none
 487:../generate/drivers/r_cache/src/lld/r_cache_lld_rza2m.c **** * Return Value : none
 488:../generate/drivers/r_cache/src/lld/r_cache_lld_rza2m.c **** *******************************************************************************/
 489:../generate/drivers/r_cache/src/lld/r_cache_lld_rza2m.c **** void R_CACHE_L2CacheDisable(void)
 490:../generate/drivers/r_cache/src/lld/r_cache_lld_rza2m.c **** {
 491:../generate/drivers/r_cache/src/lld/r_cache_lld_rza2m.c ****     /* Casting the pointer to a uint32_t type is valid because "unsigned long" is same 4byte unsign
 492:../generate/drivers/r_cache/src/lld/r_cache_lld_rza2m.c ****     RZA_IO_RegWrite_32(&pl310.REG1_CONTROL.LONG, 0, IOREG_NONSHIFT_ACCESS, IOREG_NONMASK_ACCESS);
 493:../generate/drivers/r_cache/src/lld/r_cache_lld_rza2m.c ****     cache_l2_sync();
 494:../generate/drivers/r_cache/src/lld/r_cache_lld_rza2m.c ****     return;
 495:../generate/drivers/r_cache/src/lld/r_cache_lld_rza2m.c **** }
 496:../generate/drivers/r_cache/src/lld/r_cache_lld_rza2m.c **** /*******************************************************************************
 497:../generate/drivers/r_cache/src/lld/r_cache_lld_rza2m.c **** End of function R_CACHE_L2CacheDisable
 498:../generate/drivers/r_cache/src/lld/r_cache_lld_rza2m.c **** *******************************************************************************/
 499:../generate/drivers/r_cache/src/lld/r_cache_lld_rza2m.c **** 
 500:../generate/drivers/r_cache/src/lld/r_cache_lld_rza2m.c **** /*******************************************************************************
 501:../generate/drivers/r_cache/src/lld/r_cache_lld_rza2m.c **** * Function Name: R_CACHE_L2PrefetchEnable
 502:../generate/drivers/r_cache/src/lld/r_cache_lld_rza2m.c **** * Description  : Enable the PL310 instruction and data prefetching.
 503:../generate/drivers/r_cache/src/lld/r_cache_lld_rza2m.c **** * Arguments    : none
 504:../generate/drivers/r_cache/src/lld/r_cache_lld_rza2m.c **** * Return Value : none
 505:../generate/drivers/r_cache/src/lld/r_cache_lld_rza2m.c **** *******************************************************************************/
 506:../generate/drivers/r_cache/src/lld/r_cache_lld_rza2m.c **** void R_CACHE_L2PrefetchEnable(void)
 507:../generate/drivers/r_cache/src/lld/r_cache_lld_rza2m.c **** {
 508:../generate/drivers/r_cache/src/lld/r_cache_lld_rza2m.c ****     uint32_t reg32;
 509:../generate/drivers/r_cache/src/lld/r_cache_lld_rza2m.c **** 
 510:../generate/drivers/r_cache/src/lld/r_cache_lld_rza2m.c ****     /* Casting the pointer to a uint32_t type is valid because "unsigned long" is same 4byte unsign
 511:../generate/drivers/r_cache/src/lld/r_cache_lld_rza2m.c ****     reg32 = RZA_IO_RegRead_32(&pl310.REG15_PREFETCH_CTRL.LONG, IOREG_NONSHIFT_ACCESS, IOREG_NONMASK
 512:../generate/drivers/r_cache/src/lld/r_cache_lld_rza2m.c **** 
 513:../generate/drivers/r_cache/src/lld/r_cache_lld_rza2m.c **** #if   defined(PL310_CFG_DOUBLE_LINE_FILL) && (PL310_CFG_DOUBLE_LINE_FILL==1)
 514:../generate/drivers/r_cache/src/lld/r_cache_lld_rza2m.c ****     reg32 |=   (1u << PL310_REG15_PREFETCH_CTRL_Doublelinefillenable_SHIFT);
 515:../generate/drivers/r_cache/src/lld/r_cache_lld_rza2m.c **** #elif defined(PL310_CFG_DOUBLE_LINE_FILL) && (PL310_CFG_DOUBLE_LINE_FILL==0)
 516:../generate/drivers/r_cache/src/lld/r_cache_lld_rza2m.c ****     reg32 &= (~(1u << PL310_REG15_PREFETCH_CTRL_Doublelinefillenable_SHIFT));
 517:../generate/drivers/r_cache/src/lld/r_cache_lld_rza2m.c **** #endif/*PL310_CFG_DOUBLE_LINE_FILL*/
 518:../generate/drivers/r_cache/src/lld/r_cache_lld_rza2m.c **** 
 519:../generate/drivers/r_cache/src/lld/r_cache_lld_rza2m.c **** #if   defined(PL310_CFG_INSTRUCTION_PREFETCH) && (PL310_CFG_INSTRUCTION_PREFETCH==1)
 520:../generate/drivers/r_cache/src/lld/r_cache_lld_rza2m.c ****     reg32 |=    (1u << PL310_REG15_PREFETCH_CTRL_Instructionprefetchenable_SHIFT);
 521:../generate/drivers/r_cache/src/lld/r_cache_lld_rza2m.c **** #elif defined(PL310_CFG_INSTRUCTION_PREFETCH) && (PL310_CFG_INSTRUCTION_PREFETCH==0)
 522:../generate/drivers/r_cache/src/lld/r_cache_lld_rza2m.c ****     reg32 &=  (~(1u << PL310_REG15_PREFETCH_CTRL_Instructionprefetchenable_SHIFT));
 523:../generate/drivers/r_cache/src/lld/r_cache_lld_rza2m.c **** #endif/*PL310_CFG_INSTRUCTION_PREFETCH*/
 524:../generate/drivers/r_cache/src/lld/r_cache_lld_rza2m.c **** 
 525:../generate/drivers/r_cache/src/lld/r_cache_lld_rza2m.c **** #if   defined(PL310_CFG_DATA_PREFETCH) && (PL310_CFG_DATA_PREFETCH==1)
 526:../generate/drivers/r_cache/src/lld/r_cache_lld_rza2m.c ****     reg32 |=   (1u << PL310_REG15_PREFETCH_CTRL_Dataprefetchenable_SHIFT);
 527:../generate/drivers/r_cache/src/lld/r_cache_lld_rza2m.c **** #elif defined(PL310_CFG_DATA_PREFETCH) && (PL310_CFG_DATA_PREFETCH==0)
 528:../generate/drivers/r_cache/src/lld/r_cache_lld_rza2m.c ****     reg32 &= (~(1u << PL310_REG15_PREFETCH_CTRL_Dataprefetchenable_SHIFT));
 529:../generate/drivers/r_cache/src/lld/r_cache_lld_rza2m.c **** #endif/*PL310_CFG_DATA_PREFETCH*/
 530:../generate/drivers/r_cache/src/lld/r_cache_lld_rza2m.c **** 
 531:../generate/drivers/r_cache/src/lld/r_cache_lld_rza2m.c ****     /* Casting the pointer to a uint32_t type is valid because "unsigned long" is same 4byte unsign
 532:../generate/drivers/r_cache/src/lld/r_cache_lld_rza2m.c ****     RZA_IO_RegWrite_32(&pl310.REG15_PREFETCH_CTRL.LONG, reg32, IOREG_NONSHIFT_ACCESS, IOREG_NONMASK
 533:../generate/drivers/r_cache/src/lld/r_cache_lld_rza2m.c ****     cache_l2_sync();
 534:../generate/drivers/r_cache/src/lld/r_cache_lld_rza2m.c ****     return;
 535:../generate/drivers/r_cache/src/lld/r_cache_lld_rza2m.c **** }
 536:../generate/drivers/r_cache/src/lld/r_cache_lld_rza2m.c **** /*******************************************************************************
 537:../generate/drivers/r_cache/src/lld/r_cache_lld_rza2m.c **** End of function R_CACHE_L2PrefetchEnable
 538:../generate/drivers/r_cache/src/lld/r_cache_lld_rza2m.c **** *******************************************************************************/
 539:../generate/drivers/r_cache/src/lld/r_cache_lld_rza2m.c **** 
 540:../generate/drivers/r_cache/src/lld/r_cache_lld_rza2m.c **** /*******************************************************************************
 541:../generate/drivers/r_cache/src/lld/r_cache_lld_rza2m.c **** * Function Name: R_CACHE_L2PrefetchDisable
 542:../generate/drivers/r_cache/src/lld/r_cache_lld_rza2m.c **** * Description  : Disable the PL310 instruction and data prefetching.
 543:../generate/drivers/r_cache/src/lld/r_cache_lld_rza2m.c **** * Arguments    : none
 544:../generate/drivers/r_cache/src/lld/r_cache_lld_rza2m.c **** * Return Value : none
 545:../generate/drivers/r_cache/src/lld/r_cache_lld_rza2m.c **** *******************************************************************************/
 546:../generate/drivers/r_cache/src/lld/r_cache_lld_rza2m.c **** void R_CACHE_L2PrefetchDisable(void)
 547:../generate/drivers/r_cache/src/lld/r_cache_lld_rza2m.c **** {
 548:../generate/drivers/r_cache/src/lld/r_cache_lld_rza2m.c ****     uint32_t reg32;
 549:../generate/drivers/r_cache/src/lld/r_cache_lld_rza2m.c **** 
 550:../generate/drivers/r_cache/src/lld/r_cache_lld_rza2m.c ****     /* Casting the pointer to a uint32_t type is valid because "unsigned long" is same 4byte unsign
 551:../generate/drivers/r_cache/src/lld/r_cache_lld_rza2m.c ****     reg32 = RZA_IO_RegRead_32(&pl310.REG15_PREFETCH_CTRL.LONG, IOREG_NONSHIFT_ACCESS, IOREG_NONMASK
 552:../generate/drivers/r_cache/src/lld/r_cache_lld_rza2m.c **** 
 553:../generate/drivers/r_cache/src/lld/r_cache_lld_rza2m.c ****     reg32 &= (~(1u << PL310_REG15_PREFETCH_CTRL_Doublelinefillenable_SHIFT));
 554:../generate/drivers/r_cache/src/lld/r_cache_lld_rza2m.c ****     reg32 &= (~(1u << PL310_REG15_PREFETCH_CTRL_Instructionprefetchenable_SHIFT));
 555:../generate/drivers/r_cache/src/lld/r_cache_lld_rza2m.c ****     reg32 &= (~(1u << PL310_REG15_PREFETCH_CTRL_Dataprefetchenable_SHIFT));
 556:../generate/drivers/r_cache/src/lld/r_cache_lld_rza2m.c **** 
 557:../generate/drivers/r_cache/src/lld/r_cache_lld_rza2m.c ****     /* Casting the pointer to a uint32_t type is valid because "unsigned long" is same 4byte unsign
 558:../generate/drivers/r_cache/src/lld/r_cache_lld_rza2m.c ****     RZA_IO_RegWrite_32(&pl310.REG15_PREFETCH_CTRL.LONG, reg32, IOREG_NONSHIFT_ACCESS, IOREG_NONMASK
 559:../generate/drivers/r_cache/src/lld/r_cache_lld_rza2m.c ****     cache_l2_sync();
 560:../generate/drivers/r_cache/src/lld/r_cache_lld_rza2m.c ****     return;
 561:../generate/drivers/r_cache/src/lld/r_cache_lld_rza2m.c **** }
 562:../generate/drivers/r_cache/src/lld/r_cache_lld_rza2m.c **** /*******************************************************************************
 563:../generate/drivers/r_cache/src/lld/r_cache_lld_rza2m.c **** End of function R_CACHE_L2PrefetchDisable
 564:../generate/drivers/r_cache/src/lld/r_cache_lld_rza2m.c **** *******************************************************************************/
 565:../generate/drivers/r_cache/src/lld/r_cache_lld_rza2m.c **** 
 566:../generate/drivers/r_cache/src/lld/r_cache_lld_rza2m.c **** /*******************************************************************************
 567:../generate/drivers/r_cache/src/lld/r_cache_lld_rza2m.c **** * Function Name: R_CACHE_L2InvalidAll
 568:../generate/drivers/r_cache/src/lld/r_cache_lld_rza2m.c **** * Description  : Invalidate whole of the PL310 cache.
 569:../generate/drivers/r_cache/src/lld/r_cache_lld_rza2m.c **** * Arguments    : none
 570:../generate/drivers/r_cache/src/lld/r_cache_lld_rza2m.c **** * Return Value : none
 571:../generate/drivers/r_cache/src/lld/r_cache_lld_rza2m.c **** *******************************************************************************/
 572:../generate/drivers/r_cache/src/lld/r_cache_lld_rza2m.c **** void R_CACHE_L2InvalidAll(void)
 573:../generate/drivers/r_cache/src/lld/r_cache_lld_rza2m.c **** {
 574:../generate/drivers/r_cache/src/lld/r_cache_lld_rza2m.c ****     uint32_t reg32;
 575:../generate/drivers/r_cache/src/lld/r_cache_lld_rza2m.c **** 
 576:../generate/drivers/r_cache/src/lld/r_cache_lld_rza2m.c ****     /* Casting the pointer to a uint32_t type is valid because "unsigned long" is same 4byte unsign
 577:../generate/drivers/r_cache/src/lld/r_cache_lld_rza2m.c ****     RZA_IO_RegWrite_32(&pl310.REG7_INV_WAY.LONG,
 578:../generate/drivers/r_cache/src/lld/r_cache_lld_rza2m.c ****                        CACHE_PRV_PL310_ALLWAYBITS_8,
 579:../generate/drivers/r_cache/src/lld/r_cache_lld_rza2m.c ****                        PL310_REG7_INV_WAY_Way_bits_SHIFT,
 580:../generate/drivers/r_cache/src/lld/r_cache_lld_rza2m.c ****                        PL310_REG7_INV_WAY_Way_bits);
 581:../generate/drivers/r_cache/src/lld/r_cache_lld_rza2m.c **** 
 582:../generate/drivers/r_cache/src/lld/r_cache_lld_rza2m.c ****     /* Wait until complete background operation */
 583:../generate/drivers/r_cache/src/lld/r_cache_lld_rza2m.c ****     do
 584:../generate/drivers/r_cache/src/lld/r_cache_lld_rza2m.c ****     {
 585:../generate/drivers/r_cache/src/lld/r_cache_lld_rza2m.c ****         /* Casting the pointer to a uint32_t type is valid because "unsigned long" is same 4byte un
 586:../generate/drivers/r_cache/src/lld/r_cache_lld_rza2m.c ****         reg32 = RZA_IO_RegRead_32(&pl310.REG7_INV_WAY.LONG,
 587:../generate/drivers/r_cache/src/lld/r_cache_lld_rza2m.c ****                                   PL310_REG7_INV_WAY_Way_bits_SHIFT,
 588:../generate/drivers/r_cache/src/lld/r_cache_lld_rza2m.c ****                                   PL310_REG7_INV_WAY_Way_bits);
 589:../generate/drivers/r_cache/src/lld/r_cache_lld_rza2m.c ****     } while (0 != reg32);
 590:../generate/drivers/r_cache/src/lld/r_cache_lld_rza2m.c ****     cache_l2_sync();
 591:../generate/drivers/r_cache/src/lld/r_cache_lld_rza2m.c **** 
 592:../generate/drivers/r_cache/src/lld/r_cache_lld_rza2m.c ****     return;
 593:../generate/drivers/r_cache/src/lld/r_cache_lld_rza2m.c **** }
 594:../generate/drivers/r_cache/src/lld/r_cache_lld_rza2m.c **** /*******************************************************************************
 595:../generate/drivers/r_cache/src/lld/r_cache_lld_rza2m.c **** End of function R_CACHE_L2InvalidAll
 596:../generate/drivers/r_cache/src/lld/r_cache_lld_rza2m.c **** *******************************************************************************/
 597:../generate/drivers/r_cache/src/lld/r_cache_lld_rza2m.c **** 
 598:../generate/drivers/r_cache/src/lld/r_cache_lld_rza2m.c **** /*******************************************************************************
 599:../generate/drivers/r_cache/src/lld/r_cache_lld_rza2m.c **** * Function Name: R_CACHE_L2CleanAll
 600:../generate/drivers/r_cache/src/lld/r_cache_lld_rza2m.c **** * Description  : Clean whole of the PL310 cache.
 601:../generate/drivers/r_cache/src/lld/r_cache_lld_rza2m.c **** * Arguments    : none
 602:../generate/drivers/r_cache/src/lld/r_cache_lld_rza2m.c **** * Return Value : none
 603:../generate/drivers/r_cache/src/lld/r_cache_lld_rza2m.c **** *******************************************************************************/
 604:../generate/drivers/r_cache/src/lld/r_cache_lld_rza2m.c **** void R_CACHE_L2CleanAll(void)
 605:../generate/drivers/r_cache/src/lld/r_cache_lld_rza2m.c **** {
 606:../generate/drivers/r_cache/src/lld/r_cache_lld_rza2m.c ****     uint32_t reg32;
 607:../generate/drivers/r_cache/src/lld/r_cache_lld_rza2m.c **** 
 608:../generate/drivers/r_cache/src/lld/r_cache_lld_rza2m.c ****     /* Casting the pointer to a uint32_t type is valid because "unsigned long" is same 4byte unsign
 609:../generate/drivers/r_cache/src/lld/r_cache_lld_rza2m.c ****     RZA_IO_RegWrite_32(&pl310.REG7_CLEAN_WAY.LONG,
 610:../generate/drivers/r_cache/src/lld/r_cache_lld_rza2m.c ****                        CACHE_PRV_PL310_ALLWAYBITS_8,
 611:../generate/drivers/r_cache/src/lld/r_cache_lld_rza2m.c ****                        PL310_REG7_CLEAN_WAY_Way_bits_SHIFT,
 612:../generate/drivers/r_cache/src/lld/r_cache_lld_rza2m.c ****                        PL310_REG7_CLEAN_WAY_Way_bits);
 613:../generate/drivers/r_cache/src/lld/r_cache_lld_rza2m.c **** 
 614:../generate/drivers/r_cache/src/lld/r_cache_lld_rza2m.c ****     /* Wait until complete background operation */
 615:../generate/drivers/r_cache/src/lld/r_cache_lld_rza2m.c ****     do
 616:../generate/drivers/r_cache/src/lld/r_cache_lld_rza2m.c ****     {
 617:../generate/drivers/r_cache/src/lld/r_cache_lld_rza2m.c ****         /* Casting the pointer to a uint32_t type is valid because "unsigned long" is same 4byte un
 618:../generate/drivers/r_cache/src/lld/r_cache_lld_rza2m.c ****         reg32 = RZA_IO_RegRead_32(&pl310.REG7_CLEAN_WAY.LONG,
 619:../generate/drivers/r_cache/src/lld/r_cache_lld_rza2m.c ****                                   PL310_REG7_CLEAN_WAY_Way_bits_SHIFT,
 620:../generate/drivers/r_cache/src/lld/r_cache_lld_rza2m.c ****                                   PL310_REG7_CLEAN_WAY_Way_bits);
 621:../generate/drivers/r_cache/src/lld/r_cache_lld_rza2m.c ****     } while (0 != reg32);
 622:../generate/drivers/r_cache/src/lld/r_cache_lld_rza2m.c ****     cache_l2_sync();
 623:../generate/drivers/r_cache/src/lld/r_cache_lld_rza2m.c **** 
 624:../generate/drivers/r_cache/src/lld/r_cache_lld_rza2m.c ****     return;
 625:../generate/drivers/r_cache/src/lld/r_cache_lld_rza2m.c **** }
 626:../generate/drivers/r_cache/src/lld/r_cache_lld_rza2m.c **** /*******************************************************************************
 627:../generate/drivers/r_cache/src/lld/r_cache_lld_rza2m.c **** End of function R_CACHE_L2CleanAll
 628:../generate/drivers/r_cache/src/lld/r_cache_lld_rza2m.c **** *******************************************************************************/
 629:../generate/drivers/r_cache/src/lld/r_cache_lld_rza2m.c **** 
 630:../generate/drivers/r_cache/src/lld/r_cache_lld_rza2m.c **** /*******************************************************************************
 631:../generate/drivers/r_cache/src/lld/r_cache_lld_rza2m.c **** * Function Name: R_CACHE_L2CleanInvalidAll
 632:../generate/drivers/r_cache/src/lld/r_cache_lld_rza2m.c **** * Description  : Clean&invalidate whole of the PL310 cache.
 633:../generate/drivers/r_cache/src/lld/r_cache_lld_rza2m.c **** * Arguments    : none
 634:../generate/drivers/r_cache/src/lld/r_cache_lld_rza2m.c **** * Return Value : none
 635:../generate/drivers/r_cache/src/lld/r_cache_lld_rza2m.c **** *******************************************************************************/
 636:../generate/drivers/r_cache/src/lld/r_cache_lld_rza2m.c **** void R_CACHE_L2CleanInvalidAll(void)
 637:../generate/drivers/r_cache/src/lld/r_cache_lld_rza2m.c **** {
 638:../generate/drivers/r_cache/src/lld/r_cache_lld_rza2m.c ****     uint32_t reg32;
 639:../generate/drivers/r_cache/src/lld/r_cache_lld_rza2m.c **** 
 640:../generate/drivers/r_cache/src/lld/r_cache_lld_rza2m.c ****     /* Casting the pointer to a uint32_t type is valid because "unsigned long" is same 4byte unsign
 641:../generate/drivers/r_cache/src/lld/r_cache_lld_rza2m.c ****     RZA_IO_RegWrite_32(&pl310.REG7_CLEAN_INV_WAY.LONG,
 642:../generate/drivers/r_cache/src/lld/r_cache_lld_rza2m.c ****                        CACHE_PRV_PL310_ALLWAYBITS_8,
 643:../generate/drivers/r_cache/src/lld/r_cache_lld_rza2m.c ****                        PL310_REG7_CLEAN_INV_WAY_Way_bits_SHIFT,
 644:../generate/drivers/r_cache/src/lld/r_cache_lld_rza2m.c ****                        PL310_REG7_CLEAN_INV_WAY_Way_bits);
 645:../generate/drivers/r_cache/src/lld/r_cache_lld_rza2m.c **** 
 646:../generate/drivers/r_cache/src/lld/r_cache_lld_rza2m.c ****     /* Wait until complete background operation */
 647:../generate/drivers/r_cache/src/lld/r_cache_lld_rza2m.c ****     do
 648:../generate/drivers/r_cache/src/lld/r_cache_lld_rza2m.c ****     {
 649:../generate/drivers/r_cache/src/lld/r_cache_lld_rza2m.c ****         /* Casting the pointer to a uint32_t type is valid because "unsigned long" is same 4byte un
 650:../generate/drivers/r_cache/src/lld/r_cache_lld_rza2m.c ****         reg32 = RZA_IO_RegRead_32(&pl310.REG7_CLEAN_INV_WAY.LONG,
 651:../generate/drivers/r_cache/src/lld/r_cache_lld_rza2m.c ****                                   PL310_REG7_CLEAN_INV_WAY_Way_bits_SHIFT,
 652:../generate/drivers/r_cache/src/lld/r_cache_lld_rza2m.c ****                                   PL310_REG7_CLEAN_INV_WAY_Way_bits);
 653:../generate/drivers/r_cache/src/lld/r_cache_lld_rza2m.c ****     } while (0 != reg32);
 654:../generate/drivers/r_cache/src/lld/r_cache_lld_rza2m.c ****     cache_l2_sync();
 655:../generate/drivers/r_cache/src/lld/r_cache_lld_rza2m.c **** 
 656:../generate/drivers/r_cache/src/lld/r_cache_lld_rza2m.c ****     return;
 657:../generate/drivers/r_cache/src/lld/r_cache_lld_rza2m.c **** }
 658:../generate/drivers/r_cache/src/lld/r_cache_lld_rza2m.c **** /*******************************************************************************
 659:../generate/drivers/r_cache/src/lld/r_cache_lld_rza2m.c **** End of function R_CACHE_L2CleanInvalidAll
 660:../generate/drivers/r_cache/src/lld/r_cache_lld_rza2m.c **** *******************************************************************************/
 661:../generate/drivers/r_cache/src/lld/r_cache_lld_rza2m.c **** 
 662:../generate/drivers/r_cache/src/lld/r_cache_lld_rza2m.c **** /*******************************************************************************
 663:../generate/drivers/r_cache/src/lld/r_cache_lld_rza2m.c **** * Function Name: cache_l2_sync
 664:../generate/drivers/r_cache/src/lld/r_cache_lld_rza2m.c **** * Description  : Perform a cache sync operation.
 665:../generate/drivers/r_cache/src/lld/r_cache_lld_rza2m.c **** * Arguments    : none
 666:../generate/drivers/r_cache/src/lld/r_cache_lld_rza2m.c **** * Return Value : none
 667:../generate/drivers/r_cache/src/lld/r_cache_lld_rza2m.c **** *******************************************************************************/
 668:../generate/drivers/r_cache/src/lld/r_cache_lld_rza2m.c **** static void cache_l2_sync(void)
 669:../generate/drivers/r_cache/src/lld/r_cache_lld_rza2m.c **** {
  28              		.loc 1 669 1 view -0
  29              		.cfi_startproc
  30              		@ args = 0, pretend = 0, frame = 0
  31              		@ frame_needed = 0, uses_anonymous_args = 0
  32 0000 10402DE9 		push	{r4, lr}
  33              		.cfi_def_cfa_offset 8
  34              		.cfi_offset 4, -8
  35              		.cfi_offset 14, -4
 670:../generate/drivers/r_cache/src/lld/r_cache_lld_rza2m.c ****     uint32_t reg32;
  36              		.loc 1 670 5 view .LVU1
 671:../generate/drivers/r_cache/src/lld/r_cache_lld_rza2m.c **** 
 672:../generate/drivers/r_cache/src/lld/r_cache_lld_rza2m.c ****     /* Casting the pointer to a uint32_t type is valid because "unsigned long" is same 4byte unsign
 673:../generate/drivers/r_cache/src/lld/r_cache_lld_rza2m.c ****     RZA_IO_RegWrite_32(&pl310.REG7_CACHE_SYNC.LONG, 0, IOREG_NONSHIFT_ACCESS, IOREG_NONMASK_ACCESS)
  37              		.loc 1 673 5 view .LVU2
  38 0004 0030E0E3 		mvn	r3, #0
  39 0008 0020A0E3 		mov	r2, #0
  40 000c 0210A0E1 		mov	r1, r2
  41 0010 300703E3 		movw	r0, #14128
  42 0014 000F41E3 		movt	r0, 7936
  43 0018 FEFFFFEB 		bl	RZA_IO_RegWrite_32
  44              	.LVL0:
  45              	.L2:
 674:../generate/drivers/r_cache/src/lld/r_cache_lld_rza2m.c **** 
 675:../generate/drivers/r_cache/src/lld/r_cache_lld_rza2m.c ****     do
  46              		.loc 1 675 5 discriminator 1 view .LVU3
 676:../generate/drivers/r_cache/src/lld/r_cache_lld_rza2m.c ****     {
 677:../generate/drivers/r_cache/src/lld/r_cache_lld_rza2m.c ****         /* Casting the pointer to a uint32_t type is valid because "unsigned long" is same 4byte un
 678:../generate/drivers/r_cache/src/lld/r_cache_lld_rza2m.c ****         reg32 = RZA_IO_RegRead_32(&pl310.REG7_CACHE_SYNC.LONG, IOREG_NONSHIFT_ACCESS, IOREG_NONMASK
  47              		.loc 1 678 9 discriminator 1 view .LVU4
  48              		.loc 1 678 17 is_stmt 0 discriminator 1 view .LVU5
  49 001c 0020E0E3 		mvn	r2, #0
  50 0020 0010A0E3 		mov	r1, #0
  51 0024 300703E3 		movw	r0, #14128
  52 0028 000F41E3 		movt	r0, 7936
  53 002c FEFFFFEB 		bl	RZA_IO_RegRead_32
  54              	.LVL1:
 679:../generate/drivers/r_cache/src/lld/r_cache_lld_rza2m.c ****     } while (0 != reg32);
  55              		.loc 1 679 13 is_stmt 1 discriminator 1 view .LVU6
  56              		.loc 1 679 5 is_stmt 0 discriminator 1 view .LVU7
  57 0030 000050E3 		cmp	r0, #0
  58 0034 F8FFFF1A 		bne	.L2
  59 0038 1080BDE8 		pop	{r4, pc}
  60              		.cfi_endproc
  61              	.LFE25:
  63              		.section	.text.R_CACHE_L1InstInvalidAll,"ax",%progbits
  64              		.align	2
  65              		.global	R_CACHE_L1InstInvalidAll
  66              		.syntax unified
  67              		.arm
  68              		.fpu neon
  70              	R_CACHE_L1InstInvalidAll:
  71              	.LFB1:
 121:../generate/drivers/r_cache/src/lld/r_cache_lld_rza2m.c ****     r_cache_l1_i_inv_all();
  72              		.loc 1 121 1 is_stmt 1 view -0
  73              		.cfi_startproc
  74              		@ args = 0, pretend = 0, frame = 0
  75              		@ frame_needed = 0, uses_anonymous_args = 0
  76 0000 10402DE9 		push	{r4, lr}
  77              		.cfi_def_cfa_offset 8
  78              		.cfi_offset 4, -8
  79              		.cfi_offset 14, -4
 122:../generate/drivers/r_cache/src/lld/r_cache_lld_rza2m.c ****     return;
  80              		.loc 1 122 5 view .LVU9
  81 0004 FEFFFFEB 		bl	r_cache_l1_i_inv_all
  82              	.LVL2:
 123:../generate/drivers/r_cache/src/lld/r_cache_lld_rza2m.c **** }
  83              		.loc 1 123 5 view .LVU10
 124:../generate/drivers/r_cache/src/lld/r_cache_lld_rza2m.c **** /*******************************************************************************
  84              		.loc 1 124 1 is_stmt 0 view .LVU11
  85 0008 1080BDE8 		pop	{r4, pc}
  86              		.cfi_endproc
  87              	.LFE1:
  89              		.section	.text.R_CACHE_L1DataInvalidAll,"ax",%progbits
  90              		.align	2
  91              		.global	R_CACHE_L1DataInvalidAll
  92              		.syntax unified
  93              		.arm
  94              		.fpu neon
  96              	R_CACHE_L1DataInvalidAll:
  97              	.LFB2:
 136:../generate/drivers/r_cache/src/lld/r_cache_lld_rza2m.c ****     r_cache_l1_d_cache_operation(CACHE_PRV_L1_OP_D_INV_ALL);
  98              		.loc 1 136 1 is_stmt 1 view -0
  99              		.cfi_startproc
 100              		@ args = 0, pretend = 0, frame = 0
 101              		@ frame_needed = 0, uses_anonymous_args = 0
 102 0000 10402DE9 		push	{r4, lr}
 103              		.cfi_def_cfa_offset 8
 104              		.cfi_offset 4, -8
 105              		.cfi_offset 14, -4
 137:../generate/drivers/r_cache/src/lld/r_cache_lld_rza2m.c ****     return;
 106              		.loc 1 137 5 view .LVU13
 107 0004 0000A0E3 		mov	r0, #0
 108 0008 FEFFFFEB 		bl	r_cache_l1_d_cache_operation
 109              	.LVL3:
 138:../generate/drivers/r_cache/src/lld/r_cache_lld_rza2m.c **** }
 110              		.loc 1 138 5 view .LVU14
 139:../generate/drivers/r_cache/src/lld/r_cache_lld_rza2m.c **** /*******************************************************************************
 111              		.loc 1 139 1 is_stmt 0 view .LVU15
 112 000c 1080BDE8 		pop	{r4, pc}
 113              		.cfi_endproc
 114              	.LFE2:
 116              		.section	.text.R_CACHE_L1DataCleanAll,"ax",%progbits
 117              		.align	2
 118              		.global	R_CACHE_L1DataCleanAll
 119              		.syntax unified
 120              		.arm
 121              		.fpu neon
 123              	R_CACHE_L1DataCleanAll:
 124              	.LFB3:
 151:../generate/drivers/r_cache/src/lld/r_cache_lld_rza2m.c ****     r_cache_l1_d_cache_operation(CACHE_PRV_L1_OP_D_CLEAN_ALL);
 125              		.loc 1 151 1 is_stmt 1 view -0
 126              		.cfi_startproc
 127              		@ args = 0, pretend = 0, frame = 0
 128              		@ frame_needed = 0, uses_anonymous_args = 0
 129 0000 10402DE9 		push	{r4, lr}
 130              		.cfi_def_cfa_offset 8
 131              		.cfi_offset 4, -8
 132              		.cfi_offset 14, -4
 152:../generate/drivers/r_cache/src/lld/r_cache_lld_rza2m.c ****     return;
 133              		.loc 1 152 5 view .LVU17
 134 0004 0100A0E3 		mov	r0, #1
 135 0008 FEFFFFEB 		bl	r_cache_l1_d_cache_operation
 136              	.LVL4:
 153:../generate/drivers/r_cache/src/lld/r_cache_lld_rza2m.c **** }
 137              		.loc 1 153 5 view .LVU18
 154:../generate/drivers/r_cache/src/lld/r_cache_lld_rza2m.c **** /*******************************************************************************
 138              		.loc 1 154 1 is_stmt 0 view .LVU19
 139 000c 1080BDE8 		pop	{r4, pc}
 140              		.cfi_endproc
 141              	.LFE3:
 143              		.section	.text.R_CACHE_L1DataCleanInvalidAll,"ax",%progbits
 144              		.align	2
 145              		.global	R_CACHE_L1DataCleanInvalidAll
 146              		.syntax unified
 147              		.arm
 148              		.fpu neon
 150              	R_CACHE_L1DataCleanInvalidAll:
 151              	.LFB4:
 166:../generate/drivers/r_cache/src/lld/r_cache_lld_rza2m.c ****     r_cache_l1_d_cache_operation(CACHE_PRV_L1_OP_D_CLEAN_INV_ALL);
 152              		.loc 1 166 1 is_stmt 1 view -0
 153              		.cfi_startproc
 154              		@ args = 0, pretend = 0, frame = 0
 155              		@ frame_needed = 0, uses_anonymous_args = 0
 156 0000 10402DE9 		push	{r4, lr}
 157              		.cfi_def_cfa_offset 8
 158              		.cfi_offset 4, -8
 159              		.cfi_offset 14, -4
 167:../generate/drivers/r_cache/src/lld/r_cache_lld_rza2m.c ****     return;
 160              		.loc 1 167 5 view .LVU21
 161 0004 0200A0E3 		mov	r0, #2
 162 0008 FEFFFFEB 		bl	r_cache_l1_d_cache_operation
 163              	.LVL5:
 168:../generate/drivers/r_cache/src/lld/r_cache_lld_rza2m.c **** }
 164              		.loc 1 168 5 view .LVU22
 169:../generate/drivers/r_cache/src/lld/r_cache_lld_rza2m.c **** /*******************************************************************************
 165              		.loc 1 169 1 is_stmt 0 view .LVU23
 166 000c 1080BDE8 		pop	{r4, pc}
 167              		.cfi_endproc
 168              	.LFE4:
 170              		.section	.text.R_CACHE_L1DataInvalidLine,"ax",%progbits
 171              		.align	2
 172              		.global	R_CACHE_L1DataInvalidLine
 173              		.syntax unified
 174              		.arm
 175              		.fpu neon
 177              	R_CACHE_L1DataInvalidLine:
 178              	.LVL6:
 179              	.LFB5:
 186:../generate/drivers/r_cache/src/lld/r_cache_lld_rza2m.c ****     e_err_code_t ret   = DRV_SUCCESS;
 180              		.loc 1 186 1 is_stmt 1 view -0
 181              		.cfi_startproc
 182              		@ args = 0, pretend = 0, frame = 0
 183              		@ frame_needed = 0, uses_anonymous_args = 0
 186:../generate/drivers/r_cache/src/lld/r_cache_lld_rza2m.c ****     e_err_code_t ret   = DRV_SUCCESS;
 184              		.loc 1 186 1 is_stmt 0 view .LVU25
 185 0000 D0402DE9 		push	{r4, r6, r7, lr}
 186              		.cfi_def_cfa_offset 16
 187              		.cfi_offset 4, -16
 188              		.cfi_offset 6, -12
 189              		.cfi_offset 7, -8
 190              		.cfi_offset 14, -4
 187:../generate/drivers/r_cache/src/lld/r_cache_lld_rza2m.c **** 
 191              		.loc 1 187 5 is_stmt 1 view .LVU26
 192              	.LVL7:
 190:../generate/drivers/r_cache/src/lld/r_cache_lld_rza2m.c **** 
 193              		.loc 1 190 5 view .LVU27
 190:../generate/drivers/r_cache/src/lld/r_cache_lld_rza2m.c **** 
 194              		.loc 1 190 14 is_stmt 0 view .LVU28
 195 0004 1F40C0E3 		bic	r4, r0, #31
 196              	.LVL8:
 193:../generate/drivers/r_cache/src/lld/r_cache_lld_rza2m.c **** 
 197              		.loc 1 193 5 is_stmt 1 view .LVU29
 193:../generate/drivers/r_cache/src/lld/r_cache_lld_rza2m.c **** 
 198              		.loc 1 193 84 is_stmt 0 view .LVU30
 199 0008 0070A0E3 		mov	r7, #0
 193:../generate/drivers/r_cache/src/lld/r_cache_lld_rza2m.c **** 
 200              		.loc 1 193 14 view .LVU31
 201 000c 006091E0 		adds	r6, r1, r0
 202 0010 0070A7E2 		adc	r7, r7, #0
 203              	.LVL9:
 195:../generate/drivers/r_cache/src/lld/r_cache_lld_rza2m.c ****     {
 204              		.loc 1 195 5 is_stmt 1 view .LVU32
 195:../generate/drivers/r_cache/src/lld/r_cache_lld_rza2m.c ****     {
 205              		.loc 1 195 8 is_stmt 0 view .LVU33
 206 0014 0020E0E3 		mvn	r2, #0
 207 0018 0030A0E3 		mov	r3, #0
 208 001c 030057E1 		cmp	r7, r3
 209 0020 02005601 		cmpeq	r6, r2
 210 0024 0900008A 		bhi	.L19
 211              	.LVL10:
 212              	.L15:
 201:../generate/drivers/r_cache/src/lld/r_cache_lld_rza2m.c ****         {
 213              		.loc 1 201 17 is_stmt 1 discriminator 1 view .LVU34
 201:../generate/drivers/r_cache/src/lld/r_cache_lld_rza2m.c ****         {
 214              		.loc 1 201 22 is_stmt 0 discriminator 1 view .LVU35
 215 0028 0030A0E3 		mov	r3, #0
 201:../generate/drivers/r_cache/src/lld/r_cache_lld_rza2m.c ****         {
 216              		.loc 1 201 9 discriminator 1 view .LVU36
 217 002c 070053E1 		cmp	r3, r7
 218 0030 06005401 		cmpeq	r4, r6
 219 0034 0300002A 		bcs	.L20
 203:../generate/drivers/r_cache/src/lld/r_cache_lld_rza2m.c ****         }
 220              		.loc 1 203 13 is_stmt 1 discriminator 2 view .LVU37
 221 0038 0400A0E1 		mov	r0, r4
 222 003c FEFFFFEB 		bl	r_cache_l1_d_inv_mva
 223              	.LVL11:
 201:../generate/drivers/r_cache/src/lld/r_cache_lld_rza2m.c ****         {
 224              		.loc 1 201 34 discriminator 2 view .LVU38
 201:../generate/drivers/r_cache/src/lld/r_cache_lld_rza2m.c ****         {
 225              		.loc 1 201 39 is_stmt 0 discriminator 2 view .LVU39
 226 0040 204084E2 		add	r4, r4, #32
 227              	.LVL12:
 201:../generate/drivers/r_cache/src/lld/r_cache_lld_rza2m.c ****         {
 228              		.loc 1 201 39 discriminator 2 view .LVU40
 229 0044 F7FFFFEA 		b	.L15
 230              	.L20:
 187:../generate/drivers/r_cache/src/lld/r_cache_lld_rza2m.c **** 
 231              		.loc 1 187 18 view .LVU41
 232 0048 0000A0E3 		mov	r0, #0
 233 004c D080BDE8 		pop	{r4, r6, r7, pc}
 234              	.LVL13:
 235              	.L19:
 197:../generate/drivers/r_cache/src/lld/r_cache_lld_rza2m.c ****     }
 236              		.loc 1 197 13 view .LVU42
 237 0050 0000E0E3 		mvn	r0, #0
 238              	.LVL14:
 206:../generate/drivers/r_cache/src/lld/r_cache_lld_rza2m.c **** }
 239              		.loc 1 206 5 is_stmt 1 view .LVU43
 207:../generate/drivers/r_cache/src/lld/r_cache_lld_rza2m.c **** /*******************************************************************************
 240              		.loc 1 207 1 is_stmt 0 view .LVU44
 241 0054 D080BDE8 		pop	{r4, r6, r7, pc}
 242              		.cfi_endproc
 243              	.LFE5:
 245              		.section	.text.R_CACHE_L1DataCleanLine,"ax",%progbits
 246              		.align	2
 247              		.global	R_CACHE_L1DataCleanLine
 248              		.syntax unified
 249              		.arm
 250              		.fpu neon
 252              	R_CACHE_L1DataCleanLine:
 253              	.LVL15:
 254              	.LFB6:
 224:../generate/drivers/r_cache/src/lld/r_cache_lld_rza2m.c ****     e_err_code_t ret   = DRV_SUCCESS;
 255              		.loc 1 224 1 is_stmt 1 view -0
 256              		.cfi_startproc
 257              		@ args = 0, pretend = 0, frame = 0
 258              		@ frame_needed = 0, uses_anonymous_args = 0
 224:../generate/drivers/r_cache/src/lld/r_cache_lld_rza2m.c ****     e_err_code_t ret   = DRV_SUCCESS;
 259              		.loc 1 224 1 is_stmt 0 view .LVU46
 260 0000 D0402DE9 		push	{r4, r6, r7, lr}
 261              		.cfi_def_cfa_offset 16
 262              		.cfi_offset 4, -16
 263              		.cfi_offset 6, -12
 264              		.cfi_offset 7, -8
 265              		.cfi_offset 14, -4
 225:../generate/drivers/r_cache/src/lld/r_cache_lld_rza2m.c **** 
 266              		.loc 1 225 5 is_stmt 1 view .LVU47
 267              	.LVL16:
 228:../generate/drivers/r_cache/src/lld/r_cache_lld_rza2m.c **** 
 268              		.loc 1 228 5 view .LVU48
 228:../generate/drivers/r_cache/src/lld/r_cache_lld_rza2m.c **** 
 269              		.loc 1 228 14 is_stmt 0 view .LVU49
 270 0004 1F40C0E3 		bic	r4, r0, #31
 271              	.LVL17:
 231:../generate/drivers/r_cache/src/lld/r_cache_lld_rza2m.c **** 
 272              		.loc 1 231 5 is_stmt 1 view .LVU50
 231:../generate/drivers/r_cache/src/lld/r_cache_lld_rza2m.c **** 
 273              		.loc 1 231 84 is_stmt 0 view .LVU51
 274 0008 0070A0E3 		mov	r7, #0
 231:../generate/drivers/r_cache/src/lld/r_cache_lld_rza2m.c **** 
 275              		.loc 1 231 14 view .LVU52
 276 000c 006091E0 		adds	r6, r1, r0
 277 0010 0070A7E2 		adc	r7, r7, #0
 278              	.LVL18:
 233:../generate/drivers/r_cache/src/lld/r_cache_lld_rza2m.c ****     {
 279              		.loc 1 233 5 is_stmt 1 view .LVU53
 233:../generate/drivers/r_cache/src/lld/r_cache_lld_rza2m.c ****     {
 280              		.loc 1 233 8 is_stmt 0 view .LVU54
 281 0014 0020E0E3 		mvn	r2, #0
 282 0018 0030A0E3 		mov	r3, #0
 283 001c 030057E1 		cmp	r7, r3
 284 0020 02005601 		cmpeq	r6, r2
 285 0024 0900008A 		bhi	.L27
 286              	.LVL19:
 287              	.L23:
 239:../generate/drivers/r_cache/src/lld/r_cache_lld_rza2m.c ****         {
 288              		.loc 1 239 17 is_stmt 1 discriminator 1 view .LVU55
 239:../generate/drivers/r_cache/src/lld/r_cache_lld_rza2m.c ****         {
 289              		.loc 1 239 22 is_stmt 0 discriminator 1 view .LVU56
 290 0028 0030A0E3 		mov	r3, #0
 239:../generate/drivers/r_cache/src/lld/r_cache_lld_rza2m.c ****         {
 291              		.loc 1 239 9 discriminator 1 view .LVU57
 292 002c 070053E1 		cmp	r3, r7
 293 0030 06005401 		cmpeq	r4, r6
 294 0034 0300002A 		bcs	.L28
 241:../generate/drivers/r_cache/src/lld/r_cache_lld_rza2m.c ****         }
 295              		.loc 1 241 13 is_stmt 1 discriminator 2 view .LVU58
 296 0038 0400A0E1 		mov	r0, r4
 297 003c FEFFFFEB 		bl	r_cache_l1_d_clean_mva
 298              	.LVL20:
 239:../generate/drivers/r_cache/src/lld/r_cache_lld_rza2m.c ****         {
 299              		.loc 1 239 34 discriminator 2 view .LVU59
 239:../generate/drivers/r_cache/src/lld/r_cache_lld_rza2m.c ****         {
 300              		.loc 1 239 39 is_stmt 0 discriminator 2 view .LVU60
 301 0040 204084E2 		add	r4, r4, #32
 302              	.LVL21:
 239:../generate/drivers/r_cache/src/lld/r_cache_lld_rza2m.c ****         {
 303              		.loc 1 239 39 discriminator 2 view .LVU61
 304 0044 F7FFFFEA 		b	.L23
 305              	.L28:
 225:../generate/drivers/r_cache/src/lld/r_cache_lld_rza2m.c **** 
 306              		.loc 1 225 18 view .LVU62
 307 0048 0000A0E3 		mov	r0, #0
 308 004c D080BDE8 		pop	{r4, r6, r7, pc}
 309              	.LVL22:
 310              	.L27:
 235:../generate/drivers/r_cache/src/lld/r_cache_lld_rza2m.c ****     }
 311              		.loc 1 235 13 view .LVU63
 312 0050 0000E0E3 		mvn	r0, #0
 313              	.LVL23:
 244:../generate/drivers/r_cache/src/lld/r_cache_lld_rza2m.c **** }
 314              		.loc 1 244 5 is_stmt 1 view .LVU64
 245:../generate/drivers/r_cache/src/lld/r_cache_lld_rza2m.c **** /*******************************************************************************
 315              		.loc 1 245 1 is_stmt 0 view .LVU65
 316 0054 D080BDE8 		pop	{r4, r6, r7, pc}
 317              		.cfi_endproc
 318              	.LFE6:
 320              		.section	.text.R_CACHE_L1DataCleanInvalidLine,"ax",%progbits
 321              		.align	2
 322              		.global	R_CACHE_L1DataCleanInvalidLine
 323              		.syntax unified
 324              		.arm
 325              		.fpu neon
 327              	R_CACHE_L1DataCleanInvalidLine:
 328              	.LVL24:
 329              	.LFB7:
 262:../generate/drivers/r_cache/src/lld/r_cache_lld_rza2m.c ****     e_err_code_t ret   = DRV_SUCCESS;
 330              		.loc 1 262 1 is_stmt 1 view -0
 331              		.cfi_startproc
 332              		@ args = 0, pretend = 0, frame = 0
 333              		@ frame_needed = 0, uses_anonymous_args = 0
 262:../generate/drivers/r_cache/src/lld/r_cache_lld_rza2m.c ****     e_err_code_t ret   = DRV_SUCCESS;
 334              		.loc 1 262 1 is_stmt 0 view .LVU67
 335 0000 D0402DE9 		push	{r4, r6, r7, lr}
 336              		.cfi_def_cfa_offset 16
 337              		.cfi_offset 4, -16
 338              		.cfi_offset 6, -12
 339              		.cfi_offset 7, -8
 340              		.cfi_offset 14, -4
 263:../generate/drivers/r_cache/src/lld/r_cache_lld_rza2m.c **** 
 341              		.loc 1 263 5 is_stmt 1 view .LVU68
 342              	.LVL25:
 266:../generate/drivers/r_cache/src/lld/r_cache_lld_rza2m.c **** 
 343              		.loc 1 266 5 view .LVU69
 266:../generate/drivers/r_cache/src/lld/r_cache_lld_rza2m.c **** 
 344              		.loc 1 266 14 is_stmt 0 view .LVU70
 345 0004 1F40C0E3 		bic	r4, r0, #31
 346              	.LVL26:
 269:../generate/drivers/r_cache/src/lld/r_cache_lld_rza2m.c **** 
 347              		.loc 1 269 5 is_stmt 1 view .LVU71
 269:../generate/drivers/r_cache/src/lld/r_cache_lld_rza2m.c **** 
 348              		.loc 1 269 84 is_stmt 0 view .LVU72
 349 0008 0070A0E3 		mov	r7, #0
 269:../generate/drivers/r_cache/src/lld/r_cache_lld_rza2m.c **** 
 350              		.loc 1 269 14 view .LVU73
 351 000c 006091E0 		adds	r6, r1, r0
 352 0010 0070A7E2 		adc	r7, r7, #0
 353              	.LVL27:
 271:../generate/drivers/r_cache/src/lld/r_cache_lld_rza2m.c ****     {
 354              		.loc 1 271 5 is_stmt 1 view .LVU74
 271:../generate/drivers/r_cache/src/lld/r_cache_lld_rza2m.c ****     {
 355              		.loc 1 271 8 is_stmt 0 view .LVU75
 356 0014 0020E0E3 		mvn	r2, #0
 357 0018 0030A0E3 		mov	r3, #0
 358 001c 030057E1 		cmp	r7, r3
 359 0020 02005601 		cmpeq	r6, r2
 360 0024 0900008A 		bhi	.L35
 361              	.LVL28:
 362              	.L31:
 277:../generate/drivers/r_cache/src/lld/r_cache_lld_rza2m.c ****         {
 363              		.loc 1 277 17 is_stmt 1 discriminator 1 view .LVU76
 277:../generate/drivers/r_cache/src/lld/r_cache_lld_rza2m.c ****         {
 364              		.loc 1 277 22 is_stmt 0 discriminator 1 view .LVU77
 365 0028 0030A0E3 		mov	r3, #0
 277:../generate/drivers/r_cache/src/lld/r_cache_lld_rza2m.c ****         {
 366              		.loc 1 277 9 discriminator 1 view .LVU78
 367 002c 070053E1 		cmp	r3, r7
 368 0030 06005401 		cmpeq	r4, r6
 369 0034 0300002A 		bcs	.L36
 279:../generate/drivers/r_cache/src/lld/r_cache_lld_rza2m.c ****         }
 370              		.loc 1 279 13 is_stmt 1 discriminator 2 view .LVU79
 371 0038 0400A0E1 		mov	r0, r4
 372 003c FEFFFFEB 		bl	r_cache_l1_d_clean_inv_mva
 373              	.LVL29:
 277:../generate/drivers/r_cache/src/lld/r_cache_lld_rza2m.c ****         {
 374              		.loc 1 277 34 discriminator 2 view .LVU80
 277:../generate/drivers/r_cache/src/lld/r_cache_lld_rza2m.c ****         {
 375              		.loc 1 277 39 is_stmt 0 discriminator 2 view .LVU81
 376 0040 204084E2 		add	r4, r4, #32
 377              	.LVL30:
 277:../generate/drivers/r_cache/src/lld/r_cache_lld_rza2m.c ****         {
 378              		.loc 1 277 39 discriminator 2 view .LVU82
 379 0044 F7FFFFEA 		b	.L31
 380              	.L36:
 263:../generate/drivers/r_cache/src/lld/r_cache_lld_rza2m.c **** 
 381              		.loc 1 263 18 view .LVU83
 382 0048 0000A0E3 		mov	r0, #0
 383 004c D080BDE8 		pop	{r4, r6, r7, pc}
 384              	.LVL31:
 385              	.L35:
 273:../generate/drivers/r_cache/src/lld/r_cache_lld_rza2m.c ****     }
 386              		.loc 1 273 13 view .LVU84
 387 0050 0000E0E3 		mvn	r0, #0
 388              	.LVL32:
 282:../generate/drivers/r_cache/src/lld/r_cache_lld_rza2m.c **** }
 389              		.loc 1 282 5 is_stmt 1 view .LVU85
 283:../generate/drivers/r_cache/src/lld/r_cache_lld_rza2m.c **** /*******************************************************************************
 390              		.loc 1 283 1 is_stmt 0 view .LVU86
 391 0054 D080BDE8 		pop	{r4, r6, r7, pc}
 392              		.cfi_endproc
 393              	.LFE7:
 395              		.section	.text.R_CACHE_L1InstEnable,"ax",%progbits
 396              		.align	2
 397              		.global	R_CACHE_L1InstEnable
 398              		.syntax unified
 399              		.arm
 400              		.fpu neon
 402              	R_CACHE_L1InstEnable:
 403              	.LFB8:
 295:../generate/drivers/r_cache/src/lld/r_cache_lld_rza2m.c ****     r_cache_l1_i_enable();
 404              		.loc 1 295 1 is_stmt 1 view -0
 405              		.cfi_startproc
 406              		@ args = 0, pretend = 0, frame = 0
 407              		@ frame_needed = 0, uses_anonymous_args = 0
 408 0000 10402DE9 		push	{r4, lr}
 409              		.cfi_def_cfa_offset 8
 410              		.cfi_offset 4, -8
 411              		.cfi_offset 14, -4
 296:../generate/drivers/r_cache/src/lld/r_cache_lld_rza2m.c ****     return;
 412              		.loc 1 296 5 view .LVU88
 413 0004 FEFFFFEB 		bl	r_cache_l1_i_enable
 414              	.LVL33:
 297:../generate/drivers/r_cache/src/lld/r_cache_lld_rza2m.c **** }
 415              		.loc 1 297 5 view .LVU89
 298:../generate/drivers/r_cache/src/lld/r_cache_lld_rza2m.c **** /*******************************************************************************
 416              		.loc 1 298 1 is_stmt 0 view .LVU90
 417 0008 1080BDE8 		pop	{r4, pc}
 418              		.cfi_endproc
 419              	.LFE8:
 421              		.section	.text.R_CACHE_L1InstDisable,"ax",%progbits
 422              		.align	2
 423              		.global	R_CACHE_L1InstDisable
 424              		.syntax unified
 425              		.arm
 426              		.fpu neon
 428              	R_CACHE_L1InstDisable:
 429              	.LFB9:
 310:../generate/drivers/r_cache/src/lld/r_cache_lld_rza2m.c ****     r_cache_l1_i_disable();
 430              		.loc 1 310 1 is_stmt 1 view -0
 431              		.cfi_startproc
 432              		@ args = 0, pretend = 0, frame = 0
 433              		@ frame_needed = 0, uses_anonymous_args = 0
 434 0000 10402DE9 		push	{r4, lr}
 435              		.cfi_def_cfa_offset 8
 436              		.cfi_offset 4, -8
 437              		.cfi_offset 14, -4
 311:../generate/drivers/r_cache/src/lld/r_cache_lld_rza2m.c ****     return;
 438              		.loc 1 311 5 view .LVU92
 439 0004 FEFFFFEB 		bl	r_cache_l1_i_disable
 440              	.LVL34:
 312:../generate/drivers/r_cache/src/lld/r_cache_lld_rza2m.c **** }
 441              		.loc 1 312 5 view .LVU93
 313:../generate/drivers/r_cache/src/lld/r_cache_lld_rza2m.c **** /*******************************************************************************
 442              		.loc 1 313 1 is_stmt 0 view .LVU94
 443 0008 1080BDE8 		pop	{r4, pc}
 444              		.cfi_endproc
 445              	.LFE9:
 447              		.section	.text.R_CACHE_L1DataEnable,"ax",%progbits
 448              		.align	2
 449              		.global	R_CACHE_L1DataEnable
 450              		.syntax unified
 451              		.arm
 452              		.fpu neon
 454              	R_CACHE_L1DataEnable:
 455              	.LFB10:
 325:../generate/drivers/r_cache/src/lld/r_cache_lld_rza2m.c ****     r_cache_l1_d_enable();
 456              		.loc 1 325 1 is_stmt 1 view -0
 457              		.cfi_startproc
 458              		@ args = 0, pretend = 0, frame = 0
 459              		@ frame_needed = 0, uses_anonymous_args = 0
 460 0000 10402DE9 		push	{r4, lr}
 461              		.cfi_def_cfa_offset 8
 462              		.cfi_offset 4, -8
 463              		.cfi_offset 14, -4
 326:../generate/drivers/r_cache/src/lld/r_cache_lld_rza2m.c ****     return;
 464              		.loc 1 326 5 view .LVU96
 465 0004 FEFFFFEB 		bl	r_cache_l1_d_enable
 466              	.LVL35:
 327:../generate/drivers/r_cache/src/lld/r_cache_lld_rza2m.c **** }
 467              		.loc 1 327 5 view .LVU97
 328:../generate/drivers/r_cache/src/lld/r_cache_lld_rza2m.c **** /*******************************************************************************
 468              		.loc 1 328 1 is_stmt 0 view .LVU98
 469 0008 1080BDE8 		pop	{r4, pc}
 470              		.cfi_endproc
 471              	.LFE10:
 473              		.section	.text.R_CACHE_L1DataDisable,"ax",%progbits
 474              		.align	2
 475              		.global	R_CACHE_L1DataDisable
 476              		.syntax unified
 477              		.arm
 478              		.fpu neon
 480              	R_CACHE_L1DataDisable:
 481              	.LFB11:
 340:../generate/drivers/r_cache/src/lld/r_cache_lld_rza2m.c ****     r_cache_l1_d_disable();
 482              		.loc 1 340 1 is_stmt 1 view -0
 483              		.cfi_startproc
 484              		@ args = 0, pretend = 0, frame = 0
 485              		@ frame_needed = 0, uses_anonymous_args = 0
 486 0000 10402DE9 		push	{r4, lr}
 487              		.cfi_def_cfa_offset 8
 488              		.cfi_offset 4, -8
 489              		.cfi_offset 14, -4
 341:../generate/drivers/r_cache/src/lld/r_cache_lld_rza2m.c ****     return;
 490              		.loc 1 341 5 view .LVU100
 491 0004 FEFFFFEB 		bl	r_cache_l1_d_disable
 492              	.LVL36:
 342:../generate/drivers/r_cache/src/lld/r_cache_lld_rza2m.c **** }
 493              		.loc 1 342 5 view .LVU101
 343:../generate/drivers/r_cache/src/lld/r_cache_lld_rza2m.c **** /*******************************************************************************
 494              		.loc 1 343 1 is_stmt 0 view .LVU102
 495 0008 1080BDE8 		pop	{r4, pc}
 496              		.cfi_endproc
 497              	.LFE11:
 499              		.section	.text.R_CACHE_L1BtacEnable,"ax",%progbits
 500              		.align	2
 501              		.global	R_CACHE_L1BtacEnable
 502              		.syntax unified
 503              		.arm
 504              		.fpu neon
 506              	R_CACHE_L1BtacEnable:
 507              	.LFB12:
 355:../generate/drivers/r_cache/src/lld/r_cache_lld_rza2m.c ****     r_cache_l1_btac_enable();
 508              		.loc 1 355 1 is_stmt 1 view -0
 509              		.cfi_startproc
 510              		@ args = 0, pretend = 0, frame = 0
 511              		@ frame_needed = 0, uses_anonymous_args = 0
 512 0000 10402DE9 		push	{r4, lr}
 513              		.cfi_def_cfa_offset 8
 514              		.cfi_offset 4, -8
 515              		.cfi_offset 14, -4
 356:../generate/drivers/r_cache/src/lld/r_cache_lld_rza2m.c ****     return;
 516              		.loc 1 356 5 view .LVU104
 517 0004 FEFFFFEB 		bl	r_cache_l1_btac_enable
 518              	.LVL37:
 357:../generate/drivers/r_cache/src/lld/r_cache_lld_rza2m.c **** }
 519              		.loc 1 357 5 view .LVU105
 358:../generate/drivers/r_cache/src/lld/r_cache_lld_rza2m.c **** /*******************************************************************************
 520              		.loc 1 358 1 is_stmt 0 view .LVU106
 521 0008 1080BDE8 		pop	{r4, pc}
 522              		.cfi_endproc
 523              	.LFE12:
 525              		.section	.text.R_CACHE_L1BtacDisable,"ax",%progbits
 526              		.align	2
 527              		.global	R_CACHE_L1BtacDisable
 528              		.syntax unified
 529              		.arm
 530              		.fpu neon
 532              	R_CACHE_L1BtacDisable:
 533              	.LFB13:
 370:../generate/drivers/r_cache/src/lld/r_cache_lld_rza2m.c ****     r_cache_l1_btac_disable();
 534              		.loc 1 370 1 is_stmt 1 view -0
 535              		.cfi_startproc
 536              		@ args = 0, pretend = 0, frame = 0
 537              		@ frame_needed = 0, uses_anonymous_args = 0
 538 0000 10402DE9 		push	{r4, lr}
 539              		.cfi_def_cfa_offset 8
 540              		.cfi_offset 4, -8
 541              		.cfi_offset 14, -4
 371:../generate/drivers/r_cache/src/lld/r_cache_lld_rza2m.c ****     return;
 542              		.loc 1 371 5 view .LVU108
 543 0004 FEFFFFEB 		bl	r_cache_l1_btac_disable
 544              	.LVL38:
 372:../generate/drivers/r_cache/src/lld/r_cache_lld_rza2m.c **** }
 545              		.loc 1 372 5 view .LVU109
 373:../generate/drivers/r_cache/src/lld/r_cache_lld_rza2m.c **** /*******************************************************************************
 546              		.loc 1 373 1 is_stmt 0 view .LVU110
 547 0008 1080BDE8 		pop	{r4, pc}
 548              		.cfi_endproc
 549              	.LFE13:
 551              		.section	.text.R_CACHE_L1BtacInvalidate,"ax",%progbits
 552              		.align	2
 553              		.global	R_CACHE_L1BtacInvalidate
 554              		.syntax unified
 555              		.arm
 556              		.fpu neon
 558              	R_CACHE_L1BtacInvalidate:
 559              	.LFB14:
 385:../generate/drivers/r_cache/src/lld/r_cache_lld_rza2m.c ****     r_cache_l1_btac_inv();
 560              		.loc 1 385 1 is_stmt 1 view -0
 561              		.cfi_startproc
 562              		@ args = 0, pretend = 0, frame = 0
 563              		@ frame_needed = 0, uses_anonymous_args = 0
 564 0000 10402DE9 		push	{r4, lr}
 565              		.cfi_def_cfa_offset 8
 566              		.cfi_offset 4, -8
 567              		.cfi_offset 14, -4
 386:../generate/drivers/r_cache/src/lld/r_cache_lld_rza2m.c ****     return;
 568              		.loc 1 386 5 view .LVU112
 569 0004 FEFFFFEB 		bl	r_cache_l1_btac_inv
 570              	.LVL39:
 387:../generate/drivers/r_cache/src/lld/r_cache_lld_rza2m.c **** }
 571              		.loc 1 387 5 view .LVU113
 388:../generate/drivers/r_cache/src/lld/r_cache_lld_rza2m.c **** /*******************************************************************************
 572              		.loc 1 388 1 is_stmt 0 view .LVU114
 573 0008 1080BDE8 		pop	{r4, pc}
 574              		.cfi_endproc
 575              	.LFE14:
 577              		.section	.text.R_CACHE_L1PrefetchEnable,"ax",%progbits
 578              		.align	2
 579              		.global	R_CACHE_L1PrefetchEnable
 580              		.syntax unified
 581              		.arm
 582              		.fpu neon
 584              	R_CACHE_L1PrefetchEnable:
 585              	.LFB15:
 400:../generate/drivers/r_cache/src/lld/r_cache_lld_rza2m.c ****     r_cache_l1_prefetch_enable();
 586              		.loc 1 400 1 is_stmt 1 view -0
 587              		.cfi_startproc
 588              		@ args = 0, pretend = 0, frame = 0
 589              		@ frame_needed = 0, uses_anonymous_args = 0
 590 0000 10402DE9 		push	{r4, lr}
 591              		.cfi_def_cfa_offset 8
 592              		.cfi_offset 4, -8
 593              		.cfi_offset 14, -4
 401:../generate/drivers/r_cache/src/lld/r_cache_lld_rza2m.c ****     return;
 594              		.loc 1 401 5 view .LVU116
 595 0004 FEFFFFEB 		bl	r_cache_l1_prefetch_enable
 596              	.LVL40:
 402:../generate/drivers/r_cache/src/lld/r_cache_lld_rza2m.c **** }
 597              		.loc 1 402 5 view .LVU117
 403:../generate/drivers/r_cache/src/lld/r_cache_lld_rza2m.c **** /*******************************************************************************
 598              		.loc 1 403 1 is_stmt 0 view .LVU118
 599 0008 1080BDE8 		pop	{r4, pc}
 600              		.cfi_endproc
 601              	.LFE15:
 603              		.section	.text.R_CACHE_L1Init,"ax",%progbits
 604              		.align	2
 605              		.global	R_CACHE_L1Init
 606              		.syntax unified
 607              		.arm
 608              		.fpu neon
 610              	R_CACHE_L1Init:
 611              	.LFB0:
  96:../generate/drivers/r_cache/src/lld/r_cache_lld_rza2m.c ****     /* Enable I,D cache */
 612              		.loc 1 96 1 is_stmt 1 view -0
 613              		.cfi_startproc
 614              		@ args = 0, pretend = 0, frame = 0
 615              		@ frame_needed = 0, uses_anonymous_args = 0
 616 0000 10402DE9 		push	{r4, lr}
 617              		.cfi_def_cfa_offset 8
 618              		.cfi_offset 4, -8
 619              		.cfi_offset 14, -4
  98:../generate/drivers/r_cache/src/lld/r_cache_lld_rza2m.c ****     R_CACHE_L1InstEnable();
 620              		.loc 1 98 5 view .LVU120
 621 0004 FEFFFFEB 		bl	R_CACHE_L1DataEnable
 622              	.LVL41:
  99:../generate/drivers/r_cache/src/lld/r_cache_lld_rza2m.c **** 
 623              		.loc 1 99 5 view .LVU121
 624 0008 FEFFFFEB 		bl	R_CACHE_L1InstEnable
 625              	.LVL42:
 102:../generate/drivers/r_cache/src/lld/r_cache_lld_rza2m.c **** 
 626              		.loc 1 102 5 view .LVU122
 627 000c FEFFFFEB 		bl	R_CACHE_L1BtacEnable
 628              	.LVL43:
 105:../generate/drivers/r_cache/src/lld/r_cache_lld_rza2m.c **** 
 629              		.loc 1 105 5 view .LVU123
 630 0010 FEFFFFEB 		bl	R_CACHE_L1PrefetchEnable
 631              	.LVL44:
 107:../generate/drivers/r_cache/src/lld/r_cache_lld_rza2m.c ****     return;
 632              		.loc 1 107 5 view .LVU124
 633 0014 FEFFFFEB 		bl	r_cache_l1_cache_init
 634              	.LVL45:
 108:../generate/drivers/r_cache/src/lld/r_cache_lld_rza2m.c **** }
 635              		.loc 1 108 5 view .LVU125
 109:../generate/drivers/r_cache/src/lld/r_cache_lld_rza2m.c **** /*******************************************************************************
 636              		.loc 1 109 1 is_stmt 0 view .LVU126
 637 0018 1080BDE8 		pop	{r4, pc}
 638              		.cfi_endproc
 639              	.LFE0:
 641              		.section	.text.R_CACHE_L1PrefetchDisable,"ax",%progbits
 642              		.align	2
 643              		.global	R_CACHE_L1PrefetchDisable
 644              		.syntax unified
 645              		.arm
 646              		.fpu neon
 648              	R_CACHE_L1PrefetchDisable:
 649              	.LFB16:
 415:../generate/drivers/r_cache/src/lld/r_cache_lld_rza2m.c ****     r_cache_l1_prefetch_disable();
 650              		.loc 1 415 1 is_stmt 1 view -0
 651              		.cfi_startproc
 652              		@ args = 0, pretend = 0, frame = 0
 653              		@ frame_needed = 0, uses_anonymous_args = 0
 654 0000 10402DE9 		push	{r4, lr}
 655              		.cfi_def_cfa_offset 8
 656              		.cfi_offset 4, -8
 657              		.cfi_offset 14, -4
 416:../generate/drivers/r_cache/src/lld/r_cache_lld_rza2m.c ****     return;
 658              		.loc 1 416 5 view .LVU128
 659 0004 FEFFFFEB 		bl	r_cache_l1_prefetch_disable
 660              	.LVL46:
 417:../generate/drivers/r_cache/src/lld/r_cache_lld_rza2m.c **** }
 661              		.loc 1 417 5 view .LVU129
 418:../generate/drivers/r_cache/src/lld/r_cache_lld_rza2m.c **** /*******************************************************************************
 662              		.loc 1 418 1 is_stmt 0 view .LVU130
 663 0008 1080BDE8 		pop	{r4, pc}
 664              		.cfi_endproc
 665              	.LFE16:
 667              		.section	.text.R_CACHE_L2CacheEnable,"ax",%progbits
 668              		.align	2
 669              		.global	R_CACHE_L2CacheEnable
 670              		.syntax unified
 671              		.arm
 672              		.fpu neon
 674              	R_CACHE_L2CacheEnable:
 675              	.LFB18:
 473:../generate/drivers/r_cache/src/lld/r_cache_lld_rza2m.c ****     /* Casting the pointer to a uint32_t type is valid because "unsigned long" is same 4byte unsign
 676              		.loc 1 473 1 is_stmt 1 view -0
 677              		.cfi_startproc
 678              		@ args = 0, pretend = 0, frame = 0
 679              		@ frame_needed = 0, uses_anonymous_args = 0
 680 0000 10402DE9 		push	{r4, lr}
 681              		.cfi_def_cfa_offset 8
 682              		.cfi_offset 4, -8
 683              		.cfi_offset 14, -4
 475:../generate/drivers/r_cache/src/lld/r_cache_lld_rza2m.c ****     cache_l2_sync();
 684              		.loc 1 475 5 view .LVU132
 685 0004 0030E0E3 		mvn	r3, #0
 686 0008 0020A0E3 		mov	r2, #0
 687 000c 0110A0E3 		mov	r1, #1
 688 0010 310CA0E3 		mov	r0, #12544
 689 0014 000F41E3 		movt	r0, 7936
 690 0018 FEFFFFEB 		bl	RZA_IO_RegWrite_32
 691              	.LVL47:
 476:../generate/drivers/r_cache/src/lld/r_cache_lld_rza2m.c ****     return;
 692              		.loc 1 476 5 view .LVU133
 693 001c FEFFFFEB 		bl	cache_l2_sync
 694              	.LVL48:
 477:../generate/drivers/r_cache/src/lld/r_cache_lld_rza2m.c **** }
 695              		.loc 1 477 5 view .LVU134
 478:../generate/drivers/r_cache/src/lld/r_cache_lld_rza2m.c **** /*******************************************************************************
 696              		.loc 1 478 1 is_stmt 0 view .LVU135
 697 0020 1080BDE8 		pop	{r4, pc}
 698              		.cfi_endproc
 699              	.LFE18:
 701              		.section	.text.R_CACHE_L2CacheDisable,"ax",%progbits
 702              		.align	2
 703              		.global	R_CACHE_L2CacheDisable
 704              		.syntax unified
 705              		.arm
 706              		.fpu neon
 708              	R_CACHE_L2CacheDisable:
 709              	.LFB19:
 490:../generate/drivers/r_cache/src/lld/r_cache_lld_rza2m.c ****     /* Casting the pointer to a uint32_t type is valid because "unsigned long" is same 4byte unsign
 710              		.loc 1 490 1 is_stmt 1 view -0
 711              		.cfi_startproc
 712              		@ args = 0, pretend = 0, frame = 0
 713              		@ frame_needed = 0, uses_anonymous_args = 0
 714 0000 10402DE9 		push	{r4, lr}
 715              		.cfi_def_cfa_offset 8
 716              		.cfi_offset 4, -8
 717              		.cfi_offset 14, -4
 492:../generate/drivers/r_cache/src/lld/r_cache_lld_rza2m.c ****     cache_l2_sync();
 718              		.loc 1 492 5 view .LVU137
 719 0004 0030E0E3 		mvn	r3, #0
 720 0008 0020A0E3 		mov	r2, #0
 721 000c 0210A0E1 		mov	r1, r2
 722 0010 310CA0E3 		mov	r0, #12544
 723 0014 000F41E3 		movt	r0, 7936
 724 0018 FEFFFFEB 		bl	RZA_IO_RegWrite_32
 725              	.LVL49:
 493:../generate/drivers/r_cache/src/lld/r_cache_lld_rza2m.c ****     return;
 726              		.loc 1 493 5 view .LVU138
 727 001c FEFFFFEB 		bl	cache_l2_sync
 728              	.LVL50:
 494:../generate/drivers/r_cache/src/lld/r_cache_lld_rza2m.c **** }
 729              		.loc 1 494 5 view .LVU139
 495:../generate/drivers/r_cache/src/lld/r_cache_lld_rza2m.c **** /*******************************************************************************
 730              		.loc 1 495 1 is_stmt 0 view .LVU140
 731 0020 1080BDE8 		pop	{r4, pc}
 732              		.cfi_endproc
 733              	.LFE19:
 735              		.section	.text.R_CACHE_L2PrefetchEnable,"ax",%progbits
 736              		.align	2
 737              		.global	R_CACHE_L2PrefetchEnable
 738              		.syntax unified
 739              		.arm
 740              		.fpu neon
 742              	R_CACHE_L2PrefetchEnable:
 743              	.LFB20:
 507:../generate/drivers/r_cache/src/lld/r_cache_lld_rza2m.c ****     uint32_t reg32;
 744              		.loc 1 507 1 is_stmt 1 view -0
 745              		.cfi_startproc
 746              		@ args = 0, pretend = 0, frame = 0
 747              		@ frame_needed = 0, uses_anonymous_args = 0
 748 0000 10402DE9 		push	{r4, lr}
 749              		.cfi_def_cfa_offset 8
 750              		.cfi_offset 4, -8
 751              		.cfi_offset 14, -4
 508:../generate/drivers/r_cache/src/lld/r_cache_lld_rza2m.c **** 
 752              		.loc 1 508 5 view .LVU142
 511:../generate/drivers/r_cache/src/lld/r_cache_lld_rza2m.c **** 
 753              		.loc 1 511 5 view .LVU143
 511:../generate/drivers/r_cache/src/lld/r_cache_lld_rza2m.c **** 
 754              		.loc 1 511 13 is_stmt 0 view .LVU144
 755 0004 604F03E3 		movw	r4, #16224
 756 0008 004F41E3 		movt	r4, 7936
 757 000c 0020E0E3 		mvn	r2, #0
 758 0010 0010A0E3 		mov	r1, #0
 759 0014 0400A0E1 		mov	r0, r4
 760 0018 FEFFFFEB 		bl	RZA_IO_RegRead_32
 761              	.LVL51:
 516:../generate/drivers/r_cache/src/lld/r_cache_lld_rza2m.c **** #endif/*PL310_CFG_DOUBLE_LINE_FILL*/
 762              		.loc 1 516 5 is_stmt 1 view .LVU145
 522:../generate/drivers/r_cache/src/lld/r_cache_lld_rza2m.c **** #endif/*PL310_CFG_INSTRUCTION_PREFETCH*/
 763              		.loc 1 522 5 view .LVU146
 528:../generate/drivers/r_cache/src/lld/r_cache_lld_rza2m.c **** #endif/*PL310_CFG_DATA_PREFETCH*/
 764              		.loc 1 528 5 view .LVU147
 532:../generate/drivers/r_cache/src/lld/r_cache_lld_rza2m.c ****     cache_l2_sync();
 765              		.loc 1 532 5 view .LVU148
 766 001c 0030E0E3 		mvn	r3, #0
 767 0020 0020A0E3 		mov	r2, #0
 768 0024 0712C0E3 		bic	r1, r0, #1879048192
 769              	.LVL52:
 532:../generate/drivers/r_cache/src/lld/r_cache_lld_rza2m.c ****     cache_l2_sync();
 770              		.loc 1 532 5 is_stmt 0 view .LVU149
 771 0028 0400A0E1 		mov	r0, r4
 772 002c FEFFFFEB 		bl	RZA_IO_RegWrite_32
 773              	.LVL53:
 533:../generate/drivers/r_cache/src/lld/r_cache_lld_rza2m.c ****     return;
 774              		.loc 1 533 5 is_stmt 1 view .LVU150
 775 0030 FEFFFFEB 		bl	cache_l2_sync
 776              	.LVL54:
 534:../generate/drivers/r_cache/src/lld/r_cache_lld_rza2m.c **** }
 777              		.loc 1 534 5 view .LVU151
 535:../generate/drivers/r_cache/src/lld/r_cache_lld_rza2m.c **** /*******************************************************************************
 778              		.loc 1 535 1 is_stmt 0 view .LVU152
 779 0034 1080BDE8 		pop	{r4, pc}
 780              		.cfi_endproc
 781              	.LFE20:
 783              		.section	.text.R_CACHE_L2PrefetchDisable,"ax",%progbits
 784              		.align	2
 785              		.global	R_CACHE_L2PrefetchDisable
 786              		.syntax unified
 787              		.arm
 788              		.fpu neon
 790              	R_CACHE_L2PrefetchDisable:
 791              	.LFB21:
 547:../generate/drivers/r_cache/src/lld/r_cache_lld_rza2m.c ****     uint32_t reg32;
 792              		.loc 1 547 1 is_stmt 1 view -0
 793              		.cfi_startproc
 794              		@ args = 0, pretend = 0, frame = 0
 795              		@ frame_needed = 0, uses_anonymous_args = 0
 796 0000 10402DE9 		push	{r4, lr}
 797              		.cfi_def_cfa_offset 8
 798              		.cfi_offset 4, -8
 799              		.cfi_offset 14, -4
 548:../generate/drivers/r_cache/src/lld/r_cache_lld_rza2m.c **** 
 800              		.loc 1 548 5 view .LVU154
 551:../generate/drivers/r_cache/src/lld/r_cache_lld_rza2m.c **** 
 801              		.loc 1 551 5 view .LVU155
 551:../generate/drivers/r_cache/src/lld/r_cache_lld_rza2m.c **** 
 802              		.loc 1 551 13 is_stmt 0 view .LVU156
 803 0004 604F03E3 		movw	r4, #16224
 804 0008 004F41E3 		movt	r4, 7936
 805 000c 0020E0E3 		mvn	r2, #0
 806 0010 0010A0E3 		mov	r1, #0
 807 0014 0400A0E1 		mov	r0, r4
 808 0018 FEFFFFEB 		bl	RZA_IO_RegRead_32
 809              	.LVL55:
 553:../generate/drivers/r_cache/src/lld/r_cache_lld_rza2m.c ****     reg32 &= (~(1u << PL310_REG15_PREFETCH_CTRL_Instructionprefetchenable_SHIFT));
 810              		.loc 1 553 5 is_stmt 1 view .LVU157
 554:../generate/drivers/r_cache/src/lld/r_cache_lld_rza2m.c ****     reg32 &= (~(1u << PL310_REG15_PREFETCH_CTRL_Dataprefetchenable_SHIFT));
 811              		.loc 1 554 5 view .LVU158
 555:../generate/drivers/r_cache/src/lld/r_cache_lld_rza2m.c **** 
 812              		.loc 1 555 5 view .LVU159
 558:../generate/drivers/r_cache/src/lld/r_cache_lld_rza2m.c ****     cache_l2_sync();
 813              		.loc 1 558 5 view .LVU160
 814 001c 0030E0E3 		mvn	r3, #0
 815 0020 0020A0E3 		mov	r2, #0
 816 0024 0712C0E3 		bic	r1, r0, #1879048192
 817              	.LVL56:
 558:../generate/drivers/r_cache/src/lld/r_cache_lld_rza2m.c ****     cache_l2_sync();
 818              		.loc 1 558 5 is_stmt 0 view .LVU161
 819 0028 0400A0E1 		mov	r0, r4
 820 002c FEFFFFEB 		bl	RZA_IO_RegWrite_32
 821              	.LVL57:
 559:../generate/drivers/r_cache/src/lld/r_cache_lld_rza2m.c ****     return;
 822              		.loc 1 559 5 is_stmt 1 view .LVU162
 823 0030 FEFFFFEB 		bl	cache_l2_sync
 824              	.LVL58:
 560:../generate/drivers/r_cache/src/lld/r_cache_lld_rza2m.c **** }
 825              		.loc 1 560 5 view .LVU163
 561:../generate/drivers/r_cache/src/lld/r_cache_lld_rza2m.c **** /*******************************************************************************
 826              		.loc 1 561 1 is_stmt 0 view .LVU164
 827 0034 1080BDE8 		pop	{r4, pc}
 828              		.cfi_endproc
 829              	.LFE21:
 831              		.section	.text.R_CACHE_L2InvalidAll,"ax",%progbits
 832              		.align	2
 833              		.global	R_CACHE_L2InvalidAll
 834              		.syntax unified
 835              		.arm
 836              		.fpu neon
 838              	R_CACHE_L2InvalidAll:
 839              	.LFB22:
 573:../generate/drivers/r_cache/src/lld/r_cache_lld_rza2m.c ****     uint32_t reg32;
 840              		.loc 1 573 1 is_stmt 1 view -0
 841              		.cfi_startproc
 842              		@ args = 0, pretend = 0, frame = 0
 843              		@ frame_needed = 0, uses_anonymous_args = 0
 844 0000 10402DE9 		push	{r4, lr}
 845              		.cfi_def_cfa_offset 8
 846              		.cfi_offset 4, -8
 847              		.cfi_offset 14, -4
 574:../generate/drivers/r_cache/src/lld/r_cache_lld_rza2m.c **** 
 848              		.loc 1 574 5 view .LVU166
 577:../generate/drivers/r_cache/src/lld/r_cache_lld_rza2m.c ****                        CACHE_PRV_PL310_ALLWAYBITS_8,
 849              		.loc 1 577 5 view .LVU167
 850 0004 FF30A0E3 		mov	r3, #255
 851 0008 0020A0E3 		mov	r2, #0
 852 000c 0310A0E1 		mov	r1, r3
 853 0010 7C0703E3 		movw	r0, #14204
 854 0014 000F41E3 		movt	r0, 7936
 855 0018 FEFFFFEB 		bl	RZA_IO_RegWrite_32
 856              	.LVL59:
 857              	.L66:
 583:../generate/drivers/r_cache/src/lld/r_cache_lld_rza2m.c ****     {
 858              		.loc 1 583 5 discriminator 1 view .LVU168
 586:../generate/drivers/r_cache/src/lld/r_cache_lld_rza2m.c ****                                   PL310_REG7_INV_WAY_Way_bits_SHIFT,
 859              		.loc 1 586 9 discriminator 1 view .LVU169
 586:../generate/drivers/r_cache/src/lld/r_cache_lld_rza2m.c ****                                   PL310_REG7_INV_WAY_Way_bits_SHIFT,
 860              		.loc 1 586 17 is_stmt 0 discriminator 1 view .LVU170
 861 001c FF20A0E3 		mov	r2, #255
 862 0020 0010A0E3 		mov	r1, #0
 863 0024 7C0703E3 		movw	r0, #14204
 864 0028 000F41E3 		movt	r0, 7936
 865 002c FEFFFFEB 		bl	RZA_IO_RegRead_32
 866              	.LVL60:
 589:../generate/drivers/r_cache/src/lld/r_cache_lld_rza2m.c ****     cache_l2_sync();
 867              		.loc 1 589 13 is_stmt 1 discriminator 1 view .LVU171
 589:../generate/drivers/r_cache/src/lld/r_cache_lld_rza2m.c ****     cache_l2_sync();
 868              		.loc 1 589 5 is_stmt 0 discriminator 1 view .LVU172
 869 0030 000050E3 		cmp	r0, #0
 870 0034 F8FFFF1A 		bne	.L66
 590:../generate/drivers/r_cache/src/lld/r_cache_lld_rza2m.c **** 
 871              		.loc 1 590 5 is_stmt 1 view .LVU173
 872 0038 FEFFFFEB 		bl	cache_l2_sync
 873              	.LVL61:
 592:../generate/drivers/r_cache/src/lld/r_cache_lld_rza2m.c **** }
 874              		.loc 1 592 5 view .LVU174
 593:../generate/drivers/r_cache/src/lld/r_cache_lld_rza2m.c **** /*******************************************************************************
 875              		.loc 1 593 1 is_stmt 0 view .LVU175
 876 003c 1080BDE8 		pop	{r4, pc}
 877              		.cfi_endproc
 878              	.LFE22:
 880              		.section	.text.R_CACHE_L2Init,"ax",%progbits
 881              		.align	2
 882              		.global	R_CACHE_L2Init
 883              		.syntax unified
 884              		.arm
 885              		.fpu neon
 887              	R_CACHE_L2Init:
 888              	.LFB17:
 430:../generate/drivers/r_cache/src/lld/r_cache_lld_rza2m.c ****     /* You must disable the L2 cache by writing to the Control Register 1 before
 889              		.loc 1 430 1 is_stmt 1 view -0
 890              		.cfi_startproc
 891              		@ args = 0, pretend = 0, frame = 0
 892              		@ frame_needed = 0, uses_anonymous_args = 0
 893 0000 10402DE9 		push	{r4, lr}
 894              		.cfi_def_cfa_offset 8
 895              		.cfi_offset 4, -8
 896              		.cfi_offset 14, -4
 435:../generate/drivers/r_cache/src/lld/r_cache_lld_rza2m.c **** 
 897              		.loc 1 435 5 view .LVU177
 898 0004 FEFFFFEB 		bl	R_CACHE_L2CacheDisable
 899              	.LVL62:
 441:../generate/drivers/r_cache/src/lld/r_cache_lld_rza2m.c **** 
 900              		.loc 1 441 5 view .LVU178
 901 0008 FEFFFFEB 		bl	R_CACHE_L2PrefetchEnable
 902              	.LVL63:
 446:../generate/drivers/r_cache/src/lld/r_cache_lld_rza2m.c **** 
 903              		.loc 1 446 5 view .LVU179
 904 000c FEFFFFEB 		bl	R_CACHE_L2InvalidAll
 905              	.LVL64:
 452:../generate/drivers/r_cache/src/lld/r_cache_lld_rza2m.c **** 
 906              		.loc 1 452 5 view .LVU180
 907 0010 0030E0E3 		mvn	r3, #0
 908 0014 0020A0E3 		mov	r2, #0
 909 0018 FF1100E3 		movw	r1, #511
 910 001c 200203E3 		movw	r0, #12832
 911 0020 000F41E3 		movt	r0, 7936
 912 0024 FEFFFFEB 		bl	RZA_IO_RegWrite_32
 913              	.LVL65:
 459:../generate/drivers/r_cache/src/lld/r_cache_lld_rza2m.c ****     return;
 914              		.loc 1 459 5 view .LVU181
 915 0028 FEFFFFEB 		bl	R_CACHE_L2CacheEnable
 916              	.LVL66:
 460:../generate/drivers/r_cache/src/lld/r_cache_lld_rza2m.c **** }
 917              		.loc 1 460 5 view .LVU182
 461:../generate/drivers/r_cache/src/lld/r_cache_lld_rza2m.c **** /*******************************************************************************
 918              		.loc 1 461 1 is_stmt 0 view .LVU183
 919 002c 1080BDE8 		pop	{r4, pc}
 920              		.cfi_endproc
 921              	.LFE17:
 923              		.section	.text.R_CACHE_L2CleanAll,"ax",%progbits
 924              		.align	2
 925              		.global	R_CACHE_L2CleanAll
 926              		.syntax unified
 927              		.arm
 928              		.fpu neon
 930              	R_CACHE_L2CleanAll:
 931              	.LFB23:
 605:../generate/drivers/r_cache/src/lld/r_cache_lld_rza2m.c ****     uint32_t reg32;
 932              		.loc 1 605 1 is_stmt 1 view -0
 933              		.cfi_startproc
 934              		@ args = 0, pretend = 0, frame = 0
 935              		@ frame_needed = 0, uses_anonymous_args = 0
 936 0000 10402DE9 		push	{r4, lr}
 937              		.cfi_def_cfa_offset 8
 938              		.cfi_offset 4, -8
 939              		.cfi_offset 14, -4
 606:../generate/drivers/r_cache/src/lld/r_cache_lld_rza2m.c **** 
 940              		.loc 1 606 5 view .LVU185
 609:../generate/drivers/r_cache/src/lld/r_cache_lld_rza2m.c ****                        CACHE_PRV_PL310_ALLWAYBITS_8,
 941              		.loc 1 609 5 view .LVU186
 942 0004 FF30A0E3 		mov	r3, #255
 943 0008 0020A0E3 		mov	r2, #0
 944 000c 0310A0E1 		mov	r1, r3
 945 0010 BC0703E3 		movw	r0, #14268
 946 0014 000F41E3 		movt	r0, 7936
 947 0018 FEFFFFEB 		bl	RZA_IO_RegWrite_32
 948              	.LVL67:
 949              	.L71:
 615:../generate/drivers/r_cache/src/lld/r_cache_lld_rza2m.c ****     {
 950              		.loc 1 615 5 discriminator 1 view .LVU187
 618:../generate/drivers/r_cache/src/lld/r_cache_lld_rza2m.c ****                                   PL310_REG7_CLEAN_WAY_Way_bits_SHIFT,
 951              		.loc 1 618 9 discriminator 1 view .LVU188
 618:../generate/drivers/r_cache/src/lld/r_cache_lld_rza2m.c ****                                   PL310_REG7_CLEAN_WAY_Way_bits_SHIFT,
 952              		.loc 1 618 17 is_stmt 0 discriminator 1 view .LVU189
 953 001c FF20A0E3 		mov	r2, #255
 954 0020 0010A0E3 		mov	r1, #0
 955 0024 BC0703E3 		movw	r0, #14268
 956 0028 000F41E3 		movt	r0, 7936
 957 002c FEFFFFEB 		bl	RZA_IO_RegRead_32
 958              	.LVL68:
 621:../generate/drivers/r_cache/src/lld/r_cache_lld_rza2m.c ****     cache_l2_sync();
 959              		.loc 1 621 13 is_stmt 1 discriminator 1 view .LVU190
 621:../generate/drivers/r_cache/src/lld/r_cache_lld_rza2m.c ****     cache_l2_sync();
 960              		.loc 1 621 5 is_stmt 0 discriminator 1 view .LVU191
 961 0030 000050E3 		cmp	r0, #0
 962 0034 F8FFFF1A 		bne	.L71
 622:../generate/drivers/r_cache/src/lld/r_cache_lld_rza2m.c **** 
 963              		.loc 1 622 5 is_stmt 1 view .LVU192
 964 0038 FEFFFFEB 		bl	cache_l2_sync
 965              	.LVL69:
 624:../generate/drivers/r_cache/src/lld/r_cache_lld_rza2m.c **** }
 966              		.loc 1 624 5 view .LVU193
 625:../generate/drivers/r_cache/src/lld/r_cache_lld_rza2m.c **** /*******************************************************************************
 967              		.loc 1 625 1 is_stmt 0 view .LVU194
 968 003c 1080BDE8 		pop	{r4, pc}
 969              		.cfi_endproc
 970              	.LFE23:
 972              		.section	.text.R_CACHE_L2CleanInvalidAll,"ax",%progbits
 973              		.align	2
 974              		.global	R_CACHE_L2CleanInvalidAll
 975              		.syntax unified
 976              		.arm
 977              		.fpu neon
 979              	R_CACHE_L2CleanInvalidAll:
 980              	.LFB24:
 637:../generate/drivers/r_cache/src/lld/r_cache_lld_rza2m.c ****     uint32_t reg32;
 981              		.loc 1 637 1 is_stmt 1 view -0
 982              		.cfi_startproc
 983              		@ args = 0, pretend = 0, frame = 0
 984              		@ frame_needed = 0, uses_anonymous_args = 0
 985 0000 10402DE9 		push	{r4, lr}
 986              		.cfi_def_cfa_offset 8
 987              		.cfi_offset 4, -8
 988              		.cfi_offset 14, -4
 638:../generate/drivers/r_cache/src/lld/r_cache_lld_rza2m.c **** 
 989              		.loc 1 638 5 view .LVU196
 641:../generate/drivers/r_cache/src/lld/r_cache_lld_rza2m.c ****                        CACHE_PRV_PL310_ALLWAYBITS_8,
 990              		.loc 1 641 5 view .LVU197
 991 0004 FF30A0E3 		mov	r3, #255
 992 0008 0020A0E3 		mov	r2, #0
 993 000c 0310A0E1 		mov	r1, r3
 994 0010 FC0703E3 		movw	r0, #14332
 995 0014 000F41E3 		movt	r0, 7936
 996 0018 FEFFFFEB 		bl	RZA_IO_RegWrite_32
 997              	.LVL70:
 998              	.L74:
 647:../generate/drivers/r_cache/src/lld/r_cache_lld_rza2m.c ****     {
 999              		.loc 1 647 5 discriminator 1 view .LVU198
 650:../generate/drivers/r_cache/src/lld/r_cache_lld_rza2m.c ****                                   PL310_REG7_CLEAN_INV_WAY_Way_bits_SHIFT,
 1000              		.loc 1 650 9 discriminator 1 view .LVU199
 650:../generate/drivers/r_cache/src/lld/r_cache_lld_rza2m.c ****                                   PL310_REG7_CLEAN_INV_WAY_Way_bits_SHIFT,
 1001              		.loc 1 650 17 is_stmt 0 discriminator 1 view .LVU200
 1002 001c FF20A0E3 		mov	r2, #255
 1003 0020 0010A0E3 		mov	r1, #0
 1004 0024 FC0703E3 		movw	r0, #14332
 1005 0028 000F41E3 		movt	r0, 7936
 1006 002c FEFFFFEB 		bl	RZA_IO_RegRead_32
 1007              	.LVL71:
 653:../generate/drivers/r_cache/src/lld/r_cache_lld_rza2m.c ****     cache_l2_sync();
 1008              		.loc 1 653 13 is_stmt 1 discriminator 1 view .LVU201
 653:../generate/drivers/r_cache/src/lld/r_cache_lld_rza2m.c ****     cache_l2_sync();
 1009              		.loc 1 653 5 is_stmt 0 discriminator 1 view .LVU202
 1010 0030 000050E3 		cmp	r0, #0
 1011 0034 F8FFFF1A 		bne	.L74
 654:../generate/drivers/r_cache/src/lld/r_cache_lld_rza2m.c **** 
 1012              		.loc 1 654 5 is_stmt 1 view .LVU203
 1013 0038 FEFFFFEB 		bl	cache_l2_sync
 1014              	.LVL72:
 656:../generate/drivers/r_cache/src/lld/r_cache_lld_rza2m.c **** }
 1015              		.loc 1 656 5 view .LVU204
 657:../generate/drivers/r_cache/src/lld/r_cache_lld_rza2m.c **** /*******************************************************************************
 1016              		.loc 1 657 1 is_stmt 0 view .LVU205
 1017 003c 1080BDE8 		pop	{r4, pc}
 1018              		.cfi_endproc
 1019              	.LFE24:
 1021              		.section	.rodata.R_CACHE_GetVersion.str1.4,"aMS",%progbits,1
 1022              		.align	2
 1023              	.LC0:
 1024 0000 4C4C4420 		.ascii	"LLD EBK_RZA2M CACHE\000"
 1024      45424B5F 
 1024      525A4132 
 1024      4D204341 
 1024      43484500 
 1025              		.section	.text.R_CACHE_GetVersion,"ax",%progbits
 1026              		.align	2
 1027              		.global	R_CACHE_GetVersion
 1028              		.syntax unified
 1029              		.arm
 1030              		.fpu neon
 1032              	R_CACHE_GetVersion:
 1033              	.LVL73:
 1034              	.LFB26:
 680:../generate/drivers/r_cache/src/lld/r_cache_lld_rza2m.c **** 
 681:../generate/drivers/r_cache/src/lld/r_cache_lld_rza2m.c ****     return;
 682:../generate/drivers/r_cache/src/lld/r_cache_lld_rza2m.c **** }
 683:../generate/drivers/r_cache/src/lld/r_cache_lld_rza2m.c **** /*******************************************************************************
 684:../generate/drivers/r_cache/src/lld/r_cache_lld_rza2m.c **** End of function cache_l2_sync
 685:../generate/drivers/r_cache/src/lld/r_cache_lld_rza2m.c **** *******************************************************************************/
 686:../generate/drivers/r_cache/src/lld/r_cache_lld_rza2m.c **** 
 687:../generate/drivers/r_cache/src/lld/r_cache_lld_rza2m.c **** /*******************************************************************************
 688:../generate/drivers/r_cache/src/lld/r_cache_lld_rza2m.c **** * Function Name: R_CACHE_GetVersion
 689:../generate/drivers/r_cache/src/lld/r_cache_lld_rza2m.c **** * Description  : Gets the version number of this low-level driver
 690:../generate/drivers/r_cache/src/lld/r_cache_lld_rza2m.c **** * Arguments    : p_ver_info[out] - returns the driver information
 691:../generate/drivers/r_cache/src/lld/r_cache_lld_rza2m.c **** * Return Value : DRV_SUCCESS Always returned
 692:../generate/drivers/r_cache/src/lld/r_cache_lld_rza2m.c **** *******************************************************************************/
 693:../generate/drivers/r_cache/src/lld/r_cache_lld_rza2m.c **** int_t R_CACHE_GetVersion(st_ver_info_t *p_ver_info)
 694:../generate/drivers/r_cache/src/lld/r_cache_lld_rza2m.c **** {
 1035              		.loc 1 694 1 is_stmt 1 view -0
 1036              		.cfi_startproc
 1037              		@ args = 0, pretend = 0, frame = 0
 1038              		@ frame_needed = 0, uses_anonymous_args = 0
 1039              		@ link register save eliminated.
 1040              		.loc 1 694 1 is_stmt 0 view .LVU207
 1041 0000 0030A0E1 		mov	r3, r0
 695:../generate/drivers/r_cache/src/lld/r_cache_lld_rza2m.c ****     p_ver_info->lld.p_szdriver_name = gs_lld_info.p_szdriver_name;
 1042              		.loc 1 695 5 is_stmt 1 view .LVU208
 1043              		.loc 1 695 37 is_stmt 0 view .LVU209
 1044 0004 002000E3 		movw	r2, #:lower16:.LC0
 1045 0008 002040E3 		movt	r2, #:upper16:.LC0
 1046 000c 142080E5 		str	r2, [r0, #20]
 696:../generate/drivers/r_cache/src/lld/r_cache_lld_rza2m.c ****     p_ver_info->lld.version.sub.major = gs_lld_info.version.sub.major;
 1047              		.loc 1 696 5 is_stmt 1 view .LVU210
 1048              		.loc 1 696 39 is_stmt 0 view .LVU211
 1049 0010 0120A0E3 		mov	r2, #1
 1050 0014 BE20C0E1 		strh	r2, [r0, #14]	@ movhi
 697:../generate/drivers/r_cache/src/lld/r_cache_lld_rza2m.c ****     p_ver_info->lld.version.sub.minor = gs_lld_info.version.sub.minor;
 1051              		.loc 1 697 5 is_stmt 1 view .LVU212
 1052              		.loc 1 697 39 is_stmt 0 view .LVU213
 1053 0018 0320A0E3 		mov	r2, #3
 1054 001c BC20C0E1 		strh	r2, [r0, #12]	@ movhi
 698:../generate/drivers/r_cache/src/lld/r_cache_lld_rza2m.c ****     p_ver_info->lld.build = gs_lld_info.build;
 1055              		.loc 1 698 5 is_stmt 1 view .LVU214
 1056              		.loc 1 698 27 is_stmt 0 view .LVU215
 1057 0020 0000A0E3 		mov	r0, #0
 1058              	.LVL74:
 1059              		.loc 1 698 27 view .LVU216
 1060 0024 100083E5 		str	r0, [r3, #16]
 699:../generate/drivers/r_cache/src/lld/r_cache_lld_rza2m.c **** 
 700:../generate/drivers/r_cache/src/lld/r_cache_lld_rza2m.c ****     return (DRV_SUCCESS);
 1061              		.loc 1 700 5 is_stmt 1 view .LVU217
 701:../generate/drivers/r_cache/src/lld/r_cache_lld_rza2m.c **** }
 1062              		.loc 1 701 1 is_stmt 0 view .LVU218
 1063 0028 1EFF2FE1 		bx	lr
 1064              		.cfi_endproc
 1065              	.LFE26:
 1067              		.text
 1068              	.Letext0:
 1069              		.file 2 "c:\\program files (x86)\\gnu arm embedded toolchain\\9 2020-q2-update\\arm-none-eabi\\inc
 1070              		.file 3 "c:\\program files (x86)\\gnu arm embedded toolchain\\9 2020-q2-update\\arm-none-eabi\\inc
 1071              		.file 4 "C:/Users/ryota/e2_studio/workspace/rza2m_ssif_sample_freertos_gcc/generate/system/iodefin
 1072              		.file 5 "c:\\program files (x86)\\gnu arm embedded toolchain\\9 2020-q2-update\\lib\\gcc\\arm-none
 1073              		.file 6 "c:\\program files (x86)\\gnu arm embedded toolchain\\9 2020-q2-update\\arm-none-eabi\\inc
 1074              		.file 7 "c:\\program files (x86)\\gnu arm embedded toolchain\\9 2020-q2-update\\arm-none-eabi\\inc
 1075              		.file 8 "c:\\program files (x86)\\gnu arm embedded toolchain\\9 2020-q2-update\\arm-none-eabi\\inc
 1076              		.file 9 "c:\\program files (x86)\\gnu arm embedded toolchain\\9 2020-q2-update\\arm-none-eabi\\inc
 1077              		.file 10 "C:/Users/ryota/e2_studio/workspace/rza2m_ssif_sample_freertos_gcc/generate/system/inc/r_
 1078              		.file 11 "C:/Users/ryota/e2_studio/workspace/rza2m_ssif_sample_freertos_gcc/generate/system/inc/dr
 1079              		.file 12 "C:/Users/ryota/e2_studio/workspace/rza2m_ssif_sample_freertos_gcc/generate/system/inc/rz
 1080              		.file 13 "C:/Users/ryota/e2_studio/workspace/rza2m_ssif_sample_freertos_gcc/generate/drivers/r_cac