   1              		.cpu cortex-a9
   2              		.eabi_attribute 28, 1
   3              		.eabi_attribute 20, 1
   4              		.eabi_attribute 21, 1
   5              		.eabi_attribute 23, 3
   6              		.eabi_attribute 24, 1
   7              		.eabi_attribute 25, 1
   8              		.eabi_attribute 26, 1
   9              		.eabi_attribute 30, 1
  10              		.eabi_attribute 34, 0
  11              		.eabi_attribute 18, 4
  12              		.file	"cmd_sound_app.c"
  13              		.text
  14              	.Ltext0:
  15              		.cfi_sections	.debug_frame
  16              		.section	.text.cmd_record_sound_app,"ax",%progbits
  17              		.align	2
  18              		.arch armv7-a
  19              		.arch_extension mp
  20              		.arch_extension sec
  21              		.syntax unified
  22              		.arm
  23              		.fpu neon
  25              	cmd_record_sound_app:
  26              	.LVL0:
  27              	.LFB7:
  28              		.file 1 "../src/renesas/application/console/cmd/cmd_sound_app.c"
   1:../src/renesas/application/console/cmd/cmd_sound_app.c **** /******************************************************************************
   2:../src/renesas/application/console/cmd/cmd_sound_app.c ****  * DISCLAIMER
   3:../src/renesas/application/console/cmd/cmd_sound_app.c ****  * This software is supplied by Renesas Electronics Corporation and is only
   4:../src/renesas/application/console/cmd/cmd_sound_app.c ****  * intended for use with Renesas products. No other uses are authorized. This
   5:../src/renesas/application/console/cmd/cmd_sound_app.c ****  * software is owned by Renesas Electronics Corporation and is protected under
   6:../src/renesas/application/console/cmd/cmd_sound_app.c ****  * all applicable laws, including copyright laws.
   7:../src/renesas/application/console/cmd/cmd_sound_app.c ****  * THIS SOFTWARE IS PROVIDED "AS IS" AND RENESAS MAKES NO WARRANTIES REGARDING
   8:../src/renesas/application/console/cmd/cmd_sound_app.c ****  * THIS SOFTWARE, WHETHER EXPRESS, IMPLIED OR STATUTORY, INCLUDING BUT NOT
   9:../src/renesas/application/console/cmd/cmd_sound_app.c ****  * LIMITED TO WARRANTIES OF MERCHANTABILITY, FITNESS FOR A PARTICULAR PURPOSE
  10:../src/renesas/application/console/cmd/cmd_sound_app.c ****  * AND NON-INFRINGEMENT. ALL SUCH WARRANTIES ARE EXPRESSLY DISCLAIMED.
  11:../src/renesas/application/console/cmd/cmd_sound_app.c ****  * TO THE MAXIMUM EXTENT PERMITTED NOT PROHIBITED BY LAW, NEITHER RENESAS
  12:../src/renesas/application/console/cmd/cmd_sound_app.c ****  * ELECTRONICS CORPORATION NOR ANY OF ITS AFFILIATED COMPANIES SHALL BE LIABLE
  13:../src/renesas/application/console/cmd/cmd_sound_app.c ****  * FOR ANY DIRECT, INDIRECT, SPECIAL, INCIDENTAL OR CONSEQUENTIAL DAMAGES FOR
  14:../src/renesas/application/console/cmd/cmd_sound_app.c ****  * ANY REASON RELATED TO THIS SOFTWARE, EVEN IF RENESAS OR ITS AFFILIATES HAVE
  15:../src/renesas/application/console/cmd/cmd_sound_app.c ****  * BEEN ADVISED OF THE POSSIBILITY OF SUCH DAMAGES.
  16:../src/renesas/application/console/cmd/cmd_sound_app.c ****  * Renesas reserves the right, without notice, to make changes to this software
  17:../src/renesas/application/console/cmd/cmd_sound_app.c ****  * and to discontinue the availability of this software. By using this software,
  18:../src/renesas/application/console/cmd/cmd_sound_app.c ****  * you agree to the additional terms and conditions found by accessing the
  19:../src/renesas/application/console/cmd/cmd_sound_app.c ****  * following link:
  20:../src/renesas/application/console/cmd/cmd_sound_app.c ****  * http://www.renesas.com/disclaimer
  21:../src/renesas/application/console/cmd/cmd_sound_app.c ****  *******************************************************************************
  22:../src/renesas/application/console/cmd/cmd_sound_app.c ****  * Copyright (C) 2018 Renesas Electronics Corporation. All rights reserved.
  23:../src/renesas/application/console/cmd/cmd_sound_app.c ****  *******************************************************************************
  24:../src/renesas/application/console/cmd/cmd_sound_app.c ****  * File Name    : cmd_sound_app.c
  25:../src/renesas/application/console/cmd/cmd_sound_app.c ****  * Version      : 1.0
  26:../src/renesas/application/console/cmd/cmd_sound_app.c ****  * Device(s)    : Renesas
  27:../src/renesas/application/console/cmd/cmd_sound_app.c ****  * Tool-Chain   : N/A
  28:../src/renesas/application/console/cmd/cmd_sound_app.c ****  * OS           : N/A
  29:../src/renesas/application/console/cmd/cmd_sound_app.c ****  * H/W Platform : RSK+
  30:../src/renesas/application/console/cmd/cmd_sound_app.c ****  * Description  : The Sound application specific commands
  31:../src/renesas/application/console/cmd/cmd_sound_app.c ****  *******************************************************************************
  32:../src/renesas/application/console/cmd/cmd_sound_app.c ****  * History      : DD.MM.YYYY Ver. Description
  33:../src/renesas/application/console/cmd/cmd_sound_app.c ****  *              : 14.06.2018 1.00 First Release
  34:../src/renesas/application/console/cmd/cmd_sound_app.c ****  ******************************************************************************/
  35:../src/renesas/application/console/cmd/cmd_sound_app.c **** 
  36:../src/renesas/application/console/cmd/cmd_sound_app.c **** /******************************************************************************
  37:../src/renesas/application/console/cmd/cmd_sound_app.c ****  WARNING!  IN ACCORDANCE WITH THE USER LICENCE THIS CODE MUST NOT BE CONVEYED
  38:../src/renesas/application/console/cmd/cmd_sound_app.c ****  OR REDISTRIBUTED IN COMBINATION WITH ANY SOFTWARE LICENSED UNDER TERMS THE
  39:../src/renesas/application/console/cmd/cmd_sound_app.c ****  SAME AS OR SIMILAR TO THE GNU GENERAL PUBLIC LICENCE
  40:../src/renesas/application/console/cmd/cmd_sound_app.c ****  ******************************************************************************/
  41:../src/renesas/application/console/cmd/cmd_sound_app.c **** 
  42:../src/renesas/application/console/cmd/cmd_sound_app.c **** /******************************************************************************
  43:../src/renesas/application/console/cmd/cmd_sound_app.c ****  System Includes
  44:../src/renesas/application/console/cmd/cmd_sound_app.c ****  ******************************************************************************/
  45:../src/renesas/application/console/cmd/cmd_sound_app.c **** 
  46:../src/renesas/application/console/cmd/cmd_sound_app.c **** #include <stdio.h>
  47:../src/renesas/application/console/cmd/cmd_sound_app.c **** #include <string.h>
  48:../src/renesas/application/console/cmd/cmd_sound_app.c **** #include <stdlib.h>
  49:../src/renesas/application/console/cmd/cmd_sound_app.c **** #include <fcntl.h>
  50:../src/renesas/application/console/cmd/cmd_sound_app.c **** 
  51:../src/renesas/application/console/cmd/cmd_sound_app.c **** /******************************************************************************
  52:../src/renesas/application/console/cmd/cmd_sound_app.c ****  User Includes
  53:../src/renesas/application/console/cmd/cmd_sound_app.c ****  ******************************************************************************/
  54:../src/renesas/application/console/cmd/cmd_sound_app.c **** 
  55:../src/renesas/application/console/cmd/cmd_sound_app.c **** #include "r_typedefs.h"
  56:../src/renesas/application/console/cmd/cmd_sound_app.c **** #include "compiler_settings.h"
  57:../src/renesas/application/console/cmd/cmd_sound_app.c **** #include "console.h"
  58:../src/renesas/application/console/cmd/cmd_sound_app.c **** #include "r_task_priority.h"
  59:../src/renesas/application/console/cmd/cmd_sound_app.c **** #include "main.h"
  60:../src/renesas/application/console/cmd/cmd_sound_app.c **** #include "r_os_abstraction_api.h"
  61:../src/renesas/application/console/cmd/cmd_sound_app.c **** #include "r_sound_app.h"
  62:../src/renesas/application/console/cmd/cmd_sound_app.c **** #include "r_sound.h"
  63:../src/renesas/application/console/cmd/cmd_sound_app.c **** 
  64:../src/renesas/application/console/cmd/cmd_sound_app.c **** /******************************************************************************
  65:../src/renesas/application/console/cmd/cmd_sound_app.c **** Typedef definitions
  66:../src/renesas/application/console/cmd/cmd_sound_app.c **** ******************************************************************************/
  67:../src/renesas/application/console/cmd/cmd_sound_app.c **** 
  68:../src/renesas/application/console/cmd/cmd_sound_app.c **** /******************************************************************************
  69:../src/renesas/application/console/cmd/cmd_sound_app.c ****  External functions
  70:../src/renesas/application/console/cmd/cmd_sound_app.c ****  ******************************************************************************/
  71:../src/renesas/application/console/cmd/cmd_sound_app.c **** 
  72:../src/renesas/application/console/cmd/cmd_sound_app.c ****  /*****************************************************************************
  73:../src/renesas/application/console/cmd/cmd_sound_app.c ****  External Variables
  74:../src/renesas/application/console/cmd/cmd_sound_app.c ****  ******************************************************************************/
  75:../src/renesas/application/console/cmd/cmd_sound_app.c **** 
  76:../src/renesas/application/console/cmd/cmd_sound_app.c **** /******************************************************************************
  77:../src/renesas/application/console/cmd/cmd_sound_app.c ****  Private Functions
  78:../src/renesas/application/console/cmd/cmd_sound_app.c ****  ******************************************************************************/
  79:../src/renesas/application/console/cmd/cmd_sound_app.c **** 
  80:../src/renesas/application/console/cmd/cmd_sound_app.c **** static int16_t cmd_play_sound_app(int_t iArgCount, char_t **ppszArgument, pst_comset_t pCom);
  81:../src/renesas/application/console/cmd/cmd_sound_app.c **** static int16_t cmd_record_sound_app(int_t iArgCount, char_t **ppszArgument, pst_comset_t pCom);
  82:../src/renesas/application/console/cmd/cmd_sound_app.c **** 
  83:../src/renesas/application/console/cmd/cmd_sound_app.c **** /*****************************************************************************
  84:../src/renesas/application/console/cmd/cmd_sound_app.c ****  Global Variables
  85:../src/renesas/application/console/cmd/cmd_sound_app.c ****  ******************************************************************************/
  86:../src/renesas/application/console/cmd/cmd_sound_app.c **** 
  87:../src/renesas/application/console/cmd/cmd_sound_app.c **** /* Table that associates command letters, function pointer and a little
  88:../src/renesas/application/console/cmd/cmd_sound_app.c ****  description of what the command does */
  89:../src/renesas/application/console/cmd/cmd_sound_app.c **** static st_cmdfnass_t s_cmd_sound_app[] =
  90:../src/renesas/application/console/cmd/cmd_sound_app.c **** {
  91:../src/renesas/application/console/cmd/cmd_sound_app.c ****      {
  92:../src/renesas/application/console/cmd/cmd_sound_app.c ****       "play",
  93:../src/renesas/application/console/cmd/cmd_sound_app.c ****       cmd_play_sound_app,
  94:../src/renesas/application/console/cmd/cmd_sound_app.c ****       "<CR> - run play sound application ",
  95:../src/renesas/application/console/cmd/cmd_sound_app.c ****      },
  96:../src/renesas/application/console/cmd/cmd_sound_app.c ****      {
  97:../src/renesas/application/console/cmd/cmd_sound_app.c ****       "record",
  98:../src/renesas/application/console/cmd/cmd_sound_app.c ****       cmd_record_sound_app,
  99:../src/renesas/application/console/cmd/cmd_sound_app.c ****       "<CR> - run record sound application",
 100:../src/renesas/application/console/cmd/cmd_sound_app.c ****      }
 101:../src/renesas/application/console/cmd/cmd_sound_app.c **** };
 102:../src/renesas/application/console/cmd/cmd_sound_app.c **** 
 103:../src/renesas/application/console/cmd/cmd_sound_app.c **** /* Table that points to the above table and contains the number of entries */
 104:../src/renesas/application/console/cmd/cmd_sound_app.c **** const st_command_table_t g_cmd_tbl_sound_app =
 105:../src/renesas/application/console/cmd/cmd_sound_app.c **** {
 106:../src/renesas/application/console/cmd/cmd_sound_app.c ****     "Sound Application Commands",
 107:../src/renesas/application/console/cmd/cmd_sound_app.c ****     s_cmd_sound_app,
 108:../src/renesas/application/console/cmd/cmd_sound_app.c ****     ((sizeof(s_cmd_sound_app)) / sizeof(st_cmdfnass_t))
 109:../src/renesas/application/console/cmd/cmd_sound_app.c **** };
 110:../src/renesas/application/console/cmd/cmd_sound_app.c **** 
 111:../src/renesas/application/console/cmd/cmd_sound_app.c **** /******************************************************************************
 112:../src/renesas/application/console/cmd/cmd_sound_app.c ****  Function Name : cmd_play_sound_app
 113:../src/renesas/application/console/cmd/cmd_sound_app.c ****  Description   : Run the adc application demo,
 114:../src/renesas/application/console/cmd/cmd_sound_app.c ****  Arguments     : IN  iArgCount - The number of arguments in the argument list
 115:../src/renesas/application/console/cmd/cmd_sound_app.c ****                  IN  ppszArgument - The argument list
 116:../src/renesas/application/console/cmd/cmd_sound_app.c ****                  IN  pCom - Pointer to the command object
 117:../src/renesas/application/console/cmd/cmd_sound_app.c ****  Return value  : CMD_OK for success
 118:../src/renesas/application/console/cmd/cmd_sound_app.c ****  ******************************************************************************/
 119:../src/renesas/application/console/cmd/cmd_sound_app.c **** static int16_t cmd_play_sound_app(int_t iArgCount, char_t **ppszArgument, pst_comset_t pCom)
 120:../src/renesas/application/console/cmd/cmd_sound_app.c **** {
 121:../src/renesas/application/console/cmd/cmd_sound_app.c ****     /* Not used */
 122:../src/renesas/application/console/cmd/cmd_sound_app.c ****     (void) ppszArgument;
 123:../src/renesas/application/console/cmd/cmd_sound_app.c **** 
 124:../src/renesas/application/console/cmd/cmd_sound_app.c ****     /* Not used */
 125:../src/renesas/application/console/cmd/cmd_sound_app.c ****     (void) iArgCount;
 126:../src/renesas/application/console/cmd/cmd_sound_app.c **** 
 127:../src/renesas/application/console/cmd/cmd_sound_app.c ****     R_SOUND_PlaySample(pCom->p_in, pCom->p_out);
 128:../src/renesas/application/console/cmd/cmd_sound_app.c **** 
 129:../src/renesas/application/console/cmd/cmd_sound_app.c ****     return CMD_OK;
 130:../src/renesas/application/console/cmd/cmd_sound_app.c **** }
 131:../src/renesas/application/console/cmd/cmd_sound_app.c **** /******************************************************************************
 132:../src/renesas/application/console/cmd/cmd_sound_app.c ****  End of function  cmd_play_sound_app
 133:../src/renesas/application/console/cmd/cmd_sound_app.c ****  ******************************************************************************/
 134:../src/renesas/application/console/cmd/cmd_sound_app.c **** 
 135:../src/renesas/application/console/cmd/cmd_sound_app.c **** 
 136:../src/renesas/application/console/cmd/cmd_sound_app.c **** /******************************************************************************
 137:../src/renesas/application/console/cmd/cmd_sound_app.c ****  Function Name : cmd_record_sound_app
 138:../src/renesas/application/console/cmd/cmd_sound_app.c ****  Description   : Run the adc application demo,
 139:../src/renesas/application/console/cmd/cmd_sound_app.c ****  Arguments     : IN  iArgCount - The number of arguments in the argument list
 140:../src/renesas/application/console/cmd/cmd_sound_app.c ****                  IN  ppszArgument - The argument list
 141:../src/renesas/application/console/cmd/cmd_sound_app.c ****                  IN  pCom - Pointer to the command object
 142:../src/renesas/application/console/cmd/cmd_sound_app.c ****  Return value  : CMD_OK for success
 143:../src/renesas/application/console/cmd/cmd_sound_app.c ****  ******************************************************************************/
 144:../src/renesas/application/console/cmd/cmd_sound_app.c **** static int16_t cmd_record_sound_app(int_t iArgCount, char_t **ppszArgument, pst_comset_t pCom)
 145:../src/renesas/application/console/cmd/cmd_sound_app.c **** {
  29              		.loc 1 145 1 view -0
  30              		.cfi_startproc
  31              		@ args = 0, pretend = 0, frame = 0
  32              		@ frame_needed = 0, uses_anonymous_args = 0
  33              		.loc 1 145 1 is_stmt 0 view .LVU1
  34 0000 10402DE9 		push	{r4, lr}
  35              		.cfi_def_cfa_offset 8
  36              		.cfi_offset 4, -8
  37              		.cfi_offset 14, -4
 146:../src/renesas/application/console/cmd/cmd_sound_app.c ****     /* Not used */
 147:../src/renesas/application/console/cmd/cmd_sound_app.c ****     (void) ppszArgument;
  38              		.loc 1 147 5 is_stmt 1 view .LVU2
 148:../src/renesas/application/console/cmd/cmd_sound_app.c **** 
 149:../src/renesas/application/console/cmd/cmd_sound_app.c ****     /* Not used */
 150:../src/renesas/application/console/cmd/cmd_sound_app.c ****     (void) iArgCount;
  39              		.loc 1 150 5 view .LVU3
 151:../src/renesas/application/console/cmd/cmd_sound_app.c **** 
 152:../src/renesas/application/console/cmd/cmd_sound_app.c ****     R_SOUND_RecordSample(pCom->p_in, pCom->p_out);
  40              		.loc 1 152 5 view .LVU4
  41 0004 381C92E5 		ldr	r1, [r2, #3128]
  42              	.LVL1:
  43              		.loc 1 152 5 is_stmt 0 view .LVU5
  44 0008 340C92E5 		ldr	r0, [r2, #3124]
  45              	.LVL2:
  46              		.loc 1 152 5 view .LVU6
  47 000c FEFFFFEB 		bl	R_SOUND_RecordSample
  48              	.LVL3:
 153:../src/renesas/application/console/cmd/cmd_sound_app.c **** 
 154:../src/renesas/application/console/cmd/cmd_sound_app.c ****     return CMD_OK;
  49              		.loc 1 154 5 is_stmt 1 view .LVU7
 155:../src/renesas/application/console/cmd/cmd_sound_app.c **** }
  50              		.loc 1 155 1 is_stmt 0 view .LVU8
  51 0010 0000A0E3 		mov	r0, #0
  52 0014 1080BDE8 		pop	{r4, pc}
  53              		.cfi_endproc
  54              	.LFE7:
  56              		.section	.text.cmd_play_sound_app,"ax",%progbits
  57              		.align	2
  58              		.syntax unified
  59              		.arm
  60              		.fpu neon
  62              	cmd_play_sound_app:
  63              	.LVL4:
  64              	.LFB6:
 120:../src/renesas/application/console/cmd/cmd_sound_app.c ****     /* Not used */
  65              		.loc 1 120 1 is_stmt 1 view -0
  66              		.cfi_startproc
  67              		@ args = 0, pretend = 0, frame = 0
  68              		@ frame_needed = 0, uses_anonymous_args = 0
 120:../src/renesas/application/console/cmd/cmd_sound_app.c ****     /* Not used */
  69              		.loc 1 120 1 is_stmt 0 view .LVU10
  70 0000 10402DE9 		push	{r4, lr}
  71              		.cfi_def_cfa_offset 8
  72              		.cfi_offset 4, -8
  73              		.cfi_offset 14, -4
 122:../src/renesas/application/console/cmd/cmd_sound_app.c **** 
  74              		.loc 1 122 5 is_stmt 1 view .LVU11
 125:../src/renesas/application/console/cmd/cmd_sound_app.c **** 
  75              		.loc 1 125 5 view .LVU12
 127:../src/renesas/application/console/cmd/cmd_sound_app.c **** 
  76              		.loc 1 127 5 view .LVU13
  77 0004 381C92E5 		ldr	r1, [r2, #3128]
  78              	.LVL5:
 127:../src/renesas/application/console/cmd/cmd_sound_app.c **** 
  79              		.loc 1 127 5 is_stmt 0 view .LVU14
  80 0008 340C92E5 		ldr	r0, [r2, #3124]
  81              	.LVL6:
 127:../src/renesas/application/console/cmd/cmd_sound_app.c **** 
  82              		.loc 1 127 5 view .LVU15
  83 000c FEFFFFEB 		bl	R_SOUND_PlaySample
  84              	.LVL7:
 129:../src/renesas/application/console/cmd/cmd_sound_app.c **** }
  85              		.loc 1 129 5 is_stmt 1 view .LVU16
 130:../src/renesas/application/console/cmd/cmd_sound_app.c **** /******************************************************************************
  86              		.loc 1 130 1 is_stmt 0 view .LVU17
  87 0010 0000A0E3 		mov	r0, #0
  88 0014 1080BDE8 		pop	{r4, pc}
  89              		.cfi_endproc
  90              	.LFE6:
  92              		.global	g_cmd_tbl_sound_app
  93              		.section	.rodata.str1.4,"aMS",%progbits,1
  94              		.align	2
  95              	.LC0:
  96 0000 706C6179 		.ascii	"play\000"
  96      00
  97 0005 000000   		.align	2
  98              	.LC1:
  99 0008 3C43523E 		.ascii	"<CR> - run play sound application \000"
  99      202D2072 
  99      756E2070 
  99      6C617920 
  99      736F756E 
 100 002b 00       		.align	2
 101              	.LC2:
 102 002c 7265636F 		.ascii	"record\000"
 102      726400
 103 0033 00       		.align	2
 104              	.LC3:
 105 0034 3C43523E 		.ascii	"<CR> - run record sound application\000"
 105      202D2072 
 105      756E2072 
 105      65636F72 
 105      6420736F 
 106              		.section	.data.s_cmd_sound_app,"aw"
 107              		.align	2
 110              	s_cmd_sound_app:
 111 0000 00000000 		.word	.LC0
 112 0004 00000000 		.word	cmd_play_sound_app
 113 0008 08000000 		.word	.LC1
 114 000c 2C000000 		.word	.LC2
 115 0010 00000000 		.word	cmd_record_sound_app
 116 0014 34000000 		.word	.LC3
 117              		.section	.rodata.g_cmd_tbl_sound_app,"a"
 118              		.align	2
 121              	g_cmd_tbl_sound_app:
 122 0000 536F756E 		.ascii	"Sound Application Commands\000"
 122      64204170 
 122      706C6963 
 122      6174696F 
 122      6E20436F 
 123 001b 00000000 		.space	5
 123      00
 124 0020 00000000 		.word	s_cmd_sound_app
 125 0024 02000000 		.word	2
 126              		.text
 127              	.Letext0:
 128              		.file 2 "c:\\program files (x86)\\gnu arm embedded toolchain\\9 2020-q2-update\\arm-none-eabi\\inc
 129              		.file 3 "c:\\program files (x86)\\gnu arm embedded toolchain\\9 2020-q2-update\\lib\\gcc\\arm-none
 130              		.file 4 "c:\\program files (x86)\\gnu arm embedded toolchain\\9 2020-q2-update\\arm-none-eabi\\inc
 131              		.file 5 "c:\\program files (x86)\\gnu arm embedded toolchain\\9 2020-q2-update\\arm-none-eabi\\inc
 132              		.file 6 "c:\\program files (x86)\\gnu arm embedded toolchain\\9 2020-q2-update\\arm-none-eabi\\inc
 133              		.file 7 "c:\\program files (x86)\\gnu arm embedded toolchain\\9 2020-q2-update\\arm-none-eabi\\inc
 134              		.file 8 "c:\\program files (x86)\\gnu arm embedded toolchain\\9 2020-q2-update\\arm-none-eabi\\inc
 135              		.file 9 "c:\\program files (x86)\\gnu arm embedded toolchain\\9 2020-q2-update\\arm-none-eabi\\inc
 136              		.file 10 "c:\\program files (x86)\\gnu arm embedded toolchain\\9 2020-q2-update\\arm-none-eabi\\in
 137              		.file 11 "c:\\program files (x86)\\gnu arm embedded toolchain\\9 2020-q2-update\\arm-none-eabi\\in
 138              		.file 12 "C:/Users/ryota/e2_studio/workspace/rza2m_ssif_sample_freertos_gcc/generate/system/inc/r_
 139              		.file 13 "C:/Users/ryota/e2_studio/workspace/rza2m_ssif_sample_freertos_gcc/generate/system/inc/dr
 140              		.file 14 "C:/Users/ryota/e2_studio/workspace/rza2m_ssif_sample_freertos_gcc/generate/os_abstractio
 141              		.file 15 "C:/Users/ryota/e2_studio/workspace/rza2m_ssif_sample_freertos_gcc/src/renesas/applicatio
 142              		.file 16 "c:\\program files (x86)\\gnu arm embedded toolchain\\9 2020-q2-update\\arm-none-eabi\\in
 143              		.file 17 "C:/Users/ryota/e2_studio/workspace/rza2m_ssif_sample_freertos_gcc/src/renesas/applicatio