   1              		.cpu cortex-a9
   2              		.eabi_attribute 28, 1
   3              		.eabi_attribute 20, 1
   4              		.eabi_attribute 21, 1
   5              		.eabi_attribute 23, 3
   6              		.eabi_attribute 24, 1
   7              		.eabi_attribute 25, 1
   8              		.eabi_attribute 26, 1
   9              		.eabi_attribute 30, 1
  10              		.eabi_attribute 34, 0
  11              		.eabi_attribute 18, 4
  12              		.file	"r_rza2_riic_lld.c"
  13              		.text
  14              	.Ltext0:
  15              		.cfi_sections	.debug_frame
  16              		.global	__aeabi_uidiv
  17              		.section	.text.riic_adjust_scl_clk,"ax",%progbits
  18              		.align	2
  19              		.arch armv7-a
  20              		.arch_extension mp
  21              		.arch_extension sec
  22              		.syntax unified
  23              		.arm
  24              		.fpu neon
  26              	riic_adjust_scl_clk:
  27              	.LVL0:
  28              	.LFB30:
  29              		.file 1 "../generate/sc_drivers/r_riic/src/lld/r_rza2_riic_lld.c"
   1:../generate/sc_drivers/r_riic/src/lld/r_rza2_riic_lld.c **** /******************************************************************************
   2:../generate/sc_drivers/r_riic/src/lld/r_rza2_riic_lld.c ****  * DISCLAIMER
   3:../generate/sc_drivers/r_riic/src/lld/r_rza2_riic_lld.c ****  * This software is supplied by Renesas Electronics Corporation and is only
   4:../generate/sc_drivers/r_riic/src/lld/r_rza2_riic_lld.c ****  * intended for use with Renesas products. No other uses are authorized. This
   5:../generate/sc_drivers/r_riic/src/lld/r_rza2_riic_lld.c ****  * software is owned by Renesas Electronics Corporation and is protected under
   6:../generate/sc_drivers/r_riic/src/lld/r_rza2_riic_lld.c ****  * all applicable laws, including copyright laws.
   7:../generate/sc_drivers/r_riic/src/lld/r_rza2_riic_lld.c ****  * THIS SOFTWARE IS PROVIDED "AS IS" AND RENESAS MAKES NO WARRANTIES REGARDING
   8:../generate/sc_drivers/r_riic/src/lld/r_rza2_riic_lld.c ****  * THIS SOFTWARE, WHETHER EXPRESS, IMPLIED OR STATUTORY, INCLUDING BUT NOT
   9:../generate/sc_drivers/r_riic/src/lld/r_rza2_riic_lld.c ****  * LIMITED TO WARRANTIES OF MERCHANTABILITY, FITNESS FOR A PARTICULAR PURPOSE
  10:../generate/sc_drivers/r_riic/src/lld/r_rza2_riic_lld.c ****  * AND NON-INFRINGEMENT. ALL SUCH WARRANTIES ARE EXPRESSLY DISCLAIMED.
  11:../generate/sc_drivers/r_riic/src/lld/r_rza2_riic_lld.c ****  * TO THE MAXIMUM EXTENT PERMITTED NOT PROHIBITED BY LAW, NEITHER RENESAS
  12:../generate/sc_drivers/r_riic/src/lld/r_rza2_riic_lld.c ****  * ELECTRONICS CORPORATION NOR ANY OF ITS AFFILIATED COMPANIES SHALL BE LIABLE
  13:../generate/sc_drivers/r_riic/src/lld/r_rza2_riic_lld.c ****  * FOR ANY DIRECT, INDIRECT, SPECIAL, INCIDENTAL OR CONSEQUENTIAL DAMAGES FOR
  14:../generate/sc_drivers/r_riic/src/lld/r_rza2_riic_lld.c ****  * ANY REASON RELATED TO THIS SOFTWARE, EVEN IF RENESAS OR ITS AFFILIATES HAVE
  15:../generate/sc_drivers/r_riic/src/lld/r_rza2_riic_lld.c ****  * BEEN ADVISED OF THE POSSIBILITY OF SUCH DAMAGES.
  16:../generate/sc_drivers/r_riic/src/lld/r_rza2_riic_lld.c ****  * Renesas reserves the right, without notice, to make changes to this
  17:../generate/sc_drivers/r_riic/src/lld/r_rza2_riic_lld.c ****  * software and to discontinue the availability of this software. By using this
  18:../generate/sc_drivers/r_riic/src/lld/r_rza2_riic_lld.c ****  * software, you agree to the additional terms and conditions found by
  19:../generate/sc_drivers/r_riic/src/lld/r_rza2_riic_lld.c ****  * accessing the following link:
  20:../generate/sc_drivers/r_riic/src/lld/r_rza2_riic_lld.c ****  * http://www.renesas.com/disclaimer
  21:../generate/sc_drivers/r_riic/src/lld/r_rza2_riic_lld.c ****  *
  22:../generate/sc_drivers/r_riic/src/lld/r_rza2_riic_lld.c ****  * Copyright (C) 2018 Renesas Electronics Corporation. All rights reserved.
  23:../generate/sc_drivers/r_riic/src/lld/r_rza2_riic_lld.c ****  *****************************************************************************/
  24:../generate/sc_drivers/r_riic/src/lld/r_rza2_riic_lld.c **** /******************************************************************************
  25:../generate/sc_drivers/r_riic/src/lld/r_rza2_riic_lld.c ****  * File Name    : r_rza2_riic_lld.c
  26:../generate/sc_drivers/r_riic/src/lld/r_rza2_riic_lld.c ****  * Device(s)    : RZ/A2M
  27:../generate/sc_drivers/r_riic/src/lld/r_rza2_riic_lld.c ****  * Tool-Chain   : GCC ARM Embedded 6.3.1.20170620
  28:../generate/sc_drivers/r_riic/src/lld/r_rza2_riic_lld.c ****  * OS           : None
  29:../generate/sc_drivers/r_riic/src/lld/r_rza2_riic_lld.c ****  * H/W Platform : RZ/A2M Evaluation Board
  30:../generate/sc_drivers/r_riic/src/lld/r_rza2_riic_lld.c ****  * Description  : RZ/A2M RIIC Driver - Low level function of RIIC module
  31:../generate/sc_drivers/r_riic/src/lld/r_rza2_riic_lld.c ****  * Operation    :
  32:../generate/sc_drivers/r_riic/src/lld/r_rza2_riic_lld.c ****  * Limitations  :
  33:../generate/sc_drivers/r_riic/src/lld/r_rza2_riic_lld.c ****  *****************************************************************************/
  34:../generate/sc_drivers/r_riic/src/lld/r_rza2_riic_lld.c **** 
  35:../generate/sc_drivers/r_riic/src/lld/r_rza2_riic_lld.c **** /******************************************************************************
  36:../generate/sc_drivers/r_riic/src/lld/r_rza2_riic_lld.c ****  Includes   <System Includes> , "Project Includes"
  37:../generate/sc_drivers/r_riic/src/lld/r_rza2_riic_lld.c ****  *****************************************************************************/
  38:../generate/sc_drivers/r_riic/src/lld/r_rza2_riic_lld.c **** #include "r_typedefs.h"
  39:../generate/sc_drivers/r_riic/src/lld/r_rza2_riic_lld.c **** #include "iodefine.h"
  40:../generate/sc_drivers/r_riic/src/lld/r_rza2_riic_lld.c **** #include "iobitmask.h"
  41:../generate/sc_drivers/r_riic/src/lld/r_rza2_riic_lld.c **** #include "rza_io_regrw.h"           /* Low level register read/write header */
  42:../generate/sc_drivers/r_riic/src/lld/r_rza2_riic_lld.c **** 
  43:../generate/sc_drivers/r_riic/src/lld/r_rza2_riic_lld.c **** /* Driver Includes */
  44:../generate/sc_drivers/r_riic/src/lld/r_rza2_riic_lld.c **** #include "driver.h"                 /* Device driver header */
  45:../generate/sc_drivers/r_riic/src/lld/r_rza2_riic_lld.c **** #include "r_rza2m_riic_lld_api.h"   /* Low level Driver Header */
  46:../generate/sc_drivers/r_riic/src/lld/r_rza2_riic_lld.c **** #include "r_rza2m_riic_lld_cfg.h"   /* Low level Driver Configuration Header */
  47:../generate/sc_drivers/r_riic/src/lld/r_rza2_riic_lld.c **** #include "r_rza2m_riic_lld_prv.h"   /* Low level Driver Configuration Header */
  48:../generate/sc_drivers/r_riic/src/lld/r_rza2_riic_lld.c **** #include "r_riic_drv_sc_cfg.h"
  49:../generate/sc_drivers/r_riic/src/lld/r_rza2_riic_lld.c **** #include "r_stb_drv_api.h"
  50:../generate/sc_drivers/r_riic/src/lld/r_rza2_riic_lld.c **** 
  51:../generate/sc_drivers/r_riic/src/lld/r_rza2_riic_lld.c **** /******************************************************************************
  52:../generate/sc_drivers/r_riic/src/lld/r_rza2_riic_lld.c ****  Macro definitions
  53:../generate/sc_drivers/r_riic/src/lld/r_rza2_riic_lld.c ****  *****************************************************************************/
  54:../generate/sc_drivers/r_riic/src/lld/r_rza2_riic_lld.c **** 
  55:../generate/sc_drivers/r_riic/src/lld/r_rza2_riic_lld.c **** /******************************************************************************
  56:../generate/sc_drivers/r_riic/src/lld/r_rza2_riic_lld.c ****  Typedefs
  57:../generate/sc_drivers/r_riic/src/lld/r_rza2_riic_lld.c ****  *****************************************************************************/
  58:../generate/sc_drivers/r_riic/src/lld/r_rza2_riic_lld.c **** 
  59:../generate/sc_drivers/r_riic/src/lld/r_rza2_riic_lld.c **** /******************************************************************************
  60:../generate/sc_drivers/r_riic/src/lld/r_rza2_riic_lld.c ****  Private global variables and functions
  61:../generate/sc_drivers/r_riic/src/lld/r_rza2_riic_lld.c ****  *****************************************************************************/
  62:../generate/sc_drivers/r_riic/src/lld/r_rza2_riic_lld.c **** /**
  63:../generate/sc_drivers/r_riic/src/lld/r_rza2_riic_lld.c ****  * @section st_riic structure used for register access of RIIC channels
  64:../generate/sc_drivers/r_riic/src/lld/r_rza2_riic_lld.c ****  */
  65:../generate/sc_drivers/r_riic/src/lld/r_rza2_riic_lld.c **** static volatile struct st_riic *gsp_riic[RIIC_CFG_LLD_NUM_CHANNELS] =
  66:../generate/sc_drivers/r_riic/src/lld/r_rza2_riic_lld.c **** {
  67:../generate/sc_drivers/r_riic/src/lld/r_rza2_riic_lld.c ****     /* RIIC Channels */
  68:../generate/sc_drivers/r_riic/src/lld/r_rza2_riic_lld.c ****     &RIIC30, &RIIC31, &RIIC32, &RIIC33 
  69:../generate/sc_drivers/r_riic/src/lld/r_rza2_riic_lld.c **** };
  70:../generate/sc_drivers/r_riic/src/lld/r_rza2_riic_lld.c **** 
  71:../generate/sc_drivers/r_riic/src/lld/r_rza2_riic_lld.c **** static const e_stb_module_t gs_riic_module[] =
  72:../generate/sc_drivers/r_riic/src/lld/r_rza2_riic_lld.c **** { 
  73:../generate/sc_drivers/r_riic/src/lld/r_rza2_riic_lld.c ****     MODULE_I2C0, MODULE_I2C1, MODULE_I2C2, MODULE_I2C3 
  74:../generate/sc_drivers/r_riic/src/lld/r_rza2_riic_lld.c **** };
  75:../generate/sc_drivers/r_riic/src/lld/r_rza2_riic_lld.c **** 
  76:../generate/sc_drivers/r_riic/src/lld/r_rza2_riic_lld.c **** /* clock parameter base table define 
  77:../generate/sc_drivers/r_riic/src/lld/r_rza2_riic_lld.c ****  * in case of PCLK = 66MHz, noise filter disable, rise_time = 0, fall_time = 0
  78:../generate/sc_drivers/r_riic/src/lld/r_rza2_riic_lld.c ****  */
  79:../generate/sc_drivers/r_riic/src/lld/r_rza2_riic_lld.c **** static const st_riic_freq_table_param_t gs_riic_clk_base_param_66m[RIIC_FREQUENCY_MAX][RIIC_DUTY_MA
  80:../generate/sc_drivers/r_riic/src/lld/r_rza2_riic_lld.c **** {
  81:../generate/sc_drivers/r_riic/src/lld/r_rza2_riic_lld.c ****     {
  82:../generate/sc_drivers/r_riic/src/lld/r_rza2_riic_lld.c ****         /* SCL = 100KHz */
  83:../generate/sc_drivers/r_riic/src/lld/r_rza2_riic_lld.c ****         { RIIC_PCLK_DIV_16, 4, 34 }, /* Duty 10%, vaule exceeds RIIC_BITRATE_REG_MAX, an error occu
  84:../generate/sc_drivers/r_riic/src/lld/r_rza2_riic_lld.c ****         { RIIC_PCLK_DIV_16, 8, 30 }, /* Duty 20% */
  85:../generate/sc_drivers/r_riic/src/lld/r_rza2_riic_lld.c ****         { RIIC_PCLK_DIV_16, 11, 27 }, /* Duty 30% */
  86:../generate/sc_drivers/r_riic/src/lld/r_rza2_riic_lld.c ****         { RIIC_PCLK_DIV_16, 15, 23 }, /* Duty 40% */
  87:../generate/sc_drivers/r_riic/src/lld/r_rza2_riic_lld.c ****         { RIIC_PCLK_DIV_16, 19, 19 }, /* Duty 50% */
  88:../generate/sc_drivers/r_riic/src/lld/r_rza2_riic_lld.c ****         { RIIC_PCLK_DIV_16, 23, 15 }, /* Duty 60% */
  89:../generate/sc_drivers/r_riic/src/lld/r_rza2_riic_lld.c ****         { RIIC_PCLK_DIV_16, 27, 11 }, /* Duty 70% */
  90:../generate/sc_drivers/r_riic/src/lld/r_rza2_riic_lld.c ****         { RIIC_PCLK_DIV_16, 30, 8 }, /* Duty 80% */
  91:../generate/sc_drivers/r_riic/src/lld/r_rza2_riic_lld.c ****         { RIIC_PCLK_DIV_16, 34, 4 } /* Duty 90% vaule exceeds RIIC_BITRATE_REG_MAX, an error occur 
  92:../generate/sc_drivers/r_riic/src/lld/r_rza2_riic_lld.c ****     },
  93:../generate/sc_drivers/r_riic/src/lld/r_rza2_riic_lld.c ****     {
  94:../generate/sc_drivers/r_riic/src/lld/r_rza2_riic_lld.c ****         /* SCL = 400KHz */
  95:../generate/sc_drivers/r_riic/src/lld/r_rza2_riic_lld.c ****         { RIIC_PCLK_DIV_4, 4, 34 }, /* Duty 10% vaule exceeds RIIC_BITRATE_REG_MAX, an error occur 
  96:../generate/sc_drivers/r_riic/src/lld/r_rza2_riic_lld.c ****         { RIIC_PCLK_DIV_4, 8, 30 }, /* Duty 20% */
  97:../generate/sc_drivers/r_riic/src/lld/r_rza2_riic_lld.c ****         { RIIC_PCLK_DIV_4, 11, 27 }, /* Duty 30% */
  98:../generate/sc_drivers/r_riic/src/lld/r_rza2_riic_lld.c ****         { RIIC_PCLK_DIV_4, 15, 23 }, /* Duty 40% */
  99:../generate/sc_drivers/r_riic/src/lld/r_rza2_riic_lld.c ****         { RIIC_PCLK_DIV_4, 19, 19 }, /* Duty 50% */
 100:../generate/sc_drivers/r_riic/src/lld/r_rza2_riic_lld.c ****         { RIIC_PCLK_DIV_4, 23, 15 }, /* Duty 60% */
 101:../generate/sc_drivers/r_riic/src/lld/r_rza2_riic_lld.c ****         { RIIC_PCLK_DIV_4, 27, 11 }, /* Duty 70% */
 102:../generate/sc_drivers/r_riic/src/lld/r_rza2_riic_lld.c ****         { RIIC_PCLK_DIV_4, 30, 8 }, /* Duty 80% */
 103:../generate/sc_drivers/r_riic/src/lld/r_rza2_riic_lld.c ****         { RIIC_PCLK_DIV_4, 34, 4 } /* Duty 90% vaule exceeds RIIC_BITRATE_REG_MAX, an error occur *
 104:../generate/sc_drivers/r_riic/src/lld/r_rza2_riic_lld.c ****     },
 105:../generate/sc_drivers/r_riic/src/lld/r_rza2_riic_lld.c ****     {
 106:../generate/sc_drivers/r_riic/src/lld/r_rza2_riic_lld.c ****         /* SCL = 1MHz */
 107:../generate/sc_drivers/r_riic/src/lld/r_rza2_riic_lld.c ****         { RIIC_PCLK_DIV_2, 3, 24 }, /* Duty 10% */
 108:../generate/sc_drivers/r_riic/src/lld/r_rza2_riic_lld.c ****         { RIIC_PCLK_DIV_2, 5, 22 }, /* Duty 20% */
 109:../generate/sc_drivers/r_riic/src/lld/r_rza2_riic_lld.c ****         { RIIC_PCLK_DIV_2, 8, 19 }, /* Duty 30% */
 110:../generate/sc_drivers/r_riic/src/lld/r_rza2_riic_lld.c ****         { RIIC_PCLK_DIV_2, 10, 17 }, /* Duty 40% */
 111:../generate/sc_drivers/r_riic/src/lld/r_rza2_riic_lld.c ****         { RIIC_PCLK_DIV_2, 13, 14 }, /* Duty 50% */
 112:../generate/sc_drivers/r_riic/src/lld/r_rza2_riic_lld.c ****         { RIIC_PCLK_DIV_2, 17, 10 }, /* Duty 60% */
 113:../generate/sc_drivers/r_riic/src/lld/r_rza2_riic_lld.c ****         { RIIC_PCLK_DIV_2, 19, 8 }, /* Duty 70% */
 114:../generate/sc_drivers/r_riic/src/lld/r_rza2_riic_lld.c ****         { RIIC_PCLK_DIV_2, 22, 5 }, /* Duty 80% */
 115:../generate/sc_drivers/r_riic/src/lld/r_rza2_riic_lld.c ****         { RIIC_PCLK_DIV_2, 24, 3 } /* Duty 90% */
 116:../generate/sc_drivers/r_riic/src/lld/r_rza2_riic_lld.c ****     } 
 117:../generate/sc_drivers/r_riic/src/lld/r_rza2_riic_lld.c **** };
 118:../generate/sc_drivers/r_riic/src/lld/r_rza2_riic_lld.c **** 
 119:../generate/sc_drivers/r_riic/src/lld/r_rza2_riic_lld.c **** /* clock parameter base table define 
 120:../generate/sc_drivers/r_riic/src/lld/r_rza2_riic_lld.c ****  * in case of PCLK = 60MHz, noise filter disable, rise_time = 0, fall_time = 0
 121:../generate/sc_drivers/r_riic/src/lld/r_rza2_riic_lld.c ****  */
 122:../generate/sc_drivers/r_riic/src/lld/r_rza2_riic_lld.c **** static const st_riic_freq_table_param_t gs_riic_clk_base_param_60m[RIIC_FREQUENCY_MAX][RIIC_DUTY_MA
 123:../generate/sc_drivers/r_riic/src/lld/r_rza2_riic_lld.c **** {
 124:../generate/sc_drivers/r_riic/src/lld/r_rza2_riic_lld.c ****     {
 125:../generate/sc_drivers/r_riic/src/lld/r_rza2_riic_lld.c ****         /* SCL = 100KHz */
 126:../generate/sc_drivers/r_riic/src/lld/r_rza2_riic_lld.c ****         { RIIC_PCLK_DIV_16, 3, 31 }, /* Duty 10% */
 127:../generate/sc_drivers/r_riic/src/lld/r_rza2_riic_lld.c ****         { RIIC_PCLK_DIV_16, 7, 27 }, /* Duty 20% */
 128:../generate/sc_drivers/r_riic/src/lld/r_rza2_riic_lld.c ****         { RIIC_PCLK_DIV_16, 10, 24 }, /* Duty 30% */
 129:../generate/sc_drivers/r_riic/src/lld/r_rza2_riic_lld.c ****         { RIIC_PCLK_DIV_16, 13, 21 }, /* Duty 40% */
 130:../generate/sc_drivers/r_riic/src/lld/r_rza2_riic_lld.c ****         { RIIC_PCLK_DIV_16, 17, 17 }, /* Duty 50% */
 131:../generate/sc_drivers/r_riic/src/lld/r_rza2_riic_lld.c ****         { RIIC_PCLK_DIV_16, 21, 13 }, /* Duty 60% */
 132:../generate/sc_drivers/r_riic/src/lld/r_rza2_riic_lld.c ****         { RIIC_PCLK_DIV_16, 24, 10 }, /* Duty 70% */
 133:../generate/sc_drivers/r_riic/src/lld/r_rza2_riic_lld.c ****         { RIIC_PCLK_DIV_16, 27, 7 }, /* Duty 80% */
 134:../generate/sc_drivers/r_riic/src/lld/r_rza2_riic_lld.c ****         { RIIC_PCLK_DIV_16, 31, 3 } /* Duty 90% */
 135:../generate/sc_drivers/r_riic/src/lld/r_rza2_riic_lld.c ****     },
 136:../generate/sc_drivers/r_riic/src/lld/r_rza2_riic_lld.c ****     {
 137:../generate/sc_drivers/r_riic/src/lld/r_rza2_riic_lld.c ****         /* SCL = 400KHz */
 138:../generate/sc_drivers/r_riic/src/lld/r_rza2_riic_lld.c ****         { RIIC_PCLK_DIV_4, 3, 31 }, /* Duty 10% */
 139:../generate/sc_drivers/r_riic/src/lld/r_rza2_riic_lld.c ****         { RIIC_PCLK_DIV_4, 7, 27 }, /* Duty 20% */
 140:../generate/sc_drivers/r_riic/src/lld/r_rza2_riic_lld.c ****         { RIIC_PCLK_DIV_4, 10, 24 }, /* Duty 30% */
 141:../generate/sc_drivers/r_riic/src/lld/r_rza2_riic_lld.c ****         { RIIC_PCLK_DIV_4, 13, 21 }, /* Duty 40% */
 142:../generate/sc_drivers/r_riic/src/lld/r_rza2_riic_lld.c ****         { RIIC_PCLK_DIV_4, 17, 17 }, /* Duty 50% */
 143:../generate/sc_drivers/r_riic/src/lld/r_rza2_riic_lld.c ****         { RIIC_PCLK_DIV_4, 21, 13 }, /* Duty 60% */
 144:../generate/sc_drivers/r_riic/src/lld/r_rza2_riic_lld.c ****         { RIIC_PCLK_DIV_4, 24, 10 }, /* Duty 70% */
 145:../generate/sc_drivers/r_riic/src/lld/r_rza2_riic_lld.c ****         { RIIC_PCLK_DIV_4, 27, 7 }, /* Duty 80% */
 146:../generate/sc_drivers/r_riic/src/lld/r_rza2_riic_lld.c ****         { RIIC_PCLK_DIV_4, 31, 3 } /* Duty 90% */
 147:../generate/sc_drivers/r_riic/src/lld/r_rza2_riic_lld.c ****     },
 148:../generate/sc_drivers/r_riic/src/lld/r_rza2_riic_lld.c ****     {
 149:../generate/sc_drivers/r_riic/src/lld/r_rza2_riic_lld.c ****         /* SCL = 1MHz */
 150:../generate/sc_drivers/r_riic/src/lld/r_rza2_riic_lld.c ****         { RIIC_PCLK_DIV_2, 2, 22 }, /* Duty 10% */
 151:../generate/sc_drivers/r_riic/src/lld/r_rza2_riic_lld.c ****         { RIIC_PCLK_DIV_2, 5, 19 }, /* Duty 20% */
 152:../generate/sc_drivers/r_riic/src/lld/r_rza2_riic_lld.c ****         { RIIC_PCLK_DIV_2, 7, 17 }, /* Duty 30% */
 153:../generate/sc_drivers/r_riic/src/lld/r_rza2_riic_lld.c ****         { RIIC_PCLK_DIV_2, 10, 14 }, /* Duty 40% */
 154:../generate/sc_drivers/r_riic/src/lld/r_rza2_riic_lld.c ****         { RIIC_PCLK_DIV_2, 12, 12 }, /* Duty 50% */
 155:../generate/sc_drivers/r_riic/src/lld/r_rza2_riic_lld.c ****         { RIIC_PCLK_DIV_2, 14, 10 }, /* Duty 60% */
 156:../generate/sc_drivers/r_riic/src/lld/r_rza2_riic_lld.c ****         { RIIC_PCLK_DIV_2, 17, 7 }, /* Duty 70% */
 157:../generate/sc_drivers/r_riic/src/lld/r_rza2_riic_lld.c ****         { RIIC_PCLK_DIV_2, 19, 5 }, /* Duty 80% */
 158:../generate/sc_drivers/r_riic/src/lld/r_rza2_riic_lld.c ****         { RIIC_PCLK_DIV_2, 22, 2 } /* Duty 90% */
 159:../generate/sc_drivers/r_riic/src/lld/r_rza2_riic_lld.c ****     } 
 160:../generate/sc_drivers/r_riic/src/lld/r_rza2_riic_lld.c **** };
 161:../generate/sc_drivers/r_riic/src/lld/r_rza2_riic_lld.c **** 
 162:../generate/sc_drivers/r_riic/src/lld/r_rza2_riic_lld.c **** /* clock parameter base table define 
 163:../generate/sc_drivers/r_riic/src/lld/r_rza2_riic_lld.c ****  * in case of PCLK = 55MHz, noise filter disable, rise_time = 0, fall_time = 0
 164:../generate/sc_drivers/r_riic/src/lld/r_rza2_riic_lld.c ****  */
 165:../generate/sc_drivers/r_riic/src/lld/r_rza2_riic_lld.c **** static const st_riic_freq_table_param_t gs_riic_clk_base_param_55m[RIIC_FREQUENCY_MAX][RIIC_DUTY_MA
 166:../generate/sc_drivers/r_riic/src/lld/r_rza2_riic_lld.c **** {
 167:../generate/sc_drivers/r_riic/src/lld/r_rza2_riic_lld.c ****     {
 168:../generate/sc_drivers/r_riic/src/lld/r_rza2_riic_lld.c ****         /* SCL = 100KHz */
 169:../generate/sc_drivers/r_riic/src/lld/r_rza2_riic_lld.c ****         { RIIC_PCLK_DIV_16, 3, 28 }, /* Duty 10% */
 170:../generate/sc_drivers/r_riic/src/lld/r_rza2_riic_lld.c ****         { RIIC_PCLK_DIV_16, 6, 25 }, /* Duty 20% */
 171:../generate/sc_drivers/r_riic/src/lld/r_rza2_riic_lld.c ****         { RIIC_PCLK_DIV_16, 9, 22 }, /* Duty 30% */
 172:../generate/sc_drivers/r_riic/src/lld/r_rza2_riic_lld.c ****         { RIIC_PCLK_DIV_16, 12, 19 }, /* Duty 40% */
 173:../generate/sc_drivers/r_riic/src/lld/r_rza2_riic_lld.c ****         { RIIC_PCLK_DIV_16, 15, 16 }, /* Duty 50% */
 174:../generate/sc_drivers/r_riic/src/lld/r_rza2_riic_lld.c ****         { RIIC_PCLK_DIV_16, 19, 12 }, /* Duty 60% */
 175:../generate/sc_drivers/r_riic/src/lld/r_rza2_riic_lld.c ****         { RIIC_PCLK_DIV_16, 22, 9 }, /* Duty 70% */
 176:../generate/sc_drivers/r_riic/src/lld/r_rza2_riic_lld.c ****         { RIIC_PCLK_DIV_16, 25, 6 }, /* Duty 80% */
 177:../generate/sc_drivers/r_riic/src/lld/r_rza2_riic_lld.c ****         { RIIC_PCLK_DIV_16, 28, 3 } /* Duty 90% */
 178:../generate/sc_drivers/r_riic/src/lld/r_rza2_riic_lld.c ****     },
 179:../generate/sc_drivers/r_riic/src/lld/r_rza2_riic_lld.c ****     {
 180:../generate/sc_drivers/r_riic/src/lld/r_rza2_riic_lld.c ****         /* SCL = 400KHz */
 181:../generate/sc_drivers/r_riic/src/lld/r_rza2_riic_lld.c ****         { RIIC_PCLK_DIV_4, 3, 28 }, /* Duty 10% */
 182:../generate/sc_drivers/r_riic/src/lld/r_rza2_riic_lld.c ****         { RIIC_PCLK_DIV_4, 6, 25 }, /* Duty 20% */
 183:../generate/sc_drivers/r_riic/src/lld/r_rza2_riic_lld.c ****         { RIIC_PCLK_DIV_4, 9, 22 }, /* Duty 30% */
 184:../generate/sc_drivers/r_riic/src/lld/r_rza2_riic_lld.c ****         { RIIC_PCLK_DIV_4, 12, 19 }, /* Duty 40% */
 185:../generate/sc_drivers/r_riic/src/lld/r_rza2_riic_lld.c ****         { RIIC_PCLK_DIV_4, 15, 16 }, /* Duty 50% */
 186:../generate/sc_drivers/r_riic/src/lld/r_rza2_riic_lld.c ****         { RIIC_PCLK_DIV_4, 19, 12 }, /* Duty 60% */
 187:../generate/sc_drivers/r_riic/src/lld/r_rza2_riic_lld.c ****         { RIIC_PCLK_DIV_4, 22, 9 }, /* Duty 70% */
 188:../generate/sc_drivers/r_riic/src/lld/r_rza2_riic_lld.c ****         { RIIC_PCLK_DIV_4, 25, 6 }, /* Duty 80% */
 189:../generate/sc_drivers/r_riic/src/lld/r_rza2_riic_lld.c ****         { RIIC_PCLK_DIV_4, 28, 3 } /* Duty 90% */
 190:../generate/sc_drivers/r_riic/src/lld/r_rza2_riic_lld.c ****     },
 191:../generate/sc_drivers/r_riic/src/lld/r_rza2_riic_lld.c ****     {
 192:../generate/sc_drivers/r_riic/src/lld/r_rza2_riic_lld.c ****         /* SCL = 1MHz */
 193:../generate/sc_drivers/r_riic/src/lld/r_rza2_riic_lld.c ****         { RIIC_PCLK_DIV_2, 2, 20 }, /* Duty 10% */
 194:../generate/sc_drivers/r_riic/src/lld/r_rza2_riic_lld.c ****         { RIIC_PCLK_DIV_2, 4, 18 }, /* Duty 20% */
 195:../generate/sc_drivers/r_riic/src/lld/r_rza2_riic_lld.c ****         { RIIC_PCLK_DIV_2, 7, 15 }, /* Duty 30% */
 196:../generate/sc_drivers/r_riic/src/lld/r_rza2_riic_lld.c ****         { RIIC_PCLK_DIV_2, 9, 13 }, /* Duty 40% */
 197:../generate/sc_drivers/r_riic/src/lld/r_rza2_riic_lld.c ****         { RIIC_PCLK_DIV_2, 11, 11 }, /* Duty 50% */
 198:../generate/sc_drivers/r_riic/src/lld/r_rza2_riic_lld.c ****         { RIIC_PCLK_DIV_2, 13, 9 }, /* Duty 60% */
 199:../generate/sc_drivers/r_riic/src/lld/r_rza2_riic_lld.c ****         { RIIC_PCLK_DIV_2, 15, 7 }, /* Duty 70% */
 200:../generate/sc_drivers/r_riic/src/lld/r_rza2_riic_lld.c ****         { RIIC_PCLK_DIV_2, 18, 4 }, /* Duty 80% */
 201:../generate/sc_drivers/r_riic/src/lld/r_rza2_riic_lld.c ****         { RIIC_PCLK_DIV_2, 20, 2 } /* Duty 90% */
 202:../generate/sc_drivers/r_riic/src/lld/r_rza2_riic_lld.c ****     } 
 203:../generate/sc_drivers/r_riic/src/lld/r_rza2_riic_lld.c **** };
 204:../generate/sc_drivers/r_riic/src/lld/r_rza2_riic_lld.c **** 
 205:../generate/sc_drivers/r_riic/src/lld/r_rza2_riic_lld.c **** static st_riic_config_t gs_riic_config[RIIC_CFG_LLD_NUM_CHANNELS];
 206:../generate/sc_drivers/r_riic/src/lld/r_rza2_riic_lld.c **** static uint32_t gs_board_pclk = 0;
 207:../generate/sc_drivers/r_riic/src/lld/r_rza2_riic_lld.c **** 
 208:../generate/sc_drivers/r_riic/src/lld/r_rza2_riic_lld.c **** /* Prototypes */
 209:../generate/sc_drivers/r_riic/src/lld/r_rza2_riic_lld.c **** static int_t riic_adjust_scl_clk (st_riic_clk_check_param_t *p_cfg);
 210:../generate/sc_drivers/r_riic/src/lld/r_rza2_riic_lld.c **** static int_t riic_set_reset (int_t channel);
 211:../generate/sc_drivers/r_riic/src/lld/r_rza2_riic_lld.c **** static int_t riic_release_reset (int_t channel);
 212:../generate/sc_drivers/r_riic/src/lld/r_rza2_riic_lld.c **** static int_t riic_register_slave_addrss (int_t channel, st_riic_config_t *p_cfg);
 213:../generate/sc_drivers/r_riic/src/lld/r_rza2_riic_lld.c **** static int_t riic_set_scl_clk (int_t channel, st_riic_config_t *p_cfg, uint32_t pclk);
 214:../generate/sc_drivers/r_riic/src/lld/r_rza2_riic_lld.c **** static int_t riic_set_noise_filter (int_t channel, st_riic_config_t *p_cfg);
 215:../generate/sc_drivers/r_riic/src/lld/r_rza2_riic_lld.c **** static int_t riic_set_timeout (int_t channel, st_riic_config_t *p_cfg);
 216:../generate/sc_drivers/r_riic/src/lld/r_rza2_riic_lld.c **** static int_t riic_set_bus_format (int_t channel, st_riic_config_t *p_cfg);
 217:../generate/sc_drivers/r_riic/src/lld/r_rza2_riic_lld.c **** static int_t riic_hw_init (int_t channel);
 218:../generate/sc_drivers/r_riic/src/lld/r_rza2_riic_lld.c **** 
 219:../generate/sc_drivers/r_riic/src/lld/r_rza2_riic_lld.c **** /* noise filter table define */
 220:../generate/sc_drivers/r_riic/src/lld/r_rza2_riic_lld.c **** static uint32_t gs_noise_filter_nf_table[RIIC_FILTER_STAGE_MAX] =
 221:../generate/sc_drivers/r_riic/src/lld/r_rza2_riic_lld.c **** {
 222:../generate/sc_drivers/r_riic/src/lld/r_rza2_riic_lld.c ****     RIIC_MR3_REG_NF_STAGE1, /* RIIC_FILTER_NOT_USED */
 223:../generate/sc_drivers/r_riic/src/lld/r_rza2_riic_lld.c ****     RIIC_MR3_REG_NF_STAGE1, /* RIIC_FILTER_STAGE_1 */
 224:../generate/sc_drivers/r_riic/src/lld/r_rza2_riic_lld.c ****     RIIC_MR3_REG_NF_STAGE2, /* RIIC_FILTER_STAGE_2 */
 225:../generate/sc_drivers/r_riic/src/lld/r_rza2_riic_lld.c ****     RIIC_MR3_REG_NF_STAGE3, /* RIIC_FILTER_STAGE_3 */
 226:../generate/sc_drivers/r_riic/src/lld/r_rza2_riic_lld.c ****     RIIC_MR3_REG_NF_STAGE4 /* RIIC_FILTER_STAGE_4 */
 227:../generate/sc_drivers/r_riic/src/lld/r_rza2_riic_lld.c **** };
 228:../generate/sc_drivers/r_riic/src/lld/r_rza2_riic_lld.c **** 
 229:../generate/sc_drivers/r_riic/src/lld/r_rza2_riic_lld.c **** /******************************************************************************
 230:../generate/sc_drivers/r_riic/src/lld/r_rza2_riic_lld.c **** * Function Name: R_RIIC_ScInitChannel
 231:../generate/sc_drivers/r_riic/src/lld/r_rza2_riic_lld.c **** * Description  : This function configures device registers in preparation for
 232:../generate/sc_drivers/r_riic/src/lld/r_rza2_riic_lld.c **** *                configuration.
 233:../generate/sc_drivers/r_riic/src/lld/r_rza2_riic_lld.c **** * Arguments    : sc_config_index - Index number of RIIC Initialization channel.
 234:../generate/sc_drivers/r_riic/src/lld/r_rza2_riic_lld.c **** *                pclk_frequency - PCLK frequency for RIIC.
 235:../generate/sc_drivers/r_riic/src/lld/r_rza2_riic_lld.c **** * Return Value : DRV_SUCCESS - Successful operation.
 236:../generate/sc_drivers/r_riic/src/lld/r_rza2_riic_lld.c **** *                DRV_ERROR - Combination of frequency setting does not conform 
 237:../generate/sc_drivers/r_riic/src/lld/r_rza2_riic_lld.c **** *                            to the standard.
 238:../generate/sc_drivers/r_riic/src/lld/r_rza2_riic_lld.c **** ******************************************************************************/
 239:../generate/sc_drivers/r_riic/src/lld/r_rza2_riic_lld.c **** int_t R_RIIC_ScInitChannel (int_t sc_config_index, uint32_t pclk_frequency)
 240:../generate/sc_drivers/r_riic/src/lld/r_rza2_riic_lld.c **** {
 241:../generate/sc_drivers/r_riic/src/lld/r_rza2_riic_lld.c ****     int_t retval = DRV_SUCCESS;
 242:../generate/sc_drivers/r_riic/src/lld/r_rza2_riic_lld.c ****     uint32_t slave_addr_num;
 243:../generate/sc_drivers/r_riic/src/lld/r_rza2_riic_lld.c ****     int_t channel;
 244:../generate/sc_drivers/r_riic/src/lld/r_rza2_riic_lld.c ****     int_t sc_table_size = (sizeof(RIIC_SC_TABLE)) / (sizeof(st_r_drv_riic_sc_config_t));
 245:../generate/sc_drivers/r_riic/src/lld/r_rza2_riic_lld.c **** 
 246:../generate/sc_drivers/r_riic/src/lld/r_rza2_riic_lld.c ****     /* check index number of SC */
 247:../generate/sc_drivers/r_riic/src/lld/r_rza2_riic_lld.c ****     if ((sc_config_index >= 0) && (sc_config_index < sc_table_size))
 248:../generate/sc_drivers/r_riic/src/lld/r_rza2_riic_lld.c ****     {
 249:../generate/sc_drivers/r_riic/src/lld/r_rza2_riic_lld.c ****         channel = RIIC_SC_TABLE[sc_config_index].channel;
 250:../generate/sc_drivers/r_riic/src/lld/r_rza2_riic_lld.c ****             
 251:../generate/sc_drivers/r_riic/src/lld/r_rza2_riic_lld.c ****         /* check channel registered in SC */
 252:../generate/sc_drivers/r_riic/src/lld/r_rza2_riic_lld.c ****         if ((channel >= RIIC_CFG_LLD_NUM_CHANNELS) || (channel < 0))
 253:../generate/sc_drivers/r_riic/src/lld/r_rza2_riic_lld.c ****         {
 254:../generate/sc_drivers/r_riic/src/lld/r_rza2_riic_lld.c ****             retval = DRV_ERROR;
 255:../generate/sc_drivers/r_riic/src/lld/r_rza2_riic_lld.c ****         }
 256:../generate/sc_drivers/r_riic/src/lld/r_rza2_riic_lld.c ****     }
 257:../generate/sc_drivers/r_riic/src/lld/r_rza2_riic_lld.c ****     else
 258:../generate/sc_drivers/r_riic/src/lld/r_rza2_riic_lld.c ****     {
 259:../generate/sc_drivers/r_riic/src/lld/r_rza2_riic_lld.c ****         retval = DRV_ERROR;
 260:../generate/sc_drivers/r_riic/src/lld/r_rza2_riic_lld.c ****     }
 261:../generate/sc_drivers/r_riic/src/lld/r_rza2_riic_lld.c **** 
 262:../generate/sc_drivers/r_riic/src/lld/r_rza2_riic_lld.c ****     if (DRV_SUCCESS == retval)
 263:../generate/sc_drivers/r_riic/src/lld/r_rza2_riic_lld.c ****     {
 264:../generate/sc_drivers/r_riic/src/lld/r_rza2_riic_lld.c ****         gs_riic_config[channel].riic_mode = RIIC_SC_TABLE[sc_config_index].config.riic_mode;
 265:../generate/sc_drivers/r_riic/src/lld/r_rza2_riic_lld.c ****         for (slave_addr_num = 0; slave_addr_num < RIIC_SLAVE_ADDR_NUM_MAX; slave_addr_num++)
 266:../generate/sc_drivers/r_riic/src/lld/r_rza2_riic_lld.c ****         {
 267:../generate/sc_drivers/r_riic/src/lld/r_rza2_riic_lld.c ****             gs_riic_config[channel].slave_address_enable[slave_addr_num] =
 268:../generate/sc_drivers/r_riic/src/lld/r_rza2_riic_lld.c ****                     RIIC_SC_TABLE[sc_config_index].config.slave_address_enable[slave_addr_num];
 269:../generate/sc_drivers/r_riic/src/lld/r_rza2_riic_lld.c ****             gs_riic_config[channel].slave_address[slave_addr_num] =
 270:../generate/sc_drivers/r_riic/src/lld/r_rza2_riic_lld.c ****                     RIIC_SC_TABLE[sc_config_index].config.slave_address[slave_addr_num];
 271:../generate/sc_drivers/r_riic/src/lld/r_rza2_riic_lld.c ****             gs_riic_config[channel].slave_address_length[slave_addr_num] =
 272:../generate/sc_drivers/r_riic/src/lld/r_rza2_riic_lld.c ****                     RIIC_SC_TABLE[sc_config_index].config.slave_address_length[slave_addr_num];
 273:../generate/sc_drivers/r_riic/src/lld/r_rza2_riic_lld.c ****         }
 274:../generate/sc_drivers/r_riic/src/lld/r_rza2_riic_lld.c ****         gs_riic_config[channel].frequency = RIIC_SC_TABLE[sc_config_index].config.frequency;
 275:../generate/sc_drivers/r_riic/src/lld/r_rza2_riic_lld.c ****         gs_riic_config[channel].duty = RIIC_SC_TABLE[sc_config_index].config.duty;
 276:../generate/sc_drivers/r_riic/src/lld/r_rza2_riic_lld.c ****         gs_riic_config[channel].rise_time = RIIC_SC_TABLE[sc_config_index].config.rise_time;
 277:../generate/sc_drivers/r_riic/src/lld/r_rza2_riic_lld.c ****         gs_riic_config[channel].fall_time = RIIC_SC_TABLE[sc_config_index].config.fall_time;
 278:../generate/sc_drivers/r_riic/src/lld/r_rza2_riic_lld.c ****         gs_riic_config[channel].noise_filter_stage = RIIC_SC_TABLE[sc_config_index].config.noise_fi
 279:../generate/sc_drivers/r_riic/src/lld/r_rza2_riic_lld.c ****         gs_riic_config[channel].timeout = RIIC_SC_TABLE[sc_config_index].config.timeout;
 280:../generate/sc_drivers/r_riic/src/lld/r_rza2_riic_lld.c ****         gs_riic_config[channel].format = RIIC_SC_TABLE[sc_config_index].config.format;
 281:../generate/sc_drivers/r_riic/src/lld/r_rza2_riic_lld.c ****         gs_riic_config[channel].host_address_enabled = RIIC_SC_TABLE[sc_config_index].config.host_a
 282:../generate/sc_drivers/r_riic/src/lld/r_rza2_riic_lld.c ****         gs_riic_config[channel].tei_priority = RIIC_SC_TABLE[sc_config_index].config.tei_priority;
 283:../generate/sc_drivers/r_riic/src/lld/r_rza2_riic_lld.c ****         gs_riic_config[channel].ri_priority = RIIC_SC_TABLE[sc_config_index].config.ri_priority;
 284:../generate/sc_drivers/r_riic/src/lld/r_rza2_riic_lld.c ****         gs_riic_config[channel].ti_priority = RIIC_SC_TABLE[sc_config_index].config.ti_priority;
 285:../generate/sc_drivers/r_riic/src/lld/r_rza2_riic_lld.c ****         gs_riic_config[channel].spi_priority = RIIC_SC_TABLE[sc_config_index].config.spi_priority;
 286:../generate/sc_drivers/r_riic/src/lld/r_rza2_riic_lld.c ****         gs_riic_config[channel].sti_priority = RIIC_SC_TABLE[sc_config_index].config.sti_priority;
 287:../generate/sc_drivers/r_riic/src/lld/r_rza2_riic_lld.c ****         gs_riic_config[channel].naki_priority = RIIC_SC_TABLE[sc_config_index].config.naki_priority
 288:../generate/sc_drivers/r_riic/src/lld/r_rza2_riic_lld.c ****         gs_riic_config[channel].ali_priority = RIIC_SC_TABLE[sc_config_index].config.ali_priority;
 289:../generate/sc_drivers/r_riic/src/lld/r_rza2_riic_lld.c ****         gs_riic_config[channel].tmoi_priority = RIIC_SC_TABLE[sc_config_index].config.tmoi_priority
 290:../generate/sc_drivers/r_riic/src/lld/r_rza2_riic_lld.c ****         gs_board_pclk = pclk_frequency;
 291:../generate/sc_drivers/r_riic/src/lld/r_rza2_riic_lld.c ****     }
 292:../generate/sc_drivers/r_riic/src/lld/r_rza2_riic_lld.c **** 
 293:../generate/sc_drivers/r_riic/src/lld/r_rza2_riic_lld.c ****     /* Start RIIC module */
 294:../generate/sc_drivers/r_riic/src/lld/r_rza2_riic_lld.c ****     if (DRV_SUCCESS == retval)
 295:../generate/sc_drivers/r_riic/src/lld/r_rza2_riic_lld.c ****     {
 296:../generate/sc_drivers/r_riic/src/lld/r_rza2_riic_lld.c ****         retval = R_STB_StartModule(gs_riic_module[channel]);
 297:../generate/sc_drivers/r_riic/src/lld/r_rza2_riic_lld.c ****         if (STB_SUCCESS != retval)
 298:../generate/sc_drivers/r_riic/src/lld/r_rza2_riic_lld.c ****         {
 299:../generate/sc_drivers/r_riic/src/lld/r_rza2_riic_lld.c ****             retval = DRV_ERROR;
 300:../generate/sc_drivers/r_riic/src/lld/r_rza2_riic_lld.c ****         }
 301:../generate/sc_drivers/r_riic/src/lld/r_rza2_riic_lld.c ****     }
 302:../generate/sc_drivers/r_riic/src/lld/r_rza2_riic_lld.c **** 
 303:../generate/sc_drivers/r_riic/src/lld/r_rza2_riic_lld.c ****     if (DRV_SUCCESS == retval)
 304:../generate/sc_drivers/r_riic/src/lld/r_rza2_riic_lld.c ****     {
 305:../generate/sc_drivers/r_riic/src/lld/r_rza2_riic_lld.c ****         riic_set_reset(channel);
 306:../generate/sc_drivers/r_riic/src/lld/r_rza2_riic_lld.c **** 
 307:../generate/sc_drivers/r_riic/src/lld/r_rza2_riic_lld.c ****         riic_register_slave_addrss(channel, &gs_riic_config[channel]);
 308:../generate/sc_drivers/r_riic/src/lld/r_rza2_riic_lld.c **** 
 309:../generate/sc_drivers/r_riic/src/lld/r_rza2_riic_lld.c ****         retval = riic_set_scl_clk(channel, &gs_riic_config[channel], pclk_frequency);
 310:../generate/sc_drivers/r_riic/src/lld/r_rza2_riic_lld.c **** 
 311:../generate/sc_drivers/r_riic/src/lld/r_rza2_riic_lld.c ****         if (DRV_SUCCESS == retval)
 312:../generate/sc_drivers/r_riic/src/lld/r_rza2_riic_lld.c ****         {
 313:../generate/sc_drivers/r_riic/src/lld/r_rza2_riic_lld.c ****             riic_set_bus_format(channel, &gs_riic_config[channel]);
 314:../generate/sc_drivers/r_riic/src/lld/r_rza2_riic_lld.c **** 
 315:../generate/sc_drivers/r_riic/src/lld/r_rza2_riic_lld.c ****             riic_set_noise_filter(channel, &gs_riic_config[channel]);
 316:../generate/sc_drivers/r_riic/src/lld/r_rza2_riic_lld.c **** 
 317:../generate/sc_drivers/r_riic/src/lld/r_rza2_riic_lld.c ****             riic_set_timeout(channel, &gs_riic_config[channel]);
 318:../generate/sc_drivers/r_riic/src/lld/r_rza2_riic_lld.c **** 
 319:../generate/sc_drivers/r_riic/src/lld/r_rza2_riic_lld.c ****             interrupt_init(channel, &gs_riic_config[channel]);
 320:../generate/sc_drivers/r_riic/src/lld/r_rza2_riic_lld.c ****         }
 321:../generate/sc_drivers/r_riic/src/lld/r_rza2_riic_lld.c ****         else
 322:../generate/sc_drivers/r_riic/src/lld/r_rza2_riic_lld.c ****         {
 323:../generate/sc_drivers/r_riic/src/lld/r_rza2_riic_lld.c ****             riic_hw_init(channel);
 324:../generate/sc_drivers/r_riic/src/lld/r_rza2_riic_lld.c ****         }
 325:../generate/sc_drivers/r_riic/src/lld/r_rza2_riic_lld.c **** 
 326:../generate/sc_drivers/r_riic/src/lld/r_rza2_riic_lld.c ****         riic_release_reset(channel);
 327:../generate/sc_drivers/r_riic/src/lld/r_rza2_riic_lld.c ****     }
 328:../generate/sc_drivers/r_riic/src/lld/r_rza2_riic_lld.c **** 
 329:../generate/sc_drivers/r_riic/src/lld/r_rza2_riic_lld.c ****     return retval;
 330:../generate/sc_drivers/r_riic/src/lld/r_rza2_riic_lld.c **** }
 331:../generate/sc_drivers/r_riic/src/lld/r_rza2_riic_lld.c **** /******************************************************************************
 332:../generate/sc_drivers/r_riic/src/lld/r_rza2_riic_lld.c ****  * End of Function R_RIIC_ScInitChannel
 333:../generate/sc_drivers/r_riic/src/lld/r_rza2_riic_lld.c ****  *****************************************************************************/
 334:../generate/sc_drivers/r_riic/src/lld/r_rza2_riic_lld.c **** 
 335:../generate/sc_drivers/r_riic/src/lld/r_rza2_riic_lld.c **** /******************************************************************************
 336:../generate/sc_drivers/r_riic/src/lld/r_rza2_riic_lld.c **** * Function Name: R_RIIC_CloseChannel
 337:../generate/sc_drivers/r_riic/src/lld/r_rza2_riic_lld.c **** * Description  : This function clear device registers and shutdown.
 338:../generate/sc_drivers/r_riic/src/lld/r_rza2_riic_lld.c **** * Arguments    : channel - Channel to close.
 339:../generate/sc_drivers/r_riic/src/lld/r_rza2_riic_lld.c **** * Return Value : None.
 340:../generate/sc_drivers/r_riic/src/lld/r_rza2_riic_lld.c **** ******************************************************************************/
 341:../generate/sc_drivers/r_riic/src/lld/r_rza2_riic_lld.c **** void R_RIIC_CloseChannel (int_t channel)
 342:../generate/sc_drivers/r_riic/src/lld/r_rza2_riic_lld.c **** {
 343:../generate/sc_drivers/r_riic/src/lld/r_rza2_riic_lld.c ****     interrupt_uninit(channel);
 344:../generate/sc_drivers/r_riic/src/lld/r_rza2_riic_lld.c **** 
 345:../generate/sc_drivers/r_riic/src/lld/r_rza2_riic_lld.c ****     riic_set_reset(channel);
 346:../generate/sc_drivers/r_riic/src/lld/r_rza2_riic_lld.c **** 
 347:../generate/sc_drivers/r_riic/src/lld/r_rza2_riic_lld.c ****     riic_hw_init(channel);
 348:../generate/sc_drivers/r_riic/src/lld/r_rza2_riic_lld.c **** 
 349:../generate/sc_drivers/r_riic/src/lld/r_rza2_riic_lld.c ****     riic_release_reset(channel);
 350:../generate/sc_drivers/r_riic/src/lld/r_rza2_riic_lld.c **** 
 351:../generate/sc_drivers/r_riic/src/lld/r_rza2_riic_lld.c ****     R_STB_StopModule(gs_riic_module[channel]);
 352:../generate/sc_drivers/r_riic/src/lld/r_rza2_riic_lld.c **** 
 353:../generate/sc_drivers/r_riic/src/lld/r_rza2_riic_lld.c ****     return;
 354:../generate/sc_drivers/r_riic/src/lld/r_rza2_riic_lld.c **** }
 355:../generate/sc_drivers/r_riic/src/lld/r_rza2_riic_lld.c **** /******************************************************************************
 356:../generate/sc_drivers/r_riic/src/lld/r_rza2_riic_lld.c ****  * End of Function R_RIIC_CloseChannel
 357:../generate/sc_drivers/r_riic/src/lld/r_rza2_riic_lld.c ****  *****************************************************************************/
 358:../generate/sc_drivers/r_riic/src/lld/r_rza2_riic_lld.c **** 
 359:../generate/sc_drivers/r_riic/src/lld/r_rza2_riic_lld.c **** /******************************************************************************
 360:../generate/sc_drivers/r_riic/src/lld/r_rza2_riic_lld.c **** * Function Name: R_RIIC_SetConfig
 361:../generate/sc_drivers/r_riic/src/lld/r_rza2_riic_lld.c **** * Description  : This function configures device registers in preparation for
 362:../generate/sc_drivers/r_riic/src/lld/r_rza2_riic_lld.c **** *                configuration.
 363:../generate/sc_drivers/r_riic/src/lld/r_rza2_riic_lld.c **** * Arguments    : channel - Channel to configure.
 364:../generate/sc_drivers/r_riic/src/lld/r_rza2_riic_lld.c **** * Return Value : DRV_SUCCESS - Successful operation.
 365:../generate/sc_drivers/r_riic/src/lld/r_rza2_riic_lld.c **** *                DRV_ERROR - Specify a illegal channel number.
 366:../generate/sc_drivers/r_riic/src/lld/r_rza2_riic_lld.c **** ******************************************************************************/
 367:../generate/sc_drivers/r_riic/src/lld/r_rza2_riic_lld.c **** int_t R_RIIC_SetConfig (int_t channel, st_riic_config_t *p_cfg)
 368:../generate/sc_drivers/r_riic/src/lld/r_rza2_riic_lld.c **** {
 369:../generate/sc_drivers/r_riic/src/lld/r_rza2_riic_lld.c ****     int_t retval = DRV_SUCCESS;
 370:../generate/sc_drivers/r_riic/src/lld/r_rza2_riic_lld.c ****     uint32_t slave_addr_num;
 371:../generate/sc_drivers/r_riic/src/lld/r_rza2_riic_lld.c ****     st_riic_clk_check_param_t clk_param;
 372:../generate/sc_drivers/r_riic/src/lld/r_rza2_riic_lld.c **** 
 373:../generate/sc_drivers/r_riic/src/lld/r_rza2_riic_lld.c ****     /* check arguments */
 374:../generate/sc_drivers/r_riic/src/lld/r_rza2_riic_lld.c ****     if ((channel >= RIIC_CFG_LLD_NUM_CHANNELS) || (channel < 0))
 375:../generate/sc_drivers/r_riic/src/lld/r_rza2_riic_lld.c ****     {
 376:../generate/sc_drivers/r_riic/src/lld/r_rza2_riic_lld.c ****         retval = DRV_ERROR;
 377:../generate/sc_drivers/r_riic/src/lld/r_rza2_riic_lld.c ****     }
 378:../generate/sc_drivers/r_riic/src/lld/r_rza2_riic_lld.c **** 
 379:../generate/sc_drivers/r_riic/src/lld/r_rza2_riic_lld.c ****     if (DRV_SUCCESS == retval)
 380:../generate/sc_drivers/r_riic/src/lld/r_rza2_riic_lld.c ****     {
 381:../generate/sc_drivers/r_riic/src/lld/r_rza2_riic_lld.c ****         clk_param.pclk = gs_board_pclk;
 382:../generate/sc_drivers/r_riic/src/lld/r_rza2_riic_lld.c ****         clk_param.frequency = p_cfg->frequency;
 383:../generate/sc_drivers/r_riic/src/lld/r_rza2_riic_lld.c ****         clk_param.duty = p_cfg->duty;
 384:../generate/sc_drivers/r_riic/src/lld/r_rza2_riic_lld.c ****         clk_param.rise_time = p_cfg->rise_time;
 385:../generate/sc_drivers/r_riic/src/lld/r_rza2_riic_lld.c ****         clk_param.fall_time = p_cfg->fall_time;
 386:../generate/sc_drivers/r_riic/src/lld/r_rza2_riic_lld.c ****         clk_param.noise_filter_stage = p_cfg->noise_filter_stage;
 387:../generate/sc_drivers/r_riic/src/lld/r_rza2_riic_lld.c ****         clk_param.format = p_cfg->format;
 388:../generate/sc_drivers/r_riic/src/lld/r_rza2_riic_lld.c **** 
 389:../generate/sc_drivers/r_riic/src/lld/r_rza2_riic_lld.c ****         /* check clock parameter */
 390:../generate/sc_drivers/r_riic/src/lld/r_rza2_riic_lld.c ****         retval = riic_adjust_scl_clk( &clk_param);
 391:../generate/sc_drivers/r_riic/src/lld/r_rza2_riic_lld.c ****     }
 392:../generate/sc_drivers/r_riic/src/lld/r_rza2_riic_lld.c **** 
 393:../generate/sc_drivers/r_riic/src/lld/r_rza2_riic_lld.c ****     if (DRV_SUCCESS == retval)
 394:../generate/sc_drivers/r_riic/src/lld/r_rza2_riic_lld.c ****     {
 395:../generate/sc_drivers/r_riic/src/lld/r_rza2_riic_lld.c ****         riic_set_reset(channel);
 396:../generate/sc_drivers/r_riic/src/lld/r_rza2_riic_lld.c **** 
 397:../generate/sc_drivers/r_riic/src/lld/r_rza2_riic_lld.c ****         riic_register_slave_addrss(channel, p_cfg);
 398:../generate/sc_drivers/r_riic/src/lld/r_rza2_riic_lld.c **** 
 399:../generate/sc_drivers/r_riic/src/lld/r_rza2_riic_lld.c ****         /* clock has already been checked, so no error check */
 400:../generate/sc_drivers/r_riic/src/lld/r_rza2_riic_lld.c ****         riic_set_scl_clk(channel, p_cfg, gs_board_pclk);
 401:../generate/sc_drivers/r_riic/src/lld/r_rza2_riic_lld.c **** 
 402:../generate/sc_drivers/r_riic/src/lld/r_rza2_riic_lld.c ****         riic_set_bus_format(channel, p_cfg);
 403:../generate/sc_drivers/r_riic/src/lld/r_rza2_riic_lld.c **** 
 404:../generate/sc_drivers/r_riic/src/lld/r_rza2_riic_lld.c ****         riic_set_noise_filter(channel, p_cfg);
 405:../generate/sc_drivers/r_riic/src/lld/r_rza2_riic_lld.c **** 
 406:../generate/sc_drivers/r_riic/src/lld/r_rza2_riic_lld.c ****         riic_set_timeout(channel, p_cfg);
 407:../generate/sc_drivers/r_riic/src/lld/r_rza2_riic_lld.c **** 
 408:../generate/sc_drivers/r_riic/src/lld/r_rza2_riic_lld.c ****         interrupt_uninit(channel);
 409:../generate/sc_drivers/r_riic/src/lld/r_rza2_riic_lld.c **** 
 410:../generate/sc_drivers/r_riic/src/lld/r_rza2_riic_lld.c ****         interrupt_init(channel, p_cfg);
 411:../generate/sc_drivers/r_riic/src/lld/r_rza2_riic_lld.c **** 
 412:../generate/sc_drivers/r_riic/src/lld/r_rza2_riic_lld.c ****         gs_riic_config[channel].riic_mode = p_cfg->riic_mode;
 413:../generate/sc_drivers/r_riic/src/lld/r_rza2_riic_lld.c ****         for (slave_addr_num = 0; slave_addr_num < RIIC_SLAVE_ADDR_NUM_MAX; slave_addr_num++)
 414:../generate/sc_drivers/r_riic/src/lld/r_rza2_riic_lld.c ****         {
 415:../generate/sc_drivers/r_riic/src/lld/r_rza2_riic_lld.c ****             gs_riic_config[channel].slave_address_enable[slave_addr_num] 
 416:../generate/sc_drivers/r_riic/src/lld/r_rza2_riic_lld.c ****                 = p_cfg->slave_address_enable[slave_addr_num];
 417:../generate/sc_drivers/r_riic/src/lld/r_rza2_riic_lld.c ****             gs_riic_config[channel].slave_address[slave_addr_num] 
 418:../generate/sc_drivers/r_riic/src/lld/r_rza2_riic_lld.c ****                 = p_cfg->slave_address[slave_addr_num];
 419:../generate/sc_drivers/r_riic/src/lld/r_rza2_riic_lld.c ****             gs_riic_config[channel].slave_address_length[slave_addr_num] 
 420:../generate/sc_drivers/r_riic/src/lld/r_rza2_riic_lld.c ****                 = p_cfg->slave_address_length[slave_addr_num];
 421:../generate/sc_drivers/r_riic/src/lld/r_rza2_riic_lld.c ****         }
 422:../generate/sc_drivers/r_riic/src/lld/r_rza2_riic_lld.c ****         gs_riic_config[channel].frequency = p_cfg->frequency;
 423:../generate/sc_drivers/r_riic/src/lld/r_rza2_riic_lld.c ****         gs_riic_config[channel].duty = p_cfg->duty;
 424:../generate/sc_drivers/r_riic/src/lld/r_rza2_riic_lld.c ****         gs_riic_config[channel].rise_time = p_cfg->rise_time;
 425:../generate/sc_drivers/r_riic/src/lld/r_rza2_riic_lld.c ****         gs_riic_config[channel].fall_time = p_cfg->fall_time;
 426:../generate/sc_drivers/r_riic/src/lld/r_rza2_riic_lld.c ****         gs_riic_config[channel].noise_filter_stage = p_cfg->noise_filter_stage;
 427:../generate/sc_drivers/r_riic/src/lld/r_rza2_riic_lld.c ****         gs_riic_config[channel].timeout = p_cfg->timeout;
 428:../generate/sc_drivers/r_riic/src/lld/r_rza2_riic_lld.c ****         gs_riic_config[channel].format = p_cfg->format;
 429:../generate/sc_drivers/r_riic/src/lld/r_rza2_riic_lld.c ****         gs_riic_config[channel].host_address_enabled = p_cfg->host_address_enabled;
 430:../generate/sc_drivers/r_riic/src/lld/r_rza2_riic_lld.c ****         gs_riic_config[channel].tei_priority = p_cfg->tei_priority;
 431:../generate/sc_drivers/r_riic/src/lld/r_rza2_riic_lld.c ****         gs_riic_config[channel].ri_priority = p_cfg->ri_priority;
 432:../generate/sc_drivers/r_riic/src/lld/r_rza2_riic_lld.c ****         gs_riic_config[channel].ti_priority = p_cfg->ti_priority;
 433:../generate/sc_drivers/r_riic/src/lld/r_rza2_riic_lld.c ****         gs_riic_config[channel].spi_priority = p_cfg->spi_priority;
 434:../generate/sc_drivers/r_riic/src/lld/r_rza2_riic_lld.c ****         gs_riic_config[channel].sti_priority = p_cfg->sti_priority;
 435:../generate/sc_drivers/r_riic/src/lld/r_rza2_riic_lld.c ****         gs_riic_config[channel].naki_priority = p_cfg->naki_priority;
 436:../generate/sc_drivers/r_riic/src/lld/r_rza2_riic_lld.c ****         gs_riic_config[channel].ali_priority = p_cfg->ali_priority;
 437:../generate/sc_drivers/r_riic/src/lld/r_rza2_riic_lld.c ****         gs_riic_config[channel].tmoi_priority = p_cfg->tmoi_priority;
 438:../generate/sc_drivers/r_riic/src/lld/r_rza2_riic_lld.c **** 
 439:../generate/sc_drivers/r_riic/src/lld/r_rza2_riic_lld.c ****         riic_release_reset(channel);
 440:../generate/sc_drivers/r_riic/src/lld/r_rza2_riic_lld.c ****     }
 441:../generate/sc_drivers/r_riic/src/lld/r_rza2_riic_lld.c **** 
 442:../generate/sc_drivers/r_riic/src/lld/r_rza2_riic_lld.c ****     return retval;
 443:../generate/sc_drivers/r_riic/src/lld/r_rza2_riic_lld.c **** }
 444:../generate/sc_drivers/r_riic/src/lld/r_rza2_riic_lld.c **** /******************************************************************************
 445:../generate/sc_drivers/r_riic/src/lld/r_rza2_riic_lld.c ****  * End of Function R_RIIC_SetConfig
 446:../generate/sc_drivers/r_riic/src/lld/r_rza2_riic_lld.c ****  *****************************************************************************/
 447:../generate/sc_drivers/r_riic/src/lld/r_rza2_riic_lld.c **** 
 448:../generate/sc_drivers/r_riic/src/lld/r_rza2_riic_lld.c **** /******************************************************************************
 449:../generate/sc_drivers/r_riic/src/lld/r_rza2_riic_lld.c **** * Function Name: R_RIIC_GetConfig
 450:../generate/sc_drivers/r_riic/src/lld/r_rza2_riic_lld.c **** * Description  : This function gets configuration parameters for each channel.
 451:../generate/sc_drivers/r_riic/src/lld/r_rza2_riic_lld.c **** * Arguments    : channel - Channel to getting configuration parameters.
 452:../generate/sc_drivers/r_riic/src/lld/r_rza2_riic_lld.c **** *              : *p_cfg - RIIC configure parameter
 453:../generate/sc_drivers/r_riic/src/lld/r_rza2_riic_lld.c **** * Return Value : DRV_SUCCESS - Success(always).
 454:../generate/sc_drivers/r_riic/src/lld/r_rza2_riic_lld.c **** ******************************************************************************/
 455:../generate/sc_drivers/r_riic/src/lld/r_rza2_riic_lld.c **** int_t R_RIIC_GetConfig (int_t channel, st_riic_config_t *p_cfg)
 456:../generate/sc_drivers/r_riic/src/lld/r_rza2_riic_lld.c **** {
 457:../generate/sc_drivers/r_riic/src/lld/r_rza2_riic_lld.c ****     int_t retval = DRV_SUCCESS;
 458:../generate/sc_drivers/r_riic/src/lld/r_rza2_riic_lld.c ****     uint32_t slave_addr_num;
 459:../generate/sc_drivers/r_riic/src/lld/r_rza2_riic_lld.c **** 
 460:../generate/sc_drivers/r_riic/src/lld/r_rza2_riic_lld.c ****     p_cfg->riic_mode = gs_riic_config[channel].riic_mode;
 461:../generate/sc_drivers/r_riic/src/lld/r_rza2_riic_lld.c ****     for (slave_addr_num = 0; slave_addr_num < RIIC_SLAVE_ADDR_NUM_MAX; slave_addr_num++)
 462:../generate/sc_drivers/r_riic/src/lld/r_rza2_riic_lld.c ****     {
 463:../generate/sc_drivers/r_riic/src/lld/r_rza2_riic_lld.c ****         p_cfg->slave_address_enable[slave_addr_num] = gs_riic_config[channel].slave_address_enable[
 464:../generate/sc_drivers/r_riic/src/lld/r_rza2_riic_lld.c ****         p_cfg->slave_address[slave_addr_num] = gs_riic_config[channel].slave_address[slave_addr_num
 465:../generate/sc_drivers/r_riic/src/lld/r_rza2_riic_lld.c ****         p_cfg->slave_address_length[slave_addr_num] = gs_riic_config[channel].slave_address_length[
 466:../generate/sc_drivers/r_riic/src/lld/r_rza2_riic_lld.c ****     }
 467:../generate/sc_drivers/r_riic/src/lld/r_rza2_riic_lld.c ****     p_cfg->frequency = gs_riic_config[channel].frequency;
 468:../generate/sc_drivers/r_riic/src/lld/r_rza2_riic_lld.c ****     p_cfg->duty = gs_riic_config[channel].duty;
 469:../generate/sc_drivers/r_riic/src/lld/r_rza2_riic_lld.c ****     p_cfg->rise_time = gs_riic_config[channel].rise_time;
 470:../generate/sc_drivers/r_riic/src/lld/r_rza2_riic_lld.c ****     p_cfg->fall_time = gs_riic_config[channel].fall_time;
 471:../generate/sc_drivers/r_riic/src/lld/r_rza2_riic_lld.c ****     p_cfg->noise_filter_stage = gs_riic_config[channel].noise_filter_stage;
 472:../generate/sc_drivers/r_riic/src/lld/r_rza2_riic_lld.c ****     p_cfg->timeout = gs_riic_config[channel].timeout;
 473:../generate/sc_drivers/r_riic/src/lld/r_rza2_riic_lld.c ****     p_cfg->format = gs_riic_config[channel].format;
 474:../generate/sc_drivers/r_riic/src/lld/r_rza2_riic_lld.c ****     p_cfg->host_address_enabled = gs_riic_config[channel].host_address_enabled;
 475:../generate/sc_drivers/r_riic/src/lld/r_rza2_riic_lld.c ****     p_cfg->tei_priority = gs_riic_config[channel].tei_priority;
 476:../generate/sc_drivers/r_riic/src/lld/r_rza2_riic_lld.c ****     p_cfg->ri_priority = gs_riic_config[channel].ri_priority;
 477:../generate/sc_drivers/r_riic/src/lld/r_rza2_riic_lld.c ****     p_cfg->ti_priority = gs_riic_config[channel].ti_priority;
 478:../generate/sc_drivers/r_riic/src/lld/r_rza2_riic_lld.c ****     p_cfg->spi_priority = gs_riic_config[channel].spi_priority;
 479:../generate/sc_drivers/r_riic/src/lld/r_rza2_riic_lld.c ****     p_cfg->sti_priority = gs_riic_config[channel].sti_priority;
 480:../generate/sc_drivers/r_riic/src/lld/r_rza2_riic_lld.c ****     p_cfg->naki_priority = gs_riic_config[channel].naki_priority;
 481:../generate/sc_drivers/r_riic/src/lld/r_rza2_riic_lld.c ****     p_cfg->ali_priority = gs_riic_config[channel].ali_priority;
 482:../generate/sc_drivers/r_riic/src/lld/r_rza2_riic_lld.c ****     p_cfg->tmoi_priority = gs_riic_config[channel].tmoi_priority;
 483:../generate/sc_drivers/r_riic/src/lld/r_rza2_riic_lld.c **** 
 484:../generate/sc_drivers/r_riic/src/lld/r_rza2_riic_lld.c ****     return retval;
 485:../generate/sc_drivers/r_riic/src/lld/r_rza2_riic_lld.c **** }
 486:../generate/sc_drivers/r_riic/src/lld/r_rza2_riic_lld.c **** /******************************************************************************
 487:../generate/sc_drivers/r_riic/src/lld/r_rza2_riic_lld.c ****  * End of Function R_RIIC_GetConfig
 488:../generate/sc_drivers/r_riic/src/lld/r_rza2_riic_lld.c ****  *****************************************************************************/
 489:../generate/sc_drivers/r_riic/src/lld/r_rza2_riic_lld.c **** 
 490:../generate/sc_drivers/r_riic/src/lld/r_rza2_riic_lld.c **** /******************************************************************************
 491:../generate/sc_drivers/r_riic/src/lld/r_rza2_riic_lld.c **** * Function Name: R_RIIC_TransmitStop
 492:../generate/sc_drivers/r_riic/src/lld/r_rza2_riic_lld.c **** * Description  : This function is called by HLD, and issues STOP condition.
 493:../generate/sc_drivers/r_riic/src/lld/r_rza2_riic_lld.c **** * Arguments    : channel - Channel that issues STOP condition.
 494:../generate/sc_drivers/r_riic/src/lld/r_rza2_riic_lld.c **** * Return Value : None.
 495:../generate/sc_drivers/r_riic/src/lld/r_rza2_riic_lld.c **** ******************************************************************************/
 496:../generate/sc_drivers/r_riic/src/lld/r_rza2_riic_lld.c **** void R_RIIC_TransmitStop (int_t channel)
 497:../generate/sc_drivers/r_riic/src/lld/r_rza2_riic_lld.c **** {
 498:../generate/sc_drivers/r_riic/src/lld/r_rza2_riic_lld.c ****     /* clear stop bit */
 499:../generate/sc_drivers/r_riic/src/lld/r_rza2_riic_lld.c ****     RZA_IO_RegWrite_32((volatile uint32_t *) &gsp_riic[channel]->ICCR2.LONG, (uint32_t) 0, RIIC_ICC
 500:../generate/sc_drivers/r_riic/src/lld/r_rza2_riic_lld.c ****     RIIC_ICCR2_SP);
 501:../generate/sc_drivers/r_riic/src/lld/r_rza2_riic_lld.c **** 
 502:../generate/sc_drivers/r_riic/src/lld/r_rza2_riic_lld.c ****     /* enable detect stop condition interrupt */
 503:../generate/sc_drivers/r_riic/src/lld/r_rza2_riic_lld.c ****     RZA_IO_RegWrite_32((volatile uint32_t *) &gsp_riic[channel]->ICIER.LONG, (uint32_t) 1, RIIC_ICI
 504:../generate/sc_drivers/r_riic/src/lld/r_rza2_riic_lld.c ****     RIIC_ICIER_SPIE);
 505:../generate/sc_drivers/r_riic/src/lld/r_rza2_riic_lld.c **** 
 506:../generate/sc_drivers/r_riic/src/lld/r_rza2_riic_lld.c ****     /* set stop bit */
 507:../generate/sc_drivers/r_riic/src/lld/r_rza2_riic_lld.c ****     RZA_IO_RegWrite_32((volatile uint32_t *) &gsp_riic[channel]->ICCR2.LONG, (uint32_t) 1, RIIC_ICC
 508:../generate/sc_drivers/r_riic/src/lld/r_rza2_riic_lld.c ****     RIIC_ICCR2_SP);
 509:../generate/sc_drivers/r_riic/src/lld/r_rza2_riic_lld.c **** 
 510:../generate/sc_drivers/r_riic/src/lld/r_rza2_riic_lld.c ****     return;
 511:../generate/sc_drivers/r_riic/src/lld/r_rza2_riic_lld.c **** }
 512:../generate/sc_drivers/r_riic/src/lld/r_rza2_riic_lld.c **** /******************************************************************************
 513:../generate/sc_drivers/r_riic/src/lld/r_rza2_riic_lld.c ****  * End of Function R_RIIC_TransmitStop
 514:../generate/sc_drivers/r_riic/src/lld/r_rza2_riic_lld.c ****  *****************************************************************************/
 515:../generate/sc_drivers/r_riic/src/lld/r_rza2_riic_lld.c **** 
 516:../generate/sc_drivers/r_riic/src/lld/r_rza2_riic_lld.c **** /******************************************************************************
 517:../generate/sc_drivers/r_riic/src/lld/r_rza2_riic_lld.c **** * Function Name: R_RIIC_ClearStop
 518:../generate/sc_drivers/r_riic/src/lld/r_rza2_riic_lld.c **** * Description  : This function is called by HLD, and clear STOP condition bit.
 519:../generate/sc_drivers/r_riic/src/lld/r_rza2_riic_lld.c **** * Arguments    : channel - Channel that clear STOP condition bit.
 520:../generate/sc_drivers/r_riic/src/lld/r_rza2_riic_lld.c **** * Return Value : None.
 521:../generate/sc_drivers/r_riic/src/lld/r_rza2_riic_lld.c **** ******************************************************************************/
 522:../generate/sc_drivers/r_riic/src/lld/r_rza2_riic_lld.c **** void R_RIIC_ClearStop (int_t channel)
 523:../generate/sc_drivers/r_riic/src/lld/r_rza2_riic_lld.c **** {
 524:../generate/sc_drivers/r_riic/src/lld/r_rza2_riic_lld.c ****     volatile uint32_t dummy;
 525:../generate/sc_drivers/r_riic/src/lld/r_rza2_riic_lld.c **** 
 526:../generate/sc_drivers/r_riic/src/lld/r_rza2_riic_lld.c ****     /* read stop bit */
 527:../generate/sc_drivers/r_riic/src/lld/r_rza2_riic_lld.c ****     dummy = RZA_IO_RegRead_32((volatile uint32_t *) &gsp_riic[channel]->ICSR2.LONG, RIIC_ICSR2_STOP
 528:../generate/sc_drivers/r_riic/src/lld/r_rza2_riic_lld.c ****     RIIC_ICSR2_STOP);
 529:../generate/sc_drivers/r_riic/src/lld/r_rza2_riic_lld.c **** 
 530:../generate/sc_drivers/r_riic/src/lld/r_rza2_riic_lld.c ****     /* clear stop bit */
 531:../generate/sc_drivers/r_riic/src/lld/r_rza2_riic_lld.c ****     RZA_IO_RegWrite_32((volatile uint32_t *) &gsp_riic[channel]->ICSR2.LONG, (uint32_t) 0, RIIC_ICS
 532:../generate/sc_drivers/r_riic/src/lld/r_rza2_riic_lld.c ****     RIIC_ICSR2_STOP);
 533:../generate/sc_drivers/r_riic/src/lld/r_rza2_riic_lld.c **** 
 534:../generate/sc_drivers/r_riic/src/lld/r_rza2_riic_lld.c ****     /* disable start interrupt */
 535:../generate/sc_drivers/r_riic/src/lld/r_rza2_riic_lld.c ****     RZA_IO_RegWrite_32((volatile uint32_t *) &gsp_riic[channel]->ICIER.LONG, (uint32_t) 0, RIIC_ICI
 536:../generate/sc_drivers/r_riic/src/lld/r_rza2_riic_lld.c ****     RIIC_ICIER_SPIE);
 537:../generate/sc_drivers/r_riic/src/lld/r_rza2_riic_lld.c **** 
 538:../generate/sc_drivers/r_riic/src/lld/r_rza2_riic_lld.c ****     /* disable transmit interrupt */
 539:../generate/sc_drivers/r_riic/src/lld/r_rza2_riic_lld.c ****     RZA_IO_RegWrite_32((volatile uint32_t *) &gsp_riic[channel]->ICIER.LONG, (uint32_t) 0, RIIC_ICI
 540:../generate/sc_drivers/r_riic/src/lld/r_rza2_riic_lld.c ****     RIIC_ICIER_TIE);
 541:../generate/sc_drivers/r_riic/src/lld/r_rza2_riic_lld.c **** 
 542:../generate/sc_drivers/r_riic/src/lld/r_rza2_riic_lld.c ****     /* disable receive interrupt */
 543:../generate/sc_drivers/r_riic/src/lld/r_rza2_riic_lld.c ****     RZA_IO_RegWrite_32((volatile uint32_t *) &gsp_riic[channel]->ICIER.LONG, (uint32_t) 0, RIIC_ICI
 544:../generate/sc_drivers/r_riic/src/lld/r_rza2_riic_lld.c ****     RIIC_ICIER_RIE);
 545:../generate/sc_drivers/r_riic/src/lld/r_rza2_riic_lld.c **** 
 546:../generate/sc_drivers/r_riic/src/lld/r_rza2_riic_lld.c ****     /* disable nak interrupt */
 547:../generate/sc_drivers/r_riic/src/lld/r_rza2_riic_lld.c ****     RZA_IO_RegWrite_32((volatile uint32_t *) &gsp_riic[channel]->ICIER.LONG, (uint32_t) 0, RIIC_ICI
 548:../generate/sc_drivers/r_riic/src/lld/r_rza2_riic_lld.c ****     RIIC_ICIER_NAKIE);
 549:../generate/sc_drivers/r_riic/src/lld/r_rza2_riic_lld.c **** 
 550:../generate/sc_drivers/r_riic/src/lld/r_rza2_riic_lld.c ****     return;
 551:../generate/sc_drivers/r_riic/src/lld/r_rza2_riic_lld.c **** }
 552:../generate/sc_drivers/r_riic/src/lld/r_rza2_riic_lld.c **** /******************************************************************************
 553:../generate/sc_drivers/r_riic/src/lld/r_rza2_riic_lld.c ****  * End of Function R_RIIC_ClearStop 
 554:../generate/sc_drivers/r_riic/src/lld/r_rza2_riic_lld.c ****  *****************************************************************************/
 555:../generate/sc_drivers/r_riic/src/lld/r_rza2_riic_lld.c **** 
 556:../generate/sc_drivers/r_riic/src/lld/r_rza2_riic_lld.c **** /******************************************************************************
 557:../generate/sc_drivers/r_riic/src/lld/r_rza2_riic_lld.c **** * Function Name: R_RIIC_TransmitStart
 558:../generate/sc_drivers/r_riic/src/lld/r_rza2_riic_lld.c **** * Description  : This function is called by HLD,and issues START condition.
 559:../generate/sc_drivers/r_riic/src/lld/r_rza2_riic_lld.c **** * Arguments    : channel - Channel that issues START condition.
 560:../generate/sc_drivers/r_riic/src/lld/r_rza2_riic_lld.c **** * Return Value : None.
 561:../generate/sc_drivers/r_riic/src/lld/r_rza2_riic_lld.c **** ******************************************************************************/
 562:../generate/sc_drivers/r_riic/src/lld/r_rza2_riic_lld.c **** void R_RIIC_TransmitStart (int_t channel)
 563:../generate/sc_drivers/r_riic/src/lld/r_rza2_riic_lld.c **** {
 564:../generate/sc_drivers/r_riic/src/lld/r_rza2_riic_lld.c ****     /* enable transmit interrupt */
 565:../generate/sc_drivers/r_riic/src/lld/r_rza2_riic_lld.c ****     RZA_IO_RegWrite_32((volatile uint32_t *) &gsp_riic[channel]->ICIER.LONG, (uint32_t) 1, RIIC_ICI
 566:../generate/sc_drivers/r_riic/src/lld/r_rza2_riic_lld.c ****     RIIC_ICIER_TIE);
 567:../generate/sc_drivers/r_riic/src/lld/r_rza2_riic_lld.c **** 
 568:../generate/sc_drivers/r_riic/src/lld/r_rza2_riic_lld.c ****     /* enable receive interrupt */
 569:../generate/sc_drivers/r_riic/src/lld/r_rza2_riic_lld.c ****     RZA_IO_RegWrite_32((volatile uint32_t *) &gsp_riic[channel]->ICIER.LONG, (uint32_t) 1, RIIC_ICI
 570:../generate/sc_drivers/r_riic/src/lld/r_rza2_riic_lld.c ****     RIIC_ICIER_RIE);
 571:../generate/sc_drivers/r_riic/src/lld/r_rza2_riic_lld.c **** 
 572:../generate/sc_drivers/r_riic/src/lld/r_rza2_riic_lld.c ****     /* enable nak interrupt */
 573:../generate/sc_drivers/r_riic/src/lld/r_rza2_riic_lld.c ****     RZA_IO_RegWrite_32((volatile uint32_t *) &gsp_riic[channel]->ICIER.LONG, (uint32_t) 1, RIIC_ICI
 574:../generate/sc_drivers/r_riic/src/lld/r_rza2_riic_lld.c ****     RIIC_ICIER_NAKIE);
 575:../generate/sc_drivers/r_riic/src/lld/r_rza2_riic_lld.c **** 
 576:../generate/sc_drivers/r_riic/src/lld/r_rza2_riic_lld.c ****     /* transmit start bit */
 577:../generate/sc_drivers/r_riic/src/lld/r_rza2_riic_lld.c ****     RZA_IO_RegWrite_32((volatile uint32_t *) &gsp_riic[channel]->ICCR2.LONG, (uint32_t) 1, RIIC_ICC
 578:../generate/sc_drivers/r_riic/src/lld/r_rza2_riic_lld.c ****     RIIC_ICCR2_ST);
 579:../generate/sc_drivers/r_riic/src/lld/r_rza2_riic_lld.c **** 
 580:../generate/sc_drivers/r_riic/src/lld/r_rza2_riic_lld.c ****     return;
 581:../generate/sc_drivers/r_riic/src/lld/r_rza2_riic_lld.c **** }
 582:../generate/sc_drivers/r_riic/src/lld/r_rza2_riic_lld.c **** /******************************************************************************
 583:../generate/sc_drivers/r_riic/src/lld/r_rza2_riic_lld.c ****  * End of Function R_RIIC_TransmitStart
 584:../generate/sc_drivers/r_riic/src/lld/r_rza2_riic_lld.c ****  *****************************************************************************/
 585:../generate/sc_drivers/r_riic/src/lld/r_rza2_riic_lld.c **** 
 586:../generate/sc_drivers/r_riic/src/lld/r_rza2_riic_lld.c **** /******************************************************************************
 587:../generate/sc_drivers/r_riic/src/lld/r_rza2_riic_lld.c **** * Function Name: R_RIIC_TransmitRestart
 588:../generate/sc_drivers/r_riic/src/lld/r_rza2_riic_lld.c **** * Description  : This function is called by HLD, and issues RESTART condition.
 589:../generate/sc_drivers/r_riic/src/lld/r_rza2_riic_lld.c **** * Arguments    : channel - Channel that issues RESTART condition.
 590:../generate/sc_drivers/r_riic/src/lld/r_rza2_riic_lld.c **** * Return Value : None.
 591:../generate/sc_drivers/r_riic/src/lld/r_rza2_riic_lld.c **** ******************************************************************************/
 592:../generate/sc_drivers/r_riic/src/lld/r_rza2_riic_lld.c **** void R_RIIC_TransmitRestart (int_t channel)
 593:../generate/sc_drivers/r_riic/src/lld/r_rza2_riic_lld.c **** {
 594:../generate/sc_drivers/r_riic/src/lld/r_rza2_riic_lld.c ****     /* enable transmit interrupt */
 595:../generate/sc_drivers/r_riic/src/lld/r_rza2_riic_lld.c ****     RZA_IO_RegWrite_32((volatile uint32_t *) &gsp_riic[channel]->ICIER.LONG, (uint32_t) 1, RIIC_ICI
 596:../generate/sc_drivers/r_riic/src/lld/r_rza2_riic_lld.c ****     RIIC_ICIER_TIE);
 597:../generate/sc_drivers/r_riic/src/lld/r_rza2_riic_lld.c **** 
 598:../generate/sc_drivers/r_riic/src/lld/r_rza2_riic_lld.c ****     /* enable receive interrupt */
 599:../generate/sc_drivers/r_riic/src/lld/r_rza2_riic_lld.c ****     RZA_IO_RegWrite_32((volatile uint32_t *) &gsp_riic[channel]->ICIER.LONG, (uint32_t) 1, RIIC_ICI
 600:../generate/sc_drivers/r_riic/src/lld/r_rza2_riic_lld.c ****     RIIC_ICIER_RIE);
 601:../generate/sc_drivers/r_riic/src/lld/r_rza2_riic_lld.c **** 
 602:../generate/sc_drivers/r_riic/src/lld/r_rza2_riic_lld.c ****     /* enable nak interrupt */
 603:../generate/sc_drivers/r_riic/src/lld/r_rza2_riic_lld.c ****     RZA_IO_RegWrite_32((volatile uint32_t *) &gsp_riic[channel]->ICIER.LONG, (uint32_t) 1, RIIC_ICI
 604:../generate/sc_drivers/r_riic/src/lld/r_rza2_riic_lld.c ****     RIIC_ICIER_NAKIE);
 605:../generate/sc_drivers/r_riic/src/lld/r_rza2_riic_lld.c **** 
 606:../generate/sc_drivers/r_riic/src/lld/r_rza2_riic_lld.c ****     /* set restart */
 607:../generate/sc_drivers/r_riic/src/lld/r_rza2_riic_lld.c ****     RZA_IO_RegWrite_32((volatile uint32_t *) &gsp_riic[channel]->ICCR2.LONG, (uint32_t) 1, RIIC_ICC
 608:../generate/sc_drivers/r_riic/src/lld/r_rza2_riic_lld.c ****     RIIC_ICCR2_RS);
 609:../generate/sc_drivers/r_riic/src/lld/r_rza2_riic_lld.c **** 
 610:../generate/sc_drivers/r_riic/src/lld/r_rza2_riic_lld.c ****     return;
 611:../generate/sc_drivers/r_riic/src/lld/r_rza2_riic_lld.c **** }
 612:../generate/sc_drivers/r_riic/src/lld/r_rza2_riic_lld.c **** /******************************************************************************
 613:../generate/sc_drivers/r_riic/src/lld/r_rza2_riic_lld.c ****  * End of Function R_RIIC_TransmitRestart
 614:../generate/sc_drivers/r_riic/src/lld/r_rza2_riic_lld.c ****  *****************************************************************************/
 615:../generate/sc_drivers/r_riic/src/lld/r_rza2_riic_lld.c **** 
 616:../generate/sc_drivers/r_riic/src/lld/r_rza2_riic_lld.c **** /******************************************************************************
 617:../generate/sc_drivers/r_riic/src/lld/r_rza2_riic_lld.c **** * Function Name: R_RIIC_ClearNack
 618:../generate/sc_drivers/r_riic/src/lld/r_rza2_riic_lld.c **** * Description  : This function is called by HLD, and clear receiving NACK bit.
 619:../generate/sc_drivers/r_riic/src/lld/r_rza2_riic_lld.c **** * Arguments    : channel - Channel that clear receiving NACK bit.
 620:../generate/sc_drivers/r_riic/src/lld/r_rza2_riic_lld.c **** * Return Value : None.
 621:../generate/sc_drivers/r_riic/src/lld/r_rza2_riic_lld.c **** ******************************************************************************/
 622:../generate/sc_drivers/r_riic/src/lld/r_rza2_riic_lld.c **** void R_RIIC_ClearNack (int_t channel)
 623:../generate/sc_drivers/r_riic/src/lld/r_rza2_riic_lld.c **** {
 624:../generate/sc_drivers/r_riic/src/lld/r_rza2_riic_lld.c ****     /* clear stop bit */
 625:../generate/sc_drivers/r_riic/src/lld/r_rza2_riic_lld.c ****     RZA_IO_RegWrite_32((volatile uint32_t *) &gsp_riic[channel]->ICSR2.LONG, (uint32_t) 0, RIIC_ICS
 626:../generate/sc_drivers/r_riic/src/lld/r_rza2_riic_lld.c ****     RIIC_ICSR2_NACKF);
 627:../generate/sc_drivers/r_riic/src/lld/r_rza2_riic_lld.c **** 
 628:../generate/sc_drivers/r_riic/src/lld/r_rza2_riic_lld.c ****     return;
 629:../generate/sc_drivers/r_riic/src/lld/r_rza2_riic_lld.c **** }
 630:../generate/sc_drivers/r_riic/src/lld/r_rza2_riic_lld.c **** /******************************************************************************
 631:../generate/sc_drivers/r_riic/src/lld/r_rza2_riic_lld.c ****  * End of Function R_RIIC_ClearNack 
 632:../generate/sc_drivers/r_riic/src/lld/r_rza2_riic_lld.c ****  *****************************************************************************/
 633:../generate/sc_drivers/r_riic/src/lld/r_rza2_riic_lld.c **** 
 634:../generate/sc_drivers/r_riic/src/lld/r_rza2_riic_lld.c **** /******************************************************************************
 635:../generate/sc_drivers/r_riic/src/lld/r_rza2_riic_lld.c **** * Function Name: R_RIIC_GetAckStatus
 636:../generate/sc_drivers/r_riic/src/lld/r_rza2_riic_lld.c **** * Description  : This function is called by HLD, and get the ACK status.
 637:../generate/sc_drivers/r_riic/src/lld/r_rza2_riic_lld.c **** * Arguments    : channel - Channel to get the ack status.
 638:../generate/sc_drivers/r_riic/src/lld/r_rza2_riic_lld.c **** * Return Value : 0 - ACK received.
 639:../generate/sc_drivers/r_riic/src/lld/r_rza2_riic_lld.c **** *              : 1 - NACK received.
 640:../generate/sc_drivers/r_riic/src/lld/r_rza2_riic_lld.c **** ******************************************************************************/
 641:../generate/sc_drivers/r_riic/src/lld/r_rza2_riic_lld.c **** uint8_t R_RIIC_GetAckStatus (int_t channel)
 642:../generate/sc_drivers/r_riic/src/lld/r_rza2_riic_lld.c **** {
 643:../generate/sc_drivers/r_riic/src/lld/r_rza2_riic_lld.c **** 
 644:../generate/sc_drivers/r_riic/src/lld/r_rza2_riic_lld.c ****     uint32_t ret_ack;
 645:../generate/sc_drivers/r_riic/src/lld/r_rza2_riic_lld.c **** 
 646:../generate/sc_drivers/r_riic/src/lld/r_rza2_riic_lld.c ****     ret_ack = RZA_IO_RegRead_32( &gsp_riic[channel]->ICSR2.LONG, RIIC_ICSR2_NACKF_SHIFT, RIIC_ICSR2
 647:../generate/sc_drivers/r_riic/src/lld/r_rza2_riic_lld.c **** 
 648:../generate/sc_drivers/r_riic/src/lld/r_rza2_riic_lld.c ****     /* cast result back to uint8_t */
 649:../generate/sc_drivers/r_riic/src/lld/r_rza2_riic_lld.c ****     return (uint8_t) ret_ack;
 650:../generate/sc_drivers/r_riic/src/lld/r_rza2_riic_lld.c **** }
 651:../generate/sc_drivers/r_riic/src/lld/r_rza2_riic_lld.c **** /******************************************************************************
 652:../generate/sc_drivers/r_riic/src/lld/r_rza2_riic_lld.c ****  * End of Function  R_RIIC_GetAckStatus
 653:../generate/sc_drivers/r_riic/src/lld/r_rza2_riic_lld.c ****  *****************************************************************************/
 654:../generate/sc_drivers/r_riic/src/lld/r_rza2_riic_lld.c **** 
 655:../generate/sc_drivers/r_riic/src/lld/r_rza2_riic_lld.c **** /******************************************************************************
 656:../generate/sc_drivers/r_riic/src/lld/r_rza2_riic_lld.c **** * Function Name: R_RIIC_TransmitAck
 657:../generate/sc_drivers/r_riic/src/lld/r_rza2_riic_lld.c **** * Description  : This function is called by HLD, and transfer ACK to 
 658:../generate/sc_drivers/r_riic/src/lld/r_rza2_riic_lld.c **** *                write device.
 659:../generate/sc_drivers/r_riic/src/lld/r_rza2_riic_lld.c **** * Arguments    : channel - Channel that transfer ACK.
 660:../generate/sc_drivers/r_riic/src/lld/r_rza2_riic_lld.c **** * Return Value : None.
 661:../generate/sc_drivers/r_riic/src/lld/r_rza2_riic_lld.c **** ******************************************************************************/
 662:../generate/sc_drivers/r_riic/src/lld/r_rza2_riic_lld.c **** void R_RIIC_TransmitAck (int_t channel)
 663:../generate/sc_drivers/r_riic/src/lld/r_rza2_riic_lld.c **** {
 664:../generate/sc_drivers/r_riic/src/lld/r_rza2_riic_lld.c ****     /* get permission of writing to ACK bit */
 665:../generate/sc_drivers/r_riic/src/lld/r_rza2_riic_lld.c ****     RZA_IO_RegWrite_32((volatile uint32_t *) &gsp_riic[channel]->ICMR3.LONG, (uint32_t) 1, RIIC_ICM
 666:../generate/sc_drivers/r_riic/src/lld/r_rza2_riic_lld.c ****     RIIC_ICMR3_ACKWP);
 667:../generate/sc_drivers/r_riic/src/lld/r_rza2_riic_lld.c **** 
 668:../generate/sc_drivers/r_riic/src/lld/r_rza2_riic_lld.c ****     /* clear ACK bit to ACK transfer */
 669:../generate/sc_drivers/r_riic/src/lld/r_rza2_riic_lld.c ****     RZA_IO_RegWrite_32((volatile uint32_t *) &gsp_riic[channel]->ICMR3.LONG, (uint32_t) 0, RIIC_ICM
 670:../generate/sc_drivers/r_riic/src/lld/r_rza2_riic_lld.c ****     RIIC_ICMR3_ACKBT);
 671:../generate/sc_drivers/r_riic/src/lld/r_rza2_riic_lld.c **** 
 672:../generate/sc_drivers/r_riic/src/lld/r_rza2_riic_lld.c ****     /* release permission of writing to ACK bit */
 673:../generate/sc_drivers/r_riic/src/lld/r_rza2_riic_lld.c ****     RZA_IO_RegWrite_32((volatile uint32_t *) &gsp_riic[channel]->ICMR3.LONG, (uint32_t) 0, RIIC_ICM
 674:../generate/sc_drivers/r_riic/src/lld/r_rza2_riic_lld.c ****     RIIC_ICMR3_ACKWP);
 675:../generate/sc_drivers/r_riic/src/lld/r_rza2_riic_lld.c **** 
 676:../generate/sc_drivers/r_riic/src/lld/r_rza2_riic_lld.c ****     return;
 677:../generate/sc_drivers/r_riic/src/lld/r_rza2_riic_lld.c **** }
 678:../generate/sc_drivers/r_riic/src/lld/r_rza2_riic_lld.c **** /******************************************************************************
 679:../generate/sc_drivers/r_riic/src/lld/r_rza2_riic_lld.c ****  * End of Function R_RIIC_TransmitAck
 680:../generate/sc_drivers/r_riic/src/lld/r_rza2_riic_lld.c ****  *****************************************************************************/
 681:../generate/sc_drivers/r_riic/src/lld/r_rza2_riic_lld.c **** 
 682:../generate/sc_drivers/r_riic/src/lld/r_rza2_riic_lld.c **** /******************************************************************************
 683:../generate/sc_drivers/r_riic/src/lld/r_rza2_riic_lld.c **** * Function Name: R_RIIC_TransmitNack
 684:../generate/sc_drivers/r_riic/src/lld/r_rza2_riic_lld.c **** * Description  : This function is called by HLD, and transfer NACK to 
 685:../generate/sc_drivers/r_riic/src/lld/r_rza2_riic_lld.c **** *                write device.
 686:../generate/sc_drivers/r_riic/src/lld/r_rza2_riic_lld.c **** * Arguments    : channel - Channel that transfer NACK.
 687:../generate/sc_drivers/r_riic/src/lld/r_rza2_riic_lld.c **** * Return Value : None.
 688:../generate/sc_drivers/r_riic/src/lld/r_rza2_riic_lld.c **** ******************************************************************************/
 689:../generate/sc_drivers/r_riic/src/lld/r_rza2_riic_lld.c **** void R_RIIC_TransmitNack (int_t channel)
 690:../generate/sc_drivers/r_riic/src/lld/r_rza2_riic_lld.c **** {
 691:../generate/sc_drivers/r_riic/src/lld/r_rza2_riic_lld.c ****     /* get permission of writing to NACK bit */
 692:../generate/sc_drivers/r_riic/src/lld/r_rza2_riic_lld.c ****     RZA_IO_RegWrite_32((volatile uint32_t *) &gsp_riic[channel]->ICMR3.LONG, (uint32_t) 1, RIIC_ICM
 693:../generate/sc_drivers/r_riic/src/lld/r_rza2_riic_lld.c ****     RIIC_ICMR3_ACKWP);
 694:../generate/sc_drivers/r_riic/src/lld/r_rza2_riic_lld.c **** 
 695:../generate/sc_drivers/r_riic/src/lld/r_rza2_riic_lld.c ****     /* set ACK bit to NACK transfer */
 696:../generate/sc_drivers/r_riic/src/lld/r_rza2_riic_lld.c ****     RZA_IO_RegWrite_32((volatile uint32_t *) &gsp_riic[channel]->ICMR3.LONG, (uint32_t) 1, RIIC_ICM
 697:../generate/sc_drivers/r_riic/src/lld/r_rza2_riic_lld.c ****     RIIC_ICMR3_ACKBT);
 698:../generate/sc_drivers/r_riic/src/lld/r_rza2_riic_lld.c **** 
 699:../generate/sc_drivers/r_riic/src/lld/r_rza2_riic_lld.c ****     /* release permission of writing to NACK bit */
 700:../generate/sc_drivers/r_riic/src/lld/r_rza2_riic_lld.c ****     RZA_IO_RegWrite_32((volatile uint32_t *) &gsp_riic[channel]->ICMR3.LONG, (uint32_t) 0, RIIC_ICM
 701:../generate/sc_drivers/r_riic/src/lld/r_rza2_riic_lld.c ****     RIIC_ICMR3_ACKWP);
 702:../generate/sc_drivers/r_riic/src/lld/r_rza2_riic_lld.c **** 
 703:../generate/sc_drivers/r_riic/src/lld/r_rza2_riic_lld.c ****     return;
 704:../generate/sc_drivers/r_riic/src/lld/r_rza2_riic_lld.c **** }
 705:../generate/sc_drivers/r_riic/src/lld/r_rza2_riic_lld.c **** /******************************************************************************
 706:../generate/sc_drivers/r_riic/src/lld/r_rza2_riic_lld.c ****  * End of Function R_RIIC_TransmitNack
 707:../generate/sc_drivers/r_riic/src/lld/r_rza2_riic_lld.c ****  *****************************************************************************/
 708:../generate/sc_drivers/r_riic/src/lld/r_rza2_riic_lld.c **** 
 709:../generate/sc_drivers/r_riic/src/lld/r_rza2_riic_lld.c **** /******************************************************************************
 710:../generate/sc_drivers/r_riic/src/lld/r_rza2_riic_lld.c **** * Function Name: R_RIIC_AssertLowHold
 711:../generate/sc_drivers/r_riic/src/lld/r_rza2_riic_lld.c **** * Description  : This function is called by HLD, and hold the SCL in 
 712:../generate/sc_drivers/r_riic/src/lld/r_rza2_riic_lld.c **** *                the low level.
 713:../generate/sc_drivers/r_riic/src/lld/r_rza2_riic_lld.c **** * Arguments    : channel - Channel that hold the SCL.
 714:../generate/sc_drivers/r_riic/src/lld/r_rza2_riic_lld.c **** * Return Value : None.
 715:../generate/sc_drivers/r_riic/src/lld/r_rza2_riic_lld.c **** ******************************************************************************/
 716:../generate/sc_drivers/r_riic/src/lld/r_rza2_riic_lld.c **** void R_RIIC_AssertLowHold (int_t channel)
 717:../generate/sc_drivers/r_riic/src/lld/r_rza2_riic_lld.c **** {
 718:../generate/sc_drivers/r_riic/src/lld/r_rza2_riic_lld.c ****     /* set wait bit */
 719:../generate/sc_drivers/r_riic/src/lld/r_rza2_riic_lld.c ****     RZA_IO_RegWrite_32((volatile uint32_t *) &gsp_riic[channel]->ICMR3.LONG, (uint32_t) 1, RIIC_ICM
 720:../generate/sc_drivers/r_riic/src/lld/r_rza2_riic_lld.c ****     RIIC_ICMR3_WAIT);
 721:../generate/sc_drivers/r_riic/src/lld/r_rza2_riic_lld.c **** 
 722:../generate/sc_drivers/r_riic/src/lld/r_rza2_riic_lld.c ****     return;
 723:../generate/sc_drivers/r_riic/src/lld/r_rza2_riic_lld.c **** }
 724:../generate/sc_drivers/r_riic/src/lld/r_rza2_riic_lld.c **** /******************************************************************************
 725:../generate/sc_drivers/r_riic/src/lld/r_rza2_riic_lld.c ****  * End of Function R_RIIC_AssertLowHold 
 726:../generate/sc_drivers/r_riic/src/lld/r_rza2_riic_lld.c ****  *****************************************************************************/
 727:../generate/sc_drivers/r_riic/src/lld/r_rza2_riic_lld.c **** 
 728:../generate/sc_drivers/r_riic/src/lld/r_rza2_riic_lld.c **** /******************************************************************************
 729:../generate/sc_drivers/r_riic/src/lld/r_rza2_riic_lld.c **** * Function Name: R_RIIC_ReleaseLowHold
 730:../generate/sc_drivers/r_riic/src/lld/r_rza2_riic_lld.c **** * Description  : This function is called by HLD, and release the low hold of 
 731:../generate/sc_drivers/r_riic/src/lld/r_rza2_riic_lld.c **** *                the SCL.
 732:../generate/sc_drivers/r_riic/src/lld/r_rza2_riic_lld.c **** * Arguments    : channel - Channel that low hold of SCL.
 733:../generate/sc_drivers/r_riic/src/lld/r_rza2_riic_lld.c **** * Return Value : None.
 734:../generate/sc_drivers/r_riic/src/lld/r_rza2_riic_lld.c **** ******************************************************************************/
 735:../generate/sc_drivers/r_riic/src/lld/r_rza2_riic_lld.c **** void R_RIIC_ReleaseLowHold (int_t channel)
 736:../generate/sc_drivers/r_riic/src/lld/r_rza2_riic_lld.c **** {
 737:../generate/sc_drivers/r_riic/src/lld/r_rza2_riic_lld.c ****     /* set wait bit */
 738:../generate/sc_drivers/r_riic/src/lld/r_rza2_riic_lld.c ****     RZA_IO_RegWrite_32((volatile uint32_t *) &gsp_riic[channel]->ICMR3.LONG, (uint32_t) 0, RIIC_ICM
 739:../generate/sc_drivers/r_riic/src/lld/r_rza2_riic_lld.c ****     RIIC_ICMR3_WAIT);
 740:../generate/sc_drivers/r_riic/src/lld/r_rza2_riic_lld.c **** 
 741:../generate/sc_drivers/r_riic/src/lld/r_rza2_riic_lld.c ****     return;
 742:../generate/sc_drivers/r_riic/src/lld/r_rza2_riic_lld.c **** }
 743:../generate/sc_drivers/r_riic/src/lld/r_rza2_riic_lld.c **** /******************************************************************************
 744:../generate/sc_drivers/r_riic/src/lld/r_rza2_riic_lld.c ****  * End of Function R_RIIC_ReleaseLowHold  
 745:../generate/sc_drivers/r_riic/src/lld/r_rza2_riic_lld.c ****  *****************************************************************************/
 746:../generate/sc_drivers/r_riic/src/lld/r_rza2_riic_lld.c **** 
 747:../generate/sc_drivers/r_riic/src/lld/r_rza2_riic_lld.c **** /******************************************************************************
 748:../generate/sc_drivers/r_riic/src/lld/r_rza2_riic_lld.c **** * Function Name: R_RIIC_EnableTransEndIntr
 749:../generate/sc_drivers/r_riic/src/lld/r_rza2_riic_lld.c **** * Description  : This function is called by HLD, and enable transfer end 
 750:../generate/sc_drivers/r_riic/src/lld/r_rza2_riic_lld.c **** *                interrupt.
 751:../generate/sc_drivers/r_riic/src/lld/r_rza2_riic_lld.c **** * Arguments    : channel - Channel that enable transfer end.
 752:../generate/sc_drivers/r_riic/src/lld/r_rza2_riic_lld.c **** * Return Value : None.
 753:../generate/sc_drivers/r_riic/src/lld/r_rza2_riic_lld.c **** ******************************************************************************/
 754:../generate/sc_drivers/r_riic/src/lld/r_rza2_riic_lld.c **** void R_RIIC_EnableTransEndIntr (int_t channel)
 755:../generate/sc_drivers/r_riic/src/lld/r_rza2_riic_lld.c **** {
 756:../generate/sc_drivers/r_riic/src/lld/r_rza2_riic_lld.c ****     /* enable transmit end interrupt*/
 757:../generate/sc_drivers/r_riic/src/lld/r_rza2_riic_lld.c ****     RZA_IO_RegWrite_32((volatile uint32_t *) &gsp_riic[channel]->ICIER.LONG, (uint32_t) 1, RIIC_ICI
 758:../generate/sc_drivers/r_riic/src/lld/r_rza2_riic_lld.c ****     RIIC_ICIER_TEIE);
 759:../generate/sc_drivers/r_riic/src/lld/r_rza2_riic_lld.c **** 
 760:../generate/sc_drivers/r_riic/src/lld/r_rza2_riic_lld.c ****     return;
 761:../generate/sc_drivers/r_riic/src/lld/r_rza2_riic_lld.c **** }
 762:../generate/sc_drivers/r_riic/src/lld/r_rza2_riic_lld.c **** /******************************************************************************
 763:../generate/sc_drivers/r_riic/src/lld/r_rza2_riic_lld.c ****  * End of Function R_RIIC_EnableTransEndIntr  
 764:../generate/sc_drivers/r_riic/src/lld/r_rza2_riic_lld.c ****  *****************************************************************************/
 765:../generate/sc_drivers/r_riic/src/lld/r_rza2_riic_lld.c **** 
 766:../generate/sc_drivers/r_riic/src/lld/r_rza2_riic_lld.c **** /******************************************************************************
 767:../generate/sc_drivers/r_riic/src/lld/r_rza2_riic_lld.c **** * Function Name: R_RIIC_DisableTransEndIntr
 768:../generate/sc_drivers/r_riic/src/lld/r_rza2_riic_lld.c **** * Description  : This function is called by HLD, and disable transfer end 
 769:../generate/sc_drivers/r_riic/src/lld/r_rza2_riic_lld.c **** *                interrupt.
 770:../generate/sc_drivers/r_riic/src/lld/r_rza2_riic_lld.c **** * Arguments    : channel - Channel that disable transfer end.
 771:../generate/sc_drivers/r_riic/src/lld/r_rza2_riic_lld.c **** * Return Value : None.
 772:../generate/sc_drivers/r_riic/src/lld/r_rza2_riic_lld.c **** ******************************************************************************/
 773:../generate/sc_drivers/r_riic/src/lld/r_rza2_riic_lld.c **** void R_RIIC_DisableTransEndIntr (int_t channel)
 774:../generate/sc_drivers/r_riic/src/lld/r_rza2_riic_lld.c **** {
 775:../generate/sc_drivers/r_riic/src/lld/r_rza2_riic_lld.c ****     /* enable transmit end interrupt*/
 776:../generate/sc_drivers/r_riic/src/lld/r_rza2_riic_lld.c ****     RZA_IO_RegWrite_32((volatile uint32_t *) &gsp_riic[channel]->ICIER.LONG, (uint32_t) 0, RIIC_ICI
 777:../generate/sc_drivers/r_riic/src/lld/r_rza2_riic_lld.c ****     RIIC_ICIER_TEIE);
 778:../generate/sc_drivers/r_riic/src/lld/r_rza2_riic_lld.c **** 
 779:../generate/sc_drivers/r_riic/src/lld/r_rza2_riic_lld.c ****     return;
 780:../generate/sc_drivers/r_riic/src/lld/r_rza2_riic_lld.c **** }
 781:../generate/sc_drivers/r_riic/src/lld/r_rza2_riic_lld.c **** /******************************************************************************
 782:../generate/sc_drivers/r_riic/src/lld/r_rza2_riic_lld.c ****  * End of Function R_RIIC_EnableTransEndIntr  
 783:../generate/sc_drivers/r_riic/src/lld/r_rza2_riic_lld.c ****  *****************************************************************************/
 784:../generate/sc_drivers/r_riic/src/lld/r_rza2_riic_lld.c **** 
 785:../generate/sc_drivers/r_riic/src/lld/r_rza2_riic_lld.c **** /******************************************************************************
 786:../generate/sc_drivers/r_riic/src/lld/r_rza2_riic_lld.c **** * Function Name: R_RIIC_WriteByte
 787:../generate/sc_drivers/r_riic/src/lld/r_rza2_riic_lld.c **** * Description  : This function is called by HLD, and write to the 
 788:../generate/sc_drivers/r_riic/src/lld/r_rza2_riic_lld.c **** *                data register.
 789:../generate/sc_drivers/r_riic/src/lld/r_rza2_riic_lld.c **** * Arguments    : channel - Channel that write to the data register.
 790:../generate/sc_drivers/r_riic/src/lld/r_rza2_riic_lld.c **** *                byte - transfer data.
 791:../generate/sc_drivers/r_riic/src/lld/r_rza2_riic_lld.c **** * Return Value : None.
 792:../generate/sc_drivers/r_riic/src/lld/r_rza2_riic_lld.c **** ******************************************************************************/
 793:../generate/sc_drivers/r_riic/src/lld/r_rza2_riic_lld.c **** void R_RIIC_WriteByte (int_t channel, uint8_t byte)
 794:../generate/sc_drivers/r_riic/src/lld/r_rza2_riic_lld.c **** {
 795:../generate/sc_drivers/r_riic/src/lld/r_rza2_riic_lld.c ****     /* write data */
 796:../generate/sc_drivers/r_riic/src/lld/r_rza2_riic_lld.c ****     RZA_IO_RegWrite_32((volatile uint32_t *) &gsp_riic[channel]->ICDRT.LONG, (uint32_t) byte, RIIC_
 797:../generate/sc_drivers/r_riic/src/lld/r_rza2_riic_lld.c ****     RIIC_ICDRT_DRT);
 798:../generate/sc_drivers/r_riic/src/lld/r_rza2_riic_lld.c **** 
 799:../generate/sc_drivers/r_riic/src/lld/r_rza2_riic_lld.c ****     return;
 800:../generate/sc_drivers/r_riic/src/lld/r_rza2_riic_lld.c **** }
 801:../generate/sc_drivers/r_riic/src/lld/r_rza2_riic_lld.c **** /******************************************************************************
 802:../generate/sc_drivers/r_riic/src/lld/r_rza2_riic_lld.c ****  * End of Function R_RIIC_WriteByte  
 803:../generate/sc_drivers/r_riic/src/lld/r_rza2_riic_lld.c ****  *****************************************************************************/
 804:../generate/sc_drivers/r_riic/src/lld/r_rza2_riic_lld.c **** 
 805:../generate/sc_drivers/r_riic/src/lld/r_rza2_riic_lld.c **** /******************************************************************************
 806:../generate/sc_drivers/r_riic/src/lld/r_rza2_riic_lld.c **** * Function Name: R_RIIC_ReadByte
 807:../generate/sc_drivers/r_riic/src/lld/r_rza2_riic_lld.c **** * Description  : This function is called by HLD, and read transfer data 
 808:../generate/sc_drivers/r_riic/src/lld/r_rza2_riic_lld.c **** *                from register.
 809:../generate/sc_drivers/r_riic/src/lld/r_rza2_riic_lld.c **** * Arguments    : channel - Channel that read transfer data from register.
 810:../generate/sc_drivers/r_riic/src/lld/r_rza2_riic_lld.c **** * Return Value : 0x00 to 0xFF - receive data.
 811:../generate/sc_drivers/r_riic/src/lld/r_rza2_riic_lld.c **** ******************************************************************************/
 812:../generate/sc_drivers/r_riic/src/lld/r_rza2_riic_lld.c **** uint8_t R_RIIC_ReadByte (int_t channel)
 813:../generate/sc_drivers/r_riic/src/lld/r_rza2_riic_lld.c **** {
 814:../generate/sc_drivers/r_riic/src/lld/r_rza2_riic_lld.c ****     uint32_t read_data;
 815:../generate/sc_drivers/r_riic/src/lld/r_rza2_riic_lld.c **** 
 816:../generate/sc_drivers/r_riic/src/lld/r_rza2_riic_lld.c ****     /* read data */
 817:../generate/sc_drivers/r_riic/src/lld/r_rza2_riic_lld.c ****     read_data = RZA_IO_RegRead_32( &gsp_riic[channel]->ICDRR.LONG, RIIC_ICDRR_DRR_SHIFT, RIIC_ICDRR
 818:../generate/sc_drivers/r_riic/src/lld/r_rza2_riic_lld.c **** 
 819:../generate/sc_drivers/r_riic/src/lld/r_rza2_riic_lld.c ****     /* data is in LSB of uint32_t result */
 820:../generate/sc_drivers/r_riic/src/lld/r_rza2_riic_lld.c ****     return (uint8_t) read_data;
 821:../generate/sc_drivers/r_riic/src/lld/r_rza2_riic_lld.c **** }
 822:../generate/sc_drivers/r_riic/src/lld/r_rza2_riic_lld.c **** /******************************************************************************
 823:../generate/sc_drivers/r_riic/src/lld/r_rza2_riic_lld.c ****  * End of Function R_RIIC_ReadByte  
 824:../generate/sc_drivers/r_riic/src/lld/r_rza2_riic_lld.c ****  *****************************************************************************/
 825:../generate/sc_drivers/r_riic/src/lld/r_rza2_riic_lld.c **** 
 826:../generate/sc_drivers/r_riic/src/lld/r_rza2_riic_lld.c **** /******************************************************************************
 827:../generate/sc_drivers/r_riic/src/lld/r_rza2_riic_lld.c **** * Function Name: R_RIIC_IsBusBusy
 828:../generate/sc_drivers/r_riic/src/lld/r_rza2_riic_lld.c **** * Description  : This function is called by HLD, and get bus busy status.
 829:../generate/sc_drivers/r_riic/src/lld/r_rza2_riic_lld.c **** * Arguments    : channel - Channel that get bus busy status.
 830:../generate/sc_drivers/r_riic/src/lld/r_rza2_riic_lld.c **** * Return Value : 0 - BUS free.
 831:../generate/sc_drivers/r_riic/src/lld/r_rza2_riic_lld.c **** *                1 - BUS busy.
 832:../generate/sc_drivers/r_riic/src/lld/r_rza2_riic_lld.c **** ******************************************************************************/
 833:../generate/sc_drivers/r_riic/src/lld/r_rza2_riic_lld.c **** uint8_t R_RIIC_IsBusBusy (int_t channel)
 834:../generate/sc_drivers/r_riic/src/lld/r_rza2_riic_lld.c **** {
 835:../generate/sc_drivers/r_riic/src/lld/r_rza2_riic_lld.c ****     uint32_t busy_stat;
 836:../generate/sc_drivers/r_riic/src/lld/r_rza2_riic_lld.c **** 
 837:../generate/sc_drivers/r_riic/src/lld/r_rza2_riic_lld.c ****     /* get bus busy status */
 838:../generate/sc_drivers/r_riic/src/lld/r_rza2_riic_lld.c ****     busy_stat = RZA_IO_RegRead_32( &gsp_riic[channel]->ICCR2.LONG, RIIC_ICCR2_BBSY_SHIFT, RIIC_ICCR
 839:../generate/sc_drivers/r_riic/src/lld/r_rza2_riic_lld.c **** 
 840:../generate/sc_drivers/r_riic/src/lld/r_rza2_riic_lld.c ****     /* cast to uint8_t */
 841:../generate/sc_drivers/r_riic/src/lld/r_rza2_riic_lld.c ****     return (uint8_t) busy_stat;
 842:../generate/sc_drivers/r_riic/src/lld/r_rza2_riic_lld.c **** }
 843:../generate/sc_drivers/r_riic/src/lld/r_rza2_riic_lld.c **** /******************************************************************************
 844:../generate/sc_drivers/r_riic/src/lld/r_rza2_riic_lld.c ****  * End of Function R_RIIC_IsBusBusy  
 845:../generate/sc_drivers/r_riic/src/lld/r_rza2_riic_lld.c ****  *****************************************************************************/
 846:../generate/sc_drivers/r_riic/src/lld/r_rza2_riic_lld.c **** 
 847:../generate/sc_drivers/r_riic/src/lld/r_rza2_riic_lld.c **** /******************************************************************************
 848:../generate/sc_drivers/r_riic/src/lld/r_rza2_riic_lld.c **** * Function Name: R_RIIC_IsStopAsserted
 849:../generate/sc_drivers/r_riic/src/lld/r_rza2_riic_lld.c **** * Description  : This function is called by HLD, and get detection status of 
 850:../generate/sc_drivers/r_riic/src/lld/r_rza2_riic_lld.c **** *                STOP condition.
 851:../generate/sc_drivers/r_riic/src/lld/r_rza2_riic_lld.c **** * Arguments    : channel - Channel that get detection status of 
 852:../generate/sc_drivers/r_riic/src/lld/r_rza2_riic_lld.c **** *                STOP condition.
 853:../generate/sc_drivers/r_riic/src/lld/r_rza2_riic_lld.c **** * Return Value : 0 - STOP condition not detected.
 854:../generate/sc_drivers/r_riic/src/lld/r_rza2_riic_lld.c **** *                1 - STOP condition detected.
 855:../generate/sc_drivers/r_riic/src/lld/r_rza2_riic_lld.c **** ******************************************************************************/
 856:../generate/sc_drivers/r_riic/src/lld/r_rza2_riic_lld.c **** uint8_t R_RIIC_IsStopAsserted (int_t channel)
 857:../generate/sc_drivers/r_riic/src/lld/r_rza2_riic_lld.c **** {
 858:../generate/sc_drivers/r_riic/src/lld/r_rza2_riic_lld.c ****     uint32_t stop_stat;
 859:../generate/sc_drivers/r_riic/src/lld/r_rza2_riic_lld.c **** 
 860:../generate/sc_drivers/r_riic/src/lld/r_rza2_riic_lld.c ****     /* get bus busy status */
 861:../generate/sc_drivers/r_riic/src/lld/r_rza2_riic_lld.c ****     stop_stat = RZA_IO_RegRead_32( &gsp_riic[channel]->ICSR2.LONG, RIIC_ICSR2_STOP_SHIFT, RIIC_ICSR
 862:../generate/sc_drivers/r_riic/src/lld/r_rza2_riic_lld.c **** 
 863:../generate/sc_drivers/r_riic/src/lld/r_rza2_riic_lld.c ****     /* cast to uint8_t */
 864:../generate/sc_drivers/r_riic/src/lld/r_rza2_riic_lld.c ****     return (uint8_t) stop_stat;
 865:../generate/sc_drivers/r_riic/src/lld/r_rza2_riic_lld.c **** }
 866:../generate/sc_drivers/r_riic/src/lld/r_rza2_riic_lld.c **** /******************************************************************************
 867:../generate/sc_drivers/r_riic/src/lld/r_rza2_riic_lld.c ****  * End of Function R_RIIC_IsStopAsserted  
 868:../generate/sc_drivers/r_riic/src/lld/r_rza2_riic_lld.c ****  *****************************************************************************/
 869:../generate/sc_drivers/r_riic/src/lld/r_rza2_riic_lld.c **** 
 870:../generate/sc_drivers/r_riic/src/lld/r_rza2_riic_lld.c **** /******************************************************************************
 871:../generate/sc_drivers/r_riic/src/lld/r_rza2_riic_lld.c **** * Function Name: R_RIIC_WaitSlaveAddr
 872:../generate/sc_drivers/r_riic/src/lld/r_rza2_riic_lld.c **** * Description  : This function is called by HLD, and start waiting slave 
 873:../generate/sc_drivers/r_riic/src/lld/r_rza2_riic_lld.c **** *                address from master device.
 874:../generate/sc_drivers/r_riic/src/lld/r_rza2_riic_lld.c **** *                Also, after calling this function, it is always in the 
 875:../generate/sc_drivers/r_riic/src/lld/r_rza2_riic_lld.c **** *                stop condition standby state.
 876:../generate/sc_drivers/r_riic/src/lld/r_rza2_riic_lld.c **** * Arguments    : channel - RIIC channel of waiting slave address.
 877:../generate/sc_drivers/r_riic/src/lld/r_rza2_riic_lld.c **** * Return Value : DRV_SUCCESS - Waiting slave address is suucess.
 878:../generate/sc_drivers/r_riic/src/lld/r_rza2_riic_lld.c **** *                DRV_ERROR - Waiting slave address in master mode.
 879:../generate/sc_drivers/r_riic/src/lld/r_rza2_riic_lld.c **** ******************************************************************************/
 880:../generate/sc_drivers/r_riic/src/lld/r_rza2_riic_lld.c **** int_t R_RIIC_WaitSlaveAddr (int_t channel)
 881:../generate/sc_drivers/r_riic/src/lld/r_rza2_riic_lld.c **** {
 882:../generate/sc_drivers/r_riic/src/lld/r_rza2_riic_lld.c ****     if (RIIC_MODE_MASTER == gs_riic_config[channel].riic_mode)
 883:../generate/sc_drivers/r_riic/src/lld/r_rza2_riic_lld.c ****     {
 884:../generate/sc_drivers/r_riic/src/lld/r_rza2_riic_lld.c ****         return (DRV_ERROR);
 885:../generate/sc_drivers/r_riic/src/lld/r_rza2_riic_lld.c ****     }
 886:../generate/sc_drivers/r_riic/src/lld/r_rza2_riic_lld.c **** 
 887:../generate/sc_drivers/r_riic/src/lld/r_rza2_riic_lld.c ****     /* enable receive full interrupt and start waiting slave address */
 888:../generate/sc_drivers/r_riic/src/lld/r_rza2_riic_lld.c ****     RZA_IO_RegWrite_32((volatile uint32_t *) &gsp_riic[channel]->ICIER.LONG, (uint32_t) 1, RIIC_ICI
 889:../generate/sc_drivers/r_riic/src/lld/r_rza2_riic_lld.c ****     RIIC_ICIER_RIE);
 890:../generate/sc_drivers/r_riic/src/lld/r_rza2_riic_lld.c **** 
 891:../generate/sc_drivers/r_riic/src/lld/r_rza2_riic_lld.c ****     /* enable transmit interrupt*/
 892:../generate/sc_drivers/r_riic/src/lld/r_rza2_riic_lld.c ****     RZA_IO_RegWrite_32((volatile uint32_t *) &gsp_riic[channel]->ICIER.LONG, (uint32_t) 1, RIIC_ICI
 893:../generate/sc_drivers/r_riic/src/lld/r_rza2_riic_lld.c ****     RIIC_ICIER_TIE);
 894:../generate/sc_drivers/r_riic/src/lld/r_rza2_riic_lld.c **** 
 895:../generate/sc_drivers/r_riic/src/lld/r_rza2_riic_lld.c ****     /* enable nak interrupt*/
 896:../generate/sc_drivers/r_riic/src/lld/r_rza2_riic_lld.c ****     RZA_IO_RegWrite_32((volatile uint32_t *) &gsp_riic[channel]->ICIER.LONG, (uint32_t) 1, RIIC_ICI
 897:../generate/sc_drivers/r_riic/src/lld/r_rza2_riic_lld.c ****     RIIC_ICIER_NAKIE);
 898:../generate/sc_drivers/r_riic/src/lld/r_rza2_riic_lld.c **** 
 899:../generate/sc_drivers/r_riic/src/lld/r_rza2_riic_lld.c ****     /* enable start detect interrupt*/
 900:../generate/sc_drivers/r_riic/src/lld/r_rza2_riic_lld.c ****     RZA_IO_RegWrite_32((volatile uint32_t *) &gsp_riic[channel]->ICIER.LONG, (uint32_t) 1, RIIC_ICI
 901:../generate/sc_drivers/r_riic/src/lld/r_rza2_riic_lld.c ****     RIIC_ICIER_SPIE);
 902:../generate/sc_drivers/r_riic/src/lld/r_rza2_riic_lld.c **** 
 903:../generate/sc_drivers/r_riic/src/lld/r_rza2_riic_lld.c ****     return DRV_SUCCESS;
 904:../generate/sc_drivers/r_riic/src/lld/r_rza2_riic_lld.c **** }
 905:../generate/sc_drivers/r_riic/src/lld/r_rza2_riic_lld.c **** /******************************************************************************
 906:../generate/sc_drivers/r_riic/src/lld/r_rza2_riic_lld.c ****  * End of Function R_RIIC_WaitSlaveAddr  
 907:../generate/sc_drivers/r_riic/src/lld/r_rza2_riic_lld.c ****  *****************************************************************************/
 908:../generate/sc_drivers/r_riic/src/lld/r_rza2_riic_lld.c **** 
 909:../generate/sc_drivers/r_riic/src/lld/r_rza2_riic_lld.c **** /******************************************************************************
 910:../generate/sc_drivers/r_riic/src/lld/r_rza2_riic_lld.c **** * Function Name: R_RIIC_DetectTimeoutStart
 911:../generate/sc_drivers/r_riic/src/lld/r_rza2_riic_lld.c **** * Description  : This function is called by HLD, and start timeout counter.
 912:../generate/sc_drivers/r_riic/src/lld/r_rza2_riic_lld.c **** * Arguments    : channel - Channel that start timeout counter.
 913:../generate/sc_drivers/r_riic/src/lld/r_rza2_riic_lld.c **** * Return Value : None.
 914:../generate/sc_drivers/r_riic/src/lld/r_rza2_riic_lld.c **** ******************************************************************************/
 915:../generate/sc_drivers/r_riic/src/lld/r_rza2_riic_lld.c **** void R_RIIC_DetectTimeoutStart (int_t channel)
 916:../generate/sc_drivers/r_riic/src/lld/r_rza2_riic_lld.c **** {
 917:../generate/sc_drivers/r_riic/src/lld/r_rza2_riic_lld.c ****     /* start timer */
 918:../generate/sc_drivers/r_riic/src/lld/r_rza2_riic_lld.c ****     RZA_IO_RegWrite_32((volatile uint32_t *) &gsp_riic[channel]->ICFER.LONG, (uint32_t) 1, RIIC_ICF
 919:../generate/sc_drivers/r_riic/src/lld/r_rza2_riic_lld.c ****     RIIC_ICFER_TMOE);
 920:../generate/sc_drivers/r_riic/src/lld/r_rza2_riic_lld.c **** 
 921:../generate/sc_drivers/r_riic/src/lld/r_rza2_riic_lld.c ****     /* enable timer interrupt */
 922:../generate/sc_drivers/r_riic/src/lld/r_rza2_riic_lld.c ****     RZA_IO_RegWrite_32((volatile uint32_t *) &gsp_riic[channel]->ICIER.LONG, (uint32_t) 1, RIIC_ICI
 923:../generate/sc_drivers/r_riic/src/lld/r_rza2_riic_lld.c ****     RIIC_ICIER_TMOIE);
 924:../generate/sc_drivers/r_riic/src/lld/r_rza2_riic_lld.c **** 
 925:../generate/sc_drivers/r_riic/src/lld/r_rza2_riic_lld.c ****     return;
 926:../generate/sc_drivers/r_riic/src/lld/r_rza2_riic_lld.c **** }
 927:../generate/sc_drivers/r_riic/src/lld/r_rza2_riic_lld.c **** /*****************************************************************************
 928:../generate/sc_drivers/r_riic/src/lld/r_rza2_riic_lld.c ****  * End of Function R_RIIC_DetectTimeoutStart
 929:../generate/sc_drivers/r_riic/src/lld/r_rza2_riic_lld.c ****  *****************************************************************************/
 930:../generate/sc_drivers/r_riic/src/lld/r_rza2_riic_lld.c **** 
 931:../generate/sc_drivers/r_riic/src/lld/r_rza2_riic_lld.c **** /******************************************************************************
 932:../generate/sc_drivers/r_riic/src/lld/r_rza2_riic_lld.c **** * Function Name: R_RIIC_DetectTimeoutStop
 933:../generate/sc_drivers/r_riic/src/lld/r_rza2_riic_lld.c **** * Description  : This function is called by HLD, and stop timeout counter.
 934:../generate/sc_drivers/r_riic/src/lld/r_rza2_riic_lld.c **** * Arguments    : channel - Channel that stop timeout counter.
 935:../generate/sc_drivers/r_riic/src/lld/r_rza2_riic_lld.c **** * Return Value : None.
 936:../generate/sc_drivers/r_riic/src/lld/r_rza2_riic_lld.c **** ******************************************************************************/
 937:../generate/sc_drivers/r_riic/src/lld/r_rza2_riic_lld.c **** void R_RIIC_DetectTimeoutStop (int_t channel)
 938:../generate/sc_drivers/r_riic/src/lld/r_rza2_riic_lld.c **** {
 939:../generate/sc_drivers/r_riic/src/lld/r_rza2_riic_lld.c ****     /* disable timer interrupt */
 940:../generate/sc_drivers/r_riic/src/lld/r_rza2_riic_lld.c ****     RZA_IO_RegWrite_32((volatile uint32_t *) &gsp_riic[channel]->ICIER.LONG, (uint32_t) 0, RIIC_ICI
 941:../generate/sc_drivers/r_riic/src/lld/r_rza2_riic_lld.c ****     RIIC_ICIER_TMOIE);
 942:../generate/sc_drivers/r_riic/src/lld/r_rza2_riic_lld.c **** 
 943:../generate/sc_drivers/r_riic/src/lld/r_rza2_riic_lld.c ****     /* stop timer */
 944:../generate/sc_drivers/r_riic/src/lld/r_rza2_riic_lld.c ****     RZA_IO_RegWrite_32((volatile uint32_t *) &gsp_riic[channel]->ICFER.LONG, (uint32_t) 0, RIIC_ICF
 945:../generate/sc_drivers/r_riic/src/lld/r_rza2_riic_lld.c ****     RIIC_ICFER_TMOE);
 946:../generate/sc_drivers/r_riic/src/lld/r_rza2_riic_lld.c **** 
 947:../generate/sc_drivers/r_riic/src/lld/r_rza2_riic_lld.c ****     return;
 948:../generate/sc_drivers/r_riic/src/lld/r_rza2_riic_lld.c **** }
 949:../generate/sc_drivers/r_riic/src/lld/r_rza2_riic_lld.c **** /******************************************************************************
 950:../generate/sc_drivers/r_riic/src/lld/r_rza2_riic_lld.c ****  * End of Function R_RIIC_DetectTimeoutStop
 951:../generate/sc_drivers/r_riic/src/lld/r_rza2_riic_lld.c ****  *****************************************************************************/
 952:../generate/sc_drivers/r_riic/src/lld/r_rza2_riic_lld.c **** 
 953:../generate/sc_drivers/r_riic/src/lld/r_rza2_riic_lld.c **** /******************************************************************************
 954:../generate/sc_drivers/r_riic/src/lld/r_rza2_riic_lld.c **** * Function Name: R_RIIC_DetectArbitrationStart
 955:../generate/sc_drivers/r_riic/src/lld/r_rza2_riic_lld.c **** * Description  : This function is called by HLD, and start detecting of 
 956:../generate/sc_drivers/r_riic/src/lld/r_rza2_riic_lld.c **** *                arbitration.
 957:../generate/sc_drivers/r_riic/src/lld/r_rza2_riic_lld.c **** * Arguments    : channel - Channel that start detecting arbitration.
 958:../generate/sc_drivers/r_riic/src/lld/r_rza2_riic_lld.c **** * Return Value : None.
 959:../generate/sc_drivers/r_riic/src/lld/r_rza2_riic_lld.c **** ******************************************************************************/
 960:../generate/sc_drivers/r_riic/src/lld/r_rza2_riic_lld.c **** void R_RIIC_DetectArbitrationStart (int_t channel)
 961:../generate/sc_drivers/r_riic/src/lld/r_rza2_riic_lld.c **** {
 962:../generate/sc_drivers/r_riic/src/lld/r_rza2_riic_lld.c ****     /* cast to volatile uint32_t pointer */
 963:../generate/sc_drivers/r_riic/src/lld/r_rza2_riic_lld.c ****     RZA_IO_RegWrite_32((volatile uint32_t *) &gsp_riic[channel]->ICFER.LONG, (uint32_t) 1, RIIC_ICF
 964:../generate/sc_drivers/r_riic/src/lld/r_rza2_riic_lld.c ****     RIIC_ICFER_MALE);
 965:../generate/sc_drivers/r_riic/src/lld/r_rza2_riic_lld.c **** 
 966:../generate/sc_drivers/r_riic/src/lld/r_rza2_riic_lld.c ****     /* cast to volatile uint32_t pointer */
 967:../generate/sc_drivers/r_riic/src/lld/r_rza2_riic_lld.c ****     RZA_IO_RegWrite_32((volatile uint32_t *) &gsp_riic[channel]->ICFER.LONG, (uint32_t) 1, RIIC_ICF
 968:../generate/sc_drivers/r_riic/src/lld/r_rza2_riic_lld.c ****     RIIC_ICFER_NALE);
 969:../generate/sc_drivers/r_riic/src/lld/r_rza2_riic_lld.c **** 
 970:../generate/sc_drivers/r_riic/src/lld/r_rza2_riic_lld.c ****     /* cast to volatile uint32_t pointer */
 971:../generate/sc_drivers/r_riic/src/lld/r_rza2_riic_lld.c ****     RZA_IO_RegWrite_32((volatile uint32_t *) &gsp_riic[channel]->ICFER.LONG, (uint32_t) 1, RIIC_ICF
 972:../generate/sc_drivers/r_riic/src/lld/r_rza2_riic_lld.c ****     RIIC_ICFER_SALE);
 973:../generate/sc_drivers/r_riic/src/lld/r_rza2_riic_lld.c **** 
 974:../generate/sc_drivers/r_riic/src/lld/r_rza2_riic_lld.c ****     /* cast to volatile uint32_t pointer */
 975:../generate/sc_drivers/r_riic/src/lld/r_rza2_riic_lld.c ****     RZA_IO_RegWrite_32((volatile uint32_t *) &gsp_riic[channel]->ICIER.LONG, (uint32_t) 1, RIIC_ICI
 976:../generate/sc_drivers/r_riic/src/lld/r_rza2_riic_lld.c ****     RIIC_ICIER_ALIE);
 977:../generate/sc_drivers/r_riic/src/lld/r_rza2_riic_lld.c **** 
 978:../generate/sc_drivers/r_riic/src/lld/r_rza2_riic_lld.c ****     return;
 979:../generate/sc_drivers/r_riic/src/lld/r_rza2_riic_lld.c **** }
 980:../generate/sc_drivers/r_riic/src/lld/r_rza2_riic_lld.c **** /******************************************************************************
 981:../generate/sc_drivers/r_riic/src/lld/r_rza2_riic_lld.c ****  * End of Function R_RIIC_DetectArbitrationStart
 982:../generate/sc_drivers/r_riic/src/lld/r_rza2_riic_lld.c ****  *****************************************************************************/
 983:../generate/sc_drivers/r_riic/src/lld/r_rza2_riic_lld.c **** 
 984:../generate/sc_drivers/r_riic/src/lld/r_rza2_riic_lld.c **** /******************************************************************************
 985:../generate/sc_drivers/r_riic/src/lld/r_rza2_riic_lld.c **** * Function Name: R_RIIC_DetectArbitrationStop
 986:../generate/sc_drivers/r_riic/src/lld/r_rza2_riic_lld.c **** * Description  : This function is called by HLD, and stop detecting of 
 987:../generate/sc_drivers/r_riic/src/lld/r_rza2_riic_lld.c **** *                arbitration.
 988:../generate/sc_drivers/r_riic/src/lld/r_rza2_riic_lld.c **** * Arguments    : channel - Channel that stop detecting arbitration.
 989:../generate/sc_drivers/r_riic/src/lld/r_rza2_riic_lld.c **** * Return Value : None.
 990:../generate/sc_drivers/r_riic/src/lld/r_rza2_riic_lld.c **** ******************************************************************************/
 991:../generate/sc_drivers/r_riic/src/lld/r_rza2_riic_lld.c **** void R_RIIC_DetectArbitrationStop (int_t channel)
 992:../generate/sc_drivers/r_riic/src/lld/r_rza2_riic_lld.c **** {
 993:../generate/sc_drivers/r_riic/src/lld/r_rza2_riic_lld.c ****     /* cast to volatile uint32_t pointer */
 994:../generate/sc_drivers/r_riic/src/lld/r_rza2_riic_lld.c ****     RZA_IO_RegWrite_32((volatile uint32_t *) &gsp_riic[channel]->ICIER.LONG, (uint32_t) 0, RIIC_ICI
 995:../generate/sc_drivers/r_riic/src/lld/r_rza2_riic_lld.c ****     RIIC_ICIER_ALIE);
 996:../generate/sc_drivers/r_riic/src/lld/r_rza2_riic_lld.c **** 
 997:../generate/sc_drivers/r_riic/src/lld/r_rza2_riic_lld.c ****     /* cast to volatile uint32_t pointer */
 998:../generate/sc_drivers/r_riic/src/lld/r_rza2_riic_lld.c ****     RZA_IO_RegWrite_32((volatile uint32_t *) &gsp_riic[channel]->ICFER.LONG, (uint32_t) 0, RIIC_ICF
 999:../generate/sc_drivers/r_riic/src/lld/r_rza2_riic_lld.c ****     RIIC_ICFER_MALE);
1000:../generate/sc_drivers/r_riic/src/lld/r_rza2_riic_lld.c **** 
1001:../generate/sc_drivers/r_riic/src/lld/r_rza2_riic_lld.c ****     /* cast to volatile uint32_t pointer */
1002:../generate/sc_drivers/r_riic/src/lld/r_rza2_riic_lld.c ****     RZA_IO_RegWrite_32((volatile uint32_t *) &gsp_riic[channel]->ICFER.LONG, (uint32_t) 0, RIIC_ICF
1003:../generate/sc_drivers/r_riic/src/lld/r_rza2_riic_lld.c ****     RIIC_ICFER_NALE);
1004:../generate/sc_drivers/r_riic/src/lld/r_rza2_riic_lld.c **** 
1005:../generate/sc_drivers/r_riic/src/lld/r_rza2_riic_lld.c ****     /* cast to volatile uint32_t pointer */
1006:../generate/sc_drivers/r_riic/src/lld/r_rza2_riic_lld.c ****     RZA_IO_RegWrite_32((volatile uint32_t *) &gsp_riic[channel]->ICFER.LONG, (uint32_t) 0, RIIC_ICF
1007:../generate/sc_drivers/r_riic/src/lld/r_rza2_riic_lld.c ****     RIIC_ICFER_SALE);
1008:../generate/sc_drivers/r_riic/src/lld/r_rza2_riic_lld.c **** 
1009:../generate/sc_drivers/r_riic/src/lld/r_rza2_riic_lld.c ****     return;
1010:../generate/sc_drivers/r_riic/src/lld/r_rza2_riic_lld.c **** }
1011:../generate/sc_drivers/r_riic/src/lld/r_rza2_riic_lld.c **** /******************************************************************************
1012:../generate/sc_drivers/r_riic/src/lld/r_rza2_riic_lld.c ****  * End of Function R_RIIC_DetectArbitrationStop
1013:../generate/sc_drivers/r_riic/src/lld/r_rza2_riic_lld.c ****  *****************************************************************************/
1014:../generate/sc_drivers/r_riic/src/lld/r_rza2_riic_lld.c **** 
1015:../generate/sc_drivers/r_riic/src/lld/r_rza2_riic_lld.c **** /******************************************************************************
1016:../generate/sc_drivers/r_riic/src/lld/r_rza2_riic_lld.c **** * Function Name: R_RIIC_GetSlaveAddrNum
1017:../generate/sc_drivers/r_riic/src/lld/r_rza2_riic_lld.c **** * Description  : This function is called by HLD, and get slave address number 
1018:../generate/sc_drivers/r_riic/src/lld/r_rza2_riic_lld.c **** *                of detected slave address.
1019:../generate/sc_drivers/r_riic/src/lld/r_rza2_riic_lld.c **** * Arguments    : channel - Channel that gets slave address number of detected 
1020:../generate/sc_drivers/r_riic/src/lld/r_rza2_riic_lld.c **** *                          slave address.
1021:../generate/sc_drivers/r_riic/src/lld/r_rza2_riic_lld.c **** * Return Value : 0 - Slave address registered in slave address0 was detected.
1022:../generate/sc_drivers/r_riic/src/lld/r_rza2_riic_lld.c **** *                1 - Slave address registered in slave address1 was detected
1023:../generate/sc_drivers/r_riic/src/lld/r_rza2_riic_lld.c **** *                2 - Slave address registered in slave address2 was detected
1024:../generate/sc_drivers/r_riic/src/lld/r_rza2_riic_lld.c **** *                DRV_ERROR - Slave address wasn't detected.
1025:../generate/sc_drivers/r_riic/src/lld/r_rza2_riic_lld.c **** ******************************************************************************/
1026:../generate/sc_drivers/r_riic/src/lld/r_rza2_riic_lld.c **** e_riic_slave_addr_num_t R_RIIC_GetSlaveAddrNum (int_t channel)
1027:../generate/sc_drivers/r_riic/src/lld/r_rza2_riic_lld.c **** {
1028:../generate/sc_drivers/r_riic/src/lld/r_rza2_riic_lld.c ****     uint32_t detect_stat = 0;
1029:../generate/sc_drivers/r_riic/src/lld/r_rza2_riic_lld.c ****     e_riic_slave_addr_num_t detect_num = 0;
1030:../generate/sc_drivers/r_riic/src/lld/r_rza2_riic_lld.c **** 
1031:../generate/sc_drivers/r_riic/src/lld/r_rza2_riic_lld.c ****     /* get bus busy status */
1032:../generate/sc_drivers/r_riic/src/lld/r_rza2_riic_lld.c ****     while (detect_num < RIIC_SLAVE_ADDR_NUM_MAX)
1033:../generate/sc_drivers/r_riic/src/lld/r_rza2_riic_lld.c ****     {
1034:../generate/sc_drivers/r_riic/src/lld/r_rza2_riic_lld.c ****         detect_stat = RZA_IO_RegRead_32( &gsp_riic[channel]->ICSR1.LONG, 0, (RIIC_ICSR1_AAS0 << det
1035:../generate/sc_drivers/r_riic/src/lld/r_rza2_riic_lld.c ****         if (0 != detect_stat)
1036:../generate/sc_drivers/r_riic/src/lld/r_rza2_riic_lld.c ****         {
1037:../generate/sc_drivers/r_riic/src/lld/r_rza2_riic_lld.c ****             break;
1038:../generate/sc_drivers/r_riic/src/lld/r_rza2_riic_lld.c ****         }
1039:../generate/sc_drivers/r_riic/src/lld/r_rza2_riic_lld.c ****         detect_num++;
1040:../generate/sc_drivers/r_riic/src/lld/r_rza2_riic_lld.c ****     }
1041:../generate/sc_drivers/r_riic/src/lld/r_rza2_riic_lld.c **** 
1042:../generate/sc_drivers/r_riic/src/lld/r_rza2_riic_lld.c ****     if (RIIC_SLAVE_ADDR_NUM_MAX == detect_num)
1043:../generate/sc_drivers/r_riic/src/lld/r_rza2_riic_lld.c ****     {
1044:../generate/sc_drivers/r_riic/src/lld/r_rza2_riic_lld.c ****         return DRV_ERROR;
1045:../generate/sc_drivers/r_riic/src/lld/r_rza2_riic_lld.c ****     }
1046:../generate/sc_drivers/r_riic/src/lld/r_rza2_riic_lld.c **** 
1047:../generate/sc_drivers/r_riic/src/lld/r_rza2_riic_lld.c ****     return detect_num;
1048:../generate/sc_drivers/r_riic/src/lld/r_rza2_riic_lld.c **** }
1049:../generate/sc_drivers/r_riic/src/lld/r_rza2_riic_lld.c **** /******************************************************************************
1050:../generate/sc_drivers/r_riic/src/lld/r_rza2_riic_lld.c ****  * End of Function R_RIIC_GetSlaveAddrNum  
1051:../generate/sc_drivers/r_riic/src/lld/r_rza2_riic_lld.c ****  *****************************************************************************/
1052:../generate/sc_drivers/r_riic/src/lld/r_rza2_riic_lld.c **** 
1053:../generate/sc_drivers/r_riic/src/lld/r_rza2_riic_lld.c **** /******************************************************************************
1054:../generate/sc_drivers/r_riic/src/lld/r_rza2_riic_lld.c ****  * Function Name: R_RIIC_GetVersion
1055:../generate/sc_drivers/r_riic/src/lld/r_rza2_riic_lld.c ****  * Description  : Get version information
1056:../generate/sc_drivers/r_riic/src/lld/r_rza2_riic_lld.c ****  * Arguments    : pVerInfo - version info
1057:../generate/sc_drivers/r_riic/src/lld/r_rza2_riic_lld.c ****  * Return Value : DRV_SUCCESS - Success(always).
1058:../generate/sc_drivers/r_riic/src/lld/r_rza2_riic_lld.c ****  *****************************************************************************/
1059:../generate/sc_drivers/r_riic/src/lld/r_rza2_riic_lld.c **** int_t R_RIIC_GetVersion (st_ver_info_t *pVerInfo)
1060:../generate/sc_drivers/r_riic/src/lld/r_rza2_riic_lld.c **** {
1061:../generate/sc_drivers/r_riic/src/lld/r_rza2_riic_lld.c ****     pVerInfo->lld.p_szdriver_name = STDIO_RIIC_RZ_LLD_DRV_NAME;
1062:../generate/sc_drivers/r_riic/src/lld/r_rza2_riic_lld.c ****     pVerInfo->lld.version.sub.major = STDIO_RIIC_RZ_LLD_VERSION_MAJOR;
1063:../generate/sc_drivers/r_riic/src/lld/r_rza2_riic_lld.c ****     pVerInfo->lld.version.sub.minor = STDIO_RIIC_RZ_LLD_VERSION_MINOR;
1064:../generate/sc_drivers/r_riic/src/lld/r_rza2_riic_lld.c ****     pVerInfo->lld.build = STDIO_RIIC_RZ_LLD_BUILD_NUM;
1065:../generate/sc_drivers/r_riic/src/lld/r_rza2_riic_lld.c **** 
1066:../generate/sc_drivers/r_riic/src/lld/r_rza2_riic_lld.c ****     return DRV_SUCCESS;
1067:../generate/sc_drivers/r_riic/src/lld/r_rza2_riic_lld.c **** }
1068:../generate/sc_drivers/r_riic/src/lld/r_rza2_riic_lld.c **** /******************************************************************************
1069:../generate/sc_drivers/r_riic/src/lld/r_rza2_riic_lld.c ****  * End of Function R_RIIC_GetVersion  
1070:../generate/sc_drivers/r_riic/src/lld/r_rza2_riic_lld.c ****  *****************************************************************************/
1071:../generate/sc_drivers/r_riic/src/lld/r_rza2_riic_lld.c **** 
1072:../generate/sc_drivers/r_riic/src/lld/r_rza2_riic_lld.c **** /******************************************************************************
1073:../generate/sc_drivers/r_riic/src/lld/r_rza2_riic_lld.c **** * Function Name: riic_adjust_scl_clk
1074:../generate/sc_drivers/r_riic/src/lld/r_rza2_riic_lld.c **** * Description  : This function adjusts the high time and the low time of SCL 
1075:../generate/sc_drivers/r_riic/src/lld/r_rza2_riic_lld.c **** *                from the values of rise time and fall time.
1076:../generate/sc_drivers/r_riic/src/lld/r_rza2_riic_lld.c **** * Arguments    : *p_cfg - RIIC frequency parameter.
1077:../generate/sc_drivers/r_riic/src/lld/r_rza2_riic_lld.c **** * Return Value : DRV_SUCCESS - Operation is success.
1078:../generate/sc_drivers/r_riic/src/lld/r_rza2_riic_lld.c **** *                DRV_ERROR - Illegal parameters are set.
1079:../generate/sc_drivers/r_riic/src/lld/r_rza2_riic_lld.c **** ******************************************************************************/
1080:../generate/sc_drivers/r_riic/src/lld/r_rza2_riic_lld.c **** static int_t riic_adjust_scl_clk (st_riic_clk_check_param_t *p_cfg)
1081:../generate/sc_drivers/r_riic/src/lld/r_rza2_riic_lld.c **** {
  30              		.loc 1 1081 1 view -0
  31              		.cfi_startproc
  32              		@ args = 0, pretend = 0, frame = 0
  33              		@ frame_needed = 0, uses_anonymous_args = 0
  34              		.loc 1 1081 1 is_stmt 0 view .LVU1
  35 0000 70402DE9 		push	{r4, r5, r6, lr}
  36              		.cfi_def_cfa_offset 16
  37              		.cfi_offset 4, -16
  38              		.cfi_offset 5, -12
  39              		.cfi_offset 6, -8
  40              		.cfi_offset 14, -4
  41 0004 0040A0E1 		mov	r4, r0
1082:../generate/sc_drivers/r_riic/src/lld/r_rza2_riic_lld.c ****     int_t retval = DRV_SUCCESS;
  42              		.loc 1 1082 5 is_stmt 1 view .LVU2
  43              	.LVL1:
1083:../generate/sc_drivers/r_riic/src/lld/r_rza2_riic_lld.c ****     uint32_t width_delay;
  44              		.loc 1 1083 5 view .LVU3
1084:../generate/sc_drivers/r_riic/src/lld/r_rza2_riic_lld.c ****     uint32_t unit_time = 0;
  45              		.loc 1 1084 5 view .LVU4
1085:../generate/sc_drivers/r_riic/src/lld/r_rza2_riic_lld.c **** 
1086:../generate/sc_drivers/r_riic/src/lld/r_rza2_riic_lld.c ****     /* Check combinations of settings that are not allowed */
1087:../generate/sc_drivers/r_riic/src/lld/r_rza2_riic_lld.c ****     if ((RIIC_FORMAT_SMBUS == p_cfg->format) && (RIIC_FREQUENCY_400KHZ <= p_cfg->frequency))
  46              		.loc 1 1087 5 view .LVU5
  47              		.loc 1 1087 36 is_stmt 0 view .LVU6
  48 0008 1130D0E5 		ldrb	r3, [r0, #17]	@ zero_extendqisi2
  49              		.loc 1 1087 8 view .LVU7
  50 000c 010053E3 		cmp	r3, #1
  51 0010 2E00000A 		beq	.L21
1082:../generate/sc_drivers/r_riic/src/lld/r_rza2_riic_lld.c ****     uint32_t width_delay;
  52              		.loc 1 1082 11 view .LVU8
  53 0014 0050A0E3 		mov	r5, #0
  54              	.L2:
  55              	.LVL2:
1088:../generate/sc_drivers/r_riic/src/lld/r_rza2_riic_lld.c ****     {
1089:../generate/sc_drivers/r_riic/src/lld/r_rza2_riic_lld.c ****         retval = DRV_ERROR;
1090:../generate/sc_drivers/r_riic/src/lld/r_rza2_riic_lld.c ****     }
1091:../generate/sc_drivers/r_riic/src/lld/r_rza2_riic_lld.c **** 
1092:../generate/sc_drivers/r_riic/src/lld/r_rza2_riic_lld.c ****     if ((RIIC_FREQUENCY_1MHZ == p_cfg->frequency) && (RIIC_FILTER_NOT_USED != p_cfg->noise_filter_s
  56              		.loc 1 1092 5 is_stmt 1 view .LVU9
  57              		.loc 1 1092 38 is_stmt 0 view .LVU10
  58 0018 0510D4E5 		ldrb	r1, [r4, #5]	@ zero_extendqisi2
  59              		.loc 1 1092 8 view .LVU11
  60 001c 020051E3 		cmp	r1, #2
  61 0020 3000000A 		beq	.L22
  62              	.LVL3:
  63              	.L3:
1093:../generate/sc_drivers/r_riic/src/lld/r_rza2_riic_lld.c ****     {
1094:../generate/sc_drivers/r_riic/src/lld/r_rza2_riic_lld.c ****         retval = DRV_ERROR;
1095:../generate/sc_drivers/r_riic/src/lld/r_rza2_riic_lld.c ****     }
1096:../generate/sc_drivers/r_riic/src/lld/r_rza2_riic_lld.c **** 
1097:../generate/sc_drivers/r_riic/src/lld/r_rza2_riic_lld.c ****     if (((RIIC_DUTY_10 == p_cfg->duty) || (RIIC_DUTY_90 == p_cfg->duty))
  64              		.loc 1 1097 5 is_stmt 1 view .LVU12
  65              		.loc 1 1097 32 is_stmt 0 view .LVU13
  66 0024 0620D4E5 		ldrb	r2, [r4, #6]	@ zero_extendqisi2
  67              		.loc 1 1097 40 view .LVU14
  68 0028 080052E3 		cmp	r2, #8
  69 002c 0030A013 		movne	r3, #0
  70 0030 0130A003 		moveq	r3, #1
  71 0034 000052E3 		cmp	r2, #0
  72 0038 0130A003 		moveq	r3, #1
  73              		.loc 1 1097 8 view .LVU15
  74 003c 000053E3 		cmp	r3, #0
  75 0040 0200000A 		beq	.L4
1098:../generate/sc_drivers/r_riic/src/lld/r_rza2_riic_lld.c ****             && (RIIC_FILTER_NOT_USED != p_cfg->noise_filter_stage))
  76              		.loc 1 1098 46 view .LVU16
  77 0044 1030D4E5 		ldrb	r3, [r4, #16]	@ zero_extendqisi2
  78              		.loc 1 1098 13 view .LVU17
  79 0048 000053E3 		cmp	r3, #0
  80 004c 6300001A 		bne	.L13
  81              	.L4:
1099:../generate/sc_drivers/r_riic/src/lld/r_rza2_riic_lld.c ****     {
1100:../generate/sc_drivers/r_riic/src/lld/r_rza2_riic_lld.c ****         retval = DRV_ERROR;
1101:../generate/sc_drivers/r_riic/src/lld/r_rza2_riic_lld.c ****     }
1102:../generate/sc_drivers/r_riic/src/lld/r_rza2_riic_lld.c **** 
1103:../generate/sc_drivers/r_riic/src/lld/r_rza2_riic_lld.c ****     if (DRV_SUCCESS == retval)
  82              		.loc 1 1103 5 is_stmt 1 view .LVU18
  83              		.loc 1 1103 8 is_stmt 0 view .LVU19
  84 0050 000055E3 		cmp	r5, #0
  85 0054 6200001A 		bne	.L5
1104:../generate/sc_drivers/r_riic/src/lld/r_rza2_riic_lld.c ****     {
1105:../generate/sc_drivers/r_riic/src/lld/r_rza2_riic_lld.c ****         /* Get clock parameter table data */
1106:../generate/sc_drivers/r_riic/src/lld/r_rza2_riic_lld.c ****         if ((RIIC_PCLK_66MHZ == p_cfg->pclk) || ((RIIC_PCLK_66MHZ / 2) == p_cfg->pclk))
  86              		.loc 1 1106 9 is_stmt 1 view .LVU20
  87              		.loc 1 1106 38 is_stmt 0 view .LVU21
  88 0058 003094E5 		ldr	r3, [r4]
  89              		.loc 1 1106 46 view .LVU22
  90 005c 52CDA0E3 		mov	ip, #5248
  91 0060 EFC340E3 		movt	ip, 1007
  92 0064 400A08E3 		movw	r0, #35392
  93              	.LVL4:
  94              		.loc 1 1106 46 view .LVU23
  95 0068 F70140E3 		movt	r0, 503
  96              		.loc 1 1106 12 view .LVU24
  97 006c 000053E1 		cmp	r3, r0
  98 0070 0C005311 		cmpne	r3, ip
  99 0074 1F00001A 		bne	.L6
1107:../generate/sc_drivers/r_riic/src/lld/r_rza2_riic_lld.c ****         {
1108:../generate/sc_drivers/r_riic/src/lld/r_rza2_riic_lld.c ****             p_cfg->high_width = gs_riic_clk_base_param_66m[p_cfg->frequency][p_cfg->duty].high_widt
 100              		.loc 1 1108 13 is_stmt 1 view .LVU25
 101              		.loc 1 1108 90 is_stmt 0 view .LVU26
 102 0078 00E000E3 		movw	lr, #:lower16:.LANCHOR0
 103 007c 00E040E3 		movt	lr, #:upper16:.LANCHOR0
 104 0080 8260A0E1 		lsl	r6, r2, #1
 105 0084 02C086E0 		add	ip, r6, r2
 106 0088 6C00A0E3 		mov	r0, #108
 107 008c 900101E0 		mul	r1, r0, r1
 108 0090 0C0181E0 		add	r0, r1, ip, lsl #2
 109 0094 00008EE0 		add	r0, lr, r0
 110 0098 04C090E5 		ldr	ip, [r0, #4]
 111              		.loc 1 1108 31 view .LVU27
 112 009c 14C084E5 		str	ip, [r4, #20]
1109:../generate/sc_drivers/r_riic/src/lld/r_rza2_riic_lld.c ****             p_cfg->low_width = gs_riic_clk_base_param_66m[p_cfg->frequency][p_cfg->duty].low_width;
 113              		.loc 1 1109 13 is_stmt 1 view .LVU28
 114              		.loc 1 1109 89 is_stmt 0 view .LVU29
 115 00a0 080090E5 		ldr	r0, [r0, #8]
 116              		.loc 1 1109 30 view .LVU30
 117 00a4 180084E5 		str	r0, [r4, #24]
1110:../generate/sc_drivers/r_riic/src/lld/r_rza2_riic_lld.c ****             p_cfg->pclk_div = gs_riic_clk_base_param_66m[p_cfg->frequency][p_cfg->duty].pclk;
 118              		.loc 1 1110 13 is_stmt 1 view .LVU31
 119              		.loc 1 1110 88 is_stmt 0 view .LVU32
 120 00a8 022086E0 		add	r2, r6, r2
 121 00ac 021181E0 		add	r1, r1, r2, lsl #2
 122 00b0 0120DEE7 		ldrb	r2, [lr, r1]	@ zero_extendqisi2
 123              		.loc 1 1110 29 view .LVU33
 124 00b4 0420C4E5 		strb	r2, [r4, #4]
1111:../generate/sc_drivers/r_riic/src/lld/r_rza2_riic_lld.c ****             if (RIIC_PCLK_66MHZ != p_cfg->pclk)
 125              		.loc 1 1111 13 is_stmt 1 view .LVU34
 126              		.loc 1 1111 16 is_stmt 0 view .LVU35
 127 00b8 521DA0E3 		mov	r1, #5248
 128 00bc EF1340E3 		movt	r1, 1007
 129 00c0 010053E1 		cmp	r3, r1
1112:../generate/sc_drivers/r_riic/src/lld/r_rza2_riic_lld.c ****             {
1113:../generate/sc_drivers/r_riic/src/lld/r_rza2_riic_lld.c ****                 /* 33MHz, div rate 1/2 setting */
1114:../generate/sc_drivers/r_riic/src/lld/r_rza2_riic_lld.c ****                 p_cfg->pclk_div -= 1;
 130              		.loc 1 1114 17 is_stmt 1 view .LVU36
 131              		.loc 1 1114 33 is_stmt 0 view .LVU37
 132 00c4 01204212 		subne	r2, r2, #1
 133 00c8 0420C415 		strbne	r2, [r4, #4]
 134 00cc 440000EA 		b	.L5
 135              	.LVL5:
 136              	.L21:
1087:../generate/sc_drivers/r_riic/src/lld/r_rza2_riic_lld.c ****     {
 137              		.loc 1 1087 80 discriminator 1 view .LVU38
 138 00d0 0530D0E5 		ldrb	r3, [r0, #5]	@ zero_extendqisi2
1087:../generate/sc_drivers/r_riic/src/lld/r_rza2_riic_lld.c ****     {
 139              		.loc 1 1087 46 discriminator 1 view .LVU39
 140 00d4 000053E3 		cmp	r3, #0
1082:../generate/sc_drivers/r_riic/src/lld/r_rza2_riic_lld.c ****     uint32_t width_delay;
 141              		.loc 1 1082 11 view .LVU40
 142 00d8 0050A003 		moveq	r5, #0
 143 00dc CDFFFF0A 		beq	.L2
 144              	.L11:
1089:../generate/sc_drivers/r_riic/src/lld/r_rza2_riic_lld.c ****     }
 145              		.loc 1 1089 16 view .LVU41
 146 00e0 0050E0E3 		mvn	r5, #0
 147 00e4 CBFFFFEA 		b	.L2
 148              	.LVL6:
 149              	.L22:
1092:../generate/sc_drivers/r_riic/src/lld/r_rza2_riic_lld.c ****     {
 150              		.loc 1 1092 84 discriminator 1 view .LVU42
 151 00e8 1030D4E5 		ldrb	r3, [r4, #16]	@ zero_extendqisi2
1092:../generate/sc_drivers/r_riic/src/lld/r_rza2_riic_lld.c ****     {
 152              		.loc 1 1092 51 discriminator 1 view .LVU43
 153 00ec 000053E3 		cmp	r3, #0
1094:../generate/sc_drivers/r_riic/src/lld/r_rza2_riic_lld.c ****     }
 154              		.loc 1 1094 16 view .LVU44
 155 00f0 0050E013 		mvnne	r5, #0
 156              	.LVL7:
1094:../generate/sc_drivers/r_riic/src/lld/r_rza2_riic_lld.c ****     }
 157              		.loc 1 1094 16 view .LVU45
 158 00f4 CAFFFFEA 		b	.L3
 159              	.LVL8:
 160              	.L6:
1115:../generate/sc_drivers/r_riic/src/lld/r_rza2_riic_lld.c ****             }
1116:../generate/sc_drivers/r_riic/src/lld/r_rza2_riic_lld.c ****         }
1117:../generate/sc_drivers/r_riic/src/lld/r_rza2_riic_lld.c ****         else if ((RIIC_PCLK_60MHZ == p_cfg->pclk) || ((RIIC_PCLK_60MHZ / 2) == p_cfg->pclk))
 161              		.loc 1 1117 14 is_stmt 1 view .LVU46
 162              		.loc 1 1117 51 is_stmt 0 view .LVU47
 163 00f8 87CCA0E3 		mov	ip, #34560
 164 00fc 93C340E3 		movt	ip, 915
 165 0100 80030CE3 		movw	r0, #50048
 166 0104 C90140E3 		movt	r0, 457
 167              		.loc 1 1117 17 view .LVU48
 168 0108 000053E1 		cmp	r3, r0
 169 010c 0C005311 		cmpne	r3, ip
 170 0110 1500001A 		bne	.L7
1118:../generate/sc_drivers/r_riic/src/lld/r_rza2_riic_lld.c ****         {
1119:../generate/sc_drivers/r_riic/src/lld/r_rza2_riic_lld.c ****             p_cfg->high_width = gs_riic_clk_base_param_60m[p_cfg->frequency][p_cfg->duty].high_widt
 171              		.loc 1 1119 13 is_stmt 1 view .LVU49
 172              		.loc 1 1119 90 is_stmt 0 view .LVU50
 173 0114 00E000E3 		movw	lr, #:lower16:.LANCHOR1
 174 0118 00E040E3 		movt	lr, #:upper16:.LANCHOR1
 175 011c 8260A0E1 		lsl	r6, r2, #1
 176 0120 02C086E0 		add	ip, r6, r2
 177 0124 6C00A0E3 		mov	r0, #108
 178 0128 900101E0 		mul	r1, r0, r1
 179 012c 0C0181E0 		add	r0, r1, ip, lsl #2
 180 0130 00008EE0 		add	r0, lr, r0
 181 0134 04C090E5 		ldr	ip, [r0, #4]
 182              		.loc 1 1119 31 view .LVU51
 183 0138 14C084E5 		str	ip, [r4, #20]
1120:../generate/sc_drivers/r_riic/src/lld/r_rza2_riic_lld.c ****             p_cfg->low_width = gs_riic_clk_base_param_60m[p_cfg->frequency][p_cfg->duty].low_width;
 184              		.loc 1 1120 13 is_stmt 1 view .LVU52
 185              		.loc 1 1120 89 is_stmt 0 view .LVU53
 186 013c 080090E5 		ldr	r0, [r0, #8]
 187              		.loc 1 1120 30 view .LVU54
 188 0140 180084E5 		str	r0, [r4, #24]
1121:../generate/sc_drivers/r_riic/src/lld/r_rza2_riic_lld.c ****             p_cfg->pclk_div = gs_riic_clk_base_param_60m[p_cfg->frequency][p_cfg->duty].pclk;
 189              		.loc 1 1121 13 is_stmt 1 view .LVU55
 190              		.loc 1 1121 88 is_stmt 0 view .LVU56
 191 0144 022086E0 		add	r2, r6, r2
 192 0148 021181E0 		add	r1, r1, r2, lsl #2
 193 014c 0120DEE7 		ldrb	r2, [lr, r1]	@ zero_extendqisi2
 194              		.loc 1 1121 29 view .LVU57
 195 0150 0420C4E5 		strb	r2, [r4, #4]
1122:../generate/sc_drivers/r_riic/src/lld/r_rza2_riic_lld.c ****             if (RIIC_PCLK_60MHZ != p_cfg->pclk)
 196              		.loc 1 1122 13 is_stmt 1 view .LVU58
 197              		.loc 1 1122 16 is_stmt 0 view .LVU59
 198 0154 871CA0E3 		mov	r1, #34560
 199 0158 931340E3 		movt	r1, 915
 200 015c 010053E1 		cmp	r3, r1
1123:../generate/sc_drivers/r_riic/src/lld/r_rza2_riic_lld.c ****             {
1124:../generate/sc_drivers/r_riic/src/lld/r_rza2_riic_lld.c ****                 /* 30MHz, div rate 1/2 setting */
1125:../generate/sc_drivers/r_riic/src/lld/r_rza2_riic_lld.c ****                 p_cfg->pclk_div -= 1;
 201              		.loc 1 1125 17 is_stmt 1 view .LVU60
 202              		.loc 1 1125 33 is_stmt 0 view .LVU61
 203 0160 01204212 		subne	r2, r2, #1
 204 0164 0420C415 		strbne	r2, [r4, #4]
 205 0168 1D0000EA 		b	.L5
 206              	.L7:
1126:../generate/sc_drivers/r_riic/src/lld/r_rza2_riic_lld.c ****             }
1127:../generate/sc_drivers/r_riic/src/lld/r_rza2_riic_lld.c ****         }
1128:../generate/sc_drivers/r_riic/src/lld/r_rza2_riic_lld.c ****         else if ((RIIC_PCLK_55MHZ == p_cfg->pclk) || ((RIIC_PCLK_55MHZ / 2) == p_cfg->pclk))
 207              		.loc 1 1128 14 is_stmt 1 view .LVU62
 208              		.loc 1 1128 51 is_stmt 0 view .LVU63
 209 016c EFCDA0E3 		mov	ip, #15296
 210 0170 47C340E3 		movt	ip, 839
 211 0174 E00D09E3 		movw	r0, #40416
 212 0178 A30140E3 		movt	r0, 419
 213              		.loc 1 1128 17 view .LVU64
 214 017c 000053E1 		cmp	r3, r0
 215 0180 0C005311 		cmpne	r3, ip
 216 0184 2B00001A 		bne	.L14
1129:../generate/sc_drivers/r_riic/src/lld/r_rza2_riic_lld.c ****         {
1130:../generate/sc_drivers/r_riic/src/lld/r_rza2_riic_lld.c ****             p_cfg->high_width = gs_riic_clk_base_param_55m[p_cfg->frequency][p_cfg->duty].high_widt
 217              		.loc 1 1130 13 is_stmt 1 view .LVU65
 218              		.loc 1 1130 90 is_stmt 0 view .LVU66
 219 0188 00E000E3 		movw	lr, #:lower16:.LANCHOR2
 220 018c 00E040E3 		movt	lr, #:upper16:.LANCHOR2
 221 0190 8260A0E1 		lsl	r6, r2, #1
 222 0194 02C086E0 		add	ip, r6, r2
 223 0198 6C00A0E3 		mov	r0, #108
 224 019c 900101E0 		mul	r1, r0, r1
 225 01a0 0C0181E0 		add	r0, r1, ip, lsl #2
 226 01a4 00008EE0 		add	r0, lr, r0
 227 01a8 04C090E5 		ldr	ip, [r0, #4]
 228              		.loc 1 1130 31 view .LVU67
 229 01ac 14C084E5 		str	ip, [r4, #20]
1131:../generate/sc_drivers/r_riic/src/lld/r_rza2_riic_lld.c ****             p_cfg->low_width = gs_riic_clk_base_param_55m[p_cfg->frequency][p_cfg->duty].low_width;
 230              		.loc 1 1131 13 is_stmt 1 view .LVU68
 231              		.loc 1 1131 89 is_stmt 0 view .LVU69
 232 01b0 080090E5 		ldr	r0, [r0, #8]
 233              		.loc 1 1131 30 view .LVU70
 234 01b4 180084E5 		str	r0, [r4, #24]
1132:../generate/sc_drivers/r_riic/src/lld/r_rza2_riic_lld.c ****             p_cfg->pclk_div = gs_riic_clk_base_param_55m[p_cfg->frequency][p_cfg->duty].pclk;
 235              		.loc 1 1132 13 is_stmt 1 view .LVU71
 236              		.loc 1 1132 88 is_stmt 0 view .LVU72
 237 01b8 022086E0 		add	r2, r6, r2
 238 01bc 021181E0 		add	r1, r1, r2, lsl #2
 239 01c0 0120DEE7 		ldrb	r2, [lr, r1]	@ zero_extendqisi2
 240              		.loc 1 1132 29 view .LVU73
 241 01c4 0420C4E5 		strb	r2, [r4, #4]
1133:../generate/sc_drivers/r_riic/src/lld/r_rza2_riic_lld.c ****             if (RIIC_PCLK_55MHZ != p_cfg->pclk)
 242              		.loc 1 1133 13 is_stmt 1 view .LVU74
 243              		.loc 1 1133 16 is_stmt 0 view .LVU75
 244 01c8 EF1DA0E3 		mov	r1, #15296
 245 01cc 471340E3 		movt	r1, 839
 246 01d0 010053E1 		cmp	r3, r1
1134:../generate/sc_drivers/r_riic/src/lld/r_rza2_riic_lld.c ****             {
1135:../generate/sc_drivers/r_riic/src/lld/r_rza2_riic_lld.c ****                 /* 27.5MHz, div rate 1/2 setting */
1136:../generate/sc_drivers/r_riic/src/lld/r_rza2_riic_lld.c ****                 p_cfg->pclk_div -= 1;
 247              		.loc 1 1136 17 is_stmt 1 view .LVU76
 248              		.loc 1 1136 33 is_stmt 0 view .LVU77
 249 01d4 01204212 		subne	r2, r2, #1
 250 01d8 0420C415 		strbne	r2, [r4, #4]
 251 01dc 000000EA 		b	.L5
 252              	.LVL9:
 253              	.L13:
1100:../generate/sc_drivers/r_riic/src/lld/r_rza2_riic_lld.c ****     }
 254              		.loc 1 1100 16 view .LVU78
 255 01e0 0050E0E3 		mvn	r5, #0
 256              	.LVL10:
 257              	.L5:
1137:../generate/sc_drivers/r_riic/src/lld/r_rza2_riic_lld.c ****             }
1138:../generate/sc_drivers/r_riic/src/lld/r_rza2_riic_lld.c ****         }
1139:../generate/sc_drivers/r_riic/src/lld/r_rza2_riic_lld.c ****         else
1140:../generate/sc_drivers/r_riic/src/lld/r_rza2_riic_lld.c ****         {
1141:../generate/sc_drivers/r_riic/src/lld/r_rza2_riic_lld.c ****             retval = DRV_ERROR;
1142:../generate/sc_drivers/r_riic/src/lld/r_rza2_riic_lld.c ****         }
1143:../generate/sc_drivers/r_riic/src/lld/r_rza2_riic_lld.c ****     }
1144:../generate/sc_drivers/r_riic/src/lld/r_rza2_riic_lld.c **** 
1145:../generate/sc_drivers/r_riic/src/lld/r_rza2_riic_lld.c ****     /* Calculate the time per clock of SCL */
1146:../generate/sc_drivers/r_riic/src/lld/r_rza2_riic_lld.c ****     if (DRV_SUCCESS == retval)
 258              		.loc 1 1146 5 is_stmt 1 view .LVU79
 259              		.loc 1 1146 8 is_stmt 0 view .LVU80
 260 01e4 000055E3 		cmp	r5, #0
 261 01e8 1500001A 		bne	.L15
1147:../generate/sc_drivers/r_riic/src/lld/r_rza2_riic_lld.c ****     {
1148:../generate/sc_drivers/r_riic/src/lld/r_rza2_riic_lld.c ****         unit_time = ((RIIC_UNIT_TIME_SCL * RIIC_UNIT_PCLK_HZ) / p_cfg->pclk) * (1 << (p_cfg->pclk_d
 262              		.loc 1 1148 9 is_stmt 1 view .LVU81
 263              		.loc 1 1148 63 is_stmt 0 view .LVU82
 264 01ec 001094E5 		ldr	r1, [r4]
 265 01f0 CE0DA0E3 		mov	r0, #13184
 266 01f4 020B43E3 		movt	r0, 15106
 267 01f8 FEFFFFEB 		bl	__aeabi_uidiv
 268              	.LVL11:
 269              		.loc 1 1148 92 view .LVU83
 270 01fc 0460D4E5 		ldrb	r6, [r4, #4]	@ zero_extendqisi2
 271              		.loc 1 1148 19 view .LVU84
 272 0200 1066A0E1 		lsl	r6, r0, r6
 273              	.LVL12:
1149:../generate/sc_drivers/r_riic/src/lld/r_rza2_riic_lld.c **** 
1150:../generate/sc_drivers/r_riic/src/lld/r_rza2_riic_lld.c ****         /* Calculate how much rise_time corresponds to unit of SCL width */
1151:../generate/sc_drivers/r_riic/src/lld/r_rza2_riic_lld.c ****         width_delay = (p_cfg->rise_time / unit_time);
 274              		.loc 1 1151 9 is_stmt 1 view .LVU85
 275              		.loc 1 1151 21 is_stmt 0 view .LVU86
 276 0204 0610A0E1 		mov	r1, r6
 277 0208 080094E5 		ldr	r0, [r4, #8]
 278 020c FEFFFFEB 		bl	__aeabi_uidiv
 279              	.LVL13:
1152:../generate/sc_drivers/r_riic/src/lld/r_rza2_riic_lld.c **** 
1153:../generate/sc_drivers/r_riic/src/lld/r_rza2_riic_lld.c ****         if ((p_cfg->high_width >= (width_delay + p_cfg->noise_filter_stage))
 280              		.loc 1 1153 9 is_stmt 1 view .LVU87
 281              		.loc 1 1153 19 is_stmt 0 view .LVU88
 282 0210 143094E5 		ldr	r3, [r4, #20]
 283              		.loc 1 1153 55 view .LVU89
 284 0214 1020D4E5 		ldrb	r2, [r4, #16]	@ zero_extendqisi2
 285              		.loc 1 1153 48 view .LVU90
 286 0218 000082E0 		add	r0, r2, r0
 287              	.LVL14:
 288              		.loc 1 1153 12 view .LVU91
 289 021c 000053E1 		cmp	r3, r0
 290 0220 1800003A 		bcc	.L16
1154:../generate/sc_drivers/r_riic/src/lld/r_rza2_riic_lld.c ****                 && (RIIC_BITRATE_REG_MAX >= (p_cfg->high_width - (width_delay + p_cfg->noise_filter
 291              		.loc 1 1154 64 view .LVU92
 292 0224 003043E0 		sub	r3, r3, r0
 293              		.loc 1 1154 17 view .LVU93
 294 0228 1F0053E3 		cmp	r3, #31
 295 022c 1700008A 		bhi	.L17
1155:../generate/sc_drivers/r_riic/src/lld/r_rza2_riic_lld.c ****         {
1156:../generate/sc_drivers/r_riic/src/lld/r_rza2_riic_lld.c ****             /* As the width widens by rise_time and filter steps, 
1157:../generate/sc_drivers/r_riic/src/lld/r_rza2_riic_lld.c ****                subtract them */
1158:../generate/sc_drivers/r_riic/src/lld/r_rza2_riic_lld.c ****             p_cfg->high_width -= ((uint32_t) width_delay + p_cfg->noise_filter_stage);
 296              		.loc 1 1158 13 is_stmt 1 view .LVU94
 297              		.loc 1 1158 31 is_stmt 0 view .LVU95
 298 0230 143084E5 		str	r3, [r4, #20]
 299 0234 030000EA 		b	.L8
 300              	.LVL15:
 301              	.L14:
1084:../generate/sc_drivers/r_riic/src/lld/r_rza2_riic_lld.c **** 
 302              		.loc 1 1084 14 view .LVU96
 303 0238 0060A0E3 		mov	r6, #0
1141:../generate/sc_drivers/r_riic/src/lld/r_rza2_riic_lld.c ****         }
 304              		.loc 1 1141 20 view .LVU97
 305 023c 0050E0E3 		mvn	r5, #0
 306              	.LVL16:
1141:../generate/sc_drivers/r_riic/src/lld/r_rza2_riic_lld.c ****         }
 307              		.loc 1 1141 20 view .LVU98
 308 0240 000000EA 		b	.L8
 309              	.LVL17:
 310              	.L15:
1084:../generate/sc_drivers/r_riic/src/lld/r_rza2_riic_lld.c **** 
 311              		.loc 1 1084 14 view .LVU99
 312 0244 0060A0E3 		mov	r6, #0
 313              	.LVL18:
 314              	.L8:
1159:../generate/sc_drivers/r_riic/src/lld/r_rza2_riic_lld.c ****         }
1160:../generate/sc_drivers/r_riic/src/lld/r_rza2_riic_lld.c ****         else
1161:../generate/sc_drivers/r_riic/src/lld/r_rza2_riic_lld.c ****         {
1162:../generate/sc_drivers/r_riic/src/lld/r_rza2_riic_lld.c ****             retval = DRV_ERROR;
1163:../generate/sc_drivers/r_riic/src/lld/r_rza2_riic_lld.c ****         }
1164:../generate/sc_drivers/r_riic/src/lld/r_rza2_riic_lld.c ****     }
1165:../generate/sc_drivers/r_riic/src/lld/r_rza2_riic_lld.c **** 
1166:../generate/sc_drivers/r_riic/src/lld/r_rza2_riic_lld.c ****     if (DRV_SUCCESS == retval)
 315              		.loc 1 1166 5 is_stmt 1 view .LVU100
 316              		.loc 1 1166 8 is_stmt 0 view .LVU101
 317 0248 000055E3 		cmp	r5, #0
 318 024c 0B00001A 		bne	.L1
1167:../generate/sc_drivers/r_riic/src/lld/r_rza2_riic_lld.c ****     {
1168:../generate/sc_drivers/r_riic/src/lld/r_rza2_riic_lld.c ****         /* Calculate how much fall_time corresponds to unit of SCL width */
1169:../generate/sc_drivers/r_riic/src/lld/r_rza2_riic_lld.c ****         width_delay = (p_cfg->fall_time / unit_time);
 319              		.loc 1 1169 9 is_stmt 1 view .LVU102
 320              		.loc 1 1169 21 is_stmt 0 view .LVU103
 321 0250 0610A0E1 		mov	r1, r6
 322 0254 0C0094E5 		ldr	r0, [r4, #12]
 323 0258 FEFFFFEB 		bl	__aeabi_uidiv
 324              	.LVL19:
1170:../generate/sc_drivers/r_riic/src/lld/r_rza2_riic_lld.c **** 
1171:../generate/sc_drivers/r_riic/src/lld/r_rza2_riic_lld.c ****         if ((p_cfg->low_width >= (width_delay + p_cfg->noise_filter_stage))
 325              		.loc 1 1171 9 is_stmt 1 view .LVU104
 326              		.loc 1 1171 19 is_stmt 0 view .LVU105
 327 025c 183094E5 		ldr	r3, [r4, #24]
 328              		.loc 1 1171 54 view .LVU106
 329 0260 1020D4E5 		ldrb	r2, [r4, #16]	@ zero_extendqisi2
 330              		.loc 1 1171 47 view .LVU107
 331 0264 000082E0 		add	r0, r2, r0
 332              	.LVL20:
 333              		.loc 1 1171 12 view .LVU108
 334 0268 000053E1 		cmp	r3, r0
 335 026c 0900003A 		bcc	.L18
1172:../generate/sc_drivers/r_riic/src/lld/r_rza2_riic_lld.c ****                 && (RIIC_BITRATE_REG_MAX >= (p_cfg->low_width - (width_delay + p_cfg->noise_filter_
 336              		.loc 1 1172 63 view .LVU109
 337 0270 003043E0 		sub	r3, r3, r0
 338              		.loc 1 1172 17 view .LVU110
 339 0274 1F0053E3 		cmp	r3, #31
 340 0278 0800008A 		bhi	.L19
1173:../generate/sc_drivers/r_riic/src/lld/r_rza2_riic_lld.c ****         {
1174:../generate/sc_drivers/r_riic/src/lld/r_rza2_riic_lld.c ****             /* As the width widens by rise_time and filter steps, subtract them */
1175:../generate/sc_drivers/r_riic/src/lld/r_rza2_riic_lld.c ****             p_cfg->low_width -= ((uint32_t) width_delay + p_cfg->noise_filter_stage);
 341              		.loc 1 1175 13 is_stmt 1 view .LVU111
 342              		.loc 1 1175 30 is_stmt 0 view .LVU112
 343 027c 183084E5 		str	r3, [r4, #24]
 344              	.LVL21:
 345              	.L1:
1176:../generate/sc_drivers/r_riic/src/lld/r_rza2_riic_lld.c ****         }
1177:../generate/sc_drivers/r_riic/src/lld/r_rza2_riic_lld.c ****         else
1178:../generate/sc_drivers/r_riic/src/lld/r_rza2_riic_lld.c ****         {
1179:../generate/sc_drivers/r_riic/src/lld/r_rza2_riic_lld.c ****             retval = DRV_ERROR;
1180:../generate/sc_drivers/r_riic/src/lld/r_rza2_riic_lld.c ****         }
1181:../generate/sc_drivers/r_riic/src/lld/r_rza2_riic_lld.c ****     }
1182:../generate/sc_drivers/r_riic/src/lld/r_rza2_riic_lld.c **** 
1183:../generate/sc_drivers/r_riic/src/lld/r_rza2_riic_lld.c ****     return retval;
1184:../generate/sc_drivers/r_riic/src/lld/r_rza2_riic_lld.c **** }
 346              		.loc 1 1184 1 view .LVU113
 347 0280 0500A0E1 		mov	r0, r5
 348 0284 7080BDE8 		pop	{r4, r5, r6, pc}
 349              	.LVL22:
 350              	.L16:
1162:../generate/sc_drivers/r_riic/src/lld/r_rza2_riic_lld.c ****         }
 351              		.loc 1 1162 20 view .LVU114
 352 0288 0050E0E3 		mvn	r5, #0
 353              	.LVL23:
1162:../generate/sc_drivers/r_riic/src/lld/r_rza2_riic_lld.c ****         }
 354              		.loc 1 1162 20 view .LVU115
 355 028c FBFFFFEA 		b	.L1
 356              	.LVL24:
 357              	.L17:
1162:../generate/sc_drivers/r_riic/src/lld/r_rza2_riic_lld.c ****         }
 358              		.loc 1 1162 20 view .LVU116
 359 0290 0050E0E3 		mvn	r5, #0
 360              	.LVL25:
1162:../generate/sc_drivers/r_riic/src/lld/r_rza2_riic_lld.c ****         }
 361              		.loc 1 1162 20 view .LVU117
 362 0294 F9FFFFEA 		b	.L1
 363              	.LVL26:
 364              	.L18:
1179:../generate/sc_drivers/r_riic/src/lld/r_rza2_riic_lld.c ****         }
 365              		.loc 1 1179 20 view .LVU118
 366 0298 0050E0E3 		mvn	r5, #0
 367              	.LVL27:
1179:../generate/sc_drivers/r_riic/src/lld/r_rza2_riic_lld.c ****         }
 368              		.loc 1 1179 20 view .LVU119
 369 029c F7FFFFEA 		b	.L1
 370              	.LVL28:
 371              	.L19:
1179:../generate/sc_drivers/r_riic/src/lld/r_rza2_riic_lld.c ****         }
 372              		.loc 1 1179 20 view .LVU120
 373 02a0 0050E0E3 		mvn	r5, #0
 374              	.LVL29:
1183:../generate/sc_drivers/r_riic/src/lld/r_rza2_riic_lld.c **** }
 375              		.loc 1 1183 5 is_stmt 1 view .LVU121
1183:../generate/sc_drivers/r_riic/src/lld/r_rza2_riic_lld.c **** }
 376              		.loc 1 1183 12 is_stmt 0 view .LVU122
 377 02a4 F5FFFFEA 		b	.L1
 378              		.cfi_endproc
 379              	.LFE30:
 381              		.section	.text.riic_set_reset,"ax",%progbits
 382              		.align	2
 383              		.syntax unified
 384              		.arm
 385              		.fpu neon
 387              	riic_set_reset:
 388              	.LVL30:
 389              	.LFB31:
1185:../generate/sc_drivers/r_riic/src/lld/r_rza2_riic_lld.c **** /******************************************************************************
1186:../generate/sc_drivers/r_riic/src/lld/r_rza2_riic_lld.c ****  * End of Function riic_adjust_scl_clk
1187:../generate/sc_drivers/r_riic/src/lld/r_rza2_riic_lld.c ****  *****************************************************************************/
1188:../generate/sc_drivers/r_riic/src/lld/r_rza2_riic_lld.c **** 
1189:../generate/sc_drivers/r_riic/src/lld/r_rza2_riic_lld.c **** /******************************************************************************
1190:../generate/sc_drivers/r_riic/src/lld/r_rza2_riic_lld.c **** * Function Name: riic_set_reset
1191:../generate/sc_drivers/r_riic/src/lld/r_rza2_riic_lld.c **** * Description  : Resets an RIIC channel HW.
1192:../generate/sc_drivers/r_riic/src/lld/r_rza2_riic_lld.c **** * Arguments    : channel - RIIC channel to be reset.
1193:../generate/sc_drivers/r_riic/src/lld/r_rza2_riic_lld.c **** * Return Value : DRV_SUCCESS - Success(always).
1194:../generate/sc_drivers/r_riic/src/lld/r_rza2_riic_lld.c **** ******************************************************************************/
1195:../generate/sc_drivers/r_riic/src/lld/r_rza2_riic_lld.c **** static int_t riic_set_reset (int_t channel)
1196:../generate/sc_drivers/r_riic/src/lld/r_rza2_riic_lld.c **** {
 390              		.loc 1 1196 1 is_stmt 1 view -0
 391              		.cfi_startproc
 392              		@ args = 0, pretend = 0, frame = 0
 393              		@ frame_needed = 0, uses_anonymous_args = 0
 394              		.loc 1 1196 1 is_stmt 0 view .LVU124
 395 0000 10402DE9 		push	{r4, lr}
 396              		.cfi_def_cfa_offset 8
 397              		.cfi_offset 4, -8
 398              		.cfi_offset 14, -4
1197:../generate/sc_drivers/r_riic/src/lld/r_rza2_riic_lld.c **** 
1198:../generate/sc_drivers/r_riic/src/lld/r_rza2_riic_lld.c ****     /* get lock */
1199:../generate/sc_drivers/r_riic/src/lld/r_rza2_riic_lld.c ****     RZA_IO_RegWrite_32((volatile uint32_t *) &gsp_riic[channel]->ICCR1.LONG, (uint32_t) 0, RIIC_ICC
 399              		.loc 1 1199 5 is_stmt 1 view .LVU125
 400              		.loc 1 1199 55 is_stmt 0 view .LVU126
 401 0004 003000E3 		movw	r3, #:lower16:.LANCHOR3
 402 0008 003040E3 		movt	r3, #:upper16:.LANCHOR3
 403 000c 004193E7 		ldr	r4, [r3, r0, lsl #2]
 404              		.loc 1 1199 5 view .LVU127
 405 0010 8030A0E3 		mov	r3, #128
 406 0014 0720A0E3 		mov	r2, #7
 407 0018 0010A0E3 		mov	r1, #0
 408 001c 0400A0E1 		mov	r0, r4
 409              	.LVL31:
 410              		.loc 1 1199 5 view .LVU128
 411 0020 FEFFFFEB 		bl	RZA_IO_RegWrite_32
 412              	.LVL32:
1200:../generate/sc_drivers/r_riic/src/lld/r_rza2_riic_lld.c ****     RIIC_ICCR1_ICE);
1201:../generate/sc_drivers/r_riic/src/lld/r_rza2_riic_lld.c **** 
1202:../generate/sc_drivers/r_riic/src/lld/r_rza2_riic_lld.c ****     /* Reset */
1203:../generate/sc_drivers/r_riic/src/lld/r_rza2_riic_lld.c ****     RZA_IO_RegWrite_32((volatile uint32_t *) &gsp_riic[channel]->ICCR1.LONG, (uint32_t) 1, RIIC_ICC
 413              		.loc 1 1203 5 is_stmt 1 view .LVU129
 414 0024 4030A0E3 		mov	r3, #64
 415 0028 0620A0E3 		mov	r2, #6
 416 002c 0110A0E3 		mov	r1, #1
 417 0030 0400A0E1 		mov	r0, r4
 418 0034 FEFFFFEB 		bl	RZA_IO_RegWrite_32
 419              	.LVL33:
1204:../generate/sc_drivers/r_riic/src/lld/r_rza2_riic_lld.c ****     RIIC_ICCR1_IICRST);
1205:../generate/sc_drivers/r_riic/src/lld/r_rza2_riic_lld.c **** 
1206:../generate/sc_drivers/r_riic/src/lld/r_rza2_riic_lld.c ****     /* release lock*/
1207:../generate/sc_drivers/r_riic/src/lld/r_rza2_riic_lld.c ****     RZA_IO_RegWrite_32((volatile uint32_t *) &gsp_riic[channel]->ICCR1.LONG, (uint32_t) 1, RIIC_ICC
 420              		.loc 1 1207 5 view .LVU130
 421 0038 8030A0E3 		mov	r3, #128
 422 003c 0720A0E3 		mov	r2, #7
 423 0040 0110A0E3 		mov	r1, #1
 424 0044 0400A0E1 		mov	r0, r4
 425 0048 FEFFFFEB 		bl	RZA_IO_RegWrite_32
 426              	.LVL34:
1208:../generate/sc_drivers/r_riic/src/lld/r_rza2_riic_lld.c ****     RIIC_ICCR1_ICE);
1209:../generate/sc_drivers/r_riic/src/lld/r_rza2_riic_lld.c **** 
1210:../generate/sc_drivers/r_riic/src/lld/r_rza2_riic_lld.c ****     return DRV_SUCCESS;
 427              		.loc 1 1210 5 view .LVU131
1211:../generate/sc_drivers/r_riic/src/lld/r_rza2_riic_lld.c **** }
 428              		.loc 1 1211 1 is_stmt 0 view .LVU132
 429 004c 0000A0E3 		mov	r0, #0
 430 0050 1080BDE8 		pop	{r4, pc}
 431              		.cfi_endproc
 432              	.LFE31:
 434              		.section	.text.riic_register_slave_addrss,"ax",%progbits
 435              		.align	2
 436              		.syntax unified
 437              		.arm
 438              		.fpu neon
 440              	riic_register_slave_addrss:
 441              	.LVL35:
 442              	.LFB33:
1212:../generate/sc_drivers/r_riic/src/lld/r_rza2_riic_lld.c **** /******************************************************************************
1213:../generate/sc_drivers/r_riic/src/lld/r_rza2_riic_lld.c ****  * End of Function riic_set_reset
1214:../generate/sc_drivers/r_riic/src/lld/r_rza2_riic_lld.c ****  *****************************************************************************/
1215:../generate/sc_drivers/r_riic/src/lld/r_rza2_riic_lld.c **** 
1216:../generate/sc_drivers/r_riic/src/lld/r_rza2_riic_lld.c **** /******************************************************************************
1217:../generate/sc_drivers/r_riic/src/lld/r_rza2_riic_lld.c **** * Function Name: riic_release_reset
1218:../generate/sc_drivers/r_riic/src/lld/r_rza2_riic_lld.c **** * Description  : Release resets an RIIC channel HW.
1219:../generate/sc_drivers/r_riic/src/lld/r_rza2_riic_lld.c **** * Arguments    : channel - RIIC channel to release reset.
1220:../generate/sc_drivers/r_riic/src/lld/r_rza2_riic_lld.c **** * Return Value : DRV_SUCCESS - Success(always).
1221:../generate/sc_drivers/r_riic/src/lld/r_rza2_riic_lld.c **** ******************************************************************************/
1222:../generate/sc_drivers/r_riic/src/lld/r_rza2_riic_lld.c **** static int_t riic_release_reset (int_t channel)
1223:../generate/sc_drivers/r_riic/src/lld/r_rza2_riic_lld.c **** {
1224:../generate/sc_drivers/r_riic/src/lld/r_rza2_riic_lld.c **** 
1225:../generate/sc_drivers/r_riic/src/lld/r_rza2_riic_lld.c ****     /* Release Reset */
1226:../generate/sc_drivers/r_riic/src/lld/r_rza2_riic_lld.c ****     RZA_IO_RegWrite_32((volatile uint32_t *) &gsp_riic[channel]->ICCR1.LONG, (uint32_t) 0, RIIC_ICC
1227:../generate/sc_drivers/r_riic/src/lld/r_rza2_riic_lld.c ****     RIIC_ICCR1_IICRST);
1228:../generate/sc_drivers/r_riic/src/lld/r_rza2_riic_lld.c **** 
1229:../generate/sc_drivers/r_riic/src/lld/r_rza2_riic_lld.c ****     return DRV_SUCCESS;
1230:../generate/sc_drivers/r_riic/src/lld/r_rza2_riic_lld.c **** }
1231:../generate/sc_drivers/r_riic/src/lld/r_rza2_riic_lld.c **** /******************************************************************************
1232:../generate/sc_drivers/r_riic/src/lld/r_rza2_riic_lld.c ****  * End of Function riic_release_reset
1233:../generate/sc_drivers/r_riic/src/lld/r_rza2_riic_lld.c ****  *****************************************************************************/
1234:../generate/sc_drivers/r_riic/src/lld/r_rza2_riic_lld.c **** 
1235:../generate/sc_drivers/r_riic/src/lld/r_rza2_riic_lld.c **** /******************************************************************************
1236:../generate/sc_drivers/r_riic/src/lld/r_rza2_riic_lld.c **** * Function Name: riic_register_slave_addrss
1237:../generate/sc_drivers/r_riic/src/lld/r_rza2_riic_lld.c **** * Description  : Register slave address for the RIIC channel.
1238:../generate/sc_drivers/r_riic/src/lld/r_rza2_riic_lld.c **** *                This function is called only when operating in slave mode.
1239:../generate/sc_drivers/r_riic/src/lld/r_rza2_riic_lld.c **** *                The 3registered addresses are detected in parallel.
1240:../generate/sc_drivers/r_riic/src/lld/r_rza2_riic_lld.c **** * Arguments    : channel - RIIC channel to resigter slave address.
1241:../generate/sc_drivers/r_riic/src/lld/r_rza2_riic_lld.c **** *                *p_cfg - RIIC configure parameter.
1242:../generate/sc_drivers/r_riic/src/lld/r_rza2_riic_lld.c **** * Return Value : DRV_SUCCESS - Success(always).
1243:../generate/sc_drivers/r_riic/src/lld/r_rza2_riic_lld.c **** ******************************************************************************/
1244:../generate/sc_drivers/r_riic/src/lld/r_rza2_riic_lld.c **** static int_t riic_register_slave_addrss (int_t channel, st_riic_config_t *p_cfg)
1245:../generate/sc_drivers/r_riic/src/lld/r_rza2_riic_lld.c **** {
 443              		.loc 1 1245 1 is_stmt 1 view -0
 444              		.cfi_startproc
 445              		@ args = 0, pretend = 0, frame = 0
 446              		@ frame_needed = 0, uses_anonymous_args = 0
 447              		.loc 1 1245 1 is_stmt 0 view .LVU134
 448 0000 70402DE9 		push	{r4, r5, r6, lr}
 449              		.cfi_def_cfa_offset 16
 450              		.cfi_offset 4, -16
 451              		.cfi_offset 5, -12
 452              		.cfi_offset 6, -8
 453              		.cfi_offset 14, -4
1246:../generate/sc_drivers/r_riic/src/lld/r_rza2_riic_lld.c **** #if (RIIC_MODE_SLAVE_IMPLEMENTED == 1)
1247:../generate/sc_drivers/r_riic/src/lld/r_rza2_riic_lld.c ****     uint32_t addr_num;
1248:../generate/sc_drivers/r_riic/src/lld/r_rza2_riic_lld.c **** 
1249:../generate/sc_drivers/r_riic/src/lld/r_rza2_riic_lld.c ****     if (RIIC_MODE_SLAVE == p_cfg->riic_mode)
1250:../generate/sc_drivers/r_riic/src/lld/r_rza2_riic_lld.c ****     {
1251:../generate/sc_drivers/r_riic/src/lld/r_rza2_riic_lld.c ****         for (addr_num = 0; addr_num < RIIC_SLAVE_ADDR_NUM_MAX; addr_num++)
1252:../generate/sc_drivers/r_riic/src/lld/r_rza2_riic_lld.c ****         {
1253:../generate/sc_drivers/r_riic/src/lld/r_rza2_riic_lld.c ****             if (false == p_cfg->slave_address_enable[addr_num])
1254:../generate/sc_drivers/r_riic/src/lld/r_rza2_riic_lld.c ****             {
1255:../generate/sc_drivers/r_riic/src/lld/r_rza2_riic_lld.c ****                 /* clear slave address */
1256:../generate/sc_drivers/r_riic/src/lld/r_rza2_riic_lld.c ****                 switch (addr_num)
1257:../generate/sc_drivers/r_riic/src/lld/r_rza2_riic_lld.c ****                 {
1258:../generate/sc_drivers/r_riic/src/lld/r_rza2_riic_lld.c ****                     case RIIC_SLAVE_ADDR_NUM_0:
1259:../generate/sc_drivers/r_riic/src/lld/r_rza2_riic_lld.c ****                     {
1260:../generate/sc_drivers/r_riic/src/lld/r_rza2_riic_lld.c ****                         /* clear slave address */
1261:../generate/sc_drivers/r_riic/src/lld/r_rza2_riic_lld.c ****                         RZA_IO_RegWrite_32((volatile uint32_t *) &gsp_riic[channel]->ICSER.LONG, (u
1262:../generate/sc_drivers/r_riic/src/lld/r_rza2_riic_lld.c ****                                             RIIC_ICSER_SAR0_SHIFT, RIIC_ICSER_SAR0);
1263:../generate/sc_drivers/r_riic/src/lld/r_rza2_riic_lld.c **** 
1264:../generate/sc_drivers/r_riic/src/lld/r_rza2_riic_lld.c ****                         /* cast to volatile uint32_t pointer */
1265:../generate/sc_drivers/r_riic/src/lld/r_rza2_riic_lld.c ****                         RZA_IO_RegWrite_32((volatile uint32_t *) &gsp_riic[channel]->ICSAR0.LONG, (
1266:../generate/sc_drivers/r_riic/src/lld/r_rza2_riic_lld.c ****                                             IOREG_NONSHIFT_ACCESS, IOREG_NONMASK_ACCESS);
1267:../generate/sc_drivers/r_riic/src/lld/r_rza2_riic_lld.c ****                     }
1268:../generate/sc_drivers/r_riic/src/lld/r_rza2_riic_lld.c ****                     break;
1269:../generate/sc_drivers/r_riic/src/lld/r_rza2_riic_lld.c **** 
1270:../generate/sc_drivers/r_riic/src/lld/r_rza2_riic_lld.c ****                     case RIIC_SLAVE_ADDR_NUM_1:
1271:../generate/sc_drivers/r_riic/src/lld/r_rza2_riic_lld.c ****                     {
1272:../generate/sc_drivers/r_riic/src/lld/r_rza2_riic_lld.c ****                         /* clear slave address */
1273:../generate/sc_drivers/r_riic/src/lld/r_rza2_riic_lld.c ****                         RZA_IO_RegWrite_32((volatile uint32t *) &gsp_riic[channel]->ICSER.LONG, (ui
1274:../generate/sc_drivers/r_riic/src/lld/r_rza2_riic_lld.c ****                                             RIIC_ICSER_SAR1_SHIFT, RIIC_ICSER_SAR1);
1275:../generate/sc_drivers/r_riic/src/lld/r_rza2_riic_lld.c **** 
1276:../generate/sc_drivers/r_riic/src/lld/r_rza2_riic_lld.c ****                         /* cast to volatile uint32_t pointer */
1277:../generate/sc_drivers/r_riic/src/lld/r_rza2_riic_lld.c ****                         RZA_IO_RegWrite_32((volatile uint32_t *) &gsp_riic[channel]->ICSAR1.LONG, (
1278:../generate/sc_drivers/r_riic/src/lld/r_rza2_riic_lld.c ****                                             IOREG_NONSHIFT_ACCESS, IOREG_NONMASK_ACCESS);
1279:../generate/sc_drivers/r_riic/src/lld/r_rza2_riic_lld.c ****                     }
1280:../generate/sc_drivers/r_riic/src/lld/r_rza2_riic_lld.c ****                     break;
1281:../generate/sc_drivers/r_riic/src/lld/r_rza2_riic_lld.c **** 
1282:../generate/sc_drivers/r_riic/src/lld/r_rza2_riic_lld.c ****                     case RIIC_SLAVE_ADDR_NUM_2:
1283:../generate/sc_drivers/r_riic/src/lld/r_rza2_riic_lld.c ****                     {
1284:../generate/sc_drivers/r_riic/src/lld/r_rza2_riic_lld.c ****                         /* clear slave address */
1285:../generate/sc_drivers/r_riic/src/lld/r_rza2_riic_lld.c ****                         RZA_IO_RegWrite_32((volatile uint32_t *) &gsp_riic[channel]->ICSER.LONG, (u
1286:../generate/sc_drivers/r_riic/src/lld/r_rza2_riic_lld.c ****                                             RIIC_ICSER_SAR2_SHIFT, RIIC_ICSER_SAR2);
1287:../generate/sc_drivers/r_riic/src/lld/r_rza2_riic_lld.c **** 
1288:../generate/sc_drivers/r_riic/src/lld/r_rza2_riic_lld.c ****                         /* cast to volatile uint32_t pointer */
1289:../generate/sc_drivers/r_riic/src/lld/r_rza2_riic_lld.c ****                         RZA_IO_RegWrite_32((volatile uint32_t *) &gsp_riic[channel]->ICSAR2.LONG, (
1290:../generate/sc_drivers/r_riic/src/lld/r_rza2_riic_lld.c ****                                             IOREG_NONSHIFT_ACCESS, IOREG_NONMASK_ACCESS);
1291:../generate/sc_drivers/r_riic/src/lld/r_rza2_riic_lld.c ****                     }
1292:../generate/sc_drivers/r_riic/src/lld/r_rza2_riic_lld.c ****                     break;
1293:../generate/sc_drivers/r_riic/src/lld/r_rza2_riic_lld.c **** 
1294:../generate/sc_drivers/r_riic/src/lld/r_rza2_riic_lld.c ****                     default :
1295:../generate/sc_drivers/r_riic/src/lld/r_rza2_riic_lld.c ****                     /* ->IPA R3.5.2 Nothing is being processed intentionally. */
1296:../generate/sc_drivers/r_riic/src/lld/r_rza2_riic_lld.c ****                     /* <-IPA R3.5.2 */
1297:../generate/sc_drivers/r_riic/src/lld/r_rza2_riic_lld.c ****                     /* do nothing */
1298:../generate/sc_drivers/r_riic/src/lld/r_rza2_riic_lld.c ****                     break;
1299:../generate/sc_drivers/r_riic/src/lld/r_rza2_riic_lld.c ****                 }
1300:../generate/sc_drivers/r_riic/src/lld/r_rza2_riic_lld.c ****             }
1301:../generate/sc_drivers/r_riic/src/lld/r_rza2_riic_lld.c ****             else
1302:../generate/sc_drivers/r_riic/src/lld/r_rza2_riic_lld.c ****             {
1303:../generate/sc_drivers/r_riic/src/lld/r_rza2_riic_lld.c ****                 if ((RIIC_DEVICE_ADDR_7 == p_cfg->slave_address_length[addr_num]))
1304:../generate/sc_drivers/r_riic/src/lld/r_rza2_riic_lld.c ****                 {
1305:../generate/sc_drivers/r_riic/src/lld/r_rza2_riic_lld.c ****                     switch (addr_num)
1306:../generate/sc_drivers/r_riic/src/lld/r_rza2_riic_lld.c ****                     {
1307:../generate/sc_drivers/r_riic/src/lld/r_rza2_riic_lld.c ****                         /* register 7bit slave address */
1308:../generate/sc_drivers/r_riic/src/lld/r_rza2_riic_lld.c ****                         case RIIC_SLAVE_ADDR_NUM_0:
1309:../generate/sc_drivers/r_riic/src/lld/r_rza2_riic_lld.c ****                         {
1310:../generate/sc_drivers/r_riic/src/lld/r_rza2_riic_lld.c ****                             /* clear slave address */
1311:../generate/sc_drivers/r_riic/src/lld/r_rza2_riic_lld.c ****                             RZA_IO_RegWrite_32((volatile uint32_t *) &gsp_riic[channel]->ICSER.LONG
1312:../generate/sc_drivers/r_riic/src/lld/r_rza2_riic_lld.c ****                                                 RIIC_ICSER_SAR0_SHIFT, RIIC_ICSER_SAR0);
1313:../generate/sc_drivers/r_riic/src/lld/r_rza2_riic_lld.c **** 
1314:../generate/sc_drivers/r_riic/src/lld/r_rza2_riic_lld.c ****                             /* cast to volatile uint32_t pointer */
1315:../generate/sc_drivers/r_riic/src/lld/r_rza2_riic_lld.c ****                             RZA_IO_RegWrite_32((volatile uint32_t *) &gsp_riic[channel]->ICSAR0.LON
1316:../generate/sc_drivers/r_riic/src/lld/r_rza2_riic_lld.c ****                                                 RIIC_ICSAR0_FS0_SHIFT, RIIC_ICSAR0_FS0);
1317:../generate/sc_drivers/r_riic/src/lld/r_rza2_riic_lld.c **** 
1318:../generate/sc_drivers/r_riic/src/lld/r_rza2_riic_lld.c ****                             /* cast to volatile uint32_t pointer */
1319:../generate/sc_drivers/r_riic/src/lld/r_rza2_riic_lld.c ****                             RZA_IO_RegWrite_32((volatile uint32_t *) &gsp_riic[channel]->ICSAR0.LON
1320:../generate/sc_drivers/r_riic/src/lld/r_rza2_riic_lld.c ****                                                 (uint32_t) p_cfg->slave_address[addr_num], 
1321:../generate/sc_drivers/r_riic/src/lld/r_rza2_riic_lld.c ****                                                 RIIC_ICSAR0_SVA_SHIFT,
1322:../generate/sc_drivers/r_riic/src/lld/r_rza2_riic_lld.c ****                                                 RIIC_ICSAR0_SVA);
1323:../generate/sc_drivers/r_riic/src/lld/r_rza2_riic_lld.c ****                         }
1324:../generate/sc_drivers/r_riic/src/lld/r_rza2_riic_lld.c ****                         break;
1325:../generate/sc_drivers/r_riic/src/lld/r_rza2_riic_lld.c **** 
1326:../generate/sc_drivers/r_riic/src/lld/r_rza2_riic_lld.c ****                         case RIIC_SLAVE_ADDR_NUM_1:
1327:../generate/sc_drivers/r_riic/src/lld/r_rza2_riic_lld.c ****                         {
1328:../generate/sc_drivers/r_riic/src/lld/r_rza2_riic_lld.c ****                             /* clear slave address */
1329:../generate/sc_drivers/r_riic/src/lld/r_rza2_riic_lld.c ****                             RZA_IO_RegWrite_32((volatile uint32_t *) &gsp_riic[channel]->ICSER.LONG
1330:../generate/sc_drivers/r_riic/src/lld/r_rza2_riic_lld.c ****                                                 RIIC_ICSER_SAR1_SHIFT, RIIC_ICSER_SAR1);
1331:../generate/sc_drivers/r_riic/src/lld/r_rza2_riic_lld.c **** 
1332:../generate/sc_drivers/r_riic/src/lld/r_rza2_riic_lld.c ****                             /* cast to volatile uint32_t pointer */
1333:../generate/sc_drivers/r_riic/src/lld/r_rza2_riic_lld.c ****                             RZA_IO_RegWrite_32((volatile uint32_t *) &gsp_riic[channel]->ICSAR1.LON
1334:../generate/sc_drivers/r_riic/src/lld/r_rza2_riic_lld.c ****                                                 RIIC_ICSAR1_FS1_SHIFT, RIIC_ICSAR1_FS1);
1335:../generate/sc_drivers/r_riic/src/lld/r_rza2_riic_lld.c **** 
1336:../generate/sc_drivers/r_riic/src/lld/r_rza2_riic_lld.c ****                             /* cast to volatile uint32_t pointer */
1337:../generate/sc_drivers/r_riic/src/lld/r_rza2_riic_lld.c ****                             RZA_IO_RegWrite_32((volatile uint32_t *) &gsp_riic[channel]->ICSAR1.LON
1338:../generate/sc_drivers/r_riic/src/lld/r_rza2_riic_lld.c ****                                                 (uint32_t) p_cfg->slave_address[addr_num], 
1339:../generate/sc_drivers/r_riic/src/lld/r_rza2_riic_lld.c ****                                                 RIIC_ICSAR1_SVA_SHIFT, 
1340:../generate/sc_drivers/r_riic/src/lld/r_rza2_riic_lld.c ****                                                 RIIC_ICSAR1_SVA);
1341:../generate/sc_drivers/r_riic/src/lld/r_rza2_riic_lld.c ****                         }
1342:../generate/sc_drivers/r_riic/src/lld/r_rza2_riic_lld.c ****                         break;
1343:../generate/sc_drivers/r_riic/src/lld/r_rza2_riic_lld.c **** 
1344:../generate/sc_drivers/r_riic/src/lld/r_rza2_riic_lld.c ****                         case RIIC_SLAVE_ADDR_NUM_2:
1345:../generate/sc_drivers/r_riic/src/lld/r_rza2_riic_lld.c ****                         {
1346:../generate/sc_drivers/r_riic/src/lld/r_rza2_riic_lld.c ****                             /* clear slave address */
1347:../generate/sc_drivers/r_riic/src/lld/r_rza2_riic_lld.c ****                             RZA_IO_RegWrite_32((volatile uint32_t *) &gsp_riic[channel]->ICSER.LONG
1348:../generate/sc_drivers/r_riic/src/lld/r_rza2_riic_lld.c ****                                                 RIIC_ICSER_SAR2_SHIFT, RIIC_ICSER_SAR2);
1349:../generate/sc_drivers/r_riic/src/lld/r_rza2_riic_lld.c **** 
1350:../generate/sc_drivers/r_riic/src/lld/r_rza2_riic_lld.c ****                             /* cast to volatile uint32_t pointer */
1351:../generate/sc_drivers/r_riic/src/lld/r_rza2_riic_lld.c ****                             RZA_IO_RegWrite_32((volatile uint32_t *) &gsp_riic[channel]->ICSAR2.LON
1352:../generate/sc_drivers/r_riic/src/lld/r_rza2_riic_lld.c ****                                                 RIIC_ICSAR2_FS2_SHIFT, RIIC_ICSAR2_FS2);
1353:../generate/sc_drivers/r_riic/src/lld/r_rza2_riic_lld.c **** 
1354:../generate/sc_drivers/r_riic/src/lld/r_rza2_riic_lld.c ****                             /* cast to volatile uint32_t pointer */
1355:../generate/sc_drivers/r_riic/src/lld/r_rza2_riic_lld.c ****                             RZA_IO_RegWrite_32((volatile uint32_t *) &gsp_riic[channel]->ICSAR2.LON
1356:../generate/sc_drivers/r_riic/src/lld/r_rza2_riic_lld.c ****                                                 (uint32_t) p_cfg->slave_address[addr_num], 
1357:../generate/sc_drivers/r_riic/src/lld/r_rza2_riic_lld.c ****                                                 RIIC_ICSAR2_SVA_SHIFT, 
1358:../generate/sc_drivers/r_riic/src/lld/r_rza2_riic_lld.c ****                                                 RIIC_ICSAR2_SVA);
1359:../generate/sc_drivers/r_riic/src/lld/r_rza2_riic_lld.c ****                         }
1360:../generate/sc_drivers/r_riic/src/lld/r_rza2_riic_lld.c ****                         break;
1361:../generate/sc_drivers/r_riic/src/lld/r_rza2_riic_lld.c **** 
1362:../generate/sc_drivers/r_riic/src/lld/r_rza2_riic_lld.c ****                         default :
1363:../generate/sc_drivers/r_riic/src/lld/r_rza2_riic_lld.c ****                         /* ->IPA R3.5.2 Nothing is being processed intentionally. */
1364:../generate/sc_drivers/r_riic/src/lld/r_rza2_riic_lld.c ****                         /* <-IPA R3.5.2 */
1365:../generate/sc_drivers/r_riic/src/lld/r_rza2_riic_lld.c ****                         /* do nothing */
1366:../generate/sc_drivers/r_riic/src/lld/r_rza2_riic_lld.c ****                         break;
1367:../generate/sc_drivers/r_riic/src/lld/r_rza2_riic_lld.c ****                     }
1368:../generate/sc_drivers/r_riic/src/lld/r_rza2_riic_lld.c ****                 }
1369:../generate/sc_drivers/r_riic/src/lld/r_rza2_riic_lld.c ****                 else
1370:../generate/sc_drivers/r_riic/src/lld/r_rza2_riic_lld.c ****                 {
1371:../generate/sc_drivers/r_riic/src/lld/r_rza2_riic_lld.c ****                     switch (addr_num)
1372:../generate/sc_drivers/r_riic/src/lld/r_rza2_riic_lld.c ****                     {
1373:../generate/sc_drivers/r_riic/src/lld/r_rza2_riic_lld.c ****                         /* register 10bit slave address */
1374:../generate/sc_drivers/r_riic/src/lld/r_rza2_riic_lld.c ****                         case RIIC_SLAVE_ADDR_NUM_0:
1375:../generate/sc_drivers/r_riic/src/lld/r_rza2_riic_lld.c ****                         {
1376:../generate/sc_drivers/r_riic/src/lld/r_rza2_riic_lld.c ****                             /* clear slave address */
1377:../generate/sc_drivers/r_riic/src/lld/r_rza2_riic_lld.c ****                             RZA_IO_RegWrite_32((volatile uint32_t *) &gsp_riic[channel]->ICSER.LONG
1378:../generate/sc_drivers/r_riic/src/lld/r_rza2_riic_lld.c ****                                                 RIIC_ICSER_SAR0_SHIFT, RIIC_ICSER_SAR0);
1379:../generate/sc_drivers/r_riic/src/lld/r_rza2_riic_lld.c **** 
1380:../generate/sc_drivers/r_riic/src/lld/r_rza2_riic_lld.c ****                             /* cast to volatile uint32_t pointer */
1381:../generate/sc_drivers/r_riic/src/lld/r_rza2_riic_lld.c ****                             RZA_IO_RegWrite_32((volatile uint32_t *) &gsp_riic[channel]->ICSAR0.LON
1382:../generate/sc_drivers/r_riic/src/lld/r_rza2_riic_lld.c ****                                                 RIIC_ICSAR0_FS0_SHIFT, RIIC_ICSAR0_FS0);
1383:../generate/sc_drivers/r_riic/src/lld/r_rza2_riic_lld.c **** 
1384:../generate/sc_drivers/r_riic/src/lld/r_rza2_riic_lld.c ****                             /* cast to volatile uint32_t pointer */
1385:../generate/sc_drivers/r_riic/src/lld/r_rza2_riic_lld.c ****                             RZA_IO_RegWrite_32((volatile uint32_t *) &gsp_riic[channel]->ICSAR0.LON
1386:../generate/sc_drivers/r_riic/src/lld/r_rza2_riic_lld.c ****                                                 (uint32_t) p_cfg->slave_address[addr_num], 
1387:../generate/sc_drivers/r_riic/src/lld/r_rza2_riic_lld.c ****                                                 RIIC_ICSAR0_SVA0_SHIFT, 
1388:../generate/sc_drivers/r_riic/src/lld/r_rza2_riic_lld.c ****                                                 RIIC_ICSAR0_SVA0);
1389:../generate/sc_drivers/r_riic/src/lld/r_rza2_riic_lld.c ****                         }
1390:../generate/sc_drivers/r_riic/src/lld/r_rza2_riic_lld.c ****                         break;
1391:../generate/sc_drivers/r_riic/src/lld/r_rza2_riic_lld.c **** 
1392:../generate/sc_drivers/r_riic/src/lld/r_rza2_riic_lld.c ****                         case RIIC_SLAVE_ADDR_NUM_1:
1393:../generate/sc_drivers/r_riic/src/lld/r_rza2_riic_lld.c ****                         {
1394:../generate/sc_drivers/r_riic/src/lld/r_rza2_riic_lld.c ****                             /* clear slave address */
1395:../generate/sc_drivers/r_riic/src/lld/r_rza2_riic_lld.c ****                             RZA_IO_RegWrite_32((volatile uint32_t *) &gsp_riic[channel]->ICSER.LONG
1396:../generate/sc_drivers/r_riic/src/lld/r_rza2_riic_lld.c ****                                                 RIIC_ICSER_SAR1_SHIFT, RIIC_ICSER_SAR1);
1397:../generate/sc_drivers/r_riic/src/lld/r_rza2_riic_lld.c **** 
1398:../generate/sc_drivers/r_riic/src/lld/r_rza2_riic_lld.c ****                             /* cast to volatile uint32_t pointer */
1399:../generate/sc_drivers/r_riic/src/lld/r_rza2_riic_lld.c ****                             RZA_IO_RegWrite_32((volatile uint32_t *) &gsp_riic[channel]->ICSAR1.LON
1400:../generate/sc_drivers/r_riic/src/lld/r_rza2_riic_lld.c ****                                                 RIIC_ICSAR1_FS1_SHIFT, RIIC_ICSAR1_FS1);
1401:../generate/sc_drivers/r_riic/src/lld/r_rza2_riic_lld.c **** 
1402:../generate/sc_drivers/r_riic/src/lld/r_rza2_riic_lld.c ****                             /* cast to volatile uint32_t pointer */
1403:../generate/sc_drivers/r_riic/src/lld/r_rza2_riic_lld.c ****                             RZA_IO_RegWrite_32((volatile uint32_t *) &gsp_riic[channel]->ICSAR1.LON
1404:../generate/sc_drivers/r_riic/src/lld/r_rza2_riic_lld.c ****                                                 (uint32_t) p_cfg->slave_address[addr_num], 
1405:../generate/sc_drivers/r_riic/src/lld/r_rza2_riic_lld.c ****                                                 RIIC_ICSAR1_SVA0_SHIFT, 
1406:../generate/sc_drivers/r_riic/src/lld/r_rza2_riic_lld.c ****                                                 RIIC_ICSAR1_SVA0);
1407:../generate/sc_drivers/r_riic/src/lld/r_rza2_riic_lld.c ****                         }
1408:../generate/sc_drivers/r_riic/src/lld/r_rza2_riic_lld.c ****                         break;
1409:../generate/sc_drivers/r_riic/src/lld/r_rza2_riic_lld.c **** 
1410:../generate/sc_drivers/r_riic/src/lld/r_rza2_riic_lld.c ****                         case RIIC_SLAVE_ADDR_NUM_2:
1411:../generate/sc_drivers/r_riic/src/lld/r_rza2_riic_lld.c ****                         {
1412:../generate/sc_drivers/r_riic/src/lld/r_rza2_riic_lld.c ****                             /* clear slave address */
1413:../generate/sc_drivers/r_riic/src/lld/r_rza2_riic_lld.c ****                             RZA_IO_RegWrite_32((volatile uint32_t *) &gsp_riic[channel]->ICSER.LONG
1414:../generate/sc_drivers/r_riic/src/lld/r_rza2_riic_lld.c ****                                                 RIIC_ICSER_SAR2_SHIFT, RIIC_ICSER_SAR2);
1415:../generate/sc_drivers/r_riic/src/lld/r_rza2_riic_lld.c **** 
1416:../generate/sc_drivers/r_riic/src/lld/r_rza2_riic_lld.c ****                             /* cast to volatile uint32_t pointer */
1417:../generate/sc_drivers/r_riic/src/lld/r_rza2_riic_lld.c ****                             RZA_IO_RegWrite_32((volatile uint32_t *) &gsp_riic[channel]->ICSAR2.LON
1418:../generate/sc_drivers/r_riic/src/lld/r_rza2_riic_lld.c ****                                                 RIIC_ICSAR2_FS2_SHIFT, RIIC_ICSAR2_FS2);
1419:../generate/sc_drivers/r_riic/src/lld/r_rza2_riic_lld.c **** 
1420:../generate/sc_drivers/r_riic/src/lld/r_rza2_riic_lld.c ****                             /* cast to volatile uint32_t pointer */
1421:../generate/sc_drivers/r_riic/src/lld/r_rza2_riic_lld.c ****                             RZA_IO_RegWrite_32((volatile uint32_t *) &gsp_riic[channel]->ICSAR2.LON
1422:../generate/sc_drivers/r_riic/src/lld/r_rza2_riic_lld.c ****                                                 (uint32_t) p_cfg->slave_address[addr_num], 
1423:../generate/sc_drivers/r_riic/src/lld/r_rza2_riic_lld.c ****                                                 RIIC_ICSAR2_SVA0_SHIFT, 
1424:../generate/sc_drivers/r_riic/src/lld/r_rza2_riic_lld.c ****                                                 RIIC_ICSAR2_SVA0);
1425:../generate/sc_drivers/r_riic/src/lld/r_rza2_riic_lld.c ****                         }
1426:../generate/sc_drivers/r_riic/src/lld/r_rza2_riic_lld.c ****                         break;
1427:../generate/sc_drivers/r_riic/src/lld/r_rza2_riic_lld.c **** 
1428:../generate/sc_drivers/r_riic/src/lld/r_rza2_riic_lld.c ****                         default :
1429:../generate/sc_drivers/r_riic/src/lld/r_rza2_riic_lld.c ****                         /* ->IPA R3.5.2 Nothing is being processed intentionally. */
1430:../generate/sc_drivers/r_riic/src/lld/r_rza2_riic_lld.c ****                         /* <-IPA R3.5.2 */
1431:../generate/sc_drivers/r_riic/src/lld/r_rza2_riic_lld.c ****                         /* do nothing */
1432:../generate/sc_drivers/r_riic/src/lld/r_rza2_riic_lld.c ****                         break;
1433:../generate/sc_drivers/r_riic/src/lld/r_rza2_riic_lld.c ****                     }
1434:../generate/sc_drivers/r_riic/src/lld/r_rza2_riic_lld.c ****                 }
1435:../generate/sc_drivers/r_riic/src/lld/r_rza2_riic_lld.c ****             }
1436:../generate/sc_drivers/r_riic/src/lld/r_rza2_riic_lld.c ****         }
1437:../generate/sc_drivers/r_riic/src/lld/r_rza2_riic_lld.c ****     }
1438:../generate/sc_drivers/r_riic/src/lld/r_rza2_riic_lld.c ****     else
1439:../generate/sc_drivers/r_riic/src/lld/r_rza2_riic_lld.c **** #else /* (RIIC_MODE_SLAVE_IMPLEMENTED == 1) */
1440:../generate/sc_drivers/r_riic/src/lld/r_rza2_riic_lld.c ****     
1441:../generate/sc_drivers/r_riic/src/lld/r_rza2_riic_lld.c **** #endif
1442:../generate/sc_drivers/r_riic/src/lld/r_rza2_riic_lld.c ****     {
1443:../generate/sc_drivers/r_riic/src/lld/r_rza2_riic_lld.c ****         /* clear slave address */
1444:../generate/sc_drivers/r_riic/src/lld/r_rza2_riic_lld.c ****         RZA_IO_RegWrite_32((volatile uint32_t *) &gsp_riic[channel]->ICSER.LONG, (uint32_t) 0, RIIC
 454              		.loc 1 1444 9 is_stmt 1 view .LVU135
 455              		.loc 1 1444 59 is_stmt 0 view .LVU136
 456 0004 003000E3 		movw	r3, #:lower16:.LANCHOR3
 457 0008 003040E3 		movt	r3, #:upper16:.LANCHOR3
 458 000c 004193E7 		ldr	r4, [r3, r0, lsl #2]
 459              		.loc 1 1444 50 view .LVU137
 460 0010 185084E2 		add	r5, r4, #24
 461              		.loc 1 1444 9 view .LVU138
 462 0014 0130A0E3 		mov	r3, #1
 463 0018 0020A0E3 		mov	r2, #0
 464 001c 0210A0E1 		mov	r1, r2
 465              	.LVL36:
 466              		.loc 1 1444 9 view .LVU139
 467 0020 0500A0E1 		mov	r0, r5
 468              	.LVL37:
 469              		.loc 1 1444 9 view .LVU140
 470 0024 FEFFFFEB 		bl	RZA_IO_RegWrite_32
 471              	.LVL38:
1445:../generate/sc_drivers/r_riic/src/lld/r_rza2_riic_lld.c ****         RIIC_ICSER_SAR0);
1446:../generate/sc_drivers/r_riic/src/lld/r_rza2_riic_lld.c **** 
1447:../generate/sc_drivers/r_riic/src/lld/r_rza2_riic_lld.c ****         /* cast to volatile uint32_t pointer */
1448:../generate/sc_drivers/r_riic/src/lld/r_rza2_riic_lld.c ****         RZA_IO_RegWrite_32((volatile uint32_t *) &gsp_riic[channel]->ICSAR0.LONG, (uint32_t) 0, IOR
 472              		.loc 1 1448 9 is_stmt 1 view .LVU141
 473 0028 0030E0E3 		mvn	r3, #0
 474 002c 0020A0E3 		mov	r2, #0
 475 0030 0210A0E1 		mov	r1, r2
 476 0034 280084E2 		add	r0, r4, #40
 477 0038 FEFFFFEB 		bl	RZA_IO_RegWrite_32
 478              	.LVL39:
1449:../generate/sc_drivers/r_riic/src/lld/r_rza2_riic_lld.c ****         IOREG_NONMASK_ACCESS);
1450:../generate/sc_drivers/r_riic/src/lld/r_rza2_riic_lld.c **** 
1451:../generate/sc_drivers/r_riic/src/lld/r_rza2_riic_lld.c ****         /* cast to volatile uint32_t pointer */
1452:../generate/sc_drivers/r_riic/src/lld/r_rza2_riic_lld.c ****         RZA_IO_RegWrite_32((volatile uint32_t *) &gsp_riic[channel]->ICSER.LONG, (uint32_t) 0, RIIC
 479              		.loc 1 1452 9 view .LVU142
 480 003c 0230A0E3 		mov	r3, #2
 481 0040 0120A0E3 		mov	r2, #1
 482 0044 0010A0E3 		mov	r1, #0
 483 0048 0500A0E1 		mov	r0, r5
 484 004c FEFFFFEB 		bl	RZA_IO_RegWrite_32
 485              	.LVL40:
1453:../generate/sc_drivers/r_riic/src/lld/r_rza2_riic_lld.c ****         RIIC_ICSER_SAR1);
1454:../generate/sc_drivers/r_riic/src/lld/r_rza2_riic_lld.c **** 
1455:../generate/sc_drivers/r_riic/src/lld/r_rza2_riic_lld.c ****         /* cast to volatile uint32_t pointer */
1456:../generate/sc_drivers/r_riic/src/lld/r_rza2_riic_lld.c ****         RZA_IO_RegWrite_32((volatile uint32_t *) &gsp_riic[channel]->ICSAR1.LONG, (uint32_t) 0, IOR
 486              		.loc 1 1456 9 view .LVU143
 487 0050 0030E0E3 		mvn	r3, #0
 488 0054 0020A0E3 		mov	r2, #0
 489 0058 0210A0E1 		mov	r1, r2
 490 005c 2C0084E2 		add	r0, r4, #44
 491 0060 FEFFFFEB 		bl	RZA_IO_RegWrite_32
 492              	.LVL41:
1457:../generate/sc_drivers/r_riic/src/lld/r_rza2_riic_lld.c ****         IOREG_NONMASK_ACCESS);
1458:../generate/sc_drivers/r_riic/src/lld/r_rza2_riic_lld.c **** 
1459:../generate/sc_drivers/r_riic/src/lld/r_rza2_riic_lld.c ****         /* cast to volatile uint32_t pointer */
1460:../generate/sc_drivers/r_riic/src/lld/r_rza2_riic_lld.c ****         RZA_IO_RegWrite_32((volatile uint32_t *) &gsp_riic[channel]->ICSER.LONG, (uint32_t) 0, RIIC
 493              		.loc 1 1460 9 view .LVU144
 494 0064 0430A0E3 		mov	r3, #4
 495 0068 0220A0E3 		mov	r2, #2
 496 006c 0010A0E3 		mov	r1, #0
 497 0070 0500A0E1 		mov	r0, r5
 498 0074 FEFFFFEB 		bl	RZA_IO_RegWrite_32
 499              	.LVL42:
1461:../generate/sc_drivers/r_riic/src/lld/r_rza2_riic_lld.c ****         RIIC_ICSER_SAR2);
1462:../generate/sc_drivers/r_riic/src/lld/r_rza2_riic_lld.c **** 
1463:../generate/sc_drivers/r_riic/src/lld/r_rza2_riic_lld.c ****         /* cast to volatile uint32_t pointer */
1464:../generate/sc_drivers/r_riic/src/lld/r_rza2_riic_lld.c ****         RZA_IO_RegWrite_32((volatile uint32_t *) &gsp_riic[channel]->ICSAR2.LONG, (uint32_t) 0, IOR
 500              		.loc 1 1464 9 view .LVU145
 501 0078 0030E0E3 		mvn	r3, #0
 502 007c 0020A0E3 		mov	r2, #0
 503 0080 0210A0E1 		mov	r1, r2
 504 0084 300084E2 		add	r0, r4, #48
 505 0088 FEFFFFEB 		bl	RZA_IO_RegWrite_32
 506              	.LVL43:
1465:../generate/sc_drivers/r_riic/src/lld/r_rza2_riic_lld.c ****         IOREG_NONMASK_ACCESS);
1466:../generate/sc_drivers/r_riic/src/lld/r_rza2_riic_lld.c ****     }
1467:../generate/sc_drivers/r_riic/src/lld/r_rza2_riic_lld.c **** 
1468:../generate/sc_drivers/r_riic/src/lld/r_rza2_riic_lld.c ****     return DRV_SUCCESS;
 507              		.loc 1 1468 5 view .LVU146
1469:../generate/sc_drivers/r_riic/src/lld/r_rza2_riic_lld.c **** }
 508              		.loc 1 1469 1 is_stmt 0 view .LVU147
 509 008c 0000A0E3 		mov	r0, #0
 510 0090 7080BDE8 		pop	{r4, r5, r6, pc}
 511              		.cfi_endproc
 512              	.LFE33:
 514              		.section	.text.riic_set_scl_clk,"ax",%progbits
 515              		.align	2
 516              		.syntax unified
 517              		.arm
 518              		.fpu neon
 520              	riic_set_scl_clk:
 521              	.LVL44:
 522              	.LFB34:
1470:../generate/sc_drivers/r_riic/src/lld/r_rza2_riic_lld.c **** /******************************************************************************
1471:../generate/sc_drivers/r_riic/src/lld/r_rza2_riic_lld.c ****  * End of Function riic_register_slave_addrss
1472:../generate/sc_drivers/r_riic/src/lld/r_rza2_riic_lld.c ****  *****************************************************************************/
1473:../generate/sc_drivers/r_riic/src/lld/r_rza2_riic_lld.c **** 
1474:../generate/sc_drivers/r_riic/src/lld/r_rza2_riic_lld.c **** /******************************************************************************
1475:../generate/sc_drivers/r_riic/src/lld/r_rza2_riic_lld.c **** * Function Name: riic_set_scl_clk
1476:../generate/sc_drivers/r_riic/src/lld/r_rza2_riic_lld.c **** * Description  : Sets RIIC SCL parameter.
1477:../generate/sc_drivers/r_riic/src/lld/r_rza2_riic_lld.c **** * Arguments    : channel - RIIC channel to set clock parameter.
1478:../generate/sc_drivers/r_riic/src/lld/r_rza2_riic_lld.c **** *                *p_cfg - RIIC configration parameter.
1479:../generate/sc_drivers/r_riic/src/lld/r_rza2_riic_lld.c **** *                pclk - PCLK frequency for RIIC.
1480:../generate/sc_drivers/r_riic/src/lld/r_rza2_riic_lld.c **** * Return Value : DRV_SUCCESS - Operation is success.
1481:../generate/sc_drivers/r_riic/src/lld/r_rza2_riic_lld.c **** *                DRV_ERROR - Combination of frequency setting is illegal 
1482:../generate/sc_drivers/r_riic/src/lld/r_rza2_riic_lld.c **** *                            parameter.
1483:../generate/sc_drivers/r_riic/src/lld/r_rza2_riic_lld.c **** ******************************************************************************/
1484:../generate/sc_drivers/r_riic/src/lld/r_rza2_riic_lld.c **** static int_t riic_set_scl_clk (int_t channel, st_riic_config_t *p_cfg, uint32_t pclk)
1485:../generate/sc_drivers/r_riic/src/lld/r_rza2_riic_lld.c **** {
 523              		.loc 1 1485 1 is_stmt 1 view -0
 524              		.cfi_startproc
 525              		@ args = 0, pretend = 0, frame = 32
 526              		@ frame_needed = 0, uses_anonymous_args = 0
 527              		.loc 1 1485 1 is_stmt 0 view .LVU149
 528 0000 70402DE9 		push	{r4, r5, r6, lr}
 529              		.cfi_def_cfa_offset 16
 530              		.cfi_offset 4, -16
 531              		.cfi_offset 5, -12
 532              		.cfi_offset 6, -8
 533              		.cfi_offset 14, -4
 534 0004 20D04DE2 		sub	sp, sp, #32
 535              		.cfi_def_cfa_offset 48
 536 0008 0060A0E1 		mov	r6, r0
1486:../generate/sc_drivers/r_riic/src/lld/r_rza2_riic_lld.c ****     int_t retval = DRV_SUCCESS;
 537              		.loc 1 1486 5 is_stmt 1 view .LVU150
 538              	.LVL45:
1487:../generate/sc_drivers/r_riic/src/lld/r_rza2_riic_lld.c ****     st_riic_clk_check_param_t clk_param;
 539              		.loc 1 1487 5 view .LVU151
1488:../generate/sc_drivers/r_riic/src/lld/r_rza2_riic_lld.c **** 
1489:../generate/sc_drivers/r_riic/src/lld/r_rza2_riic_lld.c ****     if (RIIC_MODE_MASTER == p_cfg->riic_mode)
 540              		.loc 1 1489 5 view .LVU152
 541              		.loc 1 1489 34 is_stmt 0 view .LVU153
 542 000c 0030D1E5 		ldrb	r3, [r1]	@ zero_extendqisi2
 543              		.loc 1 1489 8 view .LVU154
 544 0010 000053E3 		cmp	r3, #0
 545 0014 3800001A 		bne	.L28
 546 0018 0140A0E1 		mov	r4, r1
1490:../generate/sc_drivers/r_riic/src/lld/r_rza2_riic_lld.c ****     {
1491:../generate/sc_drivers/r_riic/src/lld/r_rza2_riic_lld.c ****         clk_param.pclk = pclk;
 547              		.loc 1 1491 9 is_stmt 1 view .LVU155
 548              		.loc 1 1491 24 is_stmt 0 view .LVU156
 549 001c 04208DE5 		str	r2, [sp, #4]
1492:../generate/sc_drivers/r_riic/src/lld/r_rza2_riic_lld.c ****         clk_param.frequency = p_cfg->frequency;
 550              		.loc 1 1492 9 is_stmt 1 view .LVU157
 551              		.loc 1 1492 36 is_stmt 0 view .LVU158
 552 0020 1930D1E5 		ldrb	r3, [r1, #25]	@ zero_extendqisi2
 553              		.loc 1 1492 29 view .LVU159
 554 0024 0930CDE5 		strb	r3, [sp, #9]
1493:../generate/sc_drivers/r_riic/src/lld/r_rza2_riic_lld.c ****         clk_param.duty = p_cfg->duty;
 555              		.loc 1 1493 9 is_stmt 1 view .LVU160
 556              		.loc 1 1493 31 is_stmt 0 view .LVU161
 557 0028 1A30D1E5 		ldrb	r3, [r1, #26]	@ zero_extendqisi2
 558              		.loc 1 1493 24 view .LVU162
 559 002c 0A30CDE5 		strb	r3, [sp, #10]
1494:../generate/sc_drivers/r_riic/src/lld/r_rza2_riic_lld.c ****         clk_param.rise_time = p_cfg->rise_time;
 560              		.loc 1 1494 9 is_stmt 1 view .LVU163
 561              		.loc 1 1494 36 is_stmt 0 view .LVU164
 562 0030 1C3091E5 		ldr	r3, [r1, #28]
 563              		.loc 1 1494 29 view .LVU165
 564 0034 0C308DE5 		str	r3, [sp, #12]
1495:../generate/sc_drivers/r_riic/src/lld/r_rza2_riic_lld.c ****         clk_param.fall_time = p_cfg->fall_time;
 565              		.loc 1 1495 9 is_stmt 1 view .LVU166
 566              		.loc 1 1495 36 is_stmt 0 view .LVU167
 567 0038 203091E5 		ldr	r3, [r1, #32]
 568              		.loc 1 1495 29 view .LVU168
 569 003c 10308DE5 		str	r3, [sp, #16]
1496:../generate/sc_drivers/r_riic/src/lld/r_rza2_riic_lld.c ****         clk_param.noise_filter_stage = p_cfg->noise_filter_stage;
 570              		.loc 1 1496 9 is_stmt 1 view .LVU169
 571              		.loc 1 1496 45 is_stmt 0 view .LVU170
 572 0040 2430D1E5 		ldrb	r3, [r1, #36]	@ zero_extendqisi2
 573              		.loc 1 1496 38 view .LVU171
 574 0044 1430CDE5 		strb	r3, [sp, #20]
1497:../generate/sc_drivers/r_riic/src/lld/r_rza2_riic_lld.c ****         clk_param.format = p_cfg->format;
 575              		.loc 1 1497 9 is_stmt 1 view .LVU172
 576              		.loc 1 1497 33 is_stmt 0 view .LVU173
 577 0048 2630D1E5 		ldrb	r3, [r1, #38]	@ zero_extendqisi2
 578              		.loc 1 1497 26 view .LVU174
 579 004c 1530CDE5 		strb	r3, [sp, #21]
1498:../generate/sc_drivers/r_riic/src/lld/r_rza2_riic_lld.c **** 
1499:../generate/sc_drivers/r_riic/src/lld/r_rza2_riic_lld.c ****         retval = riic_adjust_scl_clk( &clk_param);
 580              		.loc 1 1499 9 is_stmt 1 view .LVU175
 581              		.loc 1 1499 18 is_stmt 0 view .LVU176
 582 0050 04008DE2 		add	r0, sp, #4
 583              	.LVL46:
 584              		.loc 1 1499 18 view .LVU177
 585 0054 FEFFFFEB 		bl	riic_adjust_scl_clk
 586              	.LVL47:
1500:../generate/sc_drivers/r_riic/src/lld/r_rza2_riic_lld.c **** 
1501:../generate/sc_drivers/r_riic/src/lld/r_rza2_riic_lld.c ****         if (DRV_SUCCESS == retval)
 587              		.loc 1 1501 9 is_stmt 1 view .LVU178
 588              		.loc 1 1501 12 is_stmt 0 view .LVU179
 589 0058 005050E2 		subs	r5, r0, #0
 590 005c 3E00001A 		bne	.L27
1502:../generate/sc_drivers/r_riic/src/lld/r_rza2_riic_lld.c ****         {
1503:../generate/sc_drivers/r_riic/src/lld/r_rza2_riic_lld.c ****             if (RIIC_FREQUENCY_1MHZ == p_cfg->frequency)
 591              		.loc 1 1503 13 is_stmt 1 view .LVU180
 592              		.loc 1 1503 45 is_stmt 0 view .LVU181
 593 0060 1930D4E5 		ldrb	r3, [r4, #25]	@ zero_extendqisi2
 594              		.loc 1 1503 16 view .LVU182
 595 0064 020053E3 		cmp	r3, #2
 596 0068 1A00000A 		beq	.L33
1504:../generate/sc_drivers/r_riic/src/lld/r_rza2_riic_lld.c ****             {
1505:../generate/sc_drivers/r_riic/src/lld/r_rza2_riic_lld.c ****                 /* set fast mode plus */
1506:../generate/sc_drivers/r_riic/src/lld/r_rza2_riic_lld.c ****                 RZA_IO_RegWrite_32((volatile uint32_t *) &gsp_riic[channel]->ICFER.LONG, (uint32_t)
1507:../generate/sc_drivers/r_riic/src/lld/r_rza2_riic_lld.c ****                 RIIC_ICFER_FMPE_SHIFT, RIIC_ICFER_FMPE);
1508:../generate/sc_drivers/r_riic/src/lld/r_rza2_riic_lld.c ****             }
1509:../generate/sc_drivers/r_riic/src/lld/r_rza2_riic_lld.c ****             else
1510:../generate/sc_drivers/r_riic/src/lld/r_rza2_riic_lld.c ****             {
1511:../generate/sc_drivers/r_riic/src/lld/r_rza2_riic_lld.c ****                 /* clear fast mode plus */
1512:../generate/sc_drivers/r_riic/src/lld/r_rza2_riic_lld.c ****                 RZA_IO_RegWrite_32((volatile uint32_t *) &gsp_riic[channel]->ICFER.LONG, (uint32_t)
 597              		.loc 1 1512 17 is_stmt 1 view .LVU183
 598              		.loc 1 1512 67 is_stmt 0 view .LVU184
 599 006c 003000E3 		movw	r3, #:lower16:.LANCHOR3
 600 0070 003040E3 		movt	r3, #:upper16:.LANCHOR3
 601 0074 060193E7 		ldr	r0, [r3, r6, lsl #2]
 602              	.LVL48:
 603              		.loc 1 1512 17 view .LVU185
 604 0078 8030A0E3 		mov	r3, #128
 605 007c 0720A0E3 		mov	r2, #7
 606 0080 0010A0E3 		mov	r1, #0
 607 0084 140080E2 		add	r0, r0, #20
 608 0088 FEFFFFEB 		bl	RZA_IO_RegWrite_32
 609              	.LVL49:
 610              	.L31:
1513:../generate/sc_drivers/r_riic/src/lld/r_rza2_riic_lld.c ****                 RIIC_ICFER_FMPE_SHIFT, RIIC_ICFER_FMPE);
1514:../generate/sc_drivers/r_riic/src/lld/r_rza2_riic_lld.c ****             }
1515:../generate/sc_drivers/r_riic/src/lld/r_rza2_riic_lld.c **** 
1516:../generate/sc_drivers/r_riic/src/lld/r_rza2_riic_lld.c ****             /* cast to volatile uint32_t pointer */
1517:../generate/sc_drivers/r_riic/src/lld/r_rza2_riic_lld.c ****             RZA_IO_RegWrite_32((volatile uint32_t *) &gsp_riic[channel]->ICMR1.LONG, (uint32_t) clk
 611              		.loc 1 1517 13 is_stmt 1 view .LVU186
 612              		.loc 1 1517 63 is_stmt 0 view .LVU187
 613 008c 003000E3 		movw	r3, #:lower16:.LANCHOR3
 614 0090 003040E3 		movt	r3, #:upper16:.LANCHOR3
 615 0094 064193E7 		ldr	r4, [r3, r6, lsl #2]
 616              	.LVL50:
 617              		.loc 1 1517 13 view .LVU188
 618 0098 7030A0E3 		mov	r3, #112
 619 009c 0420A0E3 		mov	r2, #4
 620 00a0 0810DDE5 		ldrb	r1, [sp, #8]	@ zero_extendqisi2
 621 00a4 080084E2 		add	r0, r4, #8
 622 00a8 FEFFFFEB 		bl	RZA_IO_RegWrite_32
 623              	.LVL51:
1518:../generate/sc_drivers/r_riic/src/lld/r_rza2_riic_lld.c ****             RIIC_ICMR1_CKS_SHIFT, RIIC_ICMR1_CKS);
1519:../generate/sc_drivers/r_riic/src/lld/r_rza2_riic_lld.c **** 
1520:../generate/sc_drivers/r_riic/src/lld/r_rza2_riic_lld.c ****             /* cast to volatile uint32_t pointer */
1521:../generate/sc_drivers/r_riic/src/lld/r_rza2_riic_lld.c ****             RZA_IO_RegWrite_32((volatile uint32_t *) &gsp_riic[channel]->ICBRL.LONG, (uint32_t) clk
 624              		.loc 1 1521 13 is_stmt 1 view .LVU189
 625 00ac 1F30A0E3 		mov	r3, #31
 626 00b0 0020A0E3 		mov	r2, #0
 627 00b4 1C109DE5 		ldr	r1, [sp, #28]
 628 00b8 340084E2 		add	r0, r4, #52
 629 00bc FEFFFFEB 		bl	RZA_IO_RegWrite_32
 630              	.LVL52:
1522:../generate/sc_drivers/r_riic/src/lld/r_rza2_riic_lld.c ****             RIIC_ICBRL_BRL_SHIFT, RIIC_ICBRL_BRL);
1523:../generate/sc_drivers/r_riic/src/lld/r_rza2_riic_lld.c **** 
1524:../generate/sc_drivers/r_riic/src/lld/r_rza2_riic_lld.c ****             /* cast to volatile uint32_t pointer */
1525:../generate/sc_drivers/r_riic/src/lld/r_rza2_riic_lld.c ****             RZA_IO_RegWrite_32((volatile uint32_t *) &gsp_riic[channel]->ICBRH.LONG, (uint32_t) clk
 631              		.loc 1 1525 13 view .LVU190
 632 00c0 1F30A0E3 		mov	r3, #31
 633 00c4 0020A0E3 		mov	r2, #0
 634 00c8 18109DE5 		ldr	r1, [sp, #24]
 635 00cc 380084E2 		add	r0, r4, #56
 636 00d0 FEFFFFEB 		bl	RZA_IO_RegWrite_32
 637              	.LVL53:
 638 00d4 200000EA 		b	.L27
 639              	.LVL54:
 640              	.L33:
1506:../generate/sc_drivers/r_riic/src/lld/r_rza2_riic_lld.c ****                 RIIC_ICFER_FMPE_SHIFT, RIIC_ICFER_FMPE);
 641              		.loc 1 1506 17 view .LVU191
1506:../generate/sc_drivers/r_riic/src/lld/r_rza2_riic_lld.c ****                 RIIC_ICFER_FMPE_SHIFT, RIIC_ICFER_FMPE);
 642              		.loc 1 1506 67 is_stmt 0 view .LVU192
 643 00d8 003000E3 		movw	r3, #:lower16:.LANCHOR3
 644 00dc 003040E3 		movt	r3, #:upper16:.LANCHOR3
 645 00e0 060193E7 		ldr	r0, [r3, r6, lsl #2]
 646              	.LVL55:
1506:../generate/sc_drivers/r_riic/src/lld/r_rza2_riic_lld.c ****                 RIIC_ICFER_FMPE_SHIFT, RIIC_ICFER_FMPE);
 647              		.loc 1 1506 17 view .LVU193
 648 00e4 8030A0E3 		mov	r3, #128
 649 00e8 0720A0E3 		mov	r2, #7
 650 00ec 0110A0E3 		mov	r1, #1
 651 00f0 140080E2 		add	r0, r0, #20
 652 00f4 FEFFFFEB 		bl	RZA_IO_RegWrite_32
 653              	.LVL56:
 654 00f8 E3FFFFEA 		b	.L31
 655              	.LVL57:
 656              	.L28:
1526:../generate/sc_drivers/r_riic/src/lld/r_rza2_riic_lld.c ****             RIIC_ICBRH_BRH_SHIFT, RIIC_ICBRH_BRH);
1527:../generate/sc_drivers/r_riic/src/lld/r_rza2_riic_lld.c ****         }
1528:../generate/sc_drivers/r_riic/src/lld/r_rza2_riic_lld.c ****     }
1529:../generate/sc_drivers/r_riic/src/lld/r_rza2_riic_lld.c ****     else
1530:../generate/sc_drivers/r_riic/src/lld/r_rza2_riic_lld.c ****     {
1531:../generate/sc_drivers/r_riic/src/lld/r_rza2_riic_lld.c ****         /* clear fast mode plus */
1532:../generate/sc_drivers/r_riic/src/lld/r_rza2_riic_lld.c ****         RZA_IO_RegWrite_32((volatile uint32_t *) &gsp_riic[channel]->ICFER.LONG, (uint32_t) 0, RIIC
 657              		.loc 1 1532 9 is_stmt 1 view .LVU194
 658              		.loc 1 1532 59 is_stmt 0 view .LVU195
 659 00fc 003000E3 		movw	r3, #:lower16:.LANCHOR3
 660 0100 003040E3 		movt	r3, #:upper16:.LANCHOR3
 661 0104 004193E7 		ldr	r4, [r3, r0, lsl #2]
 662              		.loc 1 1532 9 view .LVU196
 663 0108 8030A0E3 		mov	r3, #128
 664 010c 0720A0E3 		mov	r2, #7
 665              	.LVL58:
 666              		.loc 1 1532 9 view .LVU197
 667 0110 0010A0E3 		mov	r1, #0
 668              	.LVL59:
 669              		.loc 1 1532 9 view .LVU198
 670 0114 140084E2 		add	r0, r4, #20
 671              	.LVL60:
 672              		.loc 1 1532 9 view .LVU199
 673 0118 FEFFFFEB 		bl	RZA_IO_RegWrite_32
 674              	.LVL61:
1533:../generate/sc_drivers/r_riic/src/lld/r_rza2_riic_lld.c ****         RIIC_ICFER_FMPE);
1534:../generate/sc_drivers/r_riic/src/lld/r_rza2_riic_lld.c **** 
1535:../generate/sc_drivers/r_riic/src/lld/r_rza2_riic_lld.c ****         /* cast to volatile uint32_t pointer */
1536:../generate/sc_drivers/r_riic/src/lld/r_rza2_riic_lld.c ****         RZA_IO_RegWrite_32((volatile uint32_t *) &gsp_riic[channel]->ICMR1.LONG, (uint32_t) 0, RIIC
 675              		.loc 1 1536 9 is_stmt 1 view .LVU200
 676 011c 7030A0E3 		mov	r3, #112
 677 0120 0420A0E3 		mov	r2, #4
 678 0124 0010A0E3 		mov	r1, #0
 679 0128 080084E2 		add	r0, r4, #8
 680 012c FEFFFFEB 		bl	RZA_IO_RegWrite_32
 681              	.LVL62:
1537:../generate/sc_drivers/r_riic/src/lld/r_rza2_riic_lld.c ****         RIIC_ICMR1_CKS);
1538:../generate/sc_drivers/r_riic/src/lld/r_rza2_riic_lld.c **** 
1539:../generate/sc_drivers/r_riic/src/lld/r_rza2_riic_lld.c ****         /* cast to volatile uint32_t pointer */
1540:../generate/sc_drivers/r_riic/src/lld/r_rza2_riic_lld.c ****         RZA_IO_RegWrite_32((volatile uint32_t *) &gsp_riic[channel]->ICBRL.LONG, (uint32_t) 0, RIIC
 682              		.loc 1 1540 9 view .LVU201
 683 0130 1F30A0E3 		mov	r3, #31
 684 0134 0020A0E3 		mov	r2, #0
 685 0138 0210A0E1 		mov	r1, r2
 686 013c 340084E2 		add	r0, r4, #52
 687 0140 FEFFFFEB 		bl	RZA_IO_RegWrite_32
 688              	.LVL63:
1541:../generate/sc_drivers/r_riic/src/lld/r_rza2_riic_lld.c ****         RIIC_ICBRL_BRL);
1542:../generate/sc_drivers/r_riic/src/lld/r_rza2_riic_lld.c **** 
1543:../generate/sc_drivers/r_riic/src/lld/r_rza2_riic_lld.c ****         /* cast to volatile uint32_t pointer */
1544:../generate/sc_drivers/r_riic/src/lld/r_rza2_riic_lld.c ****         RZA_IO_RegWrite_32((volatile uint32_t *) &gsp_riic[channel]->ICBRH.LONG, (uint32_t) 0, RIIC
 689              		.loc 1 1544 9 view .LVU202
 690 0144 1F30A0E3 		mov	r3, #31
 691 0148 0020A0E3 		mov	r2, #0
 692 014c 0210A0E1 		mov	r1, r2
 693 0150 380084E2 		add	r0, r4, #56
 694 0154 FEFFFFEB 		bl	RZA_IO_RegWrite_32
 695              	.LVL64:
1486:../generate/sc_drivers/r_riic/src/lld/r_rza2_riic_lld.c ****     st_riic_clk_check_param_t clk_param;
 696              		.loc 1 1486 11 is_stmt 0 view .LVU203
 697 0158 0050A0E3 		mov	r5, #0
1545:../generate/sc_drivers/r_riic/src/lld/r_rza2_riic_lld.c ****         RIIC_ICBRH_BRH);
1546:../generate/sc_drivers/r_riic/src/lld/r_rza2_riic_lld.c **** 
1547:../generate/sc_drivers/r_riic/src/lld/r_rza2_riic_lld.c ****     }
1548:../generate/sc_drivers/r_riic/src/lld/r_rza2_riic_lld.c **** 
1549:../generate/sc_drivers/r_riic/src/lld/r_rza2_riic_lld.c ****     return retval;
 698              		.loc 1 1549 5 is_stmt 1 view .LVU204
 699              	.LVL65:
 700              	.L27:
1550:../generate/sc_drivers/r_riic/src/lld/r_rza2_riic_lld.c **** }
 701              		.loc 1 1550 1 is_stmt 0 view .LVU205
 702 015c 0500A0E1 		mov	r0, r5
 703 0160 20D08DE2 		add	sp, sp, #32
 704              		.cfi_def_cfa_offset 16
 705              		@ sp needed
 706 0164 7080BDE8 		pop	{r4, r5, r6, pc}
 707              		.loc 1 1550 1 view .LVU206
 708              		.cfi_endproc
 709              	.LFE34:
 711              		.section	.text.riic_set_bus_format,"ax",%progbits
 712              		.align	2
 713              		.syntax unified
 714              		.arm
 715              		.fpu neon
 717              	riic_set_bus_format:
 718              	.LVL66:
 719              	.LFB37:
1551:../generate/sc_drivers/r_riic/src/lld/r_rza2_riic_lld.c **** /******************************************************************************
1552:../generate/sc_drivers/r_riic/src/lld/r_rza2_riic_lld.c ****  * End of Function riic_set_scl_clk
1553:../generate/sc_drivers/r_riic/src/lld/r_rza2_riic_lld.c ****  *****************************************************************************/
1554:../generate/sc_drivers/r_riic/src/lld/r_rza2_riic_lld.c **** 
1555:../generate/sc_drivers/r_riic/src/lld/r_rza2_riic_lld.c **** /******************************************************************************
1556:../generate/sc_drivers/r_riic/src/lld/r_rza2_riic_lld.c **** * Function Name: riic_set_noise_filter
1557:../generate/sc_drivers/r_riic/src/lld/r_rza2_riic_lld.c **** * Description  : Sets RIIC noise filter.
1558:../generate/sc_drivers/r_riic/src/lld/r_rza2_riic_lld.c **** * Arguments    : channel - RIIC channel to set clock parameter.
1559:../generate/sc_drivers/r_riic/src/lld/r_rza2_riic_lld.c **** *                *p_cfg - RIIC frequency parameter.
1560:../generate/sc_drivers/r_riic/src/lld/r_rza2_riic_lld.c **** * Return Value : DRV_SUCCESS - Success(always).
1561:../generate/sc_drivers/r_riic/src/lld/r_rza2_riic_lld.c **** ******************************************************************************/
1562:../generate/sc_drivers/r_riic/src/lld/r_rza2_riic_lld.c **** static int_t riic_set_noise_filter (int_t channel, st_riic_config_t *p_cfg)
1563:../generate/sc_drivers/r_riic/src/lld/r_rza2_riic_lld.c **** {
1564:../generate/sc_drivers/r_riic/src/lld/r_rza2_riic_lld.c ****     /* set noise filter stages */
1565:../generate/sc_drivers/r_riic/src/lld/r_rza2_riic_lld.c ****     RZA_IO_RegWrite_32((volatile uint32_t *) &gsp_riic[channel]->ICMR3.LONG,
1566:../generate/sc_drivers/r_riic/src/lld/r_rza2_riic_lld.c ****                         gs_noise_filter_nf_table[p_cfg->noise_filter_stage], RIIC_ICMR3_NF_SHIFT, R
1567:../generate/sc_drivers/r_riic/src/lld/r_rza2_riic_lld.c **** 
1568:../generate/sc_drivers/r_riic/src/lld/r_rza2_riic_lld.c ****     if (RIIC_FILTER_NOT_USED != p_cfg->noise_filter_stage)
1569:../generate/sc_drivers/r_riic/src/lld/r_rza2_riic_lld.c ****     {
1570:../generate/sc_drivers/r_riic/src/lld/r_rza2_riic_lld.c ****         /* noise filter enable */
1571:../generate/sc_drivers/r_riic/src/lld/r_rza2_riic_lld.c ****         RZA_IO_RegWrite_32((volatile uint32_t *) &gsp_riic[channel]->ICFER.LONG, (uint32_t) 1, RIIC
1572:../generate/sc_drivers/r_riic/src/lld/r_rza2_riic_lld.c ****         RIIC_ICFER_NFE);
1573:../generate/sc_drivers/r_riic/src/lld/r_rza2_riic_lld.c ****     }
1574:../generate/sc_drivers/r_riic/src/lld/r_rza2_riic_lld.c ****     else
1575:../generate/sc_drivers/r_riic/src/lld/r_rza2_riic_lld.c ****     {
1576:../generate/sc_drivers/r_riic/src/lld/r_rza2_riic_lld.c ****         /* noise filter disable */
1577:../generate/sc_drivers/r_riic/src/lld/r_rza2_riic_lld.c ****         RZA_IO_RegWrite_32((volatile uint32_t *) &gsp_riic[channel]->ICFER.LONG, (uint32_t) 0, RIIC
1578:../generate/sc_drivers/r_riic/src/lld/r_rza2_riic_lld.c ****         RIIC_ICFER_NFE);
1579:../generate/sc_drivers/r_riic/src/lld/r_rza2_riic_lld.c ****     }
1580:../generate/sc_drivers/r_riic/src/lld/r_rza2_riic_lld.c **** 
1581:../generate/sc_drivers/r_riic/src/lld/r_rza2_riic_lld.c ****     return DRV_SUCCESS;
1582:../generate/sc_drivers/r_riic/src/lld/r_rza2_riic_lld.c **** }
1583:../generate/sc_drivers/r_riic/src/lld/r_rza2_riic_lld.c **** /******************************************************************************
1584:../generate/sc_drivers/r_riic/src/lld/r_rza2_riic_lld.c ****  * End of Function riic_set_noise_filter
1585:../generate/sc_drivers/r_riic/src/lld/r_rza2_riic_lld.c ****  *****************************************************************************/
1586:../generate/sc_drivers/r_riic/src/lld/r_rza2_riic_lld.c **** 
1587:../generate/sc_drivers/r_riic/src/lld/r_rza2_riic_lld.c **** /******************************************************************************
1588:../generate/sc_drivers/r_riic/src/lld/r_rza2_riic_lld.c **** * Function Name: riic_set_timeout
1589:../generate/sc_drivers/r_riic/src/lld/r_rza2_riic_lld.c **** * Description  : Sets RIIC timeout parameter.
1590:../generate/sc_drivers/r_riic/src/lld/r_rza2_riic_lld.c **** *                The count-up permission setting is performed at the start of 
1591:../generate/sc_drivers/r_riic/src/lld/r_rza2_riic_lld.c **** *                RIIC transfer.
1592:../generate/sc_drivers/r_riic/src/lld/r_rza2_riic_lld.c **** * Arguments    : channel - RIIC channel channel to set timeout.
1593:../generate/sc_drivers/r_riic/src/lld/r_rza2_riic_lld.c **** *                *p_cfg - RIIC timeout parameter.
1594:../generate/sc_drivers/r_riic/src/lld/r_rza2_riic_lld.c **** * Return Value : DRV_SUCCESS - Success(always).
1595:../generate/sc_drivers/r_riic/src/lld/r_rza2_riic_lld.c **** ******************************************************************************/
1596:../generate/sc_drivers/r_riic/src/lld/r_rza2_riic_lld.c **** static int_t riic_set_timeout (int_t channel, st_riic_config_t *p_cfg)
1597:../generate/sc_drivers/r_riic/src/lld/r_rza2_riic_lld.c **** {
1598:../generate/sc_drivers/r_riic/src/lld/r_rza2_riic_lld.c ****     if (RIIC_TIMEOUT_NOT_USED != p_cfg->timeout)
1599:../generate/sc_drivers/r_riic/src/lld/r_rza2_riic_lld.c ****     {
1600:../generate/sc_drivers/r_riic/src/lld/r_rza2_riic_lld.c ****         /* timeout enabling setting is not done here */
1601:../generate/sc_drivers/r_riic/src/lld/r_rza2_riic_lld.c ****         /* when RIIC transfer start, timeout is enabled */
1602:../generate/sc_drivers/r_riic/src/lld/r_rza2_riic_lld.c ****         if (RIIC_TIMEOUT_SHORT == p_cfg->timeout)
1603:../generate/sc_drivers/r_riic/src/lld/r_rza2_riic_lld.c ****         {
1604:../generate/sc_drivers/r_riic/src/lld/r_rza2_riic_lld.c ****             /* set short mode to timeout counter */
1605:../generate/sc_drivers/r_riic/src/lld/r_rza2_riic_lld.c ****             RZA_IO_RegWrite_32((volatile uint32_t *) &gsp_riic[channel]->ICMR2.LONG, (uint32_t) 1,
1606:../generate/sc_drivers/r_riic/src/lld/r_rza2_riic_lld.c ****             RIIC_ICMR2_TMOS_SHIFT, RIIC_ICMR2_TMOS);
1607:../generate/sc_drivers/r_riic/src/lld/r_rza2_riic_lld.c ****         }
1608:../generate/sc_drivers/r_riic/src/lld/r_rza2_riic_lld.c ****         else if (RIIC_TIMEOUT_LONG == p_cfg->timeout)
1609:../generate/sc_drivers/r_riic/src/lld/r_rza2_riic_lld.c ****         {
1610:../generate/sc_drivers/r_riic/src/lld/r_rza2_riic_lld.c ****             /* set long mode to timeout counter */
1611:../generate/sc_drivers/r_riic/src/lld/r_rza2_riic_lld.c ****             RZA_IO_RegWrite_32((volatile uint32_t *) &gsp_riic[channel]->ICMR2.LONG, (uint32_t) 0,
1612:../generate/sc_drivers/r_riic/src/lld/r_rza2_riic_lld.c ****             RIIC_ICMR2_TMOS_SHIFT, RIIC_ICMR2_TMOS);
1613:../generate/sc_drivers/r_riic/src/lld/r_rza2_riic_lld.c ****         }
1614:../generate/sc_drivers/r_riic/src/lld/r_rza2_riic_lld.c ****         else
1615:../generate/sc_drivers/r_riic/src/lld/r_rza2_riic_lld.c ****         {
1616:../generate/sc_drivers/r_riic/src/lld/r_rza2_riic_lld.c ****             /* disable timeout */
1617:../generate/sc_drivers/r_riic/src/lld/r_rza2_riic_lld.c ****             /* Nothing done */
1618:../generate/sc_drivers/r_riic/src/lld/r_rza2_riic_lld.c ****             ;
1619:../generate/sc_drivers/r_riic/src/lld/r_rza2_riic_lld.c ****         }
1620:../generate/sc_drivers/r_riic/src/lld/r_rza2_riic_lld.c **** 
1621:../generate/sc_drivers/r_riic/src/lld/r_rza2_riic_lld.c ****         /* register the state to be monitored (high & low state) */
1622:../generate/sc_drivers/r_riic/src/lld/r_rza2_riic_lld.c ****         RZA_IO_RegWrite_32((volatile uint32_t *) &gsp_riic[channel]->ICMR2.LONG, (uint32_t) 1, RIIC
1623:../generate/sc_drivers/r_riic/src/lld/r_rza2_riic_lld.c ****         RIIC_ICMR2_TMOL);
1624:../generate/sc_drivers/r_riic/src/lld/r_rza2_riic_lld.c **** 
1625:../generate/sc_drivers/r_riic/src/lld/r_rza2_riic_lld.c ****         /* cast to volatile uint32_t pointer */
1626:../generate/sc_drivers/r_riic/src/lld/r_rza2_riic_lld.c ****         RZA_IO_RegWrite_32((volatile uint32_t *) &gsp_riic[channel]->ICMR2.LONG, (uint32_t) 1, RIIC
1627:../generate/sc_drivers/r_riic/src/lld/r_rza2_riic_lld.c ****         RIIC_ICMR2_TMOH);
1628:../generate/sc_drivers/r_riic/src/lld/r_rza2_riic_lld.c ****     }
1629:../generate/sc_drivers/r_riic/src/lld/r_rza2_riic_lld.c ****     else
1630:../generate/sc_drivers/r_riic/src/lld/r_rza2_riic_lld.c ****     {
1631:../generate/sc_drivers/r_riic/src/lld/r_rza2_riic_lld.c ****         /* register the state to be monitored (high & low state) */
1632:../generate/sc_drivers/r_riic/src/lld/r_rza2_riic_lld.c ****         RZA_IO_RegWrite_32((volatile uint32_t *) &gsp_riic[channel]->ICMR2.LONG, (uint32_t) 0, RIIC
1633:../generate/sc_drivers/r_riic/src/lld/r_rza2_riic_lld.c ****         RIIC_ICMR2_TMOL);
1634:../generate/sc_drivers/r_riic/src/lld/r_rza2_riic_lld.c **** 
1635:../generate/sc_drivers/r_riic/src/lld/r_rza2_riic_lld.c ****         /* cast to volatile uint32_t pointer */
1636:../generate/sc_drivers/r_riic/src/lld/r_rza2_riic_lld.c ****         RZA_IO_RegWrite_32((volatile uint32_t *) &gsp_riic[channel]->ICMR2.LONG, (uint32_t) 0, RIIC
1637:../generate/sc_drivers/r_riic/src/lld/r_rza2_riic_lld.c ****         RIIC_ICMR2_TMOH);
1638:../generate/sc_drivers/r_riic/src/lld/r_rza2_riic_lld.c ****     }
1639:../generate/sc_drivers/r_riic/src/lld/r_rza2_riic_lld.c **** 
1640:../generate/sc_drivers/r_riic/src/lld/r_rza2_riic_lld.c ****     return DRV_SUCCESS;
1641:../generate/sc_drivers/r_riic/src/lld/r_rza2_riic_lld.c **** }
1642:../generate/sc_drivers/r_riic/src/lld/r_rza2_riic_lld.c **** /******************************************************************************
1643:../generate/sc_drivers/r_riic/src/lld/r_rza2_riic_lld.c ****  * End of Function riic_set_timeout
1644:../generate/sc_drivers/r_riic/src/lld/r_rza2_riic_lld.c ****  *****************************************************************************/
1645:../generate/sc_drivers/r_riic/src/lld/r_rza2_riic_lld.c **** 
1646:../generate/sc_drivers/r_riic/src/lld/r_rza2_riic_lld.c **** /******************************************************************************
1647:../generate/sc_drivers/r_riic/src/lld/r_rza2_riic_lld.c **** * Function Name: riic_set_bus_format
1648:../generate/sc_drivers/r_riic/src/lld/r_rza2_riic_lld.c **** * Description  : Sets RIIC timeout parameter.
1649:../generate/sc_drivers/r_riic/src/lld/r_rza2_riic_lld.c **** *                The count-up permission setting is performed at the start of 
1650:../generate/sc_drivers/r_riic/src/lld/r_rza2_riic_lld.c **** *                RIIC transfer.
1651:../generate/sc_drivers/r_riic/src/lld/r_rza2_riic_lld.c **** * Arguments    : channel - RIIC channel channel to set timeout.
1652:../generate/sc_drivers/r_riic/src/lld/r_rza2_riic_lld.c **** *                *p_cfg - RIIC timeout parameter.
1653:../generate/sc_drivers/r_riic/src/lld/r_rza2_riic_lld.c **** * Return Value : DRV_SUCCESS - Success(always).
1654:../generate/sc_drivers/r_riic/src/lld/r_rza2_riic_lld.c **** ******************************************************************************/
1655:../generate/sc_drivers/r_riic/src/lld/r_rza2_riic_lld.c **** static int_t riic_set_bus_format (int_t channel, st_riic_config_t *p_cfg)
1656:../generate/sc_drivers/r_riic/src/lld/r_rza2_riic_lld.c **** {
 720              		.loc 1 1656 1 is_stmt 1 view -0
 721              		.cfi_startproc
 722              		@ args = 0, pretend = 0, frame = 0
 723              		@ frame_needed = 0, uses_anonymous_args = 0
 724              		.loc 1 1656 1 is_stmt 0 view .LVU208
 725 0000 70402DE9 		push	{r4, r5, r6, lr}
 726              		.cfi_def_cfa_offset 16
 727              		.cfi_offset 4, -16
 728              		.cfi_offset 5, -12
 729              		.cfi_offset 6, -8
 730              		.cfi_offset 14, -4
 731 0004 0040A0E1 		mov	r4, r0
1657:../generate/sc_drivers/r_riic/src/lld/r_rza2_riic_lld.c ****     if (RIIC_FORMAT_I2C == p_cfg->format)
 732              		.loc 1 1657 5 is_stmt 1 view .LVU209
 733              		.loc 1 1657 33 is_stmt 0 view .LVU210
 734 0008 2630D1E5 		ldrb	r3, [r1, #38]	@ zero_extendqisi2
 735              		.loc 1 1657 8 view .LVU211
 736 000c 000053E3 		cmp	r3, #0
 737 0010 0E00001A 		bne	.L35
1658:../generate/sc_drivers/r_riic/src/lld/r_rza2_riic_lld.c ****     {
1659:../generate/sc_drivers/r_riic/src/lld/r_rza2_riic_lld.c ****         /* set I2C format */
1660:../generate/sc_drivers/r_riic/src/lld/r_rza2_riic_lld.c ****         RZA_IO_RegWrite_32((volatile uint32_t *) &gsp_riic[channel]->ICMR3.LONG, (uint32_t) 0, RIIC
 738              		.loc 1 1660 9 is_stmt 1 view .LVU212
 739              		.loc 1 1660 59 is_stmt 0 view .LVU213
 740 0014 003000E3 		movw	r3, #:lower16:.LANCHOR3
 741 0018 003040E3 		movt	r3, #:upper16:.LANCHOR3
 742 001c 004193E7 		ldr	r4, [r3, r0, lsl #2]
 743              		.loc 1 1660 9 view .LVU214
 744 0020 8030A0E3 		mov	r3, #128
 745 0024 0720A0E3 		mov	r2, #7
 746 0028 0010A0E3 		mov	r1, #0
 747              	.LVL67:
 748              		.loc 1 1660 9 view .LVU215
 749 002c 100084E2 		add	r0, r4, #16
 750              	.LVL68:
 751              		.loc 1 1660 9 view .LVU216
 752 0030 FEFFFFEB 		bl	RZA_IO_RegWrite_32
 753              	.LVL69:
1661:../generate/sc_drivers/r_riic/src/lld/r_rza2_riic_lld.c ****         RIIC_ICMR3_SMBE);
1662:../generate/sc_drivers/r_riic/src/lld/r_rza2_riic_lld.c **** 
1663:../generate/sc_drivers/r_riic/src/lld/r_rza2_riic_lld.c ****         /* cast to volatile uint32_t pointer */
1664:../generate/sc_drivers/r_riic/src/lld/r_rza2_riic_lld.c ****         RZA_IO_RegWrite_32((volatile uint32_t *) &gsp_riic[channel]->ICSER.LONG, (uint32_t) 0, RIIC
 754              		.loc 1 1664 9 is_stmt 1 view .LVU217
 755 0034 8030A0E3 		mov	r3, #128
 756 0038 0720A0E3 		mov	r2, #7
 757 003c 0010A0E3 		mov	r1, #0
 758 0040 180084E2 		add	r0, r4, #24
 759 0044 FEFFFFEB 		bl	RZA_IO_RegWrite_32
 760              	.LVL70:
 761              	.L36:
1665:../generate/sc_drivers/r_riic/src/lld/r_rza2_riic_lld.c ****         RIIC_ICSER_HOAE);
1666:../generate/sc_drivers/r_riic/src/lld/r_rza2_riic_lld.c ****     }
1667:../generate/sc_drivers/r_riic/src/lld/r_rza2_riic_lld.c ****     else
1668:../generate/sc_drivers/r_riic/src/lld/r_rza2_riic_lld.c ****     {
1669:../generate/sc_drivers/r_riic/src/lld/r_rza2_riic_lld.c ****         /* set SMBUS format */
1670:../generate/sc_drivers/r_riic/src/lld/r_rza2_riic_lld.c ****         RZA_IO_RegWrite_32((volatile uint32_t *) &gsp_riic[channel]->ICMR3.LONG, (uint32_t) 1, RIIC
1671:../generate/sc_drivers/r_riic/src/lld/r_rza2_riic_lld.c ****         RIIC_ICMR3_SMBE);
1672:../generate/sc_drivers/r_riic/src/lld/r_rza2_riic_lld.c ****         if (false != p_cfg->host_address_enabled)
1673:../generate/sc_drivers/r_riic/src/lld/r_rza2_riic_lld.c ****         {
1674:../generate/sc_drivers/r_riic/src/lld/r_rza2_riic_lld.c ****             /* Host address enable */
1675:../generate/sc_drivers/r_riic/src/lld/r_rza2_riic_lld.c ****             RZA_IO_RegWrite_32((volatile uint32_t *) &gsp_riic[channel]->ICSER.LONG, (uint32_t) 1,
1676:../generate/sc_drivers/r_riic/src/lld/r_rza2_riic_lld.c ****             RIIC_ICSER_HOAE_SHIFT, RIIC_ICSER_HOAE);
1677:../generate/sc_drivers/r_riic/src/lld/r_rza2_riic_lld.c ****         }
1678:../generate/sc_drivers/r_riic/src/lld/r_rza2_riic_lld.c ****         else
1679:../generate/sc_drivers/r_riic/src/lld/r_rza2_riic_lld.c ****         {
1680:../generate/sc_drivers/r_riic/src/lld/r_rza2_riic_lld.c ****             /* Host address disable */
1681:../generate/sc_drivers/r_riic/src/lld/r_rza2_riic_lld.c ****             RZA_IO_RegWrite_32((volatile uint32_t *) &gsp_riic[channel]->ICSER.LONG, (uint32_t) 0,
1682:../generate/sc_drivers/r_riic/src/lld/r_rza2_riic_lld.c ****             RIIC_ICSER_HOAE_SHIFT, RIIC_ICSER_HOAE);
1683:../generate/sc_drivers/r_riic/src/lld/r_rza2_riic_lld.c ****         }
1684:../generate/sc_drivers/r_riic/src/lld/r_rza2_riic_lld.c ****     }
1685:../generate/sc_drivers/r_riic/src/lld/r_rza2_riic_lld.c **** 
1686:../generate/sc_drivers/r_riic/src/lld/r_rza2_riic_lld.c ****     return DRV_SUCCESS;
 762              		.loc 1 1686 5 view .LVU218
1687:../generate/sc_drivers/r_riic/src/lld/r_rza2_riic_lld.c **** }
 763              		.loc 1 1687 1 is_stmt 0 view .LVU219
 764 0048 0000A0E3 		mov	r0, #0
 765 004c 7080BDE8 		pop	{r4, r5, r6, pc}
 766              	.LVL71:
 767              	.L35:
 768              		.loc 1 1687 1 view .LVU220
 769 0050 0150A0E1 		mov	r5, r1
1670:../generate/sc_drivers/r_riic/src/lld/r_rza2_riic_lld.c ****         RIIC_ICMR3_SMBE);
 770              		.loc 1 1670 9 is_stmt 1 view .LVU221
1670:../generate/sc_drivers/r_riic/src/lld/r_rza2_riic_lld.c ****         RIIC_ICMR3_SMBE);
 771              		.loc 1 1670 59 is_stmt 0 view .LVU222
 772 0054 003000E3 		movw	r3, #:lower16:.LANCHOR3
 773 0058 003040E3 		movt	r3, #:upper16:.LANCHOR3
 774 005c 000193E7 		ldr	r0, [r3, r0, lsl #2]
 775              	.LVL72:
1670:../generate/sc_drivers/r_riic/src/lld/r_rza2_riic_lld.c ****         RIIC_ICMR3_SMBE);
 776              		.loc 1 1670 9 view .LVU223
 777 0060 8030A0E3 		mov	r3, #128
 778 0064 0720A0E3 		mov	r2, #7
 779 0068 0110A0E3 		mov	r1, #1
 780              	.LVL73:
1670:../generate/sc_drivers/r_riic/src/lld/r_rza2_riic_lld.c ****         RIIC_ICMR3_SMBE);
 781              		.loc 1 1670 9 view .LVU224
 782 006c 100080E2 		add	r0, r0, #16
 783 0070 FEFFFFEB 		bl	RZA_IO_RegWrite_32
 784              	.LVL74:
1672:../generate/sc_drivers/r_riic/src/lld/r_rza2_riic_lld.c ****         {
 785              		.loc 1 1672 9 is_stmt 1 view .LVU225
1672:../generate/sc_drivers/r_riic/src/lld/r_rza2_riic_lld.c ****         {
 786              		.loc 1 1672 27 is_stmt 0 view .LVU226
 787 0074 283095E5 		ldr	r3, [r5, #40]
1672:../generate/sc_drivers/r_riic/src/lld/r_rza2_riic_lld.c ****         {
 788              		.loc 1 1672 12 view .LVU227
 789 0078 000053E3 		cmp	r3, #0
 790 007c 0800000A 		beq	.L37
1675:../generate/sc_drivers/r_riic/src/lld/r_rza2_riic_lld.c ****             RIIC_ICSER_HOAE_SHIFT, RIIC_ICSER_HOAE);
 791              		.loc 1 1675 13 is_stmt 1 view .LVU228
1675:../generate/sc_drivers/r_riic/src/lld/r_rza2_riic_lld.c ****             RIIC_ICSER_HOAE_SHIFT, RIIC_ICSER_HOAE);
 792              		.loc 1 1675 63 is_stmt 0 view .LVU229
 793 0080 003000E3 		movw	r3, #:lower16:.LANCHOR3
 794 0084 003040E3 		movt	r3, #:upper16:.LANCHOR3
 795 0088 040193E7 		ldr	r0, [r3, r4, lsl #2]
1675:../generate/sc_drivers/r_riic/src/lld/r_rza2_riic_lld.c ****             RIIC_ICSER_HOAE_SHIFT, RIIC_ICSER_HOAE);
 796              		.loc 1 1675 13 view .LVU230
 797 008c 8030A0E3 		mov	r3, #128
 798 0090 0720A0E3 		mov	r2, #7
 799 0094 0110A0E3 		mov	r1, #1
 800 0098 180080E2 		add	r0, r0, #24
 801 009c FEFFFFEB 		bl	RZA_IO_RegWrite_32
 802              	.LVL75:
 803 00a0 E8FFFFEA 		b	.L36
 804              	.L37:
1681:../generate/sc_drivers/r_riic/src/lld/r_rza2_riic_lld.c ****             RIIC_ICSER_HOAE_SHIFT, RIIC_ICSER_HOAE);
 805              		.loc 1 1681 13 is_stmt 1 view .LVU231
1681:../generate/sc_drivers/r_riic/src/lld/r_rza2_riic_lld.c ****             RIIC_ICSER_HOAE_SHIFT, RIIC_ICSER_HOAE);
 806              		.loc 1 1681 63 is_stmt 0 view .LVU232
 807 00a4 003000E3 		movw	r3, #:lower16:.LANCHOR3
 808 00a8 003040E3 		movt	r3, #:upper16:.LANCHOR3
 809 00ac 040193E7 		ldr	r0, [r3, r4, lsl #2]
1681:../generate/sc_drivers/r_riic/src/lld/r_rza2_riic_lld.c ****             RIIC_ICSER_HOAE_SHIFT, RIIC_ICSER_HOAE);
 810              		.loc 1 1681 13 view .LVU233
 811 00b0 8030A0E3 		mov	r3, #128
 812 00b4 0720A0E3 		mov	r2, #7
 813 00b8 0010A0E3 		mov	r1, #0
 814 00bc 180080E2 		add	r0, r0, #24
 815 00c0 FEFFFFEB 		bl	RZA_IO_RegWrite_32
 816              	.LVL76:
 817 00c4 DFFFFFEA 		b	.L36
 818              		.cfi_endproc
 819              	.LFE37:
 821              		.section	.text.riic_set_noise_filter,"ax",%progbits
 822              		.align	2
 823              		.syntax unified
 824              		.arm
 825              		.fpu neon
 827              	riic_set_noise_filter:
 828              	.LVL77:
 829              	.LFB35:
1563:../generate/sc_drivers/r_riic/src/lld/r_rza2_riic_lld.c ****     /* set noise filter stages */
 830              		.loc 1 1563 1 is_stmt 1 view -0
 831              		.cfi_startproc
 832              		@ args = 0, pretend = 0, frame = 0
 833              		@ frame_needed = 0, uses_anonymous_args = 0
1563:../generate/sc_drivers/r_riic/src/lld/r_rza2_riic_lld.c ****     /* set noise filter stages */
 834              		.loc 1 1563 1 is_stmt 0 view .LVU235
 835 0000 70402DE9 		push	{r4, r5, r6, lr}
 836              		.cfi_def_cfa_offset 16
 837              		.cfi_offset 4, -16
 838              		.cfi_offset 5, -12
 839              		.cfi_offset 6, -8
 840              		.cfi_offset 14, -4
 841 0004 0040A0E1 		mov	r4, r0
 842 0008 0150A0E1 		mov	r5, r1
1565:../generate/sc_drivers/r_riic/src/lld/r_rza2_riic_lld.c ****                         gs_noise_filter_nf_table[p_cfg->noise_filter_stage], RIIC_ICMR3_NF_SHIFT, R
 843              		.loc 1 1565 5 is_stmt 1 view .LVU236
1565:../generate/sc_drivers/r_riic/src/lld/r_rza2_riic_lld.c ****                         gs_noise_filter_nf_table[p_cfg->noise_filter_stage], RIIC_ICMR3_NF_SHIFT, R
 844              		.loc 1 1565 55 is_stmt 0 view .LVU237
 845 000c 003000E3 		movw	r3, #:lower16:.LANCHOR3
 846 0010 003040E3 		movt	r3, #:upper16:.LANCHOR3
 847 0014 000193E7 		ldr	r0, [r3, r0, lsl #2]
 848              	.LVL78:
1566:../generate/sc_drivers/r_riic/src/lld/r_rza2_riic_lld.c **** 
 849              		.loc 1 1566 55 view .LVU238
 850 0018 24C0D1E5 		ldrb	ip, [r1, #36]	@ zero_extendqisi2
1565:../generate/sc_drivers/r_riic/src/lld/r_rza2_riic_lld.c ****                         gs_noise_filter_nf_table[p_cfg->noise_filter_stage], RIIC_ICMR3_NF_SHIFT, R
 851              		.loc 1 1565 5 view .LVU239
 852 001c 001000E3 		movw	r1, #:lower16:.LANCHOR4
 853              	.LVL79:
1565:../generate/sc_drivers/r_riic/src/lld/r_rza2_riic_lld.c ****                         gs_noise_filter_nf_table[p_cfg->noise_filter_stage], RIIC_ICMR3_NF_SHIFT, R
 854              		.loc 1 1565 5 view .LVU240
 855 0020 001040E3 		movt	r1, #:upper16:.LANCHOR4
 856 0024 0330A0E3 		mov	r3, #3
 857 0028 0020A0E3 		mov	r2, #0
 858 002c 0C1191E7 		ldr	r1, [r1, ip, lsl #2]
 859 0030 100080E2 		add	r0, r0, #16
 860 0034 FEFFFFEB 		bl	RZA_IO_RegWrite_32
 861              	.LVL80:
1568:../generate/sc_drivers/r_riic/src/lld/r_rza2_riic_lld.c ****     {
 862              		.loc 1 1568 5 is_stmt 1 view .LVU241
1568:../generate/sc_drivers/r_riic/src/lld/r_rza2_riic_lld.c ****     {
 863              		.loc 1 1568 38 is_stmt 0 view .LVU242
 864 0038 2430D5E5 		ldrb	r3, [r5, #36]	@ zero_extendqisi2
1568:../generate/sc_drivers/r_riic/src/lld/r_rza2_riic_lld.c ****     {
 865              		.loc 1 1568 8 view .LVU243
 866 003c 000053E3 		cmp	r3, #0
 867 0040 0900000A 		beq	.L40
1571:../generate/sc_drivers/r_riic/src/lld/r_rza2_riic_lld.c ****         RIIC_ICFER_NFE);
 868              		.loc 1 1571 9 is_stmt 1 view .LVU244
1571:../generate/sc_drivers/r_riic/src/lld/r_rza2_riic_lld.c ****         RIIC_ICFER_NFE);
 869              		.loc 1 1571 59 is_stmt 0 view .LVU245
 870 0044 003000E3 		movw	r3, #:lower16:.LANCHOR3
 871 0048 003040E3 		movt	r3, #:upper16:.LANCHOR3
 872 004c 040193E7 		ldr	r0, [r3, r4, lsl #2]
1571:../generate/sc_drivers/r_riic/src/lld/r_rza2_riic_lld.c ****         RIIC_ICFER_NFE);
 873              		.loc 1 1571 9 view .LVU246
 874 0050 2030A0E3 		mov	r3, #32
 875 0054 0520A0E3 		mov	r2, #5
 876 0058 0110A0E3 		mov	r1, #1
 877 005c 140080E2 		add	r0, r0, #20
 878 0060 FEFFFFEB 		bl	RZA_IO_RegWrite_32
 879              	.LVL81:
 880              	.L41:
1581:../generate/sc_drivers/r_riic/src/lld/r_rza2_riic_lld.c **** }
 881              		.loc 1 1581 5 is_stmt 1 view .LVU247
1582:../generate/sc_drivers/r_riic/src/lld/r_rza2_riic_lld.c **** /******************************************************************************
 882              		.loc 1 1582 1 is_stmt 0 view .LVU248
 883 0064 0000A0E3 		mov	r0, #0
 884 0068 7080BDE8 		pop	{r4, r5, r6, pc}
 885              	.L40:
1577:../generate/sc_drivers/r_riic/src/lld/r_rza2_riic_lld.c ****         RIIC_ICFER_NFE);
 886              		.loc 1 1577 9 is_stmt 1 view .LVU249
1577:../generate/sc_drivers/r_riic/src/lld/r_rza2_riic_lld.c ****         RIIC_ICFER_NFE);
 887              		.loc 1 1577 59 is_stmt 0 view .LVU250
 888 006c 003000E3 		movw	r3, #:lower16:.LANCHOR3
 889 0070 003040E3 		movt	r3, #:upper16:.LANCHOR3
 890 0074 040193E7 		ldr	r0, [r3, r4, lsl #2]
1577:../generate/sc_drivers/r_riic/src/lld/r_rza2_riic_lld.c ****         RIIC_ICFER_NFE);
 891              		.loc 1 1577 9 view .LVU251
 892 0078 2030A0E3 		mov	r3, #32
 893 007c 0520A0E3 		mov	r2, #5
 894 0080 0010A0E3 		mov	r1, #0
 895 0084 140080E2 		add	r0, r0, #20
 896 0088 FEFFFFEB 		bl	RZA_IO_RegWrite_32
 897              	.LVL82:
 898 008c F4FFFFEA 		b	.L41
 899              		.cfi_endproc
 900              	.LFE35:
 902              		.section	.text.riic_set_timeout,"ax",%progbits
 903              		.align	2
 904              		.syntax unified
 905              		.arm
 906              		.fpu neon
 908              	riic_set_timeout:
 909              	.LVL83:
 910              	.LFB36:
1597:../generate/sc_drivers/r_riic/src/lld/r_rza2_riic_lld.c ****     if (RIIC_TIMEOUT_NOT_USED != p_cfg->timeout)
 911              		.loc 1 1597 1 is_stmt 1 view -0
 912              		.cfi_startproc
 913              		@ args = 0, pretend = 0, frame = 0
 914              		@ frame_needed = 0, uses_anonymous_args = 0
1597:../generate/sc_drivers/r_riic/src/lld/r_rza2_riic_lld.c ****     if (RIIC_TIMEOUT_NOT_USED != p_cfg->timeout)
 915              		.loc 1 1597 1 is_stmt 0 view .LVU253
 916 0000 10402DE9 		push	{r4, lr}
 917              		.cfi_def_cfa_offset 8
 918              		.cfi_offset 4, -8
 919              		.cfi_offset 14, -4
 920 0004 0040A0E1 		mov	r4, r0
1598:../generate/sc_drivers/r_riic/src/lld/r_rza2_riic_lld.c ****     {
 921              		.loc 1 1598 5 is_stmt 1 view .LVU254
1598:../generate/sc_drivers/r_riic/src/lld/r_rza2_riic_lld.c ****     {
 922              		.loc 1 1598 39 is_stmt 0 view .LVU255
 923 0008 2530D1E5 		ldrb	r3, [r1, #37]	@ zero_extendqisi2
1598:../generate/sc_drivers/r_riic/src/lld/r_rza2_riic_lld.c ****     {
 924              		.loc 1 1598 8 view .LVU256
 925 000c 000053E3 		cmp	r3, #0
 926 0010 2500000A 		beq	.L44
1602:../generate/sc_drivers/r_riic/src/lld/r_rza2_riic_lld.c ****         {
 927              		.loc 1 1602 9 is_stmt 1 view .LVU257
1602:../generate/sc_drivers/r_riic/src/lld/r_rza2_riic_lld.c ****         {
 928              		.loc 1 1602 12 is_stmt 0 view .LVU258
 929 0014 020053E3 		cmp	r3, #2
 930 0018 1100000A 		beq	.L49
1608:../generate/sc_drivers/r_riic/src/lld/r_rza2_riic_lld.c ****         {
 931              		.loc 1 1608 14 is_stmt 1 view .LVU259
1608:../generate/sc_drivers/r_riic/src/lld/r_rza2_riic_lld.c ****         {
 932              		.loc 1 1608 17 is_stmt 0 view .LVU260
 933 001c 010053E3 		cmp	r3, #1
 934 0020 1800000A 		beq	.L50
 935              	.LVL84:
 936              	.L46:
1618:../generate/sc_drivers/r_riic/src/lld/r_rza2_riic_lld.c ****         }
 937              		.loc 1 1618 13 is_stmt 1 view .LVU261
1622:../generate/sc_drivers/r_riic/src/lld/r_rza2_riic_lld.c ****         RIIC_ICMR2_TMOL);
 938              		.loc 1 1622 9 view .LVU262
1622:../generate/sc_drivers/r_riic/src/lld/r_rza2_riic_lld.c ****         RIIC_ICMR2_TMOL);
 939              		.loc 1 1622 59 is_stmt 0 view .LVU263
 940 0024 003000E3 		movw	r3, #:lower16:.LANCHOR3
 941 0028 003040E3 		movt	r3, #:upper16:.LANCHOR3
 942 002c 044193E7 		ldr	r4, [r3, r4, lsl #2]
 943              	.LVL85:
1622:../generate/sc_drivers/r_riic/src/lld/r_rza2_riic_lld.c ****         RIIC_ICMR2_TMOL);
 944              		.loc 1 1622 50 view .LVU264
 945 0030 0C4084E2 		add	r4, r4, #12
1622:../generate/sc_drivers/r_riic/src/lld/r_rza2_riic_lld.c ****         RIIC_ICMR2_TMOL);
 946              		.loc 1 1622 9 view .LVU265
 947 0034 0230A0E3 		mov	r3, #2
 948 0038 0120A0E3 		mov	r2, #1
 949 003c 0210A0E1 		mov	r1, r2
 950 0040 0400A0E1 		mov	r0, r4
 951 0044 FEFFFFEB 		bl	RZA_IO_RegWrite_32
 952              	.LVL86:
1626:../generate/sc_drivers/r_riic/src/lld/r_rza2_riic_lld.c ****         RIIC_ICMR2_TMOH);
 953              		.loc 1 1626 9 is_stmt 1 view .LVU266
 954 0048 0430A0E3 		mov	r3, #4
 955 004c 0220A0E3 		mov	r2, #2
 956 0050 0110A0E3 		mov	r1, #1
 957 0054 0400A0E1 		mov	r0, r4
 958 0058 FEFFFFEB 		bl	RZA_IO_RegWrite_32
 959              	.LVL87:
 960              	.L47:
1640:../generate/sc_drivers/r_riic/src/lld/r_rza2_riic_lld.c **** }
 961              		.loc 1 1640 5 view .LVU267
1641:../generate/sc_drivers/r_riic/src/lld/r_rza2_riic_lld.c **** /******************************************************************************
 962              		.loc 1 1641 1 is_stmt 0 view .LVU268
 963 005c 0000A0E3 		mov	r0, #0
 964 0060 1080BDE8 		pop	{r4, pc}
 965              	.LVL88:
 966              	.L49:
1605:../generate/sc_drivers/r_riic/src/lld/r_rza2_riic_lld.c ****             RIIC_ICMR2_TMOS_SHIFT, RIIC_ICMR2_TMOS);
 967              		.loc 1 1605 13 is_stmt 1 view .LVU269
1605:../generate/sc_drivers/r_riic/src/lld/r_rza2_riic_lld.c ****             RIIC_ICMR2_TMOS_SHIFT, RIIC_ICMR2_TMOS);
 968              		.loc 1 1605 63 is_stmt 0 view .LVU270
 969 0064 003000E3 		movw	r3, #:lower16:.LANCHOR3
 970 0068 003040E3 		movt	r3, #:upper16:.LANCHOR3
 971 006c 000193E7 		ldr	r0, [r3, r0, lsl #2]
 972              	.LVL89:
1605:../generate/sc_drivers/r_riic/src/lld/r_rza2_riic_lld.c ****             RIIC_ICMR2_TMOS_SHIFT, RIIC_ICMR2_TMOS);
 973              		.loc 1 1605 13 view .LVU271
 974 0070 0130A0E3 		mov	r3, #1
 975 0074 0020A0E3 		mov	r2, #0
 976 0078 0310A0E1 		mov	r1, r3
 977              	.LVL90:
1605:../generate/sc_drivers/r_riic/src/lld/r_rza2_riic_lld.c ****             RIIC_ICMR2_TMOS_SHIFT, RIIC_ICMR2_TMOS);
 978              		.loc 1 1605 13 view .LVU272
 979 007c 0C0080E2 		add	r0, r0, #12
 980 0080 FEFFFFEB 		bl	RZA_IO_RegWrite_32
 981              	.LVL91:
 982 0084 E6FFFFEA 		b	.L46
 983              	.LVL92:
 984              	.L50:
1611:../generate/sc_drivers/r_riic/src/lld/r_rza2_riic_lld.c ****             RIIC_ICMR2_TMOS_SHIFT, RIIC_ICMR2_TMOS);
 985              		.loc 1 1611 13 is_stmt 1 view .LVU273
1611:../generate/sc_drivers/r_riic/src/lld/r_rza2_riic_lld.c ****             RIIC_ICMR2_TMOS_SHIFT, RIIC_ICMR2_TMOS);
 986              		.loc 1 1611 63 is_stmt 0 view .LVU274
 987 0088 003000E3 		movw	r3, #:lower16:.LANCHOR3
 988 008c 003040E3 		movt	r3, #:upper16:.LANCHOR3
 989 0090 000193E7 		ldr	r0, [r3, r0, lsl #2]
 990              	.LVL93:
1611:../generate/sc_drivers/r_riic/src/lld/r_rza2_riic_lld.c ****             RIIC_ICMR2_TMOS_SHIFT, RIIC_ICMR2_TMOS);
 991              		.loc 1 1611 13 view .LVU275
 992 0094 0130A0E3 		mov	r3, #1
 993 0098 0020A0E3 		mov	r2, #0
 994 009c 0210A0E1 		mov	r1, r2
 995              	.LVL94:
1611:../generate/sc_drivers/r_riic/src/lld/r_rza2_riic_lld.c ****             RIIC_ICMR2_TMOS_SHIFT, RIIC_ICMR2_TMOS);
 996              		.loc 1 1611 13 view .LVU276
 997 00a0 0C0080E2 		add	r0, r0, #12
 998 00a4 FEFFFFEB 		bl	RZA_IO_RegWrite_32
 999              	.LVL95:
 1000 00a8 DDFFFFEA 		b	.L46
 1001              	.LVL96:
 1002              	.L44:
1632:../generate/sc_drivers/r_riic/src/lld/r_rza2_riic_lld.c ****         RIIC_ICMR2_TMOL);
 1003              		.loc 1 1632 9 is_stmt 1 view .LVU277
1632:../generate/sc_drivers/r_riic/src/lld/r_rza2_riic_lld.c ****         RIIC_ICMR2_TMOL);
 1004              		.loc 1 1632 59 is_stmt 0 view .LVU278
 1005 00ac 003000E3 		movw	r3, #:lower16:.LANCHOR3
 1006 00b0 003040E3 		movt	r3, #:upper16:.LANCHOR3
 1007 00b4 004193E7 		ldr	r4, [r3, r0, lsl #2]
1632:../generate/sc_drivers/r_riic/src/lld/r_rza2_riic_lld.c ****         RIIC_ICMR2_TMOL);
 1008              		.loc 1 1632 50 view .LVU279
 1009 00b8 0C4084E2 		add	r4, r4, #12
1632:../generate/sc_drivers/r_riic/src/lld/r_rza2_riic_lld.c ****         RIIC_ICMR2_TMOL);
 1010              		.loc 1 1632 9 view .LVU280
 1011 00bc 0230A0E3 		mov	r3, #2
 1012 00c0 0120A0E3 		mov	r2, #1
 1013 00c4 0010A0E3 		mov	r1, #0
 1014              	.LVL97:
1632:../generate/sc_drivers/r_riic/src/lld/r_rza2_riic_lld.c ****         RIIC_ICMR2_TMOL);
 1015              		.loc 1 1632 9 view .LVU281
 1016 00c8 0400A0E1 		mov	r0, r4
 1017              	.LVL98:
1632:../generate/sc_drivers/r_riic/src/lld/r_rza2_riic_lld.c ****         RIIC_ICMR2_TMOL);
 1018              		.loc 1 1632 9 view .LVU282
 1019 00cc FEFFFFEB 		bl	RZA_IO_RegWrite_32
 1020              	.LVL99:
1636:../generate/sc_drivers/r_riic/src/lld/r_rza2_riic_lld.c ****         RIIC_ICMR2_TMOH);
 1021              		.loc 1 1636 9 is_stmt 1 view .LVU283
 1022 00d0 0430A0E3 		mov	r3, #4
 1023 00d4 0220A0E3 		mov	r2, #2
 1024 00d8 0010A0E3 		mov	r1, #0
 1025 00dc 0400A0E1 		mov	r0, r4
 1026 00e0 FEFFFFEB 		bl	RZA_IO_RegWrite_32
 1027              	.LVL100:
 1028 00e4 DCFFFFEA 		b	.L47
 1029              		.cfi_endproc
 1030              	.LFE36:
 1032              		.section	.text.riic_hw_init,"ax",%progbits
 1033              		.align	2
 1034              		.syntax unified
 1035              		.arm
 1036              		.fpu neon
 1038              	riic_hw_init:
 1039              	.LVL101:
 1040              	.LFB38:
1688:../generate/sc_drivers/r_riic/src/lld/r_rza2_riic_lld.c **** /******************************************************************************
1689:../generate/sc_drivers/r_riic/src/lld/r_rza2_riic_lld.c ****  * End of Function riic_set_bus_format
1690:../generate/sc_drivers/r_riic/src/lld/r_rza2_riic_lld.c ****  *****************************************************************************/
1691:../generate/sc_drivers/r_riic/src/lld/r_rza2_riic_lld.c **** 
1692:../generate/sc_drivers/r_riic/src/lld/r_rza2_riic_lld.c **** /**
1693:../generate/sc_drivers/r_riic/src/lld/r_rza2_riic_lld.c ****  * @brief riic_hw_init Initialize register of RIIC
1694:../generate/sc_drivers/r_riic/src/lld/r_rza2_riic_lld.c ****  *
1695:../generate/sc_drivers/r_riic/src/lld/r_rza2_riic_lld.c ****  * riic_hw_init initialize RIIC HW.
1696:../generate/sc_drivers/r_riic/src/lld/r_rza2_riic_lld.c ****  * This function is called when HW initialization fails and when it is closed.
1697:../generate/sc_drivers/r_riic/src/lld/r_rza2_riic_lld.c ****  *
1698:../generate/sc_drivers/r_riic/src/lld/r_rza2_riic_lld.c ****  * @param[in] Channel RIIC channel to set timeout.
1699:../generate/sc_drivers/r_riic/src/lld/r_rza2_riic_lld.c ****  *
1700:../generate/sc_drivers/r_riic/src/lld/r_rza2_riic_lld.c ****  * @retval  none
1701:../generate/sc_drivers/r_riic/src/lld/r_rza2_riic_lld.c ****  */
1702:../generate/sc_drivers/r_riic/src/lld/r_rza2_riic_lld.c **** /******************************************************************************
1703:../generate/sc_drivers/r_riic/src/lld/r_rza2_riic_lld.c **** * Function Name: riic_hw_init
1704:../generate/sc_drivers/r_riic/src/lld/r_rza2_riic_lld.c **** * Description  : Initialize RIIC HW.
1705:../generate/sc_drivers/r_riic/src/lld/r_rza2_riic_lld.c **** *                This function is called when HW initialization fails and when 
1706:../generate/sc_drivers/r_riic/src/lld/r_rza2_riic_lld.c **** *                it is closed.
1707:../generate/sc_drivers/r_riic/src/lld/r_rza2_riic_lld.c **** * Arguments    : channel - RIIC channel channel to set timeout.
1708:../generate/sc_drivers/r_riic/src/lld/r_rza2_riic_lld.c **** * Return Value : DRV_SUCCESS - Success(always).
1709:../generate/sc_drivers/r_riic/src/lld/r_rza2_riic_lld.c **** ******************************************************************************/
1710:../generate/sc_drivers/r_riic/src/lld/r_rza2_riic_lld.c **** static int_t riic_hw_init (int_t channel)
1711:../generate/sc_drivers/r_riic/src/lld/r_rza2_riic_lld.c **** {
 1041              		.loc 1 1711 1 view -0
 1042              		.cfi_startproc
 1043              		@ args = 0, pretend = 0, frame = 0
 1044              		@ frame_needed = 0, uses_anonymous_args = 0
 1045              		.loc 1 1711 1 is_stmt 0 view .LVU285
 1046 0000 70402DE9 		push	{r4, r5, r6, lr}
 1047              		.cfi_def_cfa_offset 16
 1048              		.cfi_offset 4, -16
 1049              		.cfi_offset 5, -12
 1050              		.cfi_offset 6, -8
 1051              		.cfi_offset 14, -4
1712:../generate/sc_drivers/r_riic/src/lld/r_rza2_riic_lld.c ****     /* clear slave address */
1713:../generate/sc_drivers/r_riic/src/lld/r_rza2_riic_lld.c ****     RZA_IO_RegWrite_32((volatile uint32_t *) &gsp_riic[channel]->ICSER.LONG, (uint32_t) 0, RIIC_ICS
 1052              		.loc 1 1713 5 is_stmt 1 view .LVU286
 1053              		.loc 1 1713 55 is_stmt 0 view .LVU287
 1054 0004 003000E3 		movw	r3, #:lower16:.LANCHOR3
 1055 0008 003040E3 		movt	r3, #:upper16:.LANCHOR3
 1056 000c 004193E7 		ldr	r4, [r3, r0, lsl #2]
 1057              		.loc 1 1713 46 view .LVU288
 1058 0010 185084E2 		add	r5, r4, #24
 1059              		.loc 1 1713 5 view .LVU289
 1060 0014 0130A0E3 		mov	r3, #1
 1061 0018 0020A0E3 		mov	r2, #0
 1062 001c 0210A0E1 		mov	r1, r2
 1063 0020 0500A0E1 		mov	r0, r5
 1064              	.LVL102:
 1065              		.loc 1 1713 5 view .LVU290
 1066 0024 FEFFFFEB 		bl	RZA_IO_RegWrite_32
 1067              	.LVL103:
1714:../generate/sc_drivers/r_riic/src/lld/r_rza2_riic_lld.c ****     RIIC_ICSER_SAR0);
1715:../generate/sc_drivers/r_riic/src/lld/r_rza2_riic_lld.c **** 
1716:../generate/sc_drivers/r_riic/src/lld/r_rza2_riic_lld.c ****     /* cast to volatile uint32_t pointer */
1717:../generate/sc_drivers/r_riic/src/lld/r_rza2_riic_lld.c ****     RZA_IO_RegWrite_32((volatile uint32_t *) &gsp_riic[channel]->ICSAR0.LONG, (uint32_t) 0, IOREG_N
 1068              		.loc 1 1717 5 is_stmt 1 view .LVU291
 1069 0028 0030E0E3 		mvn	r3, #0
 1070 002c 0020A0E3 		mov	r2, #0
 1071 0030 0210A0E1 		mov	r1, r2
 1072 0034 280084E2 		add	r0, r4, #40
 1073 0038 FEFFFFEB 		bl	RZA_IO_RegWrite_32
 1074              	.LVL104:
1718:../generate/sc_drivers/r_riic/src/lld/r_rza2_riic_lld.c ****     IOREG_NONMASK_ACCESS);
1719:../generate/sc_drivers/r_riic/src/lld/r_rza2_riic_lld.c **** 
1720:../generate/sc_drivers/r_riic/src/lld/r_rza2_riic_lld.c ****     /* cast to volatile uint32_t pointer */
1721:../generate/sc_drivers/r_riic/src/lld/r_rza2_riic_lld.c ****     RZA_IO_RegWrite_32((volatile uint32_t *) &gsp_riic[channel]->ICSER.LONG, (uint32_t) 0, RIIC_ICS
 1075              		.loc 1 1721 5 view .LVU292
 1076 003c 0230A0E3 		mov	r3, #2
 1077 0040 0120A0E3 		mov	r2, #1
 1078 0044 0010A0E3 		mov	r1, #0
 1079 0048 0500A0E1 		mov	r0, r5
 1080 004c FEFFFFEB 		bl	RZA_IO_RegWrite_32
 1081              	.LVL105:
1722:../generate/sc_drivers/r_riic/src/lld/r_rza2_riic_lld.c ****     RIIC_ICSER_SAR1);
1723:../generate/sc_drivers/r_riic/src/lld/r_rza2_riic_lld.c **** 
1724:../generate/sc_drivers/r_riic/src/lld/r_rza2_riic_lld.c ****     /* cast to volatile uint32_t pointer */
1725:../generate/sc_drivers/r_riic/src/lld/r_rza2_riic_lld.c ****     RZA_IO_RegWrite_32((volatile uint32_t *) &gsp_riic[channel]->ICSAR1.LONG, (uint32_t) 0, IOREG_N
 1082              		.loc 1 1725 5 view .LVU293
 1083 0050 0030E0E3 		mvn	r3, #0
 1084 0054 0020A0E3 		mov	r2, #0
 1085 0058 0210A0E1 		mov	r1, r2
 1086 005c 2C0084E2 		add	r0, r4, #44
 1087 0060 FEFFFFEB 		bl	RZA_IO_RegWrite_32
 1088              	.LVL106:
1726:../generate/sc_drivers/r_riic/src/lld/r_rza2_riic_lld.c ****     IOREG_NONMASK_ACCESS);
1727:../generate/sc_drivers/r_riic/src/lld/r_rza2_riic_lld.c **** 
1728:../generate/sc_drivers/r_riic/src/lld/r_rza2_riic_lld.c ****     /* cast to volatile uint32_t pointer */
1729:../generate/sc_drivers/r_riic/src/lld/r_rza2_riic_lld.c ****     RZA_IO_RegWrite_32((volatile uint32_t *) &gsp_riic[channel]->ICSER.LONG, (uint32_t) 0, RIIC_ICS
 1089              		.loc 1 1729 5 view .LVU294
 1090 0064 0430A0E3 		mov	r3, #4
 1091 0068 0220A0E3 		mov	r2, #2
 1092 006c 0010A0E3 		mov	r1, #0
 1093 0070 0500A0E1 		mov	r0, r5
 1094 0074 FEFFFFEB 		bl	RZA_IO_RegWrite_32
 1095              	.LVL107:
1730:../generate/sc_drivers/r_riic/src/lld/r_rza2_riic_lld.c ****     RIIC_ICSER_SAR2);
1731:../generate/sc_drivers/r_riic/src/lld/r_rza2_riic_lld.c **** 
1732:../generate/sc_drivers/r_riic/src/lld/r_rza2_riic_lld.c ****     /* cast to volatile uint32_t pointer */
1733:../generate/sc_drivers/r_riic/src/lld/r_rza2_riic_lld.c ****     RZA_IO_RegWrite_32((volatile uint32_t *) &gsp_riic[channel]->ICSAR2.LONG, (uint32_t) 0, IOREG_N
 1096              		.loc 1 1733 5 view .LVU295
 1097 0078 0030E0E3 		mvn	r3, #0
 1098 007c 0020A0E3 		mov	r2, #0
 1099 0080 0210A0E1 		mov	r1, r2
 1100 0084 300084E2 		add	r0, r4, #48
 1101 0088 FEFFFFEB 		bl	RZA_IO_RegWrite_32
 1102              	.LVL108:
1734:../generate/sc_drivers/r_riic/src/lld/r_rza2_riic_lld.c ****     IOREG_NONMASK_ACCESS);
1735:../generate/sc_drivers/r_riic/src/lld/r_rza2_riic_lld.c **** 
1736:../generate/sc_drivers/r_riic/src/lld/r_rza2_riic_lld.c ****     /* clear fast mode plus */
1737:../generate/sc_drivers/r_riic/src/lld/r_rza2_riic_lld.c ****     RZA_IO_RegWrite_32((volatile uint32_t *) &gsp_riic[channel]->ICFER.LONG, (uint32_t) 0, RIIC_ICF
 1103              		.loc 1 1737 5 view .LVU296
 1104              		.loc 1 1737 46 is_stmt 0 view .LVU297
 1105 008c 145084E2 		add	r5, r4, #20
 1106              		.loc 1 1737 5 view .LVU298
 1107 0090 8030A0E3 		mov	r3, #128
 1108 0094 0720A0E3 		mov	r2, #7
 1109 0098 0010A0E3 		mov	r1, #0
 1110 009c 0500A0E1 		mov	r0, r5
 1111 00a0 FEFFFFEB 		bl	RZA_IO_RegWrite_32
 1112              	.LVL109:
1738:../generate/sc_drivers/r_riic/src/lld/r_rza2_riic_lld.c ****     RIIC_ICFER_FMPE);
1739:../generate/sc_drivers/r_riic/src/lld/r_rza2_riic_lld.c **** 
1740:../generate/sc_drivers/r_riic/src/lld/r_rza2_riic_lld.c ****     /* cast to volatile uint32_t pointer */
1741:../generate/sc_drivers/r_riic/src/lld/r_rza2_riic_lld.c ****     RZA_IO_RegWrite_32((volatile uint32_t *) &gsp_riic[channel]->ICMR1.LONG, (uint32_t) 0, RIIC_ICM
 1113              		.loc 1 1741 5 is_stmt 1 view .LVU299
 1114 00a4 7030A0E3 		mov	r3, #112
 1115 00a8 0420A0E3 		mov	r2, #4
 1116 00ac 0010A0E3 		mov	r1, #0
 1117 00b0 080084E2 		add	r0, r4, #8
 1118 00b4 FEFFFFEB 		bl	RZA_IO_RegWrite_32
 1119              	.LVL110:
1742:../generate/sc_drivers/r_riic/src/lld/r_rza2_riic_lld.c ****     RIIC_ICMR1_CKS);
1743:../generate/sc_drivers/r_riic/src/lld/r_rza2_riic_lld.c **** 
1744:../generate/sc_drivers/r_riic/src/lld/r_rza2_riic_lld.c ****     /* cast to volatile uint32_t pointer */
1745:../generate/sc_drivers/r_riic/src/lld/r_rza2_riic_lld.c ****     RZA_IO_RegWrite_32((volatile uint32_t *) &gsp_riic[channel]->ICBRL.LONG, (uint32_t) 0, RIIC_ICB
 1120              		.loc 1 1745 5 view .LVU300
 1121 00b8 1F30A0E3 		mov	r3, #31
 1122 00bc 0020A0E3 		mov	r2, #0
 1123 00c0 0210A0E1 		mov	r1, r2
 1124 00c4 340084E2 		add	r0, r4, #52
 1125 00c8 FEFFFFEB 		bl	RZA_IO_RegWrite_32
 1126              	.LVL111:
1746:../generate/sc_drivers/r_riic/src/lld/r_rza2_riic_lld.c ****     RIIC_ICBRL_BRL);
1747:../generate/sc_drivers/r_riic/src/lld/r_rza2_riic_lld.c **** 
1748:../generate/sc_drivers/r_riic/src/lld/r_rza2_riic_lld.c ****     /* cast to volatile uint32_t pointer */
1749:../generate/sc_drivers/r_riic/src/lld/r_rza2_riic_lld.c ****     RZA_IO_RegWrite_32((volatile uint32_t *) &gsp_riic[channel]->ICBRH.LONG, (uint32_t) 0, RIIC_ICB
 1127              		.loc 1 1749 5 view .LVU301
 1128 00cc 1F30A0E3 		mov	r3, #31
 1129 00d0 0020A0E3 		mov	r2, #0
 1130 00d4 0210A0E1 		mov	r1, r2
 1131 00d8 380084E2 		add	r0, r4, #56
 1132 00dc FEFFFFEB 		bl	RZA_IO_RegWrite_32
 1133              	.LVL112:
1750:../generate/sc_drivers/r_riic/src/lld/r_rza2_riic_lld.c ****     RIIC_ICBRH_BRH);
1751:../generate/sc_drivers/r_riic/src/lld/r_rza2_riic_lld.c **** 
1752:../generate/sc_drivers/r_riic/src/lld/r_rza2_riic_lld.c ****     /* clear noise filter stages */
1753:../generate/sc_drivers/r_riic/src/lld/r_rza2_riic_lld.c ****     RZA_IO_RegWrite_32((volatile uint32_t *) &gsp_riic[channel]->ICMR3.LONG, (uint32_t) 0, RIIC_ICM
 1134              		.loc 1 1753 5 view .LVU302
 1135 00e0 0330A0E3 		mov	r3, #3
 1136 00e4 0020A0E3 		mov	r2, #0
 1137 00e8 0210A0E1 		mov	r1, r2
 1138 00ec 100084E2 		add	r0, r4, #16
 1139 00f0 FEFFFFEB 		bl	RZA_IO_RegWrite_32
 1140              	.LVL113:
1754:../generate/sc_drivers/r_riic/src/lld/r_rza2_riic_lld.c ****     RIIC_ICMR3_NF);
1755:../generate/sc_drivers/r_riic/src/lld/r_rza2_riic_lld.c **** 
1756:../generate/sc_drivers/r_riic/src/lld/r_rza2_riic_lld.c ****     /* noise filter disable */
1757:../generate/sc_drivers/r_riic/src/lld/r_rza2_riic_lld.c ****     RZA_IO_RegWrite_32((volatile uint32_t *) &gsp_riic[channel]->ICFER.LONG, (uint32_t) 0, RIIC_ICF
 1141              		.loc 1 1757 5 view .LVU303
 1142 00f4 2030A0E3 		mov	r3, #32
 1143 00f8 0520A0E3 		mov	r2, #5
 1144 00fc 0010A0E3 		mov	r1, #0
 1145 0100 0500A0E1 		mov	r0, r5
 1146 0104 FEFFFFEB 		bl	RZA_IO_RegWrite_32
 1147              	.LVL114:
1758:../generate/sc_drivers/r_riic/src/lld/r_rza2_riic_lld.c ****     RIIC_ICFER_NFE);
1759:../generate/sc_drivers/r_riic/src/lld/r_rza2_riic_lld.c **** 
1760:../generate/sc_drivers/r_riic/src/lld/r_rza2_riic_lld.c ****     /* register the state to be monitored (high & low state) */
1761:../generate/sc_drivers/r_riic/src/lld/r_rza2_riic_lld.c ****     RZA_IO_RegWrite_32((volatile uint32_t *) &gsp_riic[channel]->ICMR2.LONG, (uint32_t) 0, RIIC_ICM
 1148              		.loc 1 1761 5 view .LVU304
 1149              		.loc 1 1761 46 is_stmt 0 view .LVU305
 1150 0108 0C4084E2 		add	r4, r4, #12
 1151              		.loc 1 1761 5 view .LVU306
 1152 010c 0230A0E3 		mov	r3, #2
 1153 0110 0120A0E3 		mov	r2, #1
 1154 0114 0010A0E3 		mov	r1, #0
 1155 0118 0400A0E1 		mov	r0, r4
 1156 011c FEFFFFEB 		bl	RZA_IO_RegWrite_32
 1157              	.LVL115:
1762:../generate/sc_drivers/r_riic/src/lld/r_rza2_riic_lld.c ****     RIIC_ICMR2_TMOL);
1763:../generate/sc_drivers/r_riic/src/lld/r_rza2_riic_lld.c **** 
1764:../generate/sc_drivers/r_riic/src/lld/r_rza2_riic_lld.c ****     /* cast to volatile uint32_t pointer */
1765:../generate/sc_drivers/r_riic/src/lld/r_rza2_riic_lld.c ****     RZA_IO_RegWrite_32((volatile uint32_t *) &gsp_riic[channel]->ICMR2.LONG, (uint32_t) 0, RIIC_ICM
 1158              		.loc 1 1765 5 is_stmt 1 view .LVU307
 1159 0120 0430A0E3 		mov	r3, #4
 1160 0124 0220A0E3 		mov	r2, #2
 1161 0128 0010A0E3 		mov	r1, #0
 1162 012c 0400A0E1 		mov	r0, r4
 1163 0130 FEFFFFEB 		bl	RZA_IO_RegWrite_32
 1164              	.LVL116:
1766:../generate/sc_drivers/r_riic/src/lld/r_rza2_riic_lld.c ****     RIIC_ICMR2_TMOH);
1767:../generate/sc_drivers/r_riic/src/lld/r_rza2_riic_lld.c **** 
1768:../generate/sc_drivers/r_riic/src/lld/r_rza2_riic_lld.c ****     return DRV_SUCCESS;
 1165              		.loc 1 1768 5 view .LVU308
1769:../generate/sc_drivers/r_riic/src/lld/r_rza2_riic_lld.c **** }
 1166              		.loc 1 1769 1 is_stmt 0 view .LVU309
 1167 0134 0000A0E3 		mov	r0, #0
 1168 0138 7080BDE8 		pop	{r4, r5, r6, pc}
 1169              		.cfi_endproc
 1170              	.LFE38:
 1172              		.section	.text.riic_release_reset,"ax",%progbits
 1173              		.align	2
 1174              		.syntax unified
 1175              		.arm
 1176              		.fpu neon
 1178              	riic_release_reset:
 1179              	.LVL117:
 1180              	.LFB32:
1223:../generate/sc_drivers/r_riic/src/lld/r_rza2_riic_lld.c **** 
 1181              		.loc 1 1223 1 is_stmt 1 view -0
 1182              		.cfi_startproc
 1183              		@ args = 0, pretend = 0, frame = 0
 1184              		@ frame_needed = 0, uses_anonymous_args = 0
1223:../generate/sc_drivers/r_riic/src/lld/r_rza2_riic_lld.c **** 
 1185              		.loc 1 1223 1 is_stmt 0 view .LVU311
 1186 0000 10402DE9 		push	{r4, lr}
 1187              		.cfi_def_cfa_offset 8
 1188              		.cfi_offset 4, -8
 1189              		.cfi_offset 14, -4
1226:../generate/sc_drivers/r_riic/src/lld/r_rza2_riic_lld.c ****     RIIC_ICCR1_IICRST);
 1190              		.loc 1 1226 5 is_stmt 1 view .LVU312
1226:../generate/sc_drivers/r_riic/src/lld/r_rza2_riic_lld.c ****     RIIC_ICCR1_IICRST);
 1191              		.loc 1 1226 55 is_stmt 0 view .LVU313
 1192 0004 00C000E3 		movw	ip, #:lower16:.LANCHOR3
 1193 0008 00C040E3 		movt	ip, #:upper16:.LANCHOR3
1226:../generate/sc_drivers/r_riic/src/lld/r_rza2_riic_lld.c ****     RIIC_ICCR1_IICRST);
 1194              		.loc 1 1226 5 view .LVU314
 1195 000c 4030A0E3 		mov	r3, #64
 1196 0010 0620A0E3 		mov	r2, #6
 1197 0014 0010A0E3 		mov	r1, #0
 1198 0018 00019CE7 		ldr	r0, [ip, r0, lsl #2]
 1199              	.LVL118:
1226:../generate/sc_drivers/r_riic/src/lld/r_rza2_riic_lld.c ****     RIIC_ICCR1_IICRST);
 1200              		.loc 1 1226 5 view .LVU315
 1201 001c FEFFFFEB 		bl	RZA_IO_RegWrite_32
 1202              	.LVL119:
1229:../generate/sc_drivers/r_riic/src/lld/r_rza2_riic_lld.c **** }
 1203              		.loc 1 1229 5 is_stmt 1 view .LVU316
1230:../generate/sc_drivers/r_riic/src/lld/r_rza2_riic_lld.c **** /******************************************************************************
 1204              		.loc 1 1230 1 is_stmt 0 view .LVU317
 1205 0020 0000A0E3 		mov	r0, #0
 1206 0024 1080BDE8 		pop	{r4, pc}
 1207              		.cfi_endproc
 1208              	.LFE32:
 1210              		.section	.text.R_RIIC_ScInitChannel,"ax",%progbits
 1211              		.align	2
 1212              		.global	R_RIIC_ScInitChannel
 1213              		.syntax unified
 1214              		.arm
 1215              		.fpu neon
 1217              	R_RIIC_ScInitChannel:
 1218              	.LVL120:
 1219              	.LFB3:
 240:../generate/sc_drivers/r_riic/src/lld/r_rza2_riic_lld.c ****     int_t retval = DRV_SUCCESS;
 1220              		.loc 1 240 1 is_stmt 1 view -0
 1221              		.cfi_startproc
 1222              		@ args = 0, pretend = 0, frame = 0
 1223              		@ frame_needed = 0, uses_anonymous_args = 0
 240:../generate/sc_drivers/r_riic/src/lld/r_rza2_riic_lld.c ****     int_t retval = DRV_SUCCESS;
 1224              		.loc 1 240 1 is_stmt 0 view .LVU319
 1225 0000 F0412DE9 		push	{r4, r5, r6, r7, r8, lr}
 1226              		.cfi_def_cfa_offset 24
 1227              		.cfi_offset 4, -24
 1228              		.cfi_offset 5, -20
 1229              		.cfi_offset 6, -16
 1230              		.cfi_offset 7, -12
 1231              		.cfi_offset 8, -8
 1232              		.cfi_offset 14, -4
 1233 0004 0150A0E1 		mov	r5, r1
 241:../generate/sc_drivers/r_riic/src/lld/r_rza2_riic_lld.c ****     uint32_t slave_addr_num;
 1234              		.loc 1 241 5 is_stmt 1 view .LVU320
 1235              	.LVL121:
 242:../generate/sc_drivers/r_riic/src/lld/r_rza2_riic_lld.c ****     int_t channel;
 1236              		.loc 1 242 5 view .LVU321
 243:../generate/sc_drivers/r_riic/src/lld/r_rza2_riic_lld.c ****     int_t sc_table_size = (sizeof(RIIC_SC_TABLE)) / (sizeof(st_r_drv_riic_sc_config_t));
 1237              		.loc 1 243 5 view .LVU322
 244:../generate/sc_drivers/r_riic/src/lld/r_rza2_riic_lld.c **** 
 1238              		.loc 1 244 5 view .LVU323
 247:../generate/sc_drivers/r_riic/src/lld/r_rza2_riic_lld.c ****     {
 1239              		.loc 1 247 5 view .LVU324
 247:../generate/sc_drivers/r_riic/src/lld/r_rza2_riic_lld.c ****     {
 1240              		.loc 1 247 32 is_stmt 0 view .LVU325
 1241 0008 0030E0E1 		mvn	r3, r0
 1242 000c A33FA0E1 		lsr	r3, r3, #31
 1243 0010 000050E3 		cmp	r0, #0
 1244 0014 0030A0C3 		movgt	r3, #0
 247:../generate/sc_drivers/r_riic/src/lld/r_rza2_riic_lld.c ****     {
 1245              		.loc 1 247 8 view .LVU326
 1246 0018 000053E3 		cmp	r3, #0
 1247 001c 6000000A 		beq	.L63
 249:../generate/sc_drivers/r_riic/src/lld/r_rza2_riic_lld.c ****             
 1248              		.loc 1 249 9 is_stmt 1 view .LVU327
 249:../generate/sc_drivers/r_riic/src/lld/r_rza2_riic_lld.c ****             
 1249              		.loc 1 249 17 is_stmt 0 view .LVU328
 1250 0020 003000E3 		movw	r3, #:lower16:.LANCHOR5
 1251 0024 003040E3 		movt	r3, #:upper16:.LANCHOR5
 1252 0028 002280E0 		add	r2, r0, r0, lsl #4
 1253 002c 024193E7 		ldr	r4, [r3, r2, lsl #2]
 1254              	.LVL122:
 252:../generate/sc_drivers/r_riic/src/lld/r_rza2_riic_lld.c ****         {
 1255              		.loc 1 252 9 is_stmt 1 view .LVU329
 252:../generate/sc_drivers/r_riic/src/lld/r_rza2_riic_lld.c ****         {
 1256              		.loc 1 252 12 is_stmt 0 view .LVU330
 1257 0030 030054E3 		cmp	r4, #3
 1258 0034 6100008A 		bhi	.L64
 262:../generate/sc_drivers/r_riic/src/lld/r_rza2_riic_lld.c ****     {
 1259              		.loc 1 262 5 is_stmt 1 view .LVU331
 264:../generate/sc_drivers/r_riic/src/lld/r_rza2_riic_lld.c ****         for (slave_addr_num = 0; slave_addr_num < RIIC_SLAVE_ADDR_NUM_MAX; slave_addr_num++)
 1260              		.loc 1 264 9 view .LVU332
 264:../generate/sc_drivers/r_riic/src/lld/r_rza2_riic_lld.c ****         for (slave_addr_num = 0; slave_addr_num < RIIC_SLAVE_ADDR_NUM_MAX; slave_addr_num++)
 1261              		.loc 1 264 82 is_stmt 0 view .LVU333
 1262 0038 003000E3 		movw	r3, #:lower16:.LANCHOR5
 1263 003c 003040E3 		movt	r3, #:upper16:.LANCHOR5
 1264 0040 023183E0 		add	r3, r3, r2, lsl #2
 1265 0044 0410D3E5 		ldrb	r1, [r3, #4]	@ zero_extendqisi2
 1266              	.LVL123:
 264:../generate/sc_drivers/r_riic/src/lld/r_rza2_riic_lld.c ****         for (slave_addr_num = 0; slave_addr_num < RIIC_SLAVE_ADDR_NUM_MAX; slave_addr_num++)
 1267              		.loc 1 264 43 view .LVU334
 1268 0048 002000E3 		movw	r2, #:lower16:.LANCHOR6
 1269 004c 002040E3 		movt	r2, #:upper16:.LANCHOR6
 1270 0050 3430A0E3 		mov	r3, #52
 1271 0054 930403E0 		mul	r3, r3, r4
 1272 0058 0310C2E7 		strb	r1, [r2, r3]
 265:../generate/sc_drivers/r_riic/src/lld/r_rza2_riic_lld.c ****         {
 1273              		.loc 1 265 9 is_stmt 1 view .LVU335
 1274              	.LVL124:
 265:../generate/sc_drivers/r_riic/src/lld/r_rza2_riic_lld.c ****         {
 1275              		.loc 1 265 29 is_stmt 0 view .LVU336
 1276 005c 0020A0E3 		mov	r2, #0
 265:../generate/sc_drivers/r_riic/src/lld/r_rza2_riic_lld.c ****         {
 1277              		.loc 1 265 9 view .LVU337
 1278 0060 1D0000EA 		b	.L57
 1279              	.LVL125:
 1280              	.L58:
 267:../generate/sc_drivers/r_riic/src/lld/r_rza2_riic_lld.c ****                     RIIC_SC_TABLE[sc_config_index].config.slave_address_enable[slave_addr_num];
 1281              		.loc 1 267 13 is_stmt 1 discriminator 3 view .LVU338
 268:../generate/sc_drivers/r_riic/src/lld/r_rza2_riic_lld.c ****             gs_riic_config[channel].slave_address[slave_addr_num] =
 1282              		.loc 1 268 79 is_stmt 0 discriminator 3 view .LVU339
 1283 0064 003000E3 		movw	r3, #:lower16:.LANCHOR5
 1284 0068 003040E3 		movt	r3, #:upper16:.LANCHOR5
 1285 006c 006280E0 		add	r6, r0, r0, lsl #4
 1286 0070 021086E0 		add	r1, r6, r2
 1287 0074 011183E0 		add	r1, r3, r1, lsl #2
 1288 0078 08C091E5 		ldr	ip, [r1, #8]
 267:../generate/sc_drivers/r_riic/src/lld/r_rza2_riic_lld.c ****                     RIIC_SC_TABLE[sc_config_index].config.slave_address_enable[slave_addr_num];
 1289              		.loc 1 267 74 discriminator 3 view .LVU340
 1290 007c 00E000E3 		movw	lr, #:lower16:.LANCHOR6
 1291 0080 00E040E3 		movt	lr, #:upper16:.LANCHOR6
 1292 0084 841084E0 		add	r1, r4, r4, lsl #1
 1293 0088 011184E0 		add	r1, r4, r1, lsl #2
 1294 008c 021081E0 		add	r1, r1, r2
 1295 0090 01118EE0 		add	r1, lr, r1, lsl #2
 1296 0094 04C081E5 		str	ip, [r1, #4]
 269:../generate/sc_drivers/r_riic/src/lld/r_rza2_riic_lld.c ****                     RIIC_SC_TABLE[sc_config_index].config.slave_address[slave_addr_num];
 1297              		.loc 1 269 13 is_stmt 1 discriminator 3 view .LVU341
 270:../generate/sc_drivers/r_riic/src/lld/r_rza2_riic_lld.c ****             gs_riic_config[channel].slave_address_length[slave_addr_num] =
 1298              		.loc 1 270 72 is_stmt 0 discriminator 3 view .LVU342
 1299 0098 861082E0 		add	r1, r2, r6, lsl #1
 1300 009c 081081E2 		add	r1, r1, #8
 1301 00a0 811083E0 		add	r1, r3, r1, lsl #1
 1302 00a4 B410D1E1 		ldrh	r1, [r1, #4]
 269:../generate/sc_drivers/r_riic/src/lld/r_rza2_riic_lld.c ****                     RIIC_SC_TABLE[sc_config_index].config.slave_address[slave_addr_num];
 1303              		.loc 1 269 67 discriminator 3 view .LVU343
 1304 00a8 1AC0A0E3 		mov	ip, #26
 1305 00ac 9C242CE0 		mla	ip, ip, r4, r2
 1306 00b0 08C08CE2 		add	ip, ip, #8
 1307 00b4 8CC0A0E1 		lsl	ip, ip, #1
 1308 00b8 BC108EE1 		strh	r1, [lr, ip]	@ movhi
 271:../generate/sc_drivers/r_riic/src/lld/r_rza2_riic_lld.c ****                     RIIC_SC_TABLE[sc_config_index].config.slave_address_length[slave_addr_num];
 1309              		.loc 1 271 13 is_stmt 1 discriminator 3 view .LVU344
 272:../generate/sc_drivers/r_riic/src/lld/r_rza2_riic_lld.c ****         }
 1310              		.loc 1 272 79 is_stmt 0 discriminator 3 view .LVU345
 1311 00bc 063183E0 		add	r3, r3, r6, lsl #2
 1312 00c0 023083E0 		add	r3, r3, r2
 1313 00c4 1A10D3E5 		ldrb	r1, [r3, #26]	@ zero_extendqisi2
 271:../generate/sc_drivers/r_riic/src/lld/r_rza2_riic_lld.c ****                     RIIC_SC_TABLE[sc_config_index].config.slave_address_length[slave_addr_num];
 1314              		.loc 1 271 74 discriminator 3 view .LVU346
 1315 00c8 3430A0E3 		mov	r3, #52
 1316 00cc 93E42EE0 		mla	lr, r3, r4, lr
 1317 00d0 02E08EE0 		add	lr, lr, r2
 1318 00d4 1610CEE5 		strb	r1, [lr, #22]
 265:../generate/sc_drivers/r_riic/src/lld/r_rza2_riic_lld.c ****         {
 1319              		.loc 1 265 76 is_stmt 1 discriminator 3 view .LVU347
 265:../generate/sc_drivers/r_riic/src/lld/r_rza2_riic_lld.c ****         {
 1320              		.loc 1 265 90 is_stmt 0 discriminator 3 view .LVU348
 1321 00d8 012082E2 		add	r2, r2, #1
 1322              	.LVL126:
 1323              	.L57:
 265:../generate/sc_drivers/r_riic/src/lld/r_rza2_riic_lld.c ****         {
 1324              		.loc 1 265 34 is_stmt 1 discriminator 1 view .LVU349
 265:../generate/sc_drivers/r_riic/src/lld/r_rza2_riic_lld.c ****         {
 1325              		.loc 1 265 9 is_stmt 0 discriminator 1 view .LVU350
 1326 00dc 020052E3 		cmp	r2, #2
 1327 00e0 DFFFFF9A 		bls	.L58
 274:../generate/sc_drivers/r_riic/src/lld/r_rza2_riic_lld.c ****         gs_riic_config[channel].duty = RIIC_SC_TABLE[sc_config_index].config.duty;
 1328              		.loc 1 274 9 is_stmt 1 view .LVU351
 274:../generate/sc_drivers/r_riic/src/lld/r_rza2_riic_lld.c ****         gs_riic_config[channel].duty = RIIC_SC_TABLE[sc_config_index].config.duty;
 1329              		.loc 1 274 82 is_stmt 0 view .LVU352
 1330 00e4 001000E3 		movw	r1, #:lower16:.LANCHOR5
 1331 00e8 001040E3 		movt	r1, #:upper16:.LANCHOR5
 1332 00ec 00C2A0E1 		lsl	ip, r0, #4
 1333 00f0 00208CE0 		add	r2, ip, r0
 1334              	.LVL127:
 274:../generate/sc_drivers/r_riic/src/lld/r_rza2_riic_lld.c ****         gs_riic_config[channel].duty = RIIC_SC_TABLE[sc_config_index].config.duty;
 1335              		.loc 1 274 82 view .LVU353
 1336 00f4 022181E0 		add	r2, r1, r2, lsl #2
 1337 00f8 1DE0D2E5 		ldrb	lr, [r2, #29]	@ zero_extendqisi2
 274:../generate/sc_drivers/r_riic/src/lld/r_rza2_riic_lld.c ****         gs_riic_config[channel].duty = RIIC_SC_TABLE[sc_config_index].config.duty;
 1338              		.loc 1 274 43 view .LVU354
 1339 00fc 003000E3 		movw	r3, #:lower16:.LANCHOR6
 1340 0100 003040E3 		movt	r3, #:upper16:.LANCHOR6
 1341 0104 3460A0E3 		mov	r6, #52
 1342 0108 963423E0 		mla	r3, r6, r4, r3
 1343 010c 19E0C3E5 		strb	lr, [r3, #25]
 275:../generate/sc_drivers/r_riic/src/lld/r_rza2_riic_lld.c ****         gs_riic_config[channel].rise_time = RIIC_SC_TABLE[sc_config_index].config.rise_time;
 1344              		.loc 1 275 9 is_stmt 1 view .LVU355
 275:../generate/sc_drivers/r_riic/src/lld/r_rza2_riic_lld.c ****         gs_riic_config[channel].rise_time = RIIC_SC_TABLE[sc_config_index].config.rise_time;
 1345              		.loc 1 275 77 is_stmt 0 view .LVU356
 1346 0110 1EE0D2E5 		ldrb	lr, [r2, #30]	@ zero_extendqisi2
 275:../generate/sc_drivers/r_riic/src/lld/r_rza2_riic_lld.c ****         gs_riic_config[channel].rise_time = RIIC_SC_TABLE[sc_config_index].config.rise_time;
 1347              		.loc 1 275 38 view .LVU357
 1348 0114 1AE0C3E5 		strb	lr, [r3, #26]
 276:../generate/sc_drivers/r_riic/src/lld/r_rza2_riic_lld.c ****         gs_riic_config[channel].fall_time = RIIC_SC_TABLE[sc_config_index].config.fall_time;
 1349              		.loc 1 276 9 is_stmt 1 view .LVU358
 276:../generate/sc_drivers/r_riic/src/lld/r_rza2_riic_lld.c ****         gs_riic_config[channel].fall_time = RIIC_SC_TABLE[sc_config_index].config.fall_time;
 1350              		.loc 1 276 82 is_stmt 0 view .LVU359
 1351 0118 20E092E5 		ldr	lr, [r2, #32]
 276:../generate/sc_drivers/r_riic/src/lld/r_rza2_riic_lld.c ****         gs_riic_config[channel].fall_time = RIIC_SC_TABLE[sc_config_index].config.fall_time;
 1352              		.loc 1 276 43 view .LVU360
 1353 011c 1CE083E5 		str	lr, [r3, #28]
 277:../generate/sc_drivers/r_riic/src/lld/r_rza2_riic_lld.c ****         gs_riic_config[channel].noise_filter_stage = RIIC_SC_TABLE[sc_config_index].config.noise_fi
 1354              		.loc 1 277 9 is_stmt 1 view .LVU361
 277:../generate/sc_drivers/r_riic/src/lld/r_rza2_riic_lld.c ****         gs_riic_config[channel].noise_filter_stage = RIIC_SC_TABLE[sc_config_index].config.noise_fi
 1355              		.loc 1 277 82 is_stmt 0 view .LVU362
 1356 0120 24E092E5 		ldr	lr, [r2, #36]
 277:../generate/sc_drivers/r_riic/src/lld/r_rza2_riic_lld.c ****         gs_riic_config[channel].noise_filter_stage = RIIC_SC_TABLE[sc_config_index].config.noise_fi
 1357              		.loc 1 277 43 view .LVU363
 1358 0124 20E083E5 		str	lr, [r3, #32]
 278:../generate/sc_drivers/r_riic/src/lld/r_rza2_riic_lld.c ****         gs_riic_config[channel].timeout = RIIC_SC_TABLE[sc_config_index].config.timeout;
 1359              		.loc 1 278 9 is_stmt 1 view .LVU364
 278:../generate/sc_drivers/r_riic/src/lld/r_rza2_riic_lld.c ****         gs_riic_config[channel].timeout = RIIC_SC_TABLE[sc_config_index].config.timeout;
 1360              		.loc 1 278 91 is_stmt 0 view .LVU365
 1361 0128 28E0D2E5 		ldrb	lr, [r2, #40]	@ zero_extendqisi2
 278:../generate/sc_drivers/r_riic/src/lld/r_rza2_riic_lld.c ****         gs_riic_config[channel].timeout = RIIC_SC_TABLE[sc_config_index].config.timeout;
 1362              		.loc 1 278 52 view .LVU366
 1363 012c 24E0C3E5 		strb	lr, [r3, #36]
 279:../generate/sc_drivers/r_riic/src/lld/r_rza2_riic_lld.c ****         gs_riic_config[channel].format = RIIC_SC_TABLE[sc_config_index].config.format;
 1364              		.loc 1 279 9 is_stmt 1 view .LVU367
 279:../generate/sc_drivers/r_riic/src/lld/r_rza2_riic_lld.c ****         gs_riic_config[channel].format = RIIC_SC_TABLE[sc_config_index].config.format;
 1365              		.loc 1 279 80 is_stmt 0 view .LVU368
 1366 0130 29E0D2E5 		ldrb	lr, [r2, #41]	@ zero_extendqisi2
 279:../generate/sc_drivers/r_riic/src/lld/r_rza2_riic_lld.c ****         gs_riic_config[channel].format = RIIC_SC_TABLE[sc_config_index].config.format;
 1367              		.loc 1 279 41 view .LVU369
 1368 0134 25E0C3E5 		strb	lr, [r3, #37]
 280:../generate/sc_drivers/r_riic/src/lld/r_rza2_riic_lld.c ****         gs_riic_config[channel].host_address_enabled = RIIC_SC_TABLE[sc_config_index].config.host_a
 1369              		.loc 1 280 9 is_stmt 1 view .LVU370
 280:../generate/sc_drivers/r_riic/src/lld/r_rza2_riic_lld.c ****         gs_riic_config[channel].host_address_enabled = RIIC_SC_TABLE[sc_config_index].config.host_a
 1370              		.loc 1 280 79 is_stmt 0 view .LVU371
 1371 0138 2AE0D2E5 		ldrb	lr, [r2, #42]	@ zero_extendqisi2
 280:../generate/sc_drivers/r_riic/src/lld/r_rza2_riic_lld.c ****         gs_riic_config[channel].host_address_enabled = RIIC_SC_TABLE[sc_config_index].config.host_a
 1372              		.loc 1 280 40 view .LVU372
 1373 013c 26E0C3E5 		strb	lr, [r3, #38]
 281:../generate/sc_drivers/r_riic/src/lld/r_rza2_riic_lld.c ****         gs_riic_config[channel].tei_priority = RIIC_SC_TABLE[sc_config_index].config.tei_priority;
 1374              		.loc 1 281 9 is_stmt 1 view .LVU373
 281:../generate/sc_drivers/r_riic/src/lld/r_rza2_riic_lld.c ****         gs_riic_config[channel].tei_priority = RIIC_SC_TABLE[sc_config_index].config.tei_priority;
 1375              		.loc 1 281 93 is_stmt 0 view .LVU374
 1376 0140 2CE092E5 		ldr	lr, [r2, #44]
 281:../generate/sc_drivers/r_riic/src/lld/r_rza2_riic_lld.c ****         gs_riic_config[channel].tei_priority = RIIC_SC_TABLE[sc_config_index].config.tei_priority;
 1377              		.loc 1 281 54 view .LVU375
 1378 0144 28E083E5 		str	lr, [r3, #40]
 282:../generate/sc_drivers/r_riic/src/lld/r_rza2_riic_lld.c ****         gs_riic_config[channel].ri_priority = RIIC_SC_TABLE[sc_config_index].config.ri_priority;
 1379              		.loc 1 282 9 is_stmt 1 view .LVU376
 282:../generate/sc_drivers/r_riic/src/lld/r_rza2_riic_lld.c ****         gs_riic_config[channel].ri_priority = RIIC_SC_TABLE[sc_config_index].config.ri_priority;
 1380              		.loc 1 282 85 is_stmt 0 view .LVU377
 1381 0148 30E0D2E5 		ldrb	lr, [r2, #48]	@ zero_extendqisi2
 282:../generate/sc_drivers/r_riic/src/lld/r_rza2_riic_lld.c ****         gs_riic_config[channel].ri_priority = RIIC_SC_TABLE[sc_config_index].config.ri_priority;
 1382              		.loc 1 282 46 view .LVU378
 1383 014c 2CE0C3E5 		strb	lr, [r3, #44]
 283:../generate/sc_drivers/r_riic/src/lld/r_rza2_riic_lld.c ****         gs_riic_config[channel].ti_priority = RIIC_SC_TABLE[sc_config_index].config.ti_priority;
 1384              		.loc 1 283 9 is_stmt 1 view .LVU379
 283:../generate/sc_drivers/r_riic/src/lld/r_rza2_riic_lld.c ****         gs_riic_config[channel].ti_priority = RIIC_SC_TABLE[sc_config_index].config.ti_priority;
 1385              		.loc 1 283 84 is_stmt 0 view .LVU380
 1386 0150 31E0D2E5 		ldrb	lr, [r2, #49]	@ zero_extendqisi2
 283:../generate/sc_drivers/r_riic/src/lld/r_rza2_riic_lld.c ****         gs_riic_config[channel].ti_priority = RIIC_SC_TABLE[sc_config_index].config.ti_priority;
 1387              		.loc 1 283 45 view .LVU381
 1388 0154 2DE0C3E5 		strb	lr, [r3, #45]
 284:../generate/sc_drivers/r_riic/src/lld/r_rza2_riic_lld.c ****         gs_riic_config[channel].spi_priority = RIIC_SC_TABLE[sc_config_index].config.spi_priority;
 1389              		.loc 1 284 9 is_stmt 1 view .LVU382
 284:../generate/sc_drivers/r_riic/src/lld/r_rza2_riic_lld.c ****         gs_riic_config[channel].spi_priority = RIIC_SC_TABLE[sc_config_index].config.spi_priority;
 1390              		.loc 1 284 84 is_stmt 0 view .LVU383
 1391 0158 32E0D2E5 		ldrb	lr, [r2, #50]	@ zero_extendqisi2
 284:../generate/sc_drivers/r_riic/src/lld/r_rza2_riic_lld.c ****         gs_riic_config[channel].spi_priority = RIIC_SC_TABLE[sc_config_index].config.spi_priority;
 1392              		.loc 1 284 45 view .LVU384
 1393 015c 2EE0C3E5 		strb	lr, [r3, #46]
 285:../generate/sc_drivers/r_riic/src/lld/r_rza2_riic_lld.c ****         gs_riic_config[channel].sti_priority = RIIC_SC_TABLE[sc_config_index].config.sti_priority;
 1394              		.loc 1 285 9 is_stmt 1 view .LVU385
 285:../generate/sc_drivers/r_riic/src/lld/r_rza2_riic_lld.c ****         gs_riic_config[channel].sti_priority = RIIC_SC_TABLE[sc_config_index].config.sti_priority;
 1395              		.loc 1 285 85 is_stmt 0 view .LVU386
 1396 0160 33E0D2E5 		ldrb	lr, [r2, #51]	@ zero_extendqisi2
 285:../generate/sc_drivers/r_riic/src/lld/r_rza2_riic_lld.c ****         gs_riic_config[channel].sti_priority = RIIC_SC_TABLE[sc_config_index].config.sti_priority;
 1397              		.loc 1 285 46 view .LVU387
 1398 0164 2FE0C3E5 		strb	lr, [r3, #47]
 286:../generate/sc_drivers/r_riic/src/lld/r_rza2_riic_lld.c ****         gs_riic_config[channel].naki_priority = RIIC_SC_TABLE[sc_config_index].config.naki_priority
 1399              		.loc 1 286 9 is_stmt 1 view .LVU388
 286:../generate/sc_drivers/r_riic/src/lld/r_rza2_riic_lld.c ****         gs_riic_config[channel].naki_priority = RIIC_SC_TABLE[sc_config_index].config.naki_priority
 1400              		.loc 1 286 85 is_stmt 0 view .LVU389
 1401 0168 34E0D2E5 		ldrb	lr, [r2, #52]	@ zero_extendqisi2
 286:../generate/sc_drivers/r_riic/src/lld/r_rza2_riic_lld.c ****         gs_riic_config[channel].naki_priority = RIIC_SC_TABLE[sc_config_index].config.naki_priority
 1402              		.loc 1 286 46 view .LVU390
 1403 016c 30E0C3E5 		strb	lr, [r3, #48]
 287:../generate/sc_drivers/r_riic/src/lld/r_rza2_riic_lld.c ****         gs_riic_config[channel].ali_priority = RIIC_SC_TABLE[sc_config_index].config.ali_priority;
 1404              		.loc 1 287 9 is_stmt 1 view .LVU391
 287:../generate/sc_drivers/r_riic/src/lld/r_rza2_riic_lld.c ****         gs_riic_config[channel].ali_priority = RIIC_SC_TABLE[sc_config_index].config.ali_priority;
 1405              		.loc 1 287 86 is_stmt 0 view .LVU392
 1406 0170 35E0D2E5 		ldrb	lr, [r2, #53]	@ zero_extendqisi2
 287:../generate/sc_drivers/r_riic/src/lld/r_rza2_riic_lld.c ****         gs_riic_config[channel].ali_priority = RIIC_SC_TABLE[sc_config_index].config.ali_priority;
 1407              		.loc 1 287 47 view .LVU393
 1408 0174 31E0C3E5 		strb	lr, [r3, #49]
 288:../generate/sc_drivers/r_riic/src/lld/r_rza2_riic_lld.c ****         gs_riic_config[channel].tmoi_priority = RIIC_SC_TABLE[sc_config_index].config.tmoi_priority
 1409              		.loc 1 288 9 is_stmt 1 view .LVU394
 288:../generate/sc_drivers/r_riic/src/lld/r_rza2_riic_lld.c ****         gs_riic_config[channel].tmoi_priority = RIIC_SC_TABLE[sc_config_index].config.tmoi_priority
 1410              		.loc 1 288 85 is_stmt 0 view .LVU395
 1411 0178 3620D2E5 		ldrb	r2, [r2, #54]	@ zero_extendqisi2
 288:../generate/sc_drivers/r_riic/src/lld/r_rza2_riic_lld.c ****         gs_riic_config[channel].tmoi_priority = RIIC_SC_TABLE[sc_config_index].config.tmoi_priority
 1412              		.loc 1 288 46 view .LVU396
 1413 017c 3220C3E5 		strb	r2, [r3, #50]
 289:../generate/sc_drivers/r_riic/src/lld/r_rza2_riic_lld.c ****         gs_board_pclk = pclk_frequency;
 1414              		.loc 1 289 9 is_stmt 1 view .LVU397
 289:../generate/sc_drivers/r_riic/src/lld/r_rza2_riic_lld.c ****         gs_board_pclk = pclk_frequency;
 1415              		.loc 1 289 86 is_stmt 0 view .LVU398
 1416 0180 00008CE0 		add	r0, ip, r0
 1417              	.LVL128:
 289:../generate/sc_drivers/r_riic/src/lld/r_rza2_riic_lld.c ****         gs_board_pclk = pclk_frequency;
 1418              		.loc 1 289 86 view .LVU399
 1419 0184 001181E0 		add	r1, r1, r0, lsl #2
 1420 0188 3720D1E5 		ldrb	r2, [r1, #55]	@ zero_extendqisi2
 289:../generate/sc_drivers/r_riic/src/lld/r_rza2_riic_lld.c ****         gs_board_pclk = pclk_frequency;
 1421              		.loc 1 289 47 view .LVU400
 1422 018c 3320C3E5 		strb	r2, [r3, #51]
 290:../generate/sc_drivers/r_riic/src/lld/r_rza2_riic_lld.c ****     }
 1423              		.loc 1 290 9 is_stmt 1 view .LVU401
 290:../generate/sc_drivers/r_riic/src/lld/r_rza2_riic_lld.c ****     }
 1424              		.loc 1 290 23 is_stmt 0 view .LVU402
 1425 0190 003000E3 		movw	r3, #:lower16:.LANCHOR7
 1426 0194 003040E3 		movt	r3, #:upper16:.LANCHOR7
 1427 0198 005083E5 		str	r5, [r3]
 241:../generate/sc_drivers/r_riic/src/lld/r_rza2_riic_lld.c ****     uint32_t slave_addr_num;
 1428              		.loc 1 241 11 view .LVU403
 1429 019c 0060A0E3 		mov	r6, #0
 1430 01a0 000000EA 		b	.L56
 1431              	.LVL129:
 1432              	.L63:
 259:../generate/sc_drivers/r_riic/src/lld/r_rza2_riic_lld.c ****     }
 1433              		.loc 1 259 16 view .LVU404
 1434 01a4 0060E0E3 		mvn	r6, #0
 1435              	.LVL130:
 1436              	.L56:
 294:../generate/sc_drivers/r_riic/src/lld/r_rza2_riic_lld.c ****     {
 1437              		.loc 1 294 5 is_stmt 1 view .LVU405
 294:../generate/sc_drivers/r_riic/src/lld/r_rza2_riic_lld.c ****     {
 1438              		.loc 1 294 8 is_stmt 0 view .LVU406
 1439 01a8 000056E3 		cmp	r6, #0
 1440 01ac 0500000A 		beq	.L67
 1441              	.L59:
 1442              	.LVL131:
 303:../generate/sc_drivers/r_riic/src/lld/r_rza2_riic_lld.c ****     {
 1443              		.loc 1 303 5 is_stmt 1 view .LVU407
 303:../generate/sc_drivers/r_riic/src/lld/r_rza2_riic_lld.c ****     {
 1444              		.loc 1 303 8 is_stmt 0 view .LVU408
 1445 01b0 000056E3 		cmp	r6, #0
 1446 01b4 0C00000A 		beq	.L68
 1447              	.LVL132:
 1448              	.L55:
 330:../generate/sc_drivers/r_riic/src/lld/r_rza2_riic_lld.c **** /******************************************************************************
 1449              		.loc 1 330 1 view .LVU409
 1450 01b8 0600A0E1 		mov	r0, r6
 1451 01bc F081BDE8 		pop	{r4, r5, r6, r7, r8, pc}
 1452              	.LVL133:
 1453              	.L64:
 254:../generate/sc_drivers/r_riic/src/lld/r_rza2_riic_lld.c ****         }
 1454              		.loc 1 254 20 view .LVU410
 1455 01c0 0060E0E3 		mvn	r6, #0
 1456 01c4 F7FFFFEA 		b	.L56
 1457              	.LVL134:
 1458              	.L67:
 296:../generate/sc_drivers/r_riic/src/lld/r_rza2_riic_lld.c ****         if (STB_SUCCESS != retval)
 1459              		.loc 1 296 9 is_stmt 1 view .LVU411
 296:../generate/sc_drivers/r_riic/src/lld/r_rza2_riic_lld.c ****         if (STB_SUCCESS != retval)
 1460              		.loc 1 296 18 is_stmt 0 view .LVU412
 1461 01c8 003000E3 		movw	r3, #:lower16:.LANCHOR8
 1462 01cc 003040E3 		movt	r3, #:upper16:.LANCHOR8
 1463 01d0 0400D3E7 		ldrb	r0, [r3, r4]	@ zero_extendqisi2
 1464 01d4 FEFFFFEB 		bl	R_STB_StartModule
 1465              	.LVL135:
 296:../generate/sc_drivers/r_riic/src/lld/r_rza2_riic_lld.c ****         if (STB_SUCCESS != retval)
 1466              		.loc 1 296 16 view .LVU413
 1467 01d8 0060A0E1 		mov	r6, r0
 1468              	.LVL136:
 297:../generate/sc_drivers/r_riic/src/lld/r_rza2_riic_lld.c ****         {
 1469              		.loc 1 297 9 is_stmt 1 view .LVU414
 297:../generate/sc_drivers/r_riic/src/lld/r_rza2_riic_lld.c ****         {
 1470              		.loc 1 297 12 is_stmt 0 view .LVU415
 1471 01dc 000050E3 		cmp	r0, #0
 1472 01e0 F2FFFF0A 		beq	.L59
 299:../generate/sc_drivers/r_riic/src/lld/r_rza2_riic_lld.c ****         }
 1473              		.loc 1 299 20 view .LVU416
 1474 01e4 0060E0E3 		mvn	r6, #0
 1475              	.LVL137:
 329:../generate/sc_drivers/r_riic/src/lld/r_rza2_riic_lld.c **** }
 1476              		.loc 1 329 5 is_stmt 1 view .LVU417
 329:../generate/sc_drivers/r_riic/src/lld/r_rza2_riic_lld.c **** }
 1477              		.loc 1 329 12 is_stmt 0 view .LVU418
 1478 01e8 F2FFFFEA 		b	.L55
 1479              	.LVL138:
 1480              	.L68:
 305:../generate/sc_drivers/r_riic/src/lld/r_rza2_riic_lld.c **** 
 1481              		.loc 1 305 9 is_stmt 1 view .LVU419
 1482 01ec 0400A0E1 		mov	r0, r4
 1483 01f0 FEFFFFEB 		bl	riic_set_reset
 1484              	.LVL139:
 307:../generate/sc_drivers/r_riic/src/lld/r_rza2_riic_lld.c **** 
 1485              		.loc 1 307 9 view .LVU420
 1486 01f4 003000E3 		movw	r3, #:lower16:.LANCHOR6
 1487 01f8 003040E3 		movt	r3, #:upper16:.LANCHOR6
 1488 01fc 3470A0E3 		mov	r7, #52
 1489 0200 973427E0 		mla	r7, r7, r4, r3
 1490 0204 0710A0E1 		mov	r1, r7
 1491 0208 0400A0E1 		mov	r0, r4
 1492 020c FEFFFFEB 		bl	riic_register_slave_addrss
 1493              	.LVL140:
 309:../generate/sc_drivers/r_riic/src/lld/r_rza2_riic_lld.c **** 
 1494              		.loc 1 309 9 view .LVU421
 309:../generate/sc_drivers/r_riic/src/lld/r_rza2_riic_lld.c **** 
 1495              		.loc 1 309 18 is_stmt 0 view .LVU422
 1496 0210 0520A0E1 		mov	r2, r5
 1497 0214 0710A0E1 		mov	r1, r7
 1498 0218 0400A0E1 		mov	r0, r4
 1499 021c FEFFFFEB 		bl	riic_set_scl_clk
 1500              	.LVL141:
 311:../generate/sc_drivers/r_riic/src/lld/r_rza2_riic_lld.c ****         {
 1501              		.loc 1 311 9 is_stmt 1 view .LVU423
 311:../generate/sc_drivers/r_riic/src/lld/r_rza2_riic_lld.c ****         {
 1502              		.loc 1 311 12 is_stmt 0 view .LVU424
 1503 0220 006050E2 		subs	r6, r0, #0
 1504 0224 0E00001A 		bne	.L61
 313:../generate/sc_drivers/r_riic/src/lld/r_rza2_riic_lld.c **** 
 1505              		.loc 1 313 13 is_stmt 1 view .LVU425
 1506 0228 0710A0E1 		mov	r1, r7
 1507 022c 0400A0E1 		mov	r0, r4
 1508              	.LVL142:
 313:../generate/sc_drivers/r_riic/src/lld/r_rza2_riic_lld.c **** 
 1509              		.loc 1 313 13 is_stmt 0 view .LVU426
 1510 0230 FEFFFFEB 		bl	riic_set_bus_format
 1511              	.LVL143:
 315:../generate/sc_drivers/r_riic/src/lld/r_rza2_riic_lld.c **** 
 1512              		.loc 1 315 13 is_stmt 1 view .LVU427
 1513 0234 0710A0E1 		mov	r1, r7
 1514 0238 0400A0E1 		mov	r0, r4
 1515 023c FEFFFFEB 		bl	riic_set_noise_filter
 1516              	.LVL144:
 317:../generate/sc_drivers/r_riic/src/lld/r_rza2_riic_lld.c **** 
 1517              		.loc 1 317 13 view .LVU428
 1518 0240 0710A0E1 		mov	r1, r7
 1519 0244 0400A0E1 		mov	r0, r4
 1520 0248 FEFFFFEB 		bl	riic_set_timeout
 1521              	.LVL145:
 319:../generate/sc_drivers/r_riic/src/lld/r_rza2_riic_lld.c ****         }
 1522              		.loc 1 319 13 view .LVU429
 1523 024c 0710A0E1 		mov	r1, r7
 1524 0250 0400A0E1 		mov	r0, r4
 1525 0254 FEFFFFEB 		bl	interrupt_init
 1526              	.LVL146:
 1527              	.L62:
 326:../generate/sc_drivers/r_riic/src/lld/r_rza2_riic_lld.c ****     }
 1528              		.loc 1 326 9 view .LVU430
 1529 0258 0400A0E1 		mov	r0, r4
 1530 025c FEFFFFEB 		bl	riic_release_reset
 1531              	.LVL147:
 1532 0260 D4FFFFEA 		b	.L55
 1533              	.LVL148:
 1534              	.L61:
 323:../generate/sc_drivers/r_riic/src/lld/r_rza2_riic_lld.c ****         }
 1535              		.loc 1 323 13 view .LVU431
 1536 0264 0400A0E1 		mov	r0, r4
 1537              	.LVL149:
 323:../generate/sc_drivers/r_riic/src/lld/r_rza2_riic_lld.c ****         }
 1538              		.loc 1 323 13 is_stmt 0 view .LVU432
 1539 0268 FEFFFFEB 		bl	riic_hw_init
 1540              	.LVL150:
 1541 026c F9FFFFEA 		b	.L62
 1542              		.cfi_endproc
 1543              	.LFE3:
 1545              		.section	.text.R_RIIC_CloseChannel,"ax",%progbits
 1546              		.align	2
 1547              		.global	R_RIIC_CloseChannel
 1548              		.syntax unified
 1549              		.arm
 1550              		.fpu neon
 1552              	R_RIIC_CloseChannel:
 1553              	.LVL151:
 1554              	.LFB4:
 342:../generate/sc_drivers/r_riic/src/lld/r_rza2_riic_lld.c ****     interrupt_uninit(channel);
 1555              		.loc 1 342 1 is_stmt 1 view -0
 1556              		.cfi_startproc
 1557              		@ args = 0, pretend = 0, frame = 0
 1558              		@ frame_needed = 0, uses_anonymous_args = 0
 342:../generate/sc_drivers/r_riic/src/lld/r_rza2_riic_lld.c ****     interrupt_uninit(channel);
 1559              		.loc 1 342 1 is_stmt 0 view .LVU434
 1560 0000 10402DE9 		push	{r4, lr}
 1561              		.cfi_def_cfa_offset 8
 1562              		.cfi_offset 4, -8
 1563              		.cfi_offset 14, -4
 1564 0004 0040A0E1 		mov	r4, r0
 343:../generate/sc_drivers/r_riic/src/lld/r_rza2_riic_lld.c **** 
 1565              		.loc 1 343 5 is_stmt 1 view .LVU435
 1566 0008 FEFFFFEB 		bl	interrupt_uninit
 1567              	.LVL152:
 345:../generate/sc_drivers/r_riic/src/lld/r_rza2_riic_lld.c **** 
 1568              		.loc 1 345 5 view .LVU436
 1569 000c 0400A0E1 		mov	r0, r4
 1570 0010 FEFFFFEB 		bl	riic_set_reset
 1571              	.LVL153:
 347:../generate/sc_drivers/r_riic/src/lld/r_rza2_riic_lld.c **** 
 1572              		.loc 1 347 5 view .LVU437
 1573 0014 0400A0E1 		mov	r0, r4
 1574 0018 FEFFFFEB 		bl	riic_hw_init
 1575              	.LVL154:
 349:../generate/sc_drivers/r_riic/src/lld/r_rza2_riic_lld.c **** 
 1576              		.loc 1 349 5 view .LVU438
 1577 001c 0400A0E1 		mov	r0, r4
 1578 0020 FEFFFFEB 		bl	riic_release_reset
 1579              	.LVL155:
 351:../generate/sc_drivers/r_riic/src/lld/r_rza2_riic_lld.c **** 
 1580              		.loc 1 351 5 view .LVU439
 1581 0024 003000E3 		movw	r3, #:lower16:.LANCHOR8
 1582 0028 003040E3 		movt	r3, #:upper16:.LANCHOR8
 1583 002c 0400D3E7 		ldrb	r0, [r3, r4]	@ zero_extendqisi2
 1584 0030 FEFFFFEB 		bl	R_STB_StopModule
 1585              	.LVL156:
 353:../generate/sc_drivers/r_riic/src/lld/r_rza2_riic_lld.c **** }
 1586              		.loc 1 353 5 view .LVU440
 354:../generate/sc_drivers/r_riic/src/lld/r_rza2_riic_lld.c **** /******************************************************************************
 1587              		.loc 1 354 1 is_stmt 0 view .LVU441
 1588 0034 1080BDE8 		pop	{r4, pc}
 1589              		.cfi_endproc
 1590              	.LFE4:
 1592              		.section	.text.R_RIIC_SetConfig,"ax",%progbits
 1593              		.align	2
 1594              		.global	R_RIIC_SetConfig
 1595              		.syntax unified
 1596              		.arm
 1597              		.fpu neon
 1599              	R_RIIC_SetConfig:
 1600              	.LVL157:
 1601              	.LFB5:
 368:../generate/sc_drivers/r_riic/src/lld/r_rza2_riic_lld.c ****     int_t retval = DRV_SUCCESS;
 1602              		.loc 1 368 1 is_stmt 1 view -0
 1603              		.cfi_startproc
 1604              		@ args = 0, pretend = 0, frame = 32
 1605              		@ frame_needed = 0, uses_anonymous_args = 0
 368:../generate/sc_drivers/r_riic/src/lld/r_rza2_riic_lld.c ****     int_t retval = DRV_SUCCESS;
 1606              		.loc 1 368 1 is_stmt 0 view .LVU443
 1607 0000 70402DE9 		push	{r4, r5, r6, lr}
 1608              		.cfi_def_cfa_offset 16
 1609              		.cfi_offset 4, -16
 1610              		.cfi_offset 5, -12
 1611              		.cfi_offset 6, -8
 1612              		.cfi_offset 14, -4
 1613 0004 20D04DE2 		sub	sp, sp, #32
 1614              		.cfi_def_cfa_offset 48
 1615 0008 0050A0E1 		mov	r5, r0
 1616 000c 0140A0E1 		mov	r4, r1
 369:../generate/sc_drivers/r_riic/src/lld/r_rza2_riic_lld.c ****     uint32_t slave_addr_num;
 1617              		.loc 1 369 5 is_stmt 1 view .LVU444
 1618              	.LVL158:
 370:../generate/sc_drivers/r_riic/src/lld/r_rza2_riic_lld.c ****     st_riic_clk_check_param_t clk_param;
 1619              		.loc 1 370 5 view .LVU445
 371:../generate/sc_drivers/r_riic/src/lld/r_rza2_riic_lld.c **** 
 1620              		.loc 1 371 5 view .LVU446
 374:../generate/sc_drivers/r_riic/src/lld/r_rza2_riic_lld.c ****     {
 1621              		.loc 1 374 5 view .LVU447
 374:../generate/sc_drivers/r_riic/src/lld/r_rza2_riic_lld.c ****     {
 1622              		.loc 1 374 8 is_stmt 0 view .LVU448
 1623 0010 030050E3 		cmp	r0, #3
 1624 0014 1700008A 		bhi	.L76
 379:../generate/sc_drivers/r_riic/src/lld/r_rza2_riic_lld.c ****     {
 1625              		.loc 1 379 5 is_stmt 1 view .LVU449
 381:../generate/sc_drivers/r_riic/src/lld/r_rza2_riic_lld.c ****         clk_param.frequency = p_cfg->frequency;
 1626              		.loc 1 381 9 view .LVU450
 381:../generate/sc_drivers/r_riic/src/lld/r_rza2_riic_lld.c ****         clk_param.frequency = p_cfg->frequency;
 1627              		.loc 1 381 24 is_stmt 0 view .LVU451
 1628 0018 003000E3 		movw	r3, #:lower16:.LANCHOR7
 1629 001c 003040E3 		movt	r3, #:upper16:.LANCHOR7
 1630 0020 003093E5 		ldr	r3, [r3]
 1631 0024 04308DE5 		str	r3, [sp, #4]
 382:../generate/sc_drivers/r_riic/src/lld/r_rza2_riic_lld.c ****         clk_param.duty = p_cfg->duty;
 1632              		.loc 1 382 9 is_stmt 1 view .LVU452
 382:../generate/sc_drivers/r_riic/src/lld/r_rza2_riic_lld.c ****         clk_param.duty = p_cfg->duty;
 1633              		.loc 1 382 36 is_stmt 0 view .LVU453
 1634 0028 1930D1E5 		ldrb	r3, [r1, #25]	@ zero_extendqisi2
 382:../generate/sc_drivers/r_riic/src/lld/r_rza2_riic_lld.c ****         clk_param.duty = p_cfg->duty;
 1635              		.loc 1 382 29 view .LVU454
 1636 002c 0930CDE5 		strb	r3, [sp, #9]
 383:../generate/sc_drivers/r_riic/src/lld/r_rza2_riic_lld.c ****         clk_param.rise_time = p_cfg->rise_time;
 1637              		.loc 1 383 9 is_stmt 1 view .LVU455
 383:../generate/sc_drivers/r_riic/src/lld/r_rza2_riic_lld.c ****         clk_param.rise_time = p_cfg->rise_time;
 1638              		.loc 1 383 31 is_stmt 0 view .LVU456
 1639 0030 1A30D1E5 		ldrb	r3, [r1, #26]	@ zero_extendqisi2
 383:../generate/sc_drivers/r_riic/src/lld/r_rza2_riic_lld.c ****         clk_param.rise_time = p_cfg->rise_time;
 1640              		.loc 1 383 24 view .LVU457
 1641 0034 0A30CDE5 		strb	r3, [sp, #10]
 384:../generate/sc_drivers/r_riic/src/lld/r_rza2_riic_lld.c ****         clk_param.fall_time = p_cfg->fall_time;
 1642              		.loc 1 384 9 is_stmt 1 view .LVU458
 384:../generate/sc_drivers/r_riic/src/lld/r_rza2_riic_lld.c ****         clk_param.fall_time = p_cfg->fall_time;
 1643              		.loc 1 384 36 is_stmt 0 view .LVU459
 1644 0038 1C3091E5 		ldr	r3, [r1, #28]
 384:../generate/sc_drivers/r_riic/src/lld/r_rza2_riic_lld.c ****         clk_param.fall_time = p_cfg->fall_time;
 1645              		.loc 1 384 29 view .LVU460
 1646 003c 0C308DE5 		str	r3, [sp, #12]
 385:../generate/sc_drivers/r_riic/src/lld/r_rza2_riic_lld.c ****         clk_param.noise_filter_stage = p_cfg->noise_filter_stage;
 1647              		.loc 1 385 9 is_stmt 1 view .LVU461
 385:../generate/sc_drivers/r_riic/src/lld/r_rza2_riic_lld.c ****         clk_param.noise_filter_stage = p_cfg->noise_filter_stage;
 1648              		.loc 1 385 36 is_stmt 0 view .LVU462
 1649 0040 203091E5 		ldr	r3, [r1, #32]
 385:../generate/sc_drivers/r_riic/src/lld/r_rza2_riic_lld.c ****         clk_param.noise_filter_stage = p_cfg->noise_filter_stage;
 1650              		.loc 1 385 29 view .LVU463
 1651 0044 10308DE5 		str	r3, [sp, #16]
 386:../generate/sc_drivers/r_riic/src/lld/r_rza2_riic_lld.c ****         clk_param.format = p_cfg->format;
 1652              		.loc 1 386 9 is_stmt 1 view .LVU464
 386:../generate/sc_drivers/r_riic/src/lld/r_rza2_riic_lld.c ****         clk_param.format = p_cfg->format;
 1653              		.loc 1 386 45 is_stmt 0 view .LVU465
 1654 0048 2430D1E5 		ldrb	r3, [r1, #36]	@ zero_extendqisi2
 386:../generate/sc_drivers/r_riic/src/lld/r_rza2_riic_lld.c ****         clk_param.format = p_cfg->format;
 1655              		.loc 1 386 38 view .LVU466
 1656 004c 1430CDE5 		strb	r3, [sp, #20]
 387:../generate/sc_drivers/r_riic/src/lld/r_rza2_riic_lld.c **** 
 1657              		.loc 1 387 9 is_stmt 1 view .LVU467
 387:../generate/sc_drivers/r_riic/src/lld/r_rza2_riic_lld.c **** 
 1658              		.loc 1 387 33 is_stmt 0 view .LVU468
 1659 0050 2630D1E5 		ldrb	r3, [r1, #38]	@ zero_extendqisi2
 387:../generate/sc_drivers/r_riic/src/lld/r_rza2_riic_lld.c **** 
 1660              		.loc 1 387 26 view .LVU469
 1661 0054 1530CDE5 		strb	r3, [sp, #21]
 390:../generate/sc_drivers/r_riic/src/lld/r_rza2_riic_lld.c ****     }
 1662              		.loc 1 390 9 is_stmt 1 view .LVU470
 390:../generate/sc_drivers/r_riic/src/lld/r_rza2_riic_lld.c ****     }
 1663              		.loc 1 390 18 is_stmt 0 view .LVU471
 1664 0058 04008DE2 		add	r0, sp, #4
 1665              	.LVL159:
 390:../generate/sc_drivers/r_riic/src/lld/r_rza2_riic_lld.c ****     }
 1666              		.loc 1 390 18 view .LVU472
 1667 005c FEFFFFEB 		bl	riic_adjust_scl_clk
 1668              	.LVL160:
 390:../generate/sc_drivers/r_riic/src/lld/r_rza2_riic_lld.c ****     }
 1669              		.loc 1 390 18 view .LVU473
 1670 0060 0060A0E1 		mov	r6, r0
 1671              	.LVL161:
 1672              	.L72:
 393:../generate/sc_drivers/r_riic/src/lld/r_rza2_riic_lld.c ****     {
 1673              		.loc 1 393 5 is_stmt 1 view .LVU474
 393:../generate/sc_drivers/r_riic/src/lld/r_rza2_riic_lld.c ****     {
 1674              		.loc 1 393 8 is_stmt 0 view .LVU475
 1675 0064 000056E3 		cmp	r6, #0
 1676 0068 0400000A 		beq	.L78
 1677              	.L71:
 443:../generate/sc_drivers/r_riic/src/lld/r_rza2_riic_lld.c **** /******************************************************************************
 1678              		.loc 1 443 1 view .LVU476
 1679 006c 0600A0E1 		mov	r0, r6
 1680 0070 20D08DE2 		add	sp, sp, #32
 1681              		.cfi_remember_state
 1682              		.cfi_def_cfa_offset 16
 1683              		@ sp needed
 1684 0074 7080BDE8 		pop	{r4, r5, r6, pc}
 1685              	.LVL162:
 1686              	.L76:
 1687              		.cfi_restore_state
 376:../generate/sc_drivers/r_riic/src/lld/r_rza2_riic_lld.c ****     }
 1688              		.loc 1 376 16 view .LVU477
 1689 0078 0060E0E3 		mvn	r6, #0
 1690 007c F8FFFFEA 		b	.L72
 1691              	.LVL163:
 1692              	.L78:
 395:../generate/sc_drivers/r_riic/src/lld/r_rza2_riic_lld.c **** 
 1693              		.loc 1 395 9 is_stmt 1 view .LVU478
 1694 0080 0500A0E1 		mov	r0, r5
 1695 0084 FEFFFFEB 		bl	riic_set_reset
 1696              	.LVL164:
 397:../generate/sc_drivers/r_riic/src/lld/r_rza2_riic_lld.c **** 
 1697              		.loc 1 397 9 view .LVU479
 1698 0088 0410A0E1 		mov	r1, r4
 1699 008c 0500A0E1 		mov	r0, r5
 1700 0090 FEFFFFEB 		bl	riic_register_slave_addrss
 1701              	.LVL165:
 400:../generate/sc_drivers/r_riic/src/lld/r_rza2_riic_lld.c **** 
 1702              		.loc 1 400 9 view .LVU480
 1703 0094 003000E3 		movw	r3, #:lower16:.LANCHOR7
 1704 0098 003040E3 		movt	r3, #:upper16:.LANCHOR7
 1705 009c 002093E5 		ldr	r2, [r3]
 1706 00a0 0410A0E1 		mov	r1, r4
 1707 00a4 0500A0E1 		mov	r0, r5
 1708 00a8 FEFFFFEB 		bl	riic_set_scl_clk
 1709              	.LVL166:
 402:../generate/sc_drivers/r_riic/src/lld/r_rza2_riic_lld.c **** 
 1710              		.loc 1 402 9 view .LVU481
 1711 00ac 0410A0E1 		mov	r1, r4
 1712 00b0 0500A0E1 		mov	r0, r5
 1713 00b4 FEFFFFEB 		bl	riic_set_bus_format
 1714              	.LVL167:
 404:../generate/sc_drivers/r_riic/src/lld/r_rza2_riic_lld.c **** 
 1715              		.loc 1 404 9 view .LVU482
 1716 00b8 0410A0E1 		mov	r1, r4
 1717 00bc 0500A0E1 		mov	r0, r5
 1718 00c0 FEFFFFEB 		bl	riic_set_noise_filter
 1719              	.LVL168:
 406:../generate/sc_drivers/r_riic/src/lld/r_rza2_riic_lld.c **** 
 1720              		.loc 1 406 9 view .LVU483
 1721 00c4 0410A0E1 		mov	r1, r4
 1722 00c8 0500A0E1 		mov	r0, r5
 1723 00cc FEFFFFEB 		bl	riic_set_timeout
 1724              	.LVL169:
 408:../generate/sc_drivers/r_riic/src/lld/r_rza2_riic_lld.c **** 
 1725              		.loc 1 408 9 view .LVU484
 1726 00d0 0500A0E1 		mov	r0, r5
 1727 00d4 FEFFFFEB 		bl	interrupt_uninit
 1728              	.LVL170:
 410:../generate/sc_drivers/r_riic/src/lld/r_rza2_riic_lld.c **** 
 1729              		.loc 1 410 9 view .LVU485
 1730 00d8 0410A0E1 		mov	r1, r4
 1731 00dc 0500A0E1 		mov	r0, r5
 1732 00e0 FEFFFFEB 		bl	interrupt_init
 1733              	.LVL171:
 412:../generate/sc_drivers/r_riic/src/lld/r_rza2_riic_lld.c ****         for (slave_addr_num = 0; slave_addr_num < RIIC_SLAVE_ADDR_NUM_MAX; slave_addr_num++)
 1734              		.loc 1 412 9 view .LVU486
 412:../generate/sc_drivers/r_riic/src/lld/r_rza2_riic_lld.c ****         for (slave_addr_num = 0; slave_addr_num < RIIC_SLAVE_ADDR_NUM_MAX; slave_addr_num++)
 1735              		.loc 1 412 50 is_stmt 0 view .LVU487
 1736 00e4 0010D4E5 		ldrb	r1, [r4]	@ zero_extendqisi2
 412:../generate/sc_drivers/r_riic/src/lld/r_rza2_riic_lld.c ****         for (slave_addr_num = 0; slave_addr_num < RIIC_SLAVE_ADDR_NUM_MAX; slave_addr_num++)
 1737              		.loc 1 412 43 view .LVU488
 1738 00e8 002000E3 		movw	r2, #:lower16:.LANCHOR6
 1739 00ec 002040E3 		movt	r2, #:upper16:.LANCHOR6
 1740 00f0 3430A0E3 		mov	r3, #52
 1741 00f4 930503E0 		mul	r3, r3, r5
 1742 00f8 0310C2E7 		strb	r1, [r2, r3]
 413:../generate/sc_drivers/r_riic/src/lld/r_rza2_riic_lld.c ****         {
 1743              		.loc 1 413 9 is_stmt 1 view .LVU489
 1744              	.LVL172:
 413:../generate/sc_drivers/r_riic/src/lld/r_rza2_riic_lld.c ****         {
 1745              		.loc 1 413 29 is_stmt 0 view .LVU490
 1746 00fc 0030A0E3 		mov	r3, #0
 413:../generate/sc_drivers/r_riic/src/lld/r_rza2_riic_lld.c ****         {
 1747              		.loc 1 413 9 view .LVU491
 1748 0100 170000EA 		b	.L74
 1749              	.LVL173:
 1750              	.L75:
 415:../generate/sc_drivers/r_riic/src/lld/r_rza2_riic_lld.c ****                 = p_cfg->slave_address_enable[slave_addr_num];
 1751              		.loc 1 415 13 is_stmt 1 discriminator 3 view .LVU492
 416:../generate/sc_drivers/r_riic/src/lld/r_rza2_riic_lld.c ****             gs_riic_config[channel].slave_address[slave_addr_num] 
 1752              		.loc 1 416 46 is_stmt 0 discriminator 3 view .LVU493
 1753 0104 032184E0 		add	r2, r4, r3, lsl #2
 1754 0108 040092E5 		ldr	r0, [r2, #4]
 416:../generate/sc_drivers/r_riic/src/lld/r_rza2_riic_lld.c ****             gs_riic_config[channel].slave_address[slave_addr_num] 
 1755              		.loc 1 416 17 discriminator 3 view .LVU494
 1756 010c 001000E3 		movw	r1, #:lower16:.LANCHOR6
 1757 0110 001040E3 		movt	r1, #:upper16:.LANCHOR6
 1758 0114 852085E0 		add	r2, r5, r5, lsl #1
 1759 0118 022185E0 		add	r2, r5, r2, lsl #2
 1760 011c 032082E0 		add	r2, r2, r3
 1761 0120 022181E0 		add	r2, r1, r2, lsl #2
 1762 0124 040082E5 		str	r0, [r2, #4]
 417:../generate/sc_drivers/r_riic/src/lld/r_rza2_riic_lld.c ****                 = p_cfg->slave_address[slave_addr_num];
 1763              		.loc 1 417 13 is_stmt 1 discriminator 3 view .LVU495
 418:../generate/sc_drivers/r_riic/src/lld/r_rza2_riic_lld.c ****             gs_riic_config[channel].slave_address_length[slave_addr_num] 
 1764              		.loc 1 418 39 is_stmt 0 discriminator 3 view .LVU496
 1765 0128 082083E2 		add	r2, r3, #8
 1766 012c 8220A0E1 		lsl	r2, r2, #1
 1767 0130 B20094E1 		ldrh	r0, [r4, r2]
 418:../generate/sc_drivers/r_riic/src/lld/r_rza2_riic_lld.c ****             gs_riic_config[channel].slave_address_length[slave_addr_num] 
 1768              		.loc 1 418 17 discriminator 3 view .LVU497
 1769 0134 1A20A0E3 		mov	r2, #26
 1770 0138 923522E0 		mla	r2, r2, r5, r3
 1771 013c 082082E2 		add	r2, r2, #8
 1772 0140 8220A0E1 		lsl	r2, r2, #1
 1773 0144 B20081E1 		strh	r0, [r1, r2]	@ movhi
 419:../generate/sc_drivers/r_riic/src/lld/r_rza2_riic_lld.c ****                 = p_cfg->slave_address_length[slave_addr_num];
 1774              		.loc 1 419 13 is_stmt 1 discriminator 3 view .LVU498
 420:../generate/sc_drivers/r_riic/src/lld/r_rza2_riic_lld.c ****         }
 1775              		.loc 1 420 46 is_stmt 0 discriminator 3 view .LVU499
 1776 0148 032084E0 		add	r2, r4, r3
 1777 014c 1600D2E5 		ldrb	r0, [r2, #22]	@ zero_extendqisi2
 420:../generate/sc_drivers/r_riic/src/lld/r_rza2_riic_lld.c ****         }
 1778              		.loc 1 420 17 discriminator 3 view .LVU500
 1779 0150 3420A0E3 		mov	r2, #52
 1780 0154 921522E0 		mla	r2, r2, r5, r1
 1781 0158 032082E0 		add	r2, r2, r3
 1782 015c 1600C2E5 		strb	r0, [r2, #22]
 413:../generate/sc_drivers/r_riic/src/lld/r_rza2_riic_lld.c ****         {
 1783              		.loc 1 413 76 is_stmt 1 discriminator 3 view .LVU501
 413:../generate/sc_drivers/r_riic/src/lld/r_rza2_riic_lld.c ****         {
 1784              		.loc 1 413 90 is_stmt 0 discriminator 3 view .LVU502
 1785 0160 013083E2 		add	r3, r3, #1
 1786              	.LVL174:
 1787              	.L74:
 413:../generate/sc_drivers/r_riic/src/lld/r_rza2_riic_lld.c ****         {
 1788              		.loc 1 413 34 is_stmt 1 discriminator 1 view .LVU503
 413:../generate/sc_drivers/r_riic/src/lld/r_rza2_riic_lld.c ****         {
 1789              		.loc 1 413 9 is_stmt 0 discriminator 1 view .LVU504
 1790 0164 020053E3 		cmp	r3, #2
 1791 0168 E5FFFF9A 		bls	.L75
 422:../generate/sc_drivers/r_riic/src/lld/r_rza2_riic_lld.c ****         gs_riic_config[channel].duty = p_cfg->duty;
 1792              		.loc 1 422 9 is_stmt 1 view .LVU505
 422:../generate/sc_drivers/r_riic/src/lld/r_rza2_riic_lld.c ****         gs_riic_config[channel].duty = p_cfg->duty;
 1793              		.loc 1 422 50 is_stmt 0 view .LVU506
 1794 016c 1920D4E5 		ldrb	r2, [r4, #25]	@ zero_extendqisi2
 422:../generate/sc_drivers/r_riic/src/lld/r_rza2_riic_lld.c ****         gs_riic_config[channel].duty = p_cfg->duty;
 1795              		.loc 1 422 43 view .LVU507
 1796 0170 003000E3 		movw	r3, #:lower16:.LANCHOR6
 1797              	.LVL175:
 422:../generate/sc_drivers/r_riic/src/lld/r_rza2_riic_lld.c ****         gs_riic_config[channel].duty = p_cfg->duty;
 1798              		.loc 1 422 43 view .LVU508
 1799 0174 003040E3 		movt	r3, #:upper16:.LANCHOR6
 1800 0178 3410A0E3 		mov	r1, #52
 1801 017c 913523E0 		mla	r3, r1, r5, r3
 1802 0180 1920C3E5 		strb	r2, [r3, #25]
 423:../generate/sc_drivers/r_riic/src/lld/r_rza2_riic_lld.c ****         gs_riic_config[channel].rise_time = p_cfg->rise_time;
 1803              		.loc 1 423 9 is_stmt 1 view .LVU509
 423:../generate/sc_drivers/r_riic/src/lld/r_rza2_riic_lld.c ****         gs_riic_config[channel].rise_time = p_cfg->rise_time;
 1804              		.loc 1 423 45 is_stmt 0 view .LVU510
 1805 0184 1A20D4E5 		ldrb	r2, [r4, #26]	@ zero_extendqisi2
 423:../generate/sc_drivers/r_riic/src/lld/r_rza2_riic_lld.c ****         gs_riic_config[channel].rise_time = p_cfg->rise_time;
 1806              		.loc 1 423 38 view .LVU511
 1807 0188 1A20C3E5 		strb	r2, [r3, #26]
 424:../generate/sc_drivers/r_riic/src/lld/r_rza2_riic_lld.c ****         gs_riic_config[channel].fall_time = p_cfg->fall_time;
 1808              		.loc 1 424 9 is_stmt 1 view .LVU512
 424:../generate/sc_drivers/r_riic/src/lld/r_rza2_riic_lld.c ****         gs_riic_config[channel].fall_time = p_cfg->fall_time;
 1809              		.loc 1 424 50 is_stmt 0 view .LVU513
 1810 018c 1C2094E5 		ldr	r2, [r4, #28]
 424:../generate/sc_drivers/r_riic/src/lld/r_rza2_riic_lld.c ****         gs_riic_config[channel].fall_time = p_cfg->fall_time;
 1811              		.loc 1 424 43 view .LVU514
 1812 0190 1C2083E5 		str	r2, [r3, #28]
 425:../generate/sc_drivers/r_riic/src/lld/r_rza2_riic_lld.c ****         gs_riic_config[channel].noise_filter_stage = p_cfg->noise_filter_stage;
 1813              		.loc 1 425 9 is_stmt 1 view .LVU515
 425:../generate/sc_drivers/r_riic/src/lld/r_rza2_riic_lld.c ****         gs_riic_config[channel].noise_filter_stage = p_cfg->noise_filter_stage;
 1814              		.loc 1 425 50 is_stmt 0 view .LVU516
 1815 0194 202094E5 		ldr	r2, [r4, #32]
 425:../generate/sc_drivers/r_riic/src/lld/r_rza2_riic_lld.c ****         gs_riic_config[channel].noise_filter_stage = p_cfg->noise_filter_stage;
 1816              		.loc 1 425 43 view .LVU517
 1817 0198 202083E5 		str	r2, [r3, #32]
 426:../generate/sc_drivers/r_riic/src/lld/r_rza2_riic_lld.c ****         gs_riic_config[channel].timeout = p_cfg->timeout;
 1818              		.loc 1 426 9 is_stmt 1 view .LVU518
 426:../generate/sc_drivers/r_riic/src/lld/r_rza2_riic_lld.c ****         gs_riic_config[channel].timeout = p_cfg->timeout;
 1819              		.loc 1 426 59 is_stmt 0 view .LVU519
 1820 019c 2420D4E5 		ldrb	r2, [r4, #36]	@ zero_extendqisi2
 426:../generate/sc_drivers/r_riic/src/lld/r_rza2_riic_lld.c ****         gs_riic_config[channel].timeout = p_cfg->timeout;
 1821              		.loc 1 426 52 view .LVU520
 1822 01a0 2420C3E5 		strb	r2, [r3, #36]
 427:../generate/sc_drivers/r_riic/src/lld/r_rza2_riic_lld.c ****         gs_riic_config[channel].format = p_cfg->format;
 1823              		.loc 1 427 9 is_stmt 1 view .LVU521
 427:../generate/sc_drivers/r_riic/src/lld/r_rza2_riic_lld.c ****         gs_riic_config[channel].format = p_cfg->format;
 1824              		.loc 1 427 48 is_stmt 0 view .LVU522
 1825 01a4 2520D4E5 		ldrb	r2, [r4, #37]	@ zero_extendqisi2
 427:../generate/sc_drivers/r_riic/src/lld/r_rza2_riic_lld.c ****         gs_riic_config[channel].format = p_cfg->format;
 1826              		.loc 1 427 41 view .LVU523
 1827 01a8 2520C3E5 		strb	r2, [r3, #37]
 428:../generate/sc_drivers/r_riic/src/lld/r_rza2_riic_lld.c ****         gs_riic_config[channel].host_address_enabled = p_cfg->host_address_enabled;
 1828              		.loc 1 428 9 is_stmt 1 view .LVU524
 428:../generate/sc_drivers/r_riic/src/lld/r_rza2_riic_lld.c ****         gs_riic_config[channel].host_address_enabled = p_cfg->host_address_enabled;
 1829              		.loc 1 428 47 is_stmt 0 view .LVU525
 1830 01ac 2620D4E5 		ldrb	r2, [r4, #38]	@ zero_extendqisi2
 428:../generate/sc_drivers/r_riic/src/lld/r_rza2_riic_lld.c ****         gs_riic_config[channel].host_address_enabled = p_cfg->host_address_enabled;
 1831              		.loc 1 428 40 view .LVU526
 1832 01b0 2620C3E5 		strb	r2, [r3, #38]
 429:../generate/sc_drivers/r_riic/src/lld/r_rza2_riic_lld.c ****         gs_riic_config[channel].tei_priority = p_cfg->tei_priority;
 1833              		.loc 1 429 9 is_stmt 1 view .LVU527
 429:../generate/sc_drivers/r_riic/src/lld/r_rza2_riic_lld.c ****         gs_riic_config[channel].tei_priority = p_cfg->tei_priority;
 1834              		.loc 1 429 61 is_stmt 0 view .LVU528
 1835 01b4 282094E5 		ldr	r2, [r4, #40]
 429:../generate/sc_drivers/r_riic/src/lld/r_rza2_riic_lld.c ****         gs_riic_config[channel].tei_priority = p_cfg->tei_priority;
 1836              		.loc 1 429 54 view .LVU529
 1837 01b8 282083E5 		str	r2, [r3, #40]
 430:../generate/sc_drivers/r_riic/src/lld/r_rza2_riic_lld.c ****         gs_riic_config[channel].ri_priority = p_cfg->ri_priority;
 1838              		.loc 1 430 9 is_stmt 1 view .LVU530
 430:../generate/sc_drivers/r_riic/src/lld/r_rza2_riic_lld.c ****         gs_riic_config[channel].ri_priority = p_cfg->ri_priority;
 1839              		.loc 1 430 53 is_stmt 0 view .LVU531
 1840 01bc 2C20D4E5 		ldrb	r2, [r4, #44]	@ zero_extendqisi2
 430:../generate/sc_drivers/r_riic/src/lld/r_rza2_riic_lld.c ****         gs_riic_config[channel].ri_priority = p_cfg->ri_priority;
 1841              		.loc 1 430 46 view .LVU532
 1842 01c0 2C20C3E5 		strb	r2, [r3, #44]
 431:../generate/sc_drivers/r_riic/src/lld/r_rza2_riic_lld.c ****         gs_riic_config[channel].ti_priority = p_cfg->ti_priority;
 1843              		.loc 1 431 9 is_stmt 1 view .LVU533
 431:../generate/sc_drivers/r_riic/src/lld/r_rza2_riic_lld.c ****         gs_riic_config[channel].ti_priority = p_cfg->ti_priority;
 1844              		.loc 1 431 52 is_stmt 0 view .LVU534
 1845 01c4 2D20D4E5 		ldrb	r2, [r4, #45]	@ zero_extendqisi2
 431:../generate/sc_drivers/r_riic/src/lld/r_rza2_riic_lld.c ****         gs_riic_config[channel].ti_priority = p_cfg->ti_priority;
 1846              		.loc 1 431 45 view .LVU535
 1847 01c8 2D20C3E5 		strb	r2, [r3, #45]
 432:../generate/sc_drivers/r_riic/src/lld/r_rza2_riic_lld.c ****         gs_riic_config[channel].spi_priority = p_cfg->spi_priority;
 1848              		.loc 1 432 9 is_stmt 1 view .LVU536
 432:../generate/sc_drivers/r_riic/src/lld/r_rza2_riic_lld.c ****         gs_riic_config[channel].spi_priority = p_cfg->spi_priority;
 1849              		.loc 1 432 52 is_stmt 0 view .LVU537
 1850 01cc 2E20D4E5 		ldrb	r2, [r4, #46]	@ zero_extendqisi2
 432:../generate/sc_drivers/r_riic/src/lld/r_rza2_riic_lld.c ****         gs_riic_config[channel].spi_priority = p_cfg->spi_priority;
 1851              		.loc 1 432 45 view .LVU538
 1852 01d0 2E20C3E5 		strb	r2, [r3, #46]
 433:../generate/sc_drivers/r_riic/src/lld/r_rza2_riic_lld.c ****         gs_riic_config[channel].sti_priority = p_cfg->sti_priority;
 1853              		.loc 1 433 9 is_stmt 1 view .LVU539
 433:../generate/sc_drivers/r_riic/src/lld/r_rza2_riic_lld.c ****         gs_riic_config[channel].sti_priority = p_cfg->sti_priority;
 1854              		.loc 1 433 53 is_stmt 0 view .LVU540
 1855 01d4 2F20D4E5 		ldrb	r2, [r4, #47]	@ zero_extendqisi2
 433:../generate/sc_drivers/r_riic/src/lld/r_rza2_riic_lld.c ****         gs_riic_config[channel].sti_priority = p_cfg->sti_priority;
 1856              		.loc 1 433 46 view .LVU541
 1857 01d8 2F20C3E5 		strb	r2, [r3, #47]
 434:../generate/sc_drivers/r_riic/src/lld/r_rza2_riic_lld.c ****         gs_riic_config[channel].naki_priority = p_cfg->naki_priority;
 1858              		.loc 1 434 9 is_stmt 1 view .LVU542
 434:../generate/sc_drivers/r_riic/src/lld/r_rza2_riic_lld.c ****         gs_riic_config[channel].naki_priority = p_cfg->naki_priority;
 1859              		.loc 1 434 53 is_stmt 0 view .LVU543
 1860 01dc 3020D4E5 		ldrb	r2, [r4, #48]	@ zero_extendqisi2
 434:../generate/sc_drivers/r_riic/src/lld/r_rza2_riic_lld.c ****         gs_riic_config[channel].naki_priority = p_cfg->naki_priority;
 1861              		.loc 1 434 46 view .LVU544
 1862 01e0 3020C3E5 		strb	r2, [r3, #48]
 435:../generate/sc_drivers/r_riic/src/lld/r_rza2_riic_lld.c ****         gs_riic_config[channel].ali_priority = p_cfg->ali_priority;
 1863              		.loc 1 435 9 is_stmt 1 view .LVU545
 435:../generate/sc_drivers/r_riic/src/lld/r_rza2_riic_lld.c ****         gs_riic_config[channel].ali_priority = p_cfg->ali_priority;
 1864              		.loc 1 435 54 is_stmt 0 view .LVU546
 1865 01e4 3120D4E5 		ldrb	r2, [r4, #49]	@ zero_extendqisi2
 435:../generate/sc_drivers/r_riic/src/lld/r_rza2_riic_lld.c ****         gs_riic_config[channel].ali_priority = p_cfg->ali_priority;
 1866              		.loc 1 435 47 view .LVU547
 1867 01e8 3120C3E5 		strb	r2, [r3, #49]
 436:../generate/sc_drivers/r_riic/src/lld/r_rza2_riic_lld.c ****         gs_riic_config[channel].tmoi_priority = p_cfg->tmoi_priority;
 1868              		.loc 1 436 9 is_stmt 1 view .LVU548
 436:../generate/sc_drivers/r_riic/src/lld/r_rza2_riic_lld.c ****         gs_riic_config[channel].tmoi_priority = p_cfg->tmoi_priority;
 1869              		.loc 1 436 53 is_stmt 0 view .LVU549
 1870 01ec 3220D4E5 		ldrb	r2, [r4, #50]	@ zero_extendqisi2
 436:../generate/sc_drivers/r_riic/src/lld/r_rza2_riic_lld.c ****         gs_riic_config[channel].tmoi_priority = p_cfg->tmoi_priority;
 1871              		.loc 1 436 46 view .LVU550
 1872 01f0 3220C3E5 		strb	r2, [r3, #50]
 437:../generate/sc_drivers/r_riic/src/lld/r_rza2_riic_lld.c **** 
 1873              		.loc 1 437 9 is_stmt 1 view .LVU551
 437:../generate/sc_drivers/r_riic/src/lld/r_rza2_riic_lld.c **** 
 1874              		.loc 1 437 54 is_stmt 0 view .LVU552
 1875 01f4 3320D4E5 		ldrb	r2, [r4, #51]	@ zero_extendqisi2
 437:../generate/sc_drivers/r_riic/src/lld/r_rza2_riic_lld.c **** 
 1876              		.loc 1 437 47 view .LVU553
 1877 01f8 3320C3E5 		strb	r2, [r3, #51]
 439:../generate/sc_drivers/r_riic/src/lld/r_rza2_riic_lld.c ****     }
 1878              		.loc 1 439 9 is_stmt 1 view .LVU554
 1879 01fc 0500A0E1 		mov	r0, r5
 1880 0200 FEFFFFEB 		bl	riic_release_reset
 1881              	.LVL176:
 442:../generate/sc_drivers/r_riic/src/lld/r_rza2_riic_lld.c **** }
 1882              		.loc 1 442 5 view .LVU555
 442:../generate/sc_drivers/r_riic/src/lld/r_rza2_riic_lld.c **** }
 1883              		.loc 1 442 12 is_stmt 0 view .LVU556
 1884 0204 98FFFFEA 		b	.L71
 1885              		.cfi_endproc
 1886              	.LFE5:
 1888              		.section	.text.R_RIIC_GetConfig,"ax",%progbits
 1889              		.align	2
 1890              		.global	R_RIIC_GetConfig
 1891              		.syntax unified
 1892              		.arm
 1893              		.fpu neon
 1895              	R_RIIC_GetConfig:
 1896              	.LVL177:
 1897              	.LFB6:
 456:../generate/sc_drivers/r_riic/src/lld/r_rza2_riic_lld.c ****     int_t retval = DRV_SUCCESS;
 1898              		.loc 1 456 1 is_stmt 1 view -0
 1899              		.cfi_startproc
 1900              		@ args = 0, pretend = 0, frame = 0
 1901              		@ frame_needed = 0, uses_anonymous_args = 0
 456:../generate/sc_drivers/r_riic/src/lld/r_rza2_riic_lld.c ****     int_t retval = DRV_SUCCESS;
 1902              		.loc 1 456 1 is_stmt 0 view .LVU558
 1903 0000 04E02DE5 		str	lr, [sp, #-4]!
 1904              		.cfi_def_cfa_offset 4
 1905              		.cfi_offset 14, -4
 457:../generate/sc_drivers/r_riic/src/lld/r_rza2_riic_lld.c ****     uint32_t slave_addr_num;
 1906              		.loc 1 457 5 is_stmt 1 view .LVU559
 1907              	.LVL178:
 458:../generate/sc_drivers/r_riic/src/lld/r_rza2_riic_lld.c **** 
 1908              		.loc 1 458 5 view .LVU560
 460:../generate/sc_drivers/r_riic/src/lld/r_rza2_riic_lld.c ****     for (slave_addr_num = 0; slave_addr_num < RIIC_SLAVE_ADDR_NUM_MAX; slave_addr_num++)
 1909              		.loc 1 460 5 view .LVU561
 460:../generate/sc_drivers/r_riic/src/lld/r_rza2_riic_lld.c ****     for (slave_addr_num = 0; slave_addr_num < RIIC_SLAVE_ADDR_NUM_MAX; slave_addr_num++)
 1910              		.loc 1 460 47 is_stmt 0 view .LVU562
 1911 0004 002000E3 		movw	r2, #:lower16:.LANCHOR6
 1912 0008 002040E3 		movt	r2, #:upper16:.LANCHOR6
 1913 000c 3430A0E3 		mov	r3, #52
 1914 0010 930003E0 		mul	r3, r3, r0
 1915 0014 0330D2E7 		ldrb	r3, [r2, r3]	@ zero_extendqisi2
 460:../generate/sc_drivers/r_riic/src/lld/r_rza2_riic_lld.c ****     for (slave_addr_num = 0; slave_addr_num < RIIC_SLAVE_ADDR_NUM_MAX; slave_addr_num++)
 1916              		.loc 1 460 22 view .LVU563
 1917 0018 0030C1E5 		strb	r3, [r1]
 461:../generate/sc_drivers/r_riic/src/lld/r_rza2_riic_lld.c ****     {
 1918              		.loc 1 461 5 is_stmt 1 view .LVU564
 1919              	.LVL179:
 461:../generate/sc_drivers/r_riic/src/lld/r_rza2_riic_lld.c ****     {
 1920              		.loc 1 461 25 is_stmt 0 view .LVU565
 1921 001c 0030A0E3 		mov	r3, #0
 461:../generate/sc_drivers/r_riic/src/lld/r_rza2_riic_lld.c ****     {
 1922              		.loc 1 461 5 view .LVU566
 1923 0020 170000EA 		b	.L80
 1924              	.LVL180:
 1925              	.L81:
 463:../generate/sc_drivers/r_riic/src/lld/r_rza2_riic_lld.c ****         p_cfg->slave_address[slave_addr_num] = gs_riic_config[channel].slave_address[slave_addr_num
 1926              		.loc 1 463 9 is_stmt 1 discriminator 3 view .LVU567
 463:../generate/sc_drivers/r_riic/src/lld/r_rza2_riic_lld.c ****         p_cfg->slave_address[slave_addr_num] = gs_riic_config[channel].slave_address[slave_addr_num
 1927              		.loc 1 463 99 is_stmt 0 discriminator 3 view .LVU568
 1928 0024 00C000E3 		movw	ip, #:lower16:.LANCHOR6
 1929 0028 00C040E3 		movt	ip, #:upper16:.LANCHOR6
 1930 002c 802080E0 		add	r2, r0, r0, lsl #1
 1931 0030 022180E0 		add	r2, r0, r2, lsl #2
 1932 0034 032082E0 		add	r2, r2, r3
 1933 0038 02218CE0 		add	r2, ip, r2, lsl #2
 1934 003c 04E092E5 		ldr	lr, [r2, #4]
 463:../generate/sc_drivers/r_riic/src/lld/r_rza2_riic_lld.c ****         p_cfg->slave_address[slave_addr_num] = gs_riic_config[channel].slave_address[slave_addr_num
 1935              		.loc 1 463 53 discriminator 3 view .LVU569
 1936 0040 032181E0 		add	r2, r1, r3, lsl #2
 1937 0044 04E082E5 		str	lr, [r2, #4]
 464:../generate/sc_drivers/r_riic/src/lld/r_rza2_riic_lld.c ****         p_cfg->slave_address_length[slave_addr_num] = gs_riic_config[channel].slave_address_length[
 1938              		.loc 1 464 9 is_stmt 1 discriminator 3 view .LVU570
 464:../generate/sc_drivers/r_riic/src/lld/r_rza2_riic_lld.c ****         p_cfg->slave_address_length[slave_addr_num] = gs_riic_config[channel].slave_address_length[
 1939              		.loc 1 464 85 is_stmt 0 discriminator 3 view .LVU571
 1940 0048 1A20A0E3 		mov	r2, #26
 1941 004c 923022E0 		mla	r2, r2, r0, r3
 1942 0050 082082E2 		add	r2, r2, #8
 1943 0054 8220A0E1 		lsl	r2, r2, #1
 1944 0058 B2E09CE1 		ldrh	lr, [ip, r2]
 464:../generate/sc_drivers/r_riic/src/lld/r_rza2_riic_lld.c ****         p_cfg->slave_address_length[slave_addr_num] = gs_riic_config[channel].slave_address_length[
 1945              		.loc 1 464 46 discriminator 3 view .LVU572
 1946 005c 082083E2 		add	r2, r3, #8
 1947 0060 8220A0E1 		lsl	r2, r2, #1
 1948 0064 B2E081E1 		strh	lr, [r1, r2]	@ movhi
 465:../generate/sc_drivers/r_riic/src/lld/r_rza2_riic_lld.c ****     }
 1949              		.loc 1 465 9 is_stmt 1 discriminator 3 view .LVU573
 465:../generate/sc_drivers/r_riic/src/lld/r_rza2_riic_lld.c ****     }
 1950              		.loc 1 465 99 is_stmt 0 discriminator 3 view .LVU574
 1951 0068 3420A0E3 		mov	r2, #52
 1952 006c 92C022E0 		mla	r2, r2, r0, ip
 1953 0070 032082E0 		add	r2, r2, r3
 1954 0074 16C0D2E5 		ldrb	ip, [r2, #22]	@ zero_extendqisi2
 465:../generate/sc_drivers/r_riic/src/lld/r_rza2_riic_lld.c ****     }
 1955              		.loc 1 465 53 discriminator 3 view .LVU575
 1956 0078 032081E0 		add	r2, r1, r3
 1957 007c 16C0C2E5 		strb	ip, [r2, #22]
 461:../generate/sc_drivers/r_riic/src/lld/r_rza2_riic_lld.c ****     {
 1958              		.loc 1 461 72 is_stmt 1 discriminator 3 view .LVU576
 461:../generate/sc_drivers/r_riic/src/lld/r_rza2_riic_lld.c ****     {
 1959              		.loc 1 461 86 is_stmt 0 discriminator 3 view .LVU577
 1960 0080 013083E2 		add	r3, r3, #1
 1961              	.LVL181:
 1962              	.L80:
 461:../generate/sc_drivers/r_riic/src/lld/r_rza2_riic_lld.c ****     {
 1963              		.loc 1 461 30 is_stmt 1 discriminator 1 view .LVU578
 461:../generate/sc_drivers/r_riic/src/lld/r_rza2_riic_lld.c ****     {
 1964              		.loc 1 461 5 is_stmt 0 discriminator 1 view .LVU579
 1965 0084 020053E3 		cmp	r3, #2
 1966 0088 E5FFFF9A 		bls	.L81
 467:../generate/sc_drivers/r_riic/src/lld/r_rza2_riic_lld.c ****     p_cfg->duty = gs_riic_config[channel].duty;
 1967              		.loc 1 467 5 is_stmt 1 view .LVU580
 467:../generate/sc_drivers/r_riic/src/lld/r_rza2_riic_lld.c ****     p_cfg->duty = gs_riic_config[channel].duty;
 1968              		.loc 1 467 47 is_stmt 0 view .LVU581
 1969 008c 003000E3 		movw	r3, #:lower16:.LANCHOR6
 1970              	.LVL182:
 467:../generate/sc_drivers/r_riic/src/lld/r_rza2_riic_lld.c ****     p_cfg->duty = gs_riic_config[channel].duty;
 1971              		.loc 1 467 47 view .LVU582
 1972 0090 003040E3 		movt	r3, #:upper16:.LANCHOR6
 1973 0094 3420A0E3 		mov	r2, #52
 1974 0098 923020E0 		mla	r0, r2, r0, r3
 1975              	.LVL183:
 467:../generate/sc_drivers/r_riic/src/lld/r_rza2_riic_lld.c ****     p_cfg->duty = gs_riic_config[channel].duty;
 1976              		.loc 1 467 47 view .LVU583
 1977 009c 1930D0E5 		ldrb	r3, [r0, #25]	@ zero_extendqisi2
 467:../generate/sc_drivers/r_riic/src/lld/r_rza2_riic_lld.c ****     p_cfg->duty = gs_riic_config[channel].duty;
 1978              		.loc 1 467 22 view .LVU584
 1979 00a0 1930C1E5 		strb	r3, [r1, #25]
 468:../generate/sc_drivers/r_riic/src/lld/r_rza2_riic_lld.c ****     p_cfg->rise_time = gs_riic_config[channel].rise_time;
 1980              		.loc 1 468 5 is_stmt 1 view .LVU585
 468:../generate/sc_drivers/r_riic/src/lld/r_rza2_riic_lld.c ****     p_cfg->rise_time = gs_riic_config[channel].rise_time;
 1981              		.loc 1 468 42 is_stmt 0 view .LVU586
 1982 00a4 1A30D0E5 		ldrb	r3, [r0, #26]	@ zero_extendqisi2
 468:../generate/sc_drivers/r_riic/src/lld/r_rza2_riic_lld.c ****     p_cfg->rise_time = gs_riic_config[channel].rise_time;
 1983              		.loc 1 468 17 view .LVU587
 1984 00a8 1A30C1E5 		strb	r3, [r1, #26]
 469:../generate/sc_drivers/r_riic/src/lld/r_rza2_riic_lld.c ****     p_cfg->fall_time = gs_riic_config[channel].fall_time;
 1985              		.loc 1 469 5 is_stmt 1 view .LVU588
 469:../generate/sc_drivers/r_riic/src/lld/r_rza2_riic_lld.c ****     p_cfg->fall_time = gs_riic_config[channel].fall_time;
 1986              		.loc 1 469 47 is_stmt 0 view .LVU589
 1987 00ac 1C3090E5 		ldr	r3, [r0, #28]
 469:../generate/sc_drivers/r_riic/src/lld/r_rza2_riic_lld.c ****     p_cfg->fall_time = gs_riic_config[channel].fall_time;
 1988              		.loc 1 469 22 view .LVU590
 1989 00b0 1C3081E5 		str	r3, [r1, #28]
 470:../generate/sc_drivers/r_riic/src/lld/r_rza2_riic_lld.c ****     p_cfg->noise_filter_stage = gs_riic_config[channel].noise_filter_stage;
 1990              		.loc 1 470 5 is_stmt 1 view .LVU591
 470:../generate/sc_drivers/r_riic/src/lld/r_rza2_riic_lld.c ****     p_cfg->noise_filter_stage = gs_riic_config[channel].noise_filter_stage;
 1991              		.loc 1 470 47 is_stmt 0 view .LVU592
 1992 00b4 203090E5 		ldr	r3, [r0, #32]
 470:../generate/sc_drivers/r_riic/src/lld/r_rza2_riic_lld.c ****     p_cfg->noise_filter_stage = gs_riic_config[channel].noise_filter_stage;
 1993              		.loc 1 470 22 view .LVU593
 1994 00b8 203081E5 		str	r3, [r1, #32]
 471:../generate/sc_drivers/r_riic/src/lld/r_rza2_riic_lld.c ****     p_cfg->timeout = gs_riic_config[channel].timeout;
 1995              		.loc 1 471 5 is_stmt 1 view .LVU594
 471:../generate/sc_drivers/r_riic/src/lld/r_rza2_riic_lld.c ****     p_cfg->timeout = gs_riic_config[channel].timeout;
 1996              		.loc 1 471 56 is_stmt 0 view .LVU595
 1997 00bc 2430D0E5 		ldrb	r3, [r0, #36]	@ zero_extendqisi2
 471:../generate/sc_drivers/r_riic/src/lld/r_rza2_riic_lld.c ****     p_cfg->timeout = gs_riic_config[channel].timeout;
 1998              		.loc 1 471 31 view .LVU596
 1999 00c0 2430C1E5 		strb	r3, [r1, #36]
 472:../generate/sc_drivers/r_riic/src/lld/r_rza2_riic_lld.c ****     p_cfg->format = gs_riic_config[channel].format;
 2000              		.loc 1 472 5 is_stmt 1 view .LVU597
 472:../generate/sc_drivers/r_riic/src/lld/r_rza2_riic_lld.c ****     p_cfg->format = gs_riic_config[channel].format;
 2001              		.loc 1 472 45 is_stmt 0 view .LVU598
 2002 00c4 2530D0E5 		ldrb	r3, [r0, #37]	@ zero_extendqisi2
 472:../generate/sc_drivers/r_riic/src/lld/r_rza2_riic_lld.c ****     p_cfg->format = gs_riic_config[channel].format;
 2003              		.loc 1 472 20 view .LVU599
 2004 00c8 2530C1E5 		strb	r3, [r1, #37]
 473:../generate/sc_drivers/r_riic/src/lld/r_rza2_riic_lld.c ****     p_cfg->host_address_enabled = gs_riic_config[channel].host_address_enabled;
 2005              		.loc 1 473 5 is_stmt 1 view .LVU600
 473:../generate/sc_drivers/r_riic/src/lld/r_rza2_riic_lld.c ****     p_cfg->host_address_enabled = gs_riic_config[channel].host_address_enabled;
 2006              		.loc 1 473 44 is_stmt 0 view .LVU601
 2007 00cc 2630D0E5 		ldrb	r3, [r0, #38]	@ zero_extendqisi2
 473:../generate/sc_drivers/r_riic/src/lld/r_rza2_riic_lld.c ****     p_cfg->host_address_enabled = gs_riic_config[channel].host_address_enabled;
 2008              		.loc 1 473 19 view .LVU602
 2009 00d0 2630C1E5 		strb	r3, [r1, #38]
 474:../generate/sc_drivers/r_riic/src/lld/r_rza2_riic_lld.c ****     p_cfg->tei_priority = gs_riic_config[channel].tei_priority;
 2010              		.loc 1 474 5 is_stmt 1 view .LVU603
 474:../generate/sc_drivers/r_riic/src/lld/r_rza2_riic_lld.c ****     p_cfg->tei_priority = gs_riic_config[channel].tei_priority;
 2011              		.loc 1 474 58 is_stmt 0 view .LVU604
 2012 00d4 283090E5 		ldr	r3, [r0, #40]
 474:../generate/sc_drivers/r_riic/src/lld/r_rza2_riic_lld.c ****     p_cfg->tei_priority = gs_riic_config[channel].tei_priority;
 2013              		.loc 1 474 33 view .LVU605
 2014 00d8 283081E5 		str	r3, [r1, #40]
 475:../generate/sc_drivers/r_riic/src/lld/r_rza2_riic_lld.c ****     p_cfg->ri_priority = gs_riic_config[channel].ri_priority;
 2015              		.loc 1 475 5 is_stmt 1 view .LVU606
 475:../generate/sc_drivers/r_riic/src/lld/r_rza2_riic_lld.c ****     p_cfg->ri_priority = gs_riic_config[channel].ri_priority;
 2016              		.loc 1 475 50 is_stmt 0 view .LVU607
 2017 00dc 2C30D0E5 		ldrb	r3, [r0, #44]	@ zero_extendqisi2
 475:../generate/sc_drivers/r_riic/src/lld/r_rza2_riic_lld.c ****     p_cfg->ri_priority = gs_riic_config[channel].ri_priority;
 2018              		.loc 1 475 25 view .LVU608
 2019 00e0 2C30C1E5 		strb	r3, [r1, #44]
 476:../generate/sc_drivers/r_riic/src/lld/r_rza2_riic_lld.c ****     p_cfg->ti_priority = gs_riic_config[channel].ti_priority;
 2020              		.loc 1 476 5 is_stmt 1 view .LVU609
 476:../generate/sc_drivers/r_riic/src/lld/r_rza2_riic_lld.c ****     p_cfg->ti_priority = gs_riic_config[channel].ti_priority;
 2021              		.loc 1 476 49 is_stmt 0 view .LVU610
 2022 00e4 2D30D0E5 		ldrb	r3, [r0, #45]	@ zero_extendqisi2
 476:../generate/sc_drivers/r_riic/src/lld/r_rza2_riic_lld.c ****     p_cfg->ti_priority = gs_riic_config[channel].ti_priority;
 2023              		.loc 1 476 24 view .LVU611
 2024 00e8 2D30C1E5 		strb	r3, [r1, #45]
 477:../generate/sc_drivers/r_riic/src/lld/r_rza2_riic_lld.c ****     p_cfg->spi_priority = gs_riic_config[channel].spi_priority;
 2025              		.loc 1 477 5 is_stmt 1 view .LVU612
 477:../generate/sc_drivers/r_riic/src/lld/r_rza2_riic_lld.c ****     p_cfg->spi_priority = gs_riic_config[channel].spi_priority;
 2026              		.loc 1 477 49 is_stmt 0 view .LVU613
 2027 00ec 2E30D0E5 		ldrb	r3, [r0, #46]	@ zero_extendqisi2
 477:../generate/sc_drivers/r_riic/src/lld/r_rza2_riic_lld.c ****     p_cfg->spi_priority = gs_riic_config[channel].spi_priority;
 2028              		.loc 1 477 24 view .LVU614
 2029 00f0 2E30C1E5 		strb	r3, [r1, #46]
 478:../generate/sc_drivers/r_riic/src/lld/r_rza2_riic_lld.c ****     p_cfg->sti_priority = gs_riic_config[channel].sti_priority;
 2030              		.loc 1 478 5 is_stmt 1 view .LVU615
 478:../generate/sc_drivers/r_riic/src/lld/r_rza2_riic_lld.c ****     p_cfg->sti_priority = gs_riic_config[channel].sti_priority;
 2031              		.loc 1 478 50 is_stmt 0 view .LVU616
 2032 00f4 2F30D0E5 		ldrb	r3, [r0, #47]	@ zero_extendqisi2
 478:../generate/sc_drivers/r_riic/src/lld/r_rza2_riic_lld.c ****     p_cfg->sti_priority = gs_riic_config[channel].sti_priority;
 2033              		.loc 1 478 25 view .LVU617
 2034 00f8 2F30C1E5 		strb	r3, [r1, #47]
 479:../generate/sc_drivers/r_riic/src/lld/r_rza2_riic_lld.c ****     p_cfg->naki_priority = gs_riic_config[channel].naki_priority;
 2035              		.loc 1 479 5 is_stmt 1 view .LVU618
 479:../generate/sc_drivers/r_riic/src/lld/r_rza2_riic_lld.c ****     p_cfg->naki_priority = gs_riic_config[channel].naki_priority;
 2036              		.loc 1 479 50 is_stmt 0 view .LVU619
 2037 00fc 3030D0E5 		ldrb	r3, [r0, #48]	@ zero_extendqisi2
 479:../generate/sc_drivers/r_riic/src/lld/r_rza2_riic_lld.c ****     p_cfg->naki_priority = gs_riic_config[channel].naki_priority;
 2038              		.loc 1 479 25 view .LVU620
 2039 0100 3030C1E5 		strb	r3, [r1, #48]
 480:../generate/sc_drivers/r_riic/src/lld/r_rza2_riic_lld.c ****     p_cfg->ali_priority = gs_riic_config[channel].ali_priority;
 2040              		.loc 1 480 5 is_stmt 1 view .LVU621
 480:../generate/sc_drivers/r_riic/src/lld/r_rza2_riic_lld.c ****     p_cfg->ali_priority = gs_riic_config[channel].ali_priority;
 2041              		.loc 1 480 51 is_stmt 0 view .LVU622
 2042 0104 3130D0E5 		ldrb	r3, [r0, #49]	@ zero_extendqisi2
 480:../generate/sc_drivers/r_riic/src/lld/r_rza2_riic_lld.c ****     p_cfg->ali_priority = gs_riic_config[channel].ali_priority;
 2043              		.loc 1 480 26 view .LVU623
 2044 0108 3130C1E5 		strb	r3, [r1, #49]
 481:../generate/sc_drivers/r_riic/src/lld/r_rza2_riic_lld.c ****     p_cfg->tmoi_priority = gs_riic_config[channel].tmoi_priority;
 2045              		.loc 1 481 5 is_stmt 1 view .LVU624
 481:../generate/sc_drivers/r_riic/src/lld/r_rza2_riic_lld.c ****     p_cfg->tmoi_priority = gs_riic_config[channel].tmoi_priority;
 2046              		.loc 1 481 50 is_stmt 0 view .LVU625
 2047 010c 3230D0E5 		ldrb	r3, [r0, #50]	@ zero_extendqisi2
 481:../generate/sc_drivers/r_riic/src/lld/r_rza2_riic_lld.c ****     p_cfg->tmoi_priority = gs_riic_config[channel].tmoi_priority;
 2048              		.loc 1 481 25 view .LVU626
 2049 0110 3230C1E5 		strb	r3, [r1, #50]
 482:../generate/sc_drivers/r_riic/src/lld/r_rza2_riic_lld.c **** 
 2050              		.loc 1 482 5 is_stmt 1 view .LVU627
 482:../generate/sc_drivers/r_riic/src/lld/r_rza2_riic_lld.c **** 
 2051              		.loc 1 482 51 is_stmt 0 view .LVU628
 2052 0114 3330D0E5 		ldrb	r3, [r0, #51]	@ zero_extendqisi2
 482:../generate/sc_drivers/r_riic/src/lld/r_rza2_riic_lld.c **** 
 2053              		.loc 1 482 26 view .LVU629
 2054 0118 3330C1E5 		strb	r3, [r1, #51]
 484:../generate/sc_drivers/r_riic/src/lld/r_rza2_riic_lld.c **** }
 2055              		.loc 1 484 5 is_stmt 1 view .LVU630
 485:../generate/sc_drivers/r_riic/src/lld/r_rza2_riic_lld.c **** /******************************************************************************
 2056              		.loc 1 485 1 is_stmt 0 view .LVU631
 2057 011c 0000A0E3 		mov	r0, #0
 2058 0120 04F09DE4 		ldr	pc, [sp], #4
 2059              		.cfi_endproc
 2060              	.LFE6:
 2062              		.section	.text.R_RIIC_TransmitStop,"ax",%progbits
 2063              		.align	2
 2064              		.global	R_RIIC_TransmitStop
 2065              		.syntax unified
 2066              		.arm
 2067              		.fpu neon
 2069              	R_RIIC_TransmitStop:
 2070              	.LVL184:
 2071              	.LFB7:
 497:../generate/sc_drivers/r_riic/src/lld/r_rza2_riic_lld.c ****     /* clear stop bit */
 2072              		.loc 1 497 1 is_stmt 1 view -0
 2073              		.cfi_startproc
 2074              		@ args = 0, pretend = 0, frame = 0
 2075              		@ frame_needed = 0, uses_anonymous_args = 0
 497:../generate/sc_drivers/r_riic/src/lld/r_rza2_riic_lld.c ****     /* clear stop bit */
 2076              		.loc 1 497 1 is_stmt 0 view .LVU633
 2077 0000 70402DE9 		push	{r4, r5, r6, lr}
 2078              		.cfi_def_cfa_offset 16
 2079              		.cfi_offset 4, -16
 2080              		.cfi_offset 5, -12
 2081              		.cfi_offset 6, -8
 2082              		.cfi_offset 14, -4
 499:../generate/sc_drivers/r_riic/src/lld/r_rza2_riic_lld.c ****     RIIC_ICCR2_SP);
 2083              		.loc 1 499 5 is_stmt 1 view .LVU634
 499:../generate/sc_drivers/r_riic/src/lld/r_rza2_riic_lld.c ****     RIIC_ICCR2_SP);
 2084              		.loc 1 499 55 is_stmt 0 view .LVU635
 2085 0004 003000E3 		movw	r3, #:lower16:.LANCHOR3
 2086 0008 003040E3 		movt	r3, #:upper16:.LANCHOR3
 2087 000c 005193E7 		ldr	r5, [r3, r0, lsl #2]
 499:../generate/sc_drivers/r_riic/src/lld/r_rza2_riic_lld.c ****     RIIC_ICCR2_SP);
 2088              		.loc 1 499 46 view .LVU636
 2089 0010 044085E2 		add	r4, r5, #4
 499:../generate/sc_drivers/r_riic/src/lld/r_rza2_riic_lld.c ****     RIIC_ICCR2_SP);
 2090              		.loc 1 499 5 view .LVU637
 2091 0014 0830A0E3 		mov	r3, #8
 2092 0018 0320A0E3 		mov	r2, #3
 2093 001c 0010A0E3 		mov	r1, #0
 2094 0020 0400A0E1 		mov	r0, r4
 2095              	.LVL185:
 499:../generate/sc_drivers/r_riic/src/lld/r_rza2_riic_lld.c ****     RIIC_ICCR2_SP);
 2096              		.loc 1 499 5 view .LVU638
 2097 0024 FEFFFFEB 		bl	RZA_IO_RegWrite_32
 2098              	.LVL186:
 503:../generate/sc_drivers/r_riic/src/lld/r_rza2_riic_lld.c ****     RIIC_ICIER_SPIE);
 2099              		.loc 1 503 5 is_stmt 1 view .LVU639
 2100 0028 0830A0E3 		mov	r3, #8
 2101 002c 0320A0E3 		mov	r2, #3
 2102 0030 0110A0E3 		mov	r1, #1
 2103 0034 1C0085E2 		add	r0, r5, #28
 2104 0038 FEFFFFEB 		bl	RZA_IO_RegWrite_32
 2105              	.LVL187:
 507:../generate/sc_drivers/r_riic/src/lld/r_rza2_riic_lld.c ****     RIIC_ICCR2_SP);
 2106              		.loc 1 507 5 view .LVU640
 2107 003c 0830A0E3 		mov	r3, #8
 2108 0040 0320A0E3 		mov	r2, #3
 2109 0044 0110A0E3 		mov	r1, #1
 2110 0048 0400A0E1 		mov	r0, r4
 2111 004c FEFFFFEB 		bl	RZA_IO_RegWrite_32
 2112              	.LVL188:
 510:../generate/sc_drivers/r_riic/src/lld/r_rza2_riic_lld.c **** }
 2113              		.loc 1 510 5 view .LVU641
 511:../generate/sc_drivers/r_riic/src/lld/r_rza2_riic_lld.c **** /******************************************************************************
 2114              		.loc 1 511 1 is_stmt 0 view .LVU642
 2115 0050 7080BDE8 		pop	{r4, r5, r6, pc}
 2116              		.cfi_endproc
 2117              	.LFE7:
 2119              		.section	.text.R_RIIC_ClearStop,"ax",%progbits
 2120              		.align	2
 2121              		.global	R_RIIC_ClearStop
 2122              		.syntax unified
 2123              		.arm
 2124              		.fpu neon
 2126              	R_RIIC_ClearStop:
 2127              	.LVL189:
 2128              	.LFB8:
 523:../generate/sc_drivers/r_riic/src/lld/r_rza2_riic_lld.c ****     volatile uint32_t dummy;
 2129              		.loc 1 523 1 is_stmt 1 view -0
 2130              		.cfi_startproc
 2131              		@ args = 0, pretend = 0, frame = 8
 2132              		@ frame_needed = 0, uses_anonymous_args = 0
 523:../generate/sc_drivers/r_riic/src/lld/r_rza2_riic_lld.c ****     volatile uint32_t dummy;
 2133              		.loc 1 523 1 is_stmt 0 view .LVU644
 2134 0000 30402DE9 		push	{r4, r5, lr}
 2135              		.cfi_def_cfa_offset 12
 2136              		.cfi_offset 4, -12
 2137              		.cfi_offset 5, -8
 2138              		.cfi_offset 14, -4
 2139 0004 0CD04DE2 		sub	sp, sp, #12
 2140              		.cfi_def_cfa_offset 24
 524:../generate/sc_drivers/r_riic/src/lld/r_rza2_riic_lld.c **** 
 2141              		.loc 1 524 5 is_stmt 1 view .LVU645
 527:../generate/sc_drivers/r_riic/src/lld/r_rza2_riic_lld.c ****     RIIC_ICSR2_STOP);
 2142              		.loc 1 527 5 view .LVU646
 527:../generate/sc_drivers/r_riic/src/lld/r_rza2_riic_lld.c ****     RIIC_ICSR2_STOP);
 2143              		.loc 1 527 62 is_stmt 0 view .LVU647
 2144 0008 003000E3 		movw	r3, #:lower16:.LANCHOR3
 2145 000c 003040E3 		movt	r3, #:upper16:.LANCHOR3
 2146 0010 004193E7 		ldr	r4, [r3, r0, lsl #2]
 527:../generate/sc_drivers/r_riic/src/lld/r_rza2_riic_lld.c ****     RIIC_ICSR2_STOP);
 2147              		.loc 1 527 53 view .LVU648
 2148 0014 245084E2 		add	r5, r4, #36
 527:../generate/sc_drivers/r_riic/src/lld/r_rza2_riic_lld.c ****     RIIC_ICSR2_STOP);
 2149              		.loc 1 527 13 view .LVU649
 2150 0018 0820A0E3 		mov	r2, #8
 2151 001c 0310A0E3 		mov	r1, #3
 2152 0020 0500A0E1 		mov	r0, r5
 2153              	.LVL190:
 527:../generate/sc_drivers/r_riic/src/lld/r_rza2_riic_lld.c ****     RIIC_ICSR2_STOP);
 2154              		.loc 1 527 13 view .LVU650
 2155 0024 FEFFFFEB 		bl	RZA_IO_RegRead_32
 2156              	.LVL191:
 527:../generate/sc_drivers/r_riic/src/lld/r_rza2_riic_lld.c ****     RIIC_ICSR2_STOP);
 2157              		.loc 1 527 11 view .LVU651
 2158 0028 04008DE5 		str	r0, [sp, #4]
 531:../generate/sc_drivers/r_riic/src/lld/r_rza2_riic_lld.c ****     RIIC_ICSR2_STOP);
 2159              		.loc 1 531 5 is_stmt 1 view .LVU652
 2160 002c 0830A0E3 		mov	r3, #8
 2161 0030 0320A0E3 		mov	r2, #3
 2162 0034 0010A0E3 		mov	r1, #0
 2163 0038 0500A0E1 		mov	r0, r5
 2164 003c FEFFFFEB 		bl	RZA_IO_RegWrite_32
 2165              	.LVL192:
 535:../generate/sc_drivers/r_riic/src/lld/r_rza2_riic_lld.c ****     RIIC_ICIER_SPIE);
 2166              		.loc 1 535 5 view .LVU653
 535:../generate/sc_drivers/r_riic/src/lld/r_rza2_riic_lld.c ****     RIIC_ICIER_SPIE);
 2167              		.loc 1 535 46 is_stmt 0 view .LVU654
 2168 0040 1C4084E2 		add	r4, r4, #28
 535:../generate/sc_drivers/r_riic/src/lld/r_rza2_riic_lld.c ****     RIIC_ICIER_SPIE);
 2169              		.loc 1 535 5 view .LVU655
 2170 0044 0830A0E3 		mov	r3, #8
 2171 0048 0320A0E3 		mov	r2, #3
 2172 004c 0010A0E3 		mov	r1, #0
 2173 0050 0400A0E1 		mov	r0, r4
 2174 0054 FEFFFFEB 		bl	RZA_IO_RegWrite_32
 2175              	.LVL193:
 539:../generate/sc_drivers/r_riic/src/lld/r_rza2_riic_lld.c ****     RIIC_ICIER_TIE);
 2176              		.loc 1 539 5 is_stmt 1 view .LVU656
 2177 0058 8030A0E3 		mov	r3, #128
 2178 005c 0720A0E3 		mov	r2, #7
 2179 0060 0010A0E3 		mov	r1, #0
 2180 0064 0400A0E1 		mov	r0, r4
 2181 0068 FEFFFFEB 		bl	RZA_IO_RegWrite_32
 2182              	.LVL194:
 543:../generate/sc_drivers/r_riic/src/lld/r_rza2_riic_lld.c ****     RIIC_ICIER_RIE);
 2183              		.loc 1 543 5 view .LVU657
 2184 006c 2030A0E3 		mov	r3, #32
 2185 0070 0520A0E3 		mov	r2, #5
 2186 0074 0010A0E3 		mov	r1, #0
 2187 0078 0400A0E1 		mov	r0, r4
 2188 007c FEFFFFEB 		bl	RZA_IO_RegWrite_32
 2189              	.LVL195:
 547:../generate/sc_drivers/r_riic/src/lld/r_rza2_riic_lld.c ****     RIIC_ICIER_NAKIE);
 2190              		.loc 1 547 5 view .LVU658
 2191 0080 1030A0E3 		mov	r3, #16
 2192 0084 0420A0E3 		mov	r2, #4
 2193 0088 0010A0E3 		mov	r1, #0
 2194 008c 0400A0E1 		mov	r0, r4
 2195 0090 FEFFFFEB 		bl	RZA_IO_RegWrite_32
 2196              	.LVL196:
 550:../generate/sc_drivers/r_riic/src/lld/r_rza2_riic_lld.c **** }
 2197              		.loc 1 550 5 view .LVU659
 551:../generate/sc_drivers/r_riic/src/lld/r_rza2_riic_lld.c **** /******************************************************************************
 2198              		.loc 1 551 1 is_stmt 0 view .LVU660
 2199 0094 0CD08DE2 		add	sp, sp, #12
 2200              		.cfi_def_cfa_offset 12
 2201              		@ sp needed
 2202 0098 3080BDE8 		pop	{r4, r5, pc}
 2203              		.cfi_endproc
 2204              	.LFE8:
 2206              		.section	.text.R_RIIC_TransmitStart,"ax",%progbits
 2207              		.align	2
 2208              		.global	R_RIIC_TransmitStart
 2209              		.syntax unified
 2210              		.arm
 2211              		.fpu neon
 2213              	R_RIIC_TransmitStart:
 2214              	.LVL197:
 2215              	.LFB9:
 563:../generate/sc_drivers/r_riic/src/lld/r_rza2_riic_lld.c ****     /* enable transmit interrupt */
 2216              		.loc 1 563 1 is_stmt 1 view -0
 2217              		.cfi_startproc
 2218              		@ args = 0, pretend = 0, frame = 0
 2219              		@ frame_needed = 0, uses_anonymous_args = 0
 563:../generate/sc_drivers/r_riic/src/lld/r_rza2_riic_lld.c ****     /* enable transmit interrupt */
 2220              		.loc 1 563 1 is_stmt 0 view .LVU662
 2221 0000 70402DE9 		push	{r4, r5, r6, lr}
 2222              		.cfi_def_cfa_offset 16
 2223              		.cfi_offset 4, -16
 2224              		.cfi_offset 5, -12
 2225              		.cfi_offset 6, -8
 2226              		.cfi_offset 14, -4
 565:../generate/sc_drivers/r_riic/src/lld/r_rza2_riic_lld.c ****     RIIC_ICIER_TIE);
 2227              		.loc 1 565 5 is_stmt 1 view .LVU663
 565:../generate/sc_drivers/r_riic/src/lld/r_rza2_riic_lld.c ****     RIIC_ICIER_TIE);
 2228              		.loc 1 565 55 is_stmt 0 view .LVU664
 2229 0004 003000E3 		movw	r3, #:lower16:.LANCHOR3
 2230 0008 003040E3 		movt	r3, #:upper16:.LANCHOR3
 2231 000c 005193E7 		ldr	r5, [r3, r0, lsl #2]
 565:../generate/sc_drivers/r_riic/src/lld/r_rza2_riic_lld.c ****     RIIC_ICIER_TIE);
 2232              		.loc 1 565 46 view .LVU665
 2233 0010 1C4085E2 		add	r4, r5, #28
 565:../generate/sc_drivers/r_riic/src/lld/r_rza2_riic_lld.c ****     RIIC_ICIER_TIE);
 2234              		.loc 1 565 5 view .LVU666
 2235 0014 8030A0E3 		mov	r3, #128
 2236 0018 0720A0E3 		mov	r2, #7
 2237 001c 0110A0E3 		mov	r1, #1
 2238 0020 0400A0E1 		mov	r0, r4
 2239              	.LVL198:
 565:../generate/sc_drivers/r_riic/src/lld/r_rza2_riic_lld.c ****     RIIC_ICIER_TIE);
 2240              		.loc 1 565 5 view .LVU667
 2241 0024 FEFFFFEB 		bl	RZA_IO_RegWrite_32
 2242              	.LVL199:
 569:../generate/sc_drivers/r_riic/src/lld/r_rza2_riic_lld.c ****     RIIC_ICIER_RIE);
 2243              		.loc 1 569 5 is_stmt 1 view .LVU668
 2244 0028 2030A0E3 		mov	r3, #32
 2245 002c 0520A0E3 		mov	r2, #5
 2246 0030 0110A0E3 		mov	r1, #1
 2247 0034 0400A0E1 		mov	r0, r4
 2248 0038 FEFFFFEB 		bl	RZA_IO_RegWrite_32
 2249              	.LVL200:
 573:../generate/sc_drivers/r_riic/src/lld/r_rza2_riic_lld.c ****     RIIC_ICIER_NAKIE);
 2250              		.loc 1 573 5 view .LVU669
 2251 003c 1030A0E3 		mov	r3, #16
 2252 0040 0420A0E3 		mov	r2, #4
 2253 0044 0110A0E3 		mov	r1, #1
 2254 0048 0400A0E1 		mov	r0, r4
 2255 004c FEFFFFEB 		bl	RZA_IO_RegWrite_32
 2256              	.LVL201:
 577:../generate/sc_drivers/r_riic/src/lld/r_rza2_riic_lld.c ****     RIIC_ICCR2_ST);
 2257              		.loc 1 577 5 view .LVU670
 2258 0050 0230A0E3 		mov	r3, #2
 2259 0054 0120A0E3 		mov	r2, #1
 2260 0058 0210A0E1 		mov	r1, r2
 2261 005c 040085E2 		add	r0, r5, #4
 2262 0060 FEFFFFEB 		bl	RZA_IO_RegWrite_32
 2263              	.LVL202:
 580:../generate/sc_drivers/r_riic/src/lld/r_rza2_riic_lld.c **** }
 2264              		.loc 1 580 5 view .LVU671
 581:../generate/sc_drivers/r_riic/src/lld/r_rza2_riic_lld.c **** /******************************************************************************
 2265              		.loc 1 581 1 is_stmt 0 view .LVU672
 2266 0064 7080BDE8 		pop	{r4, r5, r6, pc}
 2267              		.cfi_endproc
 2268              	.LFE9:
 2270              		.section	.text.R_RIIC_TransmitRestart,"ax",%progbits
 2271              		.align	2
 2272              		.global	R_RIIC_TransmitRestart
 2273              		.syntax unified
 2274              		.arm
 2275              		.fpu neon
 2277              	R_RIIC_TransmitRestart:
 2278              	.LVL203:
 2279              	.LFB10:
 593:../generate/sc_drivers/r_riic/src/lld/r_rza2_riic_lld.c ****     /* enable transmit interrupt */
 2280              		.loc 1 593 1 is_stmt 1 view -0
 2281              		.cfi_startproc
 2282              		@ args = 0, pretend = 0, frame = 0
 2283              		@ frame_needed = 0, uses_anonymous_args = 0
 593:../generate/sc_drivers/r_riic/src/lld/r_rza2_riic_lld.c ****     /* enable transmit interrupt */
 2284              		.loc 1 593 1 is_stmt 0 view .LVU674
 2285 0000 70402DE9 		push	{r4, r5, r6, lr}
 2286              		.cfi_def_cfa_offset 16
 2287              		.cfi_offset 4, -16
 2288              		.cfi_offset 5, -12
 2289              		.cfi_offset 6, -8
 2290              		.cfi_offset 14, -4
 595:../generate/sc_drivers/r_riic/src/lld/r_rza2_riic_lld.c ****     RIIC_ICIER_TIE);
 2291              		.loc 1 595 5 is_stmt 1 view .LVU675
 595:../generate/sc_drivers/r_riic/src/lld/r_rza2_riic_lld.c ****     RIIC_ICIER_TIE);
 2292              		.loc 1 595 55 is_stmt 0 view .LVU676
 2293 0004 003000E3 		movw	r3, #:lower16:.LANCHOR3
 2294 0008 003040E3 		movt	r3, #:upper16:.LANCHOR3
 2295 000c 005193E7 		ldr	r5, [r3, r0, lsl #2]
 595:../generate/sc_drivers/r_riic/src/lld/r_rza2_riic_lld.c ****     RIIC_ICIER_TIE);
 2296              		.loc 1 595 46 view .LVU677
 2297 0010 1C4085E2 		add	r4, r5, #28
 595:../generate/sc_drivers/r_riic/src/lld/r_rza2_riic_lld.c ****     RIIC_ICIER_TIE);
 2298              		.loc 1 595 5 view .LVU678
 2299 0014 8030A0E3 		mov	r3, #128
 2300 0018 0720A0E3 		mov	r2, #7
 2301 001c 0110A0E3 		mov	r1, #1
 2302 0020 0400A0E1 		mov	r0, r4
 2303              	.LVL204:
 595:../generate/sc_drivers/r_riic/src/lld/r_rza2_riic_lld.c ****     RIIC_ICIER_TIE);
 2304              		.loc 1 595 5 view .LVU679
 2305 0024 FEFFFFEB 		bl	RZA_IO_RegWrite_32
 2306              	.LVL205:
 599:../generate/sc_drivers/r_riic/src/lld/r_rza2_riic_lld.c ****     RIIC_ICIER_RIE);
 2307              		.loc 1 599 5 is_stmt 1 view .LVU680
 2308 0028 2030A0E3 		mov	r3, #32
 2309 002c 0520A0E3 		mov	r2, #5
 2310 0030 0110A0E3 		mov	r1, #1
 2311 0034 0400A0E1 		mov	r0, r4
 2312 0038 FEFFFFEB 		bl	RZA_IO_RegWrite_32
 2313              	.LVL206:
 603:../generate/sc_drivers/r_riic/src/lld/r_rza2_riic_lld.c ****     RIIC_ICIER_NAKIE);
 2314              		.loc 1 603 5 view .LVU681
 2315 003c 1030A0E3 		mov	r3, #16
 2316 0040 0420A0E3 		mov	r2, #4
 2317 0044 0110A0E3 		mov	r1, #1
 2318 0048 0400A0E1 		mov	r0, r4
 2319 004c FEFFFFEB 		bl	RZA_IO_RegWrite_32
 2320              	.LVL207:
 607:../generate/sc_drivers/r_riic/src/lld/r_rza2_riic_lld.c ****     RIIC_ICCR2_RS);
 2321              		.loc 1 607 5 view .LVU682
 2322 0050 0430A0E3 		mov	r3, #4
 2323 0054 0220A0E3 		mov	r2, #2
 2324 0058 0110A0E3 		mov	r1, #1
 2325 005c 030085E0 		add	r0, r5, r3
 2326 0060 FEFFFFEB 		bl	RZA_IO_RegWrite_32
 2327              	.LVL208:
 610:../generate/sc_drivers/r_riic/src/lld/r_rza2_riic_lld.c **** }
 2328              		.loc 1 610 5 view .LVU683
 611:../generate/sc_drivers/r_riic/src/lld/r_rza2_riic_lld.c **** /******************************************************************************
 2329              		.loc 1 611 1 is_stmt 0 view .LVU684
 2330 0064 7080BDE8 		pop	{r4, r5, r6, pc}
 2331              		.cfi_endproc
 2332              	.LFE10:
 2334              		.section	.text.R_RIIC_ClearNack,"ax",%progbits
 2335              		.align	2
 2336              		.global	R_RIIC_ClearNack
 2337              		.syntax unified
 2338              		.arm
 2339              		.fpu neon
 2341              	R_RIIC_ClearNack:
 2342              	.LVL209:
 2343              	.LFB11:
 623:../generate/sc_drivers/r_riic/src/lld/r_rza2_riic_lld.c ****     /* clear stop bit */
 2344              		.loc 1 623 1 is_stmt 1 view -0
 2345              		.cfi_startproc
 2346              		@ args = 0, pretend = 0, frame = 0
 2347              		@ frame_needed = 0, uses_anonymous_args = 0
 623:../generate/sc_drivers/r_riic/src/lld/r_rza2_riic_lld.c ****     /* clear stop bit */
 2348              		.loc 1 623 1 is_stmt 0 view .LVU686
 2349 0000 10402DE9 		push	{r4, lr}
 2350              		.cfi_def_cfa_offset 8
 2351              		.cfi_offset 4, -8
 2352              		.cfi_offset 14, -4
 625:../generate/sc_drivers/r_riic/src/lld/r_rza2_riic_lld.c ****     RIIC_ICSR2_NACKF);
 2353              		.loc 1 625 5 is_stmt 1 view .LVU687
 625:../generate/sc_drivers/r_riic/src/lld/r_rza2_riic_lld.c ****     RIIC_ICSR2_NACKF);
 2354              		.loc 1 625 55 is_stmt 0 view .LVU688
 2355 0004 003000E3 		movw	r3, #:lower16:.LANCHOR3
 2356 0008 003040E3 		movt	r3, #:upper16:.LANCHOR3
 2357 000c 000193E7 		ldr	r0, [r3, r0, lsl #2]
 2358              	.LVL210:
 625:../generate/sc_drivers/r_riic/src/lld/r_rza2_riic_lld.c ****     RIIC_ICSR2_NACKF);
 2359              		.loc 1 625 5 view .LVU689
 2360 0010 1030A0E3 		mov	r3, #16
 2361 0014 0420A0E3 		mov	r2, #4
 2362 0018 0010A0E3 		mov	r1, #0
 2363 001c 240080E2 		add	r0, r0, #36
 2364 0020 FEFFFFEB 		bl	RZA_IO_RegWrite_32
 2365              	.LVL211:
 628:../generate/sc_drivers/r_riic/src/lld/r_rza2_riic_lld.c **** }
 2366              		.loc 1 628 5 is_stmt 1 view .LVU690
 629:../generate/sc_drivers/r_riic/src/lld/r_rza2_riic_lld.c **** /******************************************************************************
 2367              		.loc 1 629 1 is_stmt 0 view .LVU691
 2368 0024 1080BDE8 		pop	{r4, pc}
 2369              		.cfi_endproc
 2370              	.LFE11:
 2372              		.section	.text.R_RIIC_GetAckStatus,"ax",%progbits
 2373              		.align	2
 2374              		.global	R_RIIC_GetAckStatus
 2375              		.syntax unified
 2376              		.arm
 2377              		.fpu neon
 2379              	R_RIIC_GetAckStatus:
 2380              	.LVL212:
 2381              	.LFB12:
 642:../generate/sc_drivers/r_riic/src/lld/r_rza2_riic_lld.c **** 
 2382              		.loc 1 642 1 is_stmt 1 view -0
 2383              		.cfi_startproc
 2384              		@ args = 0, pretend = 0, frame = 0
 2385              		@ frame_needed = 0, uses_anonymous_args = 0
 642:../generate/sc_drivers/r_riic/src/lld/r_rza2_riic_lld.c **** 
 2386              		.loc 1 642 1 is_stmt 0 view .LVU693
 2387 0000 10402DE9 		push	{r4, lr}
 2388              		.cfi_def_cfa_offset 8
 2389              		.cfi_offset 4, -8
 2390              		.cfi_offset 14, -4
 644:../generate/sc_drivers/r_riic/src/lld/r_rza2_riic_lld.c **** 
 2391              		.loc 1 644 5 is_stmt 1 view .LVU694
 646:../generate/sc_drivers/r_riic/src/lld/r_rza2_riic_lld.c **** 
 2392              		.loc 1 646 5 view .LVU695
 646:../generate/sc_drivers/r_riic/src/lld/r_rza2_riic_lld.c **** 
 2393              		.loc 1 646 43 is_stmt 0 view .LVU696
 2394 0004 003000E3 		movw	r3, #:lower16:.LANCHOR3
 2395 0008 003040E3 		movt	r3, #:upper16:.LANCHOR3
 2396 000c 000193E7 		ldr	r0, [r3, r0, lsl #2]
 2397              	.LVL213:
 646:../generate/sc_drivers/r_riic/src/lld/r_rza2_riic_lld.c **** 
 2398              		.loc 1 646 15 view .LVU697
 2399 0010 1020A0E3 		mov	r2, #16
 2400 0014 0410A0E3 		mov	r1, #4
 2401 0018 240080E2 		add	r0, r0, #36
 2402 001c FEFFFFEB 		bl	RZA_IO_RegRead_32
 2403              	.LVL214:
 649:../generate/sc_drivers/r_riic/src/lld/r_rza2_riic_lld.c **** }
 2404              		.loc 1 649 5 is_stmt 1 view .LVU698
 650:../generate/sc_drivers/r_riic/src/lld/r_rza2_riic_lld.c **** /******************************************************************************
 2405              		.loc 1 650 1 is_stmt 0 view .LVU699
 2406 0020 7000EFE6 		uxtb	r0, r0
 2407              	.LVL215:
 650:../generate/sc_drivers/r_riic/src/lld/r_rza2_riic_lld.c **** /******************************************************************************
 2408              		.loc 1 650 1 view .LVU700
 2409 0024 1080BDE8 		pop	{r4, pc}
 2410              		.cfi_endproc
 2411              	.LFE12:
 2413              		.section	.text.R_RIIC_TransmitAck,"ax",%progbits
 2414              		.align	2
 2415              		.global	R_RIIC_TransmitAck
 2416              		.syntax unified
 2417              		.arm
 2418              		.fpu neon
 2420              	R_RIIC_TransmitAck:
 2421              	.LVL216:
 2422              	.LFB13:
 663:../generate/sc_drivers/r_riic/src/lld/r_rza2_riic_lld.c ****     /* get permission of writing to ACK bit */
 2423              		.loc 1 663 1 is_stmt 1 view -0
 2424              		.cfi_startproc
 2425              		@ args = 0, pretend = 0, frame = 0
 2426              		@ frame_needed = 0, uses_anonymous_args = 0
 663:../generate/sc_drivers/r_riic/src/lld/r_rza2_riic_lld.c ****     /* get permission of writing to ACK bit */
 2427              		.loc 1 663 1 is_stmt 0 view .LVU702
 2428 0000 10402DE9 		push	{r4, lr}
 2429              		.cfi_def_cfa_offset 8
 2430              		.cfi_offset 4, -8
 2431              		.cfi_offset 14, -4
 665:../generate/sc_drivers/r_riic/src/lld/r_rza2_riic_lld.c ****     RIIC_ICMR3_ACKWP);
 2432              		.loc 1 665 5 is_stmt 1 view .LVU703
 665:../generate/sc_drivers/r_riic/src/lld/r_rza2_riic_lld.c ****     RIIC_ICMR3_ACKWP);
 2433              		.loc 1 665 55 is_stmt 0 view .LVU704
 2434 0004 003000E3 		movw	r3, #:lower16:.LANCHOR3
 2435 0008 003040E3 		movt	r3, #:upper16:.LANCHOR3
 2436 000c 004193E7 		ldr	r4, [r3, r0, lsl #2]
 665:../generate/sc_drivers/r_riic/src/lld/r_rza2_riic_lld.c ****     RIIC_ICMR3_ACKWP);
 2437              		.loc 1 665 46 view .LVU705
 2438 0010 104084E2 		add	r4, r4, #16
 665:../generate/sc_drivers/r_riic/src/lld/r_rza2_riic_lld.c ****     RIIC_ICMR3_ACKWP);
 2439              		.loc 1 665 5 view .LVU706
 2440 0014 1030A0E3 		mov	r3, #16
 2441 0018 0420A0E3 		mov	r2, #4
 2442 001c 0110A0E3 		mov	r1, #1
 2443 0020 0400A0E1 		mov	r0, r4
 2444              	.LVL217:
 665:../generate/sc_drivers/r_riic/src/lld/r_rza2_riic_lld.c ****     RIIC_ICMR3_ACKWP);
 2445              		.loc 1 665 5 view .LVU707
 2446 0024 FEFFFFEB 		bl	RZA_IO_RegWrite_32
 2447              	.LVL218:
 669:../generate/sc_drivers/r_riic/src/lld/r_rza2_riic_lld.c ****     RIIC_ICMR3_ACKBT);
 2448              		.loc 1 669 5 is_stmt 1 view .LVU708
 2449 0028 0830A0E3 		mov	r3, #8
 2450 002c 0320A0E3 		mov	r2, #3
 2451 0030 0010A0E3 		mov	r1, #0
 2452 0034 0400A0E1 		mov	r0, r4
 2453 0038 FEFFFFEB 		bl	RZA_IO_RegWrite_32
 2454              	.LVL219:
 673:../generate/sc_drivers/r_riic/src/lld/r_rza2_riic_lld.c ****     RIIC_ICMR3_ACKWP);
 2455              		.loc 1 673 5 view .LVU709
 2456 003c 1030A0E3 		mov	r3, #16
 2457 0040 0420A0E3 		mov	r2, #4
 2458 0044 0010A0E3 		mov	r1, #0
 2459 0048 0400A0E1 		mov	r0, r4
 2460 004c FEFFFFEB 		bl	RZA_IO_RegWrite_32
 2461              	.LVL220:
 676:../generate/sc_drivers/r_riic/src/lld/r_rza2_riic_lld.c **** }
 2462              		.loc 1 676 5 view .LVU710
 677:../generate/sc_drivers/r_riic/src/lld/r_rza2_riic_lld.c **** /******************************************************************************
 2463              		.loc 1 677 1 is_stmt 0 view .LVU711
 2464 0050 1080BDE8 		pop	{r4, pc}
 2465              		.cfi_endproc
 2466              	.LFE13:
 2468              		.section	.text.R_RIIC_TransmitNack,"ax",%progbits
 2469              		.align	2
 2470              		.global	R_RIIC_TransmitNack
 2471              		.syntax unified
 2472              		.arm
 2473              		.fpu neon
 2475              	R_RIIC_TransmitNack:
 2476              	.LVL221:
 2477              	.LFB14:
 690:../generate/sc_drivers/r_riic/src/lld/r_rza2_riic_lld.c ****     /* get permission of writing to NACK bit */
 2478              		.loc 1 690 1 is_stmt 1 view -0
 2479              		.cfi_startproc
 2480              		@ args = 0, pretend = 0, frame = 0
 2481              		@ frame_needed = 0, uses_anonymous_args = 0
 690:../generate/sc_drivers/r_riic/src/lld/r_rza2_riic_lld.c ****     /* get permission of writing to NACK bit */
 2482              		.loc 1 690 1 is_stmt 0 view .LVU713
 2483 0000 10402DE9 		push	{r4, lr}
 2484              		.cfi_def_cfa_offset 8
 2485              		.cfi_offset 4, -8
 2486              		.cfi_offset 14, -4
 692:../generate/sc_drivers/r_riic/src/lld/r_rza2_riic_lld.c ****     RIIC_ICMR3_ACKWP);
 2487              		.loc 1 692 5 is_stmt 1 view .LVU714
 692:../generate/sc_drivers/r_riic/src/lld/r_rza2_riic_lld.c ****     RIIC_ICMR3_ACKWP);
 2488              		.loc 1 692 55 is_stmt 0 view .LVU715
 2489 0004 003000E3 		movw	r3, #:lower16:.LANCHOR3
 2490 0008 003040E3 		movt	r3, #:upper16:.LANCHOR3
 2491 000c 004193E7 		ldr	r4, [r3, r0, lsl #2]
 692:../generate/sc_drivers/r_riic/src/lld/r_rza2_riic_lld.c ****     RIIC_ICMR3_ACKWP);
 2492              		.loc 1 692 46 view .LVU716
 2493 0010 104084E2 		add	r4, r4, #16
 692:../generate/sc_drivers/r_riic/src/lld/r_rza2_riic_lld.c ****     RIIC_ICMR3_ACKWP);
 2494              		.loc 1 692 5 view .LVU717
 2495 0014 1030A0E3 		mov	r3, #16
 2496 0018 0420A0E3 		mov	r2, #4
 2497 001c 0110A0E3 		mov	r1, #1
 2498 0020 0400A0E1 		mov	r0, r4
 2499              	.LVL222:
 692:../generate/sc_drivers/r_riic/src/lld/r_rza2_riic_lld.c ****     RIIC_ICMR3_ACKWP);
 2500              		.loc 1 692 5 view .LVU718
 2501 0024 FEFFFFEB 		bl	RZA_IO_RegWrite_32
 2502              	.LVL223:
 696:../generate/sc_drivers/r_riic/src/lld/r_rza2_riic_lld.c ****     RIIC_ICMR3_ACKBT);
 2503              		.loc 1 696 5 is_stmt 1 view .LVU719
 2504 0028 0830A0E3 		mov	r3, #8
 2505 002c 0320A0E3 		mov	r2, #3
 2506 0030 0110A0E3 		mov	r1, #1
 2507 0034 0400A0E1 		mov	r0, r4
 2508 0038 FEFFFFEB 		bl	RZA_IO_RegWrite_32
 2509              	.LVL224:
 700:../generate/sc_drivers/r_riic/src/lld/r_rza2_riic_lld.c ****     RIIC_ICMR3_ACKWP);
 2510              		.loc 1 700 5 view .LVU720
 2511 003c 1030A0E3 		mov	r3, #16
 2512 0040 0420A0E3 		mov	r2, #4
 2513 0044 0010A0E3 		mov	r1, #0
 2514 0048 0400A0E1 		mov	r0, r4
 2515 004c FEFFFFEB 		bl	RZA_IO_RegWrite_32
 2516              	.LVL225:
 703:../generate/sc_drivers/r_riic/src/lld/r_rza2_riic_lld.c **** }
 2517              		.loc 1 703 5 view .LVU721
 704:../generate/sc_drivers/r_riic/src/lld/r_rza2_riic_lld.c **** /******************************************************************************
 2518              		.loc 1 704 1 is_stmt 0 view .LVU722
 2519 0050 1080BDE8 		pop	{r4, pc}
 2520              		.cfi_endproc
 2521              	.LFE14:
 2523              		.section	.text.R_RIIC_AssertLowHold,"ax",%progbits
 2524              		.align	2
 2525              		.global	R_RIIC_AssertLowHold
 2526              		.syntax unified
 2527              		.arm
 2528              		.fpu neon
 2530              	R_RIIC_AssertLowHold:
 2531              	.LVL226:
 2532              	.LFB15:
 717:../generate/sc_drivers/r_riic/src/lld/r_rza2_riic_lld.c ****     /* set wait bit */
 2533              		.loc 1 717 1 is_stmt 1 view -0
 2534              		.cfi_startproc
 2535              		@ args = 0, pretend = 0, frame = 0
 2536              		@ frame_needed = 0, uses_anonymous_args = 0
 717:../generate/sc_drivers/r_riic/src/lld/r_rza2_riic_lld.c ****     /* set wait bit */
 2537              		.loc 1 717 1 is_stmt 0 view .LVU724
 2538 0000 10402DE9 		push	{r4, lr}
 2539              		.cfi_def_cfa_offset 8
 2540              		.cfi_offset 4, -8
 2541              		.cfi_offset 14, -4
 719:../generate/sc_drivers/r_riic/src/lld/r_rza2_riic_lld.c ****     RIIC_ICMR3_WAIT);
 2542              		.loc 1 719 5 is_stmt 1 view .LVU725
 719:../generate/sc_drivers/r_riic/src/lld/r_rza2_riic_lld.c ****     RIIC_ICMR3_WAIT);
 2543              		.loc 1 719 55 is_stmt 0 view .LVU726
 2544 0004 003000E3 		movw	r3, #:lower16:.LANCHOR3
 2545 0008 003040E3 		movt	r3, #:upper16:.LANCHOR3
 2546 000c 000193E7 		ldr	r0, [r3, r0, lsl #2]
 2547              	.LVL227:
 719:../generate/sc_drivers/r_riic/src/lld/r_rza2_riic_lld.c ****     RIIC_ICMR3_WAIT);
 2548              		.loc 1 719 5 view .LVU727
 2549 0010 4030A0E3 		mov	r3, #64
 2550 0014 0620A0E3 		mov	r2, #6
 2551 0018 0110A0E3 		mov	r1, #1
 2552 001c 100080E2 		add	r0, r0, #16
 2553 0020 FEFFFFEB 		bl	RZA_IO_RegWrite_32
 2554              	.LVL228:
 722:../generate/sc_drivers/r_riic/src/lld/r_rza2_riic_lld.c **** }
 2555              		.loc 1 722 5 is_stmt 1 view .LVU728
 723:../generate/sc_drivers/r_riic/src/lld/r_rza2_riic_lld.c **** /******************************************************************************
 2556              		.loc 1 723 1 is_stmt 0 view .LVU729
 2557 0024 1080BDE8 		pop	{r4, pc}
 2558              		.cfi_endproc
 2559              	.LFE15:
 2561              		.section	.text.R_RIIC_ReleaseLowHold,"ax",%progbits
 2562              		.align	2
 2563              		.global	R_RIIC_ReleaseLowHold
 2564              		.syntax unified
 2565              		.arm
 2566              		.fpu neon
 2568              	R_RIIC_ReleaseLowHold:
 2569              	.LVL229:
 2570              	.LFB16:
 736:../generate/sc_drivers/r_riic/src/lld/r_rza2_riic_lld.c ****     /* set wait bit */
 2571              		.loc 1 736 1 is_stmt 1 view -0
 2572              		.cfi_startproc
 2573              		@ args = 0, pretend = 0, frame = 0
 2574              		@ frame_needed = 0, uses_anonymous_args = 0
 736:../generate/sc_drivers/r_riic/src/lld/r_rza2_riic_lld.c ****     /* set wait bit */
 2575              		.loc 1 736 1 is_stmt 0 view .LVU731
 2576 0000 10402DE9 		push	{r4, lr}
 2577              		.cfi_def_cfa_offset 8
 2578              		.cfi_offset 4, -8
 2579              		.cfi_offset 14, -4
 738:../generate/sc_drivers/r_riic/src/lld/r_rza2_riic_lld.c ****     RIIC_ICMR3_WAIT);
 2580              		.loc 1 738 5 is_stmt 1 view .LVU732
 738:../generate/sc_drivers/r_riic/src/lld/r_rza2_riic_lld.c ****     RIIC_ICMR3_WAIT);
 2581              		.loc 1 738 55 is_stmt 0 view .LVU733
 2582 0004 003000E3 		movw	r3, #:lower16:.LANCHOR3
 2583 0008 003040E3 		movt	r3, #:upper16:.LANCHOR3
 2584 000c 000193E7 		ldr	r0, [r3, r0, lsl #2]
 2585              	.LVL230:
 738:../generate/sc_drivers/r_riic/src/lld/r_rza2_riic_lld.c ****     RIIC_ICMR3_WAIT);
 2586              		.loc 1 738 5 view .LVU734
 2587 0010 4030A0E3 		mov	r3, #64
 2588 0014 0620A0E3 		mov	r2, #6
 2589 0018 0010A0E3 		mov	r1, #0
 2590 001c 100080E2 		add	r0, r0, #16
 2591 0020 FEFFFFEB 		bl	RZA_IO_RegWrite_32
 2592              	.LVL231:
 741:../generate/sc_drivers/r_riic/src/lld/r_rza2_riic_lld.c **** }
 2593              		.loc 1 741 5 is_stmt 1 view .LVU735
 742:../generate/sc_drivers/r_riic/src/lld/r_rza2_riic_lld.c **** /******************************************************************************
 2594              		.loc 1 742 1 is_stmt 0 view .LVU736
 2595 0024 1080BDE8 		pop	{r4, pc}
 2596              		.cfi_endproc
 2597              	.LFE16:
 2599              		.section	.text.R_RIIC_EnableTransEndIntr,"ax",%progbits
 2600              		.align	2
 2601              		.global	R_RIIC_EnableTransEndIntr
 2602              		.syntax unified
 2603              		.arm
 2604              		.fpu neon
 2606              	R_RIIC_EnableTransEndIntr:
 2607              	.LVL232:
 2608              	.LFB17:
 755:../generate/sc_drivers/r_riic/src/lld/r_rza2_riic_lld.c ****     /* enable transmit end interrupt*/
 2609              		.loc 1 755 1 is_stmt 1 view -0
 2610              		.cfi_startproc
 2611              		@ args = 0, pretend = 0, frame = 0
 2612              		@ frame_needed = 0, uses_anonymous_args = 0
 755:../generate/sc_drivers/r_riic/src/lld/r_rza2_riic_lld.c ****     /* enable transmit end interrupt*/
 2613              		.loc 1 755 1 is_stmt 0 view .LVU738
 2614 0000 10402DE9 		push	{r4, lr}
 2615              		.cfi_def_cfa_offset 8
 2616              		.cfi_offset 4, -8
 2617              		.cfi_offset 14, -4
 757:../generate/sc_drivers/r_riic/src/lld/r_rza2_riic_lld.c ****     RIIC_ICIER_TEIE);
 2618              		.loc 1 757 5 is_stmt 1 view .LVU739
 757:../generate/sc_drivers/r_riic/src/lld/r_rza2_riic_lld.c ****     RIIC_ICIER_TEIE);
 2619              		.loc 1 757 55 is_stmt 0 view .LVU740
 2620 0004 003000E3 		movw	r3, #:lower16:.LANCHOR3
 2621 0008 003040E3 		movt	r3, #:upper16:.LANCHOR3
 2622 000c 000193E7 		ldr	r0, [r3, r0, lsl #2]
 2623              	.LVL233:
 757:../generate/sc_drivers/r_riic/src/lld/r_rza2_riic_lld.c ****     RIIC_ICIER_TEIE);
 2624              		.loc 1 757 5 view .LVU741
 2625 0010 4030A0E3 		mov	r3, #64
 2626 0014 0620A0E3 		mov	r2, #6
 2627 0018 0110A0E3 		mov	r1, #1
 2628 001c 1C0080E2 		add	r0, r0, #28
 2629 0020 FEFFFFEB 		bl	RZA_IO_RegWrite_32
 2630              	.LVL234:
 760:../generate/sc_drivers/r_riic/src/lld/r_rza2_riic_lld.c **** }
 2631              		.loc 1 760 5 is_stmt 1 view .LVU742
 761:../generate/sc_drivers/r_riic/src/lld/r_rza2_riic_lld.c **** /******************************************************************************
 2632              		.loc 1 761 1 is_stmt 0 view .LVU743
 2633 0024 1080BDE8 		pop	{r4, pc}
 2634              		.cfi_endproc
 2635              	.LFE17:
 2637              		.section	.text.R_RIIC_DisableTransEndIntr,"ax",%progbits
 2638              		.align	2
 2639              		.global	R_RIIC_DisableTransEndIntr
 2640              		.syntax unified
 2641              		.arm
 2642              		.fpu neon
 2644              	R_RIIC_DisableTransEndIntr:
 2645              	.LVL235:
 2646              	.LFB18:
 774:../generate/sc_drivers/r_riic/src/lld/r_rza2_riic_lld.c ****     /* enable transmit end interrupt*/
 2647              		.loc 1 774 1 is_stmt 1 view -0
 2648              		.cfi_startproc
 2649              		@ args = 0, pretend = 0, frame = 0
 2650              		@ frame_needed = 0, uses_anonymous_args = 0
 774:../generate/sc_drivers/r_riic/src/lld/r_rza2_riic_lld.c ****     /* enable transmit end interrupt*/
 2651              		.loc 1 774 1 is_stmt 0 view .LVU745
 2652 0000 10402DE9 		push	{r4, lr}
 2653              		.cfi_def_cfa_offset 8
 2654              		.cfi_offset 4, -8
 2655              		.cfi_offset 14, -4
 776:../generate/sc_drivers/r_riic/src/lld/r_rza2_riic_lld.c ****     RIIC_ICIER_TEIE);
 2656              		.loc 1 776 5 is_stmt 1 view .LVU746
 776:../generate/sc_drivers/r_riic/src/lld/r_rza2_riic_lld.c ****     RIIC_ICIER_TEIE);
 2657              		.loc 1 776 55 is_stmt 0 view .LVU747
 2658 0004 003000E3 		movw	r3, #:lower16:.LANCHOR3
 2659 0008 003040E3 		movt	r3, #:upper16:.LANCHOR3
 2660 000c 000193E7 		ldr	r0, [r3, r0, lsl #2]
 2661              	.LVL236:
 776:../generate/sc_drivers/r_riic/src/lld/r_rza2_riic_lld.c ****     RIIC_ICIER_TEIE);
 2662              		.loc 1 776 5 view .LVU748
 2663 0010 4030A0E3 		mov	r3, #64
 2664 0014 0620A0E3 		mov	r2, #6
 2665 0018 0010A0E3 		mov	r1, #0
 2666 001c 1C0080E2 		add	r0, r0, #28
 2667 0020 FEFFFFEB 		bl	RZA_IO_RegWrite_32
 2668              	.LVL237:
 779:../generate/sc_drivers/r_riic/src/lld/r_rza2_riic_lld.c **** }
 2669              		.loc 1 779 5 is_stmt 1 view .LVU749
 780:../generate/sc_drivers/r_riic/src/lld/r_rza2_riic_lld.c **** /******************************************************************************
 2670              		.loc 1 780 1 is_stmt 0 view .LVU750
 2671 0024 1080BDE8 		pop	{r4, pc}
 2672              		.cfi_endproc
 2673              	.LFE18:
 2675              		.section	.text.R_RIIC_WriteByte,"ax",%progbits
 2676              		.align	2
 2677              		.global	R_RIIC_WriteByte
 2678              		.syntax unified
 2679              		.arm
 2680              		.fpu neon
 2682              	R_RIIC_WriteByte:
 2683              	.LVL238:
 2684              	.LFB19:
 794:../generate/sc_drivers/r_riic/src/lld/r_rza2_riic_lld.c ****     /* write data */
 2685              		.loc 1 794 1 is_stmt 1 view -0
 2686              		.cfi_startproc
 2687              		@ args = 0, pretend = 0, frame = 0
 2688              		@ frame_needed = 0, uses_anonymous_args = 0
 794:../generate/sc_drivers/r_riic/src/lld/r_rza2_riic_lld.c ****     /* write data */
 2689              		.loc 1 794 1 is_stmt 0 view .LVU752
 2690 0000 10402DE9 		push	{r4, lr}
 2691              		.cfi_def_cfa_offset 8
 2692              		.cfi_offset 4, -8
 2693              		.cfi_offset 14, -4
 796:../generate/sc_drivers/r_riic/src/lld/r_rza2_riic_lld.c ****     RIIC_ICDRT_DRT);
 2694              		.loc 1 796 5 is_stmt 1 view .LVU753
 796:../generate/sc_drivers/r_riic/src/lld/r_rza2_riic_lld.c ****     RIIC_ICDRT_DRT);
 2695              		.loc 1 796 55 is_stmt 0 view .LVU754
 2696 0004 003000E3 		movw	r3, #:lower16:.LANCHOR3
 2697 0008 003040E3 		movt	r3, #:upper16:.LANCHOR3
 2698 000c 000193E7 		ldr	r0, [r3, r0, lsl #2]
 2699              	.LVL239:
 796:../generate/sc_drivers/r_riic/src/lld/r_rza2_riic_lld.c ****     RIIC_ICDRT_DRT);
 2700              		.loc 1 796 5 view .LVU755
 2701 0010 FF30A0E3 		mov	r3, #255
 2702 0014 0020A0E3 		mov	r2, #0
 2703 0018 3C0080E2 		add	r0, r0, #60
 2704 001c FEFFFFEB 		bl	RZA_IO_RegWrite_32
 2705              	.LVL240:
 799:../generate/sc_drivers/r_riic/src/lld/r_rza2_riic_lld.c **** }
 2706              		.loc 1 799 5 is_stmt 1 view .LVU756
 800:../generate/sc_drivers/r_riic/src/lld/r_rza2_riic_lld.c **** /******************************************************************************
 2707              		.loc 1 800 1 is_stmt 0 view .LVU757
 2708 0020 1080BDE8 		pop	{r4, pc}
 2709              		.cfi_endproc
 2710              	.LFE19:
 2712              		.section	.text.R_RIIC_ReadByte,"ax",%progbits
 2713              		.align	2
 2714              		.global	R_RIIC_ReadByte
 2715              		.syntax unified
 2716              		.arm
 2717              		.fpu neon
 2719              	R_RIIC_ReadByte:
 2720              	.LVL241:
 2721              	.LFB20:
 813:../generate/sc_drivers/r_riic/src/lld/r_rza2_riic_lld.c ****     uint32_t read_data;
 2722              		.loc 1 813 1 is_stmt 1 view -0
 2723              		.cfi_startproc
 2724              		@ args = 0, pretend = 0, frame = 0
 2725              		@ frame_needed = 0, uses_anonymous_args = 0
 813:../generate/sc_drivers/r_riic/src/lld/r_rza2_riic_lld.c ****     uint32_t read_data;
 2726              		.loc 1 813 1 is_stmt 0 view .LVU759
 2727 0000 10402DE9 		push	{r4, lr}
 2728              		.cfi_def_cfa_offset 8
 2729              		.cfi_offset 4, -8
 2730              		.cfi_offset 14, -4
 814:../generate/sc_drivers/r_riic/src/lld/r_rza2_riic_lld.c **** 
 2731              		.loc 1 814 5 is_stmt 1 view .LVU760
 817:../generate/sc_drivers/r_riic/src/lld/r_rza2_riic_lld.c **** 
 2732              		.loc 1 817 5 view .LVU761
 817:../generate/sc_drivers/r_riic/src/lld/r_rza2_riic_lld.c **** 
 2733              		.loc 1 817 45 is_stmt 0 view .LVU762
 2734 0004 003000E3 		movw	r3, #:lower16:.LANCHOR3
 2735 0008 003040E3 		movt	r3, #:upper16:.LANCHOR3
 2736 000c 000193E7 		ldr	r0, [r3, r0, lsl #2]
 2737              	.LVL242:
 817:../generate/sc_drivers/r_riic/src/lld/r_rza2_riic_lld.c **** 
 2738              		.loc 1 817 17 view .LVU763
 2739 0010 FF20A0E3 		mov	r2, #255
 2740 0014 0010A0E3 		mov	r1, #0
 2741 0018 400080E2 		add	r0, r0, #64
 2742 001c FEFFFFEB 		bl	RZA_IO_RegRead_32
 2743              	.LVL243:
 820:../generate/sc_drivers/r_riic/src/lld/r_rza2_riic_lld.c **** }
 2744              		.loc 1 820 5 is_stmt 1 view .LVU764
 821:../generate/sc_drivers/r_riic/src/lld/r_rza2_riic_lld.c **** /******************************************************************************
 2745              		.loc 1 821 1 is_stmt 0 view .LVU765
 2746 0020 7000EFE6 		uxtb	r0, r0
 2747              	.LVL244:
 821:../generate/sc_drivers/r_riic/src/lld/r_rza2_riic_lld.c **** /******************************************************************************
 2748              		.loc 1 821 1 view .LVU766
 2749 0024 1080BDE8 		pop	{r4, pc}
 2750              		.cfi_endproc
 2751              	.LFE20:
 2753              		.section	.text.R_RIIC_IsBusBusy,"ax",%progbits
 2754              		.align	2
 2755              		.global	R_RIIC_IsBusBusy
 2756              		.syntax unified
 2757              		.arm
 2758              		.fpu neon
 2760              	R_RIIC_IsBusBusy:
 2761              	.LVL245:
 2762              	.LFB21:
 834:../generate/sc_drivers/r_riic/src/lld/r_rza2_riic_lld.c ****     uint32_t busy_stat;
 2763              		.loc 1 834 1 is_stmt 1 view -0
 2764              		.cfi_startproc
 2765              		@ args = 0, pretend = 0, frame = 0
 2766              		@ frame_needed = 0, uses_anonymous_args = 0
 834:../generate/sc_drivers/r_riic/src/lld/r_rza2_riic_lld.c ****     uint32_t busy_stat;
 2767              		.loc 1 834 1 is_stmt 0 view .LVU768
 2768 0000 10402DE9 		push	{r4, lr}
 2769              		.cfi_def_cfa_offset 8
 2770              		.cfi_offset 4, -8
 2771              		.cfi_offset 14, -4
 835:../generate/sc_drivers/r_riic/src/lld/r_rza2_riic_lld.c **** 
 2772              		.loc 1 835 5 is_stmt 1 view .LVU769
 838:../generate/sc_drivers/r_riic/src/lld/r_rza2_riic_lld.c **** 
 2773              		.loc 1 838 5 view .LVU770
 838:../generate/sc_drivers/r_riic/src/lld/r_rza2_riic_lld.c **** 
 2774              		.loc 1 838 45 is_stmt 0 view .LVU771
 2775 0004 003000E3 		movw	r3, #:lower16:.LANCHOR3
 2776 0008 003040E3 		movt	r3, #:upper16:.LANCHOR3
 2777 000c 000193E7 		ldr	r0, [r3, r0, lsl #2]
 2778              	.LVL246:
 838:../generate/sc_drivers/r_riic/src/lld/r_rza2_riic_lld.c **** 
 2779              		.loc 1 838 17 view .LVU772
 2780 0010 8020A0E3 		mov	r2, #128
 2781 0014 0710A0E3 		mov	r1, #7
 2782 0018 040080E2 		add	r0, r0, #4
 2783 001c FEFFFFEB 		bl	RZA_IO_RegRead_32
 2784              	.LVL247:
 841:../generate/sc_drivers/r_riic/src/lld/r_rza2_riic_lld.c **** }
 2785              		.loc 1 841 5 is_stmt 1 view .LVU773
 842:../generate/sc_drivers/r_riic/src/lld/r_rza2_riic_lld.c **** /******************************************************************************
 2786              		.loc 1 842 1 is_stmt 0 view .LVU774
 2787 0020 7000EFE6 		uxtb	r0, r0
 2788              	.LVL248:
 842:../generate/sc_drivers/r_riic/src/lld/r_rza2_riic_lld.c **** /******************************************************************************
 2789              		.loc 1 842 1 view .LVU775
 2790 0024 1080BDE8 		pop	{r4, pc}
 2791              		.cfi_endproc
 2792              	.LFE21:
 2794              		.section	.text.R_RIIC_IsStopAsserted,"ax",%progbits
 2795              		.align	2
 2796              		.global	R_RIIC_IsStopAsserted
 2797              		.syntax unified
 2798              		.arm
 2799              		.fpu neon
 2801              	R_RIIC_IsStopAsserted:
 2802              	.LVL249:
 2803              	.LFB22:
 857:../generate/sc_drivers/r_riic/src/lld/r_rza2_riic_lld.c ****     uint32_t stop_stat;
 2804              		.loc 1 857 1 is_stmt 1 view -0
 2805              		.cfi_startproc
 2806              		@ args = 0, pretend = 0, frame = 0
 2807              		@ frame_needed = 0, uses_anonymous_args = 0
 857:../generate/sc_drivers/r_riic/src/lld/r_rza2_riic_lld.c ****     uint32_t stop_stat;
 2808              		.loc 1 857 1 is_stmt 0 view .LVU777
 2809 0000 10402DE9 		push	{r4, lr}
 2810              		.cfi_def_cfa_offset 8
 2811              		.cfi_offset 4, -8
 2812              		.cfi_offset 14, -4
 858:../generate/sc_drivers/r_riic/src/lld/r_rza2_riic_lld.c **** 
 2813              		.loc 1 858 5 is_stmt 1 view .LVU778
 861:../generate/sc_drivers/r_riic/src/lld/r_rza2_riic_lld.c **** 
 2814              		.loc 1 861 5 view .LVU779
 861:../generate/sc_drivers/r_riic/src/lld/r_rza2_riic_lld.c **** 
 2815              		.loc 1 861 45 is_stmt 0 view .LVU780
 2816 0004 003000E3 		movw	r3, #:lower16:.LANCHOR3
 2817 0008 003040E3 		movt	r3, #:upper16:.LANCHOR3
 2818 000c 000193E7 		ldr	r0, [r3, r0, lsl #2]
 2819              	.LVL250:
 861:../generate/sc_drivers/r_riic/src/lld/r_rza2_riic_lld.c **** 
 2820              		.loc 1 861 17 view .LVU781
 2821 0010 0820A0E3 		mov	r2, #8
 2822 0014 0310A0E3 		mov	r1, #3
 2823 0018 240080E2 		add	r0, r0, #36
 2824 001c FEFFFFEB 		bl	RZA_IO_RegRead_32
 2825              	.LVL251:
 864:../generate/sc_drivers/r_riic/src/lld/r_rza2_riic_lld.c **** }
 2826              		.loc 1 864 5 is_stmt 1 view .LVU782
 865:../generate/sc_drivers/r_riic/src/lld/r_rza2_riic_lld.c **** /******************************************************************************
 2827              		.loc 1 865 1 is_stmt 0 view .LVU783
 2828 0020 7000EFE6 		uxtb	r0, r0
 2829              	.LVL252:
 865:../generate/sc_drivers/r_riic/src/lld/r_rza2_riic_lld.c **** /******************************************************************************
 2830              		.loc 1 865 1 view .LVU784
 2831 0024 1080BDE8 		pop	{r4, pc}
 2832              		.cfi_endproc
 2833              	.LFE22:
 2835              		.section	.text.R_RIIC_WaitSlaveAddr,"ax",%progbits
 2836              		.align	2
 2837              		.global	R_RIIC_WaitSlaveAddr
 2838              		.syntax unified
 2839              		.arm
 2840              		.fpu neon
 2842              	R_RIIC_WaitSlaveAddr:
 2843              	.LVL253:
 2844              	.LFB23:
 881:../generate/sc_drivers/r_riic/src/lld/r_rza2_riic_lld.c ****     if (RIIC_MODE_MASTER == gs_riic_config[channel].riic_mode)
 2845              		.loc 1 881 1 is_stmt 1 view -0
 2846              		.cfi_startproc
 2847              		@ args = 0, pretend = 0, frame = 0
 2848              		@ frame_needed = 0, uses_anonymous_args = 0
 882:../generate/sc_drivers/r_riic/src/lld/r_rza2_riic_lld.c ****     {
 2849              		.loc 1 882 5 view .LVU786
 882:../generate/sc_drivers/r_riic/src/lld/r_rza2_riic_lld.c ****     {
 2850              		.loc 1 882 52 is_stmt 0 view .LVU787
 2851 0000 002000E3 		movw	r2, #:lower16:.LANCHOR6
 2852 0004 002040E3 		movt	r2, #:upper16:.LANCHOR6
 2853 0008 3430A0E3 		mov	r3, #52
 2854 000c 930003E0 		mul	r3, r3, r0
 2855 0010 0330D2E7 		ldrb	r3, [r2, r3]	@ zero_extendqisi2
 882:../generate/sc_drivers/r_riic/src/lld/r_rza2_riic_lld.c ****     {
 2856              		.loc 1 882 8 view .LVU788
 2857 0014 000053E3 		cmp	r3, #0
 2858 0018 1A00000A 		beq	.L117
 881:../generate/sc_drivers/r_riic/src/lld/r_rza2_riic_lld.c ****     if (RIIC_MODE_MASTER == gs_riic_config[channel].riic_mode)
 2859              		.loc 1 881 1 view .LVU789
 2860 001c 10402DE9 		push	{r4, lr}
 2861              		.cfi_def_cfa_offset 8
 2862              		.cfi_offset 4, -8
 2863              		.cfi_offset 14, -4
 888:../generate/sc_drivers/r_riic/src/lld/r_rza2_riic_lld.c ****     RIIC_ICIER_RIE);
 2864              		.loc 1 888 5 is_stmt 1 view .LVU790
 888:../generate/sc_drivers/r_riic/src/lld/r_rza2_riic_lld.c ****     RIIC_ICIER_RIE);
 2865              		.loc 1 888 55 is_stmt 0 view .LVU791
 2866 0020 003000E3 		movw	r3, #:lower16:.LANCHOR3
 2867 0024 003040E3 		movt	r3, #:upper16:.LANCHOR3
 2868 0028 004193E7 		ldr	r4, [r3, r0, lsl #2]
 888:../generate/sc_drivers/r_riic/src/lld/r_rza2_riic_lld.c ****     RIIC_ICIER_RIE);
 2869              		.loc 1 888 46 view .LVU792
 2870 002c 1C4084E2 		add	r4, r4, #28
 888:../generate/sc_drivers/r_riic/src/lld/r_rza2_riic_lld.c ****     RIIC_ICIER_RIE);
 2871              		.loc 1 888 5 view .LVU793
 2872 0030 2030A0E3 		mov	r3, #32
 2873 0034 0520A0E3 		mov	r2, #5
 2874 0038 0110A0E3 		mov	r1, #1
 2875 003c 0400A0E1 		mov	r0, r4
 2876              	.LVL254:
 888:../generate/sc_drivers/r_riic/src/lld/r_rza2_riic_lld.c ****     RIIC_ICIER_RIE);
 2877              		.loc 1 888 5 view .LVU794
 2878 0040 FEFFFFEB 		bl	RZA_IO_RegWrite_32
 2879              	.LVL255:
 892:../generate/sc_drivers/r_riic/src/lld/r_rza2_riic_lld.c ****     RIIC_ICIER_TIE);
 2880              		.loc 1 892 5 is_stmt 1 view .LVU795
 2881 0044 8030A0E3 		mov	r3, #128
 2882 0048 0720A0E3 		mov	r2, #7
 2883 004c 0110A0E3 		mov	r1, #1
 2884 0050 0400A0E1 		mov	r0, r4
 2885 0054 FEFFFFEB 		bl	RZA_IO_RegWrite_32
 2886              	.LVL256:
 896:../generate/sc_drivers/r_riic/src/lld/r_rza2_riic_lld.c ****     RIIC_ICIER_NAKIE);
 2887              		.loc 1 896 5 view .LVU796
 2888 0058 1030A0E3 		mov	r3, #16
 2889 005c 0420A0E3 		mov	r2, #4
 2890 0060 0110A0E3 		mov	r1, #1
 2891 0064 0400A0E1 		mov	r0, r4
 2892 0068 FEFFFFEB 		bl	RZA_IO_RegWrite_32
 2893              	.LVL257:
 900:../generate/sc_drivers/r_riic/src/lld/r_rza2_riic_lld.c ****     RIIC_ICIER_SPIE);
 2894              		.loc 1 900 5 view .LVU797
 2895 006c 0830A0E3 		mov	r3, #8
 2896 0070 0320A0E3 		mov	r2, #3
 2897 0074 0110A0E3 		mov	r1, #1
 2898 0078 0400A0E1 		mov	r0, r4
 2899 007c FEFFFFEB 		bl	RZA_IO_RegWrite_32
 2900              	.LVL258:
 903:../generate/sc_drivers/r_riic/src/lld/r_rza2_riic_lld.c **** }
 2901              		.loc 1 903 5 view .LVU798
 903:../generate/sc_drivers/r_riic/src/lld/r_rza2_riic_lld.c **** }
 2902              		.loc 1 903 12 is_stmt 0 view .LVU799
 2903 0080 0000A0E3 		mov	r0, #0
 904:../generate/sc_drivers/r_riic/src/lld/r_rza2_riic_lld.c **** /******************************************************************************
 2904              		.loc 1 904 1 view .LVU800
 2905 0084 1080BDE8 		pop	{r4, pc}
 2906              	.LVL259:
 2907              	.L117:
 2908              		.cfi_def_cfa_offset 0
 2909              		.cfi_restore 4
 2910              		.cfi_restore 14
 884:../generate/sc_drivers/r_riic/src/lld/r_rza2_riic_lld.c ****     }
 2911              		.loc 1 884 16 view .LVU801
 2912 0088 0000E0E3 		mvn	r0, #0
 2913              	.LVL260:
 904:../generate/sc_drivers/r_riic/src/lld/r_rza2_riic_lld.c **** /******************************************************************************
 2914              		.loc 1 904 1 view .LVU802
 2915 008c 1EFF2FE1 		bx	lr
 2916              		.cfi_endproc
 2917              	.LFE23:
 2919              		.section	.text.R_RIIC_DetectTimeoutStart,"ax",%progbits
 2920              		.align	2
 2921              		.global	R_RIIC_DetectTimeoutStart
 2922              		.syntax unified
 2923              		.arm
 2924              		.fpu neon
 2926              	R_RIIC_DetectTimeoutStart:
 2927              	.LVL261:
 2928              	.LFB24:
 916:../generate/sc_drivers/r_riic/src/lld/r_rza2_riic_lld.c ****     /* start timer */
 2929              		.loc 1 916 1 is_stmt 1 view -0
 2930              		.cfi_startproc
 2931              		@ args = 0, pretend = 0, frame = 0
 2932              		@ frame_needed = 0, uses_anonymous_args = 0
 916:../generate/sc_drivers/r_riic/src/lld/r_rza2_riic_lld.c ****     /* start timer */
 2933              		.loc 1 916 1 is_stmt 0 view .LVU804
 2934 0000 10402DE9 		push	{r4, lr}
 2935              		.cfi_def_cfa_offset 8
 2936              		.cfi_offset 4, -8
 2937              		.cfi_offset 14, -4
 918:../generate/sc_drivers/r_riic/src/lld/r_rza2_riic_lld.c ****     RIIC_ICFER_TMOE);
 2938              		.loc 1 918 5 is_stmt 1 view .LVU805
 918:../generate/sc_drivers/r_riic/src/lld/r_rza2_riic_lld.c ****     RIIC_ICFER_TMOE);
 2939              		.loc 1 918 55 is_stmt 0 view .LVU806
 2940 0004 003000E3 		movw	r3, #:lower16:.LANCHOR3
 2941 0008 003040E3 		movt	r3, #:upper16:.LANCHOR3
 2942 000c 004193E7 		ldr	r4, [r3, r0, lsl #2]
 918:../generate/sc_drivers/r_riic/src/lld/r_rza2_riic_lld.c ****     RIIC_ICFER_TMOE);
 2943              		.loc 1 918 5 view .LVU807
 2944 0010 0130A0E3 		mov	r3, #1
 2945 0014 0020A0E3 		mov	r2, #0
 2946 0018 0310A0E1 		mov	r1, r3
 2947 001c 140084E2 		add	r0, r4, #20
 2948              	.LVL262:
 918:../generate/sc_drivers/r_riic/src/lld/r_rza2_riic_lld.c ****     RIIC_ICFER_TMOE);
 2949              		.loc 1 918 5 view .LVU808
 2950 0020 FEFFFFEB 		bl	RZA_IO_RegWrite_32
 2951              	.LVL263:
 922:../generate/sc_drivers/r_riic/src/lld/r_rza2_riic_lld.c ****     RIIC_ICIER_TMOIE);
 2952              		.loc 1 922 5 is_stmt 1 view .LVU809
 2953 0024 0130A0E3 		mov	r3, #1
 2954 0028 0020A0E3 		mov	r2, #0
 2955 002c 0310A0E1 		mov	r1, r3
 2956 0030 1C0084E2 		add	r0, r4, #28
 2957 0034 FEFFFFEB 		bl	RZA_IO_RegWrite_32
 2958              	.LVL264:
 925:../generate/sc_drivers/r_riic/src/lld/r_rza2_riic_lld.c **** }
 2959              		.loc 1 925 5 view .LVU810
 926:../generate/sc_drivers/r_riic/src/lld/r_rza2_riic_lld.c **** /*****************************************************************************
 2960              		.loc 1 926 1 is_stmt 0 view .LVU811
 2961 0038 1080BDE8 		pop	{r4, pc}
 2962              		.cfi_endproc
 2963              	.LFE24:
 2965              		.section	.text.R_RIIC_DetectTimeoutStop,"ax",%progbits
 2966              		.align	2
 2967              		.global	R_RIIC_DetectTimeoutStop
 2968              		.syntax unified
 2969              		.arm
 2970              		.fpu neon
 2972              	R_RIIC_DetectTimeoutStop:
 2973              	.LVL265:
 2974              	.LFB25:
 938:../generate/sc_drivers/r_riic/src/lld/r_rza2_riic_lld.c ****     /* disable timer interrupt */
 2975              		.loc 1 938 1 is_stmt 1 view -0
 2976              		.cfi_startproc
 2977              		@ args = 0, pretend = 0, frame = 0
 2978              		@ frame_needed = 0, uses_anonymous_args = 0
 938:../generate/sc_drivers/r_riic/src/lld/r_rza2_riic_lld.c ****     /* disable timer interrupt */
 2979              		.loc 1 938 1 is_stmt 0 view .LVU813
 2980 0000 10402DE9 		push	{r4, lr}
 2981              		.cfi_def_cfa_offset 8
 2982              		.cfi_offset 4, -8
 2983              		.cfi_offset 14, -4
 940:../generate/sc_drivers/r_riic/src/lld/r_rza2_riic_lld.c ****     RIIC_ICIER_TMOIE);
 2984              		.loc 1 940 5 is_stmt 1 view .LVU814
 940:../generate/sc_drivers/r_riic/src/lld/r_rza2_riic_lld.c ****     RIIC_ICIER_TMOIE);
 2985              		.loc 1 940 55 is_stmt 0 view .LVU815
 2986 0004 003000E3 		movw	r3, #:lower16:.LANCHOR3
 2987 0008 003040E3 		movt	r3, #:upper16:.LANCHOR3
 2988 000c 004193E7 		ldr	r4, [r3, r0, lsl #2]
 940:../generate/sc_drivers/r_riic/src/lld/r_rza2_riic_lld.c ****     RIIC_ICIER_TMOIE);
 2989              		.loc 1 940 5 view .LVU816
 2990 0010 0130A0E3 		mov	r3, #1
 2991 0014 0020A0E3 		mov	r2, #0
 2992 0018 0210A0E1 		mov	r1, r2
 2993 001c 1C0084E2 		add	r0, r4, #28
 2994              	.LVL266:
 940:../generate/sc_drivers/r_riic/src/lld/r_rza2_riic_lld.c ****     RIIC_ICIER_TMOIE);
 2995              		.loc 1 940 5 view .LVU817
 2996 0020 FEFFFFEB 		bl	RZA_IO_RegWrite_32
 2997              	.LVL267:
 944:../generate/sc_drivers/r_riic/src/lld/r_rza2_riic_lld.c ****     RIIC_ICFER_TMOE);
 2998              		.loc 1 944 5 is_stmt 1 view .LVU818
 2999 0024 0130A0E3 		mov	r3, #1
 3000 0028 0020A0E3 		mov	r2, #0
 3001 002c 0210A0E1 		mov	r1, r2
 3002 0030 140084E2 		add	r0, r4, #20
 3003 0034 FEFFFFEB 		bl	RZA_IO_RegWrite_32
 3004              	.LVL268:
 947:../generate/sc_drivers/r_riic/src/lld/r_rza2_riic_lld.c **** }
 3005              		.loc 1 947 5 view .LVU819
 948:../generate/sc_drivers/r_riic/src/lld/r_rza2_riic_lld.c **** /******************************************************************************
 3006              		.loc 1 948 1 is_stmt 0 view .LVU820
 3007 0038 1080BDE8 		pop	{r4, pc}
 3008              		.cfi_endproc
 3009              	.LFE25:
 3011              		.section	.text.R_RIIC_DetectArbitrationStart,"ax",%progbits
 3012              		.align	2
 3013              		.global	R_RIIC_DetectArbitrationStart
 3014              		.syntax unified
 3015              		.arm
 3016              		.fpu neon
 3018              	R_RIIC_DetectArbitrationStart:
 3019              	.LVL269:
 3020              	.LFB26:
 961:../generate/sc_drivers/r_riic/src/lld/r_rza2_riic_lld.c ****     /* cast to volatile uint32_t pointer */
 3021              		.loc 1 961 1 is_stmt 1 view -0
 3022              		.cfi_startproc
 3023              		@ args = 0, pretend = 0, frame = 0
 3024              		@ frame_needed = 0, uses_anonymous_args = 0
 961:../generate/sc_drivers/r_riic/src/lld/r_rza2_riic_lld.c ****     /* cast to volatile uint32_t pointer */
 3025              		.loc 1 961 1 is_stmt 0 view .LVU822
 3026 0000 70402DE9 		push	{r4, r5, r6, lr}
 3027              		.cfi_def_cfa_offset 16
 3028              		.cfi_offset 4, -16
 3029              		.cfi_offset 5, -12
 3030              		.cfi_offset 6, -8
 3031              		.cfi_offset 14, -4
 963:../generate/sc_drivers/r_riic/src/lld/r_rza2_riic_lld.c ****     RIIC_ICFER_MALE);
 3032              		.loc 1 963 5 is_stmt 1 view .LVU823
 963:../generate/sc_drivers/r_riic/src/lld/r_rza2_riic_lld.c ****     RIIC_ICFER_MALE);
 3033              		.loc 1 963 55 is_stmt 0 view .LVU824
 3034 0004 003000E3 		movw	r3, #:lower16:.LANCHOR3
 3035 0008 003040E3 		movt	r3, #:upper16:.LANCHOR3
 3036 000c 005193E7 		ldr	r5, [r3, r0, lsl #2]
 963:../generate/sc_drivers/r_riic/src/lld/r_rza2_riic_lld.c ****     RIIC_ICFER_MALE);
 3037              		.loc 1 963 46 view .LVU825
 3038 0010 144085E2 		add	r4, r5, #20
 963:../generate/sc_drivers/r_riic/src/lld/r_rza2_riic_lld.c ****     RIIC_ICFER_MALE);
 3039              		.loc 1 963 5 view .LVU826
 3040 0014 0230A0E3 		mov	r3, #2
 3041 0018 0120A0E3 		mov	r2, #1
 3042 001c 0210A0E1 		mov	r1, r2
 3043 0020 0400A0E1 		mov	r0, r4
 3044              	.LVL270:
 963:../generate/sc_drivers/r_riic/src/lld/r_rza2_riic_lld.c ****     RIIC_ICFER_MALE);
 3045              		.loc 1 963 5 view .LVU827
 3046 0024 FEFFFFEB 		bl	RZA_IO_RegWrite_32
 3047              	.LVL271:
 967:../generate/sc_drivers/r_riic/src/lld/r_rza2_riic_lld.c ****     RIIC_ICFER_NALE);
 3048              		.loc 1 967 5 is_stmt 1 view .LVU828
 3049 0028 0430A0E3 		mov	r3, #4
 3050 002c 0220A0E3 		mov	r2, #2
 3051 0030 0110A0E3 		mov	r1, #1
 3052 0034 0400A0E1 		mov	r0, r4
 3053 0038 FEFFFFEB 		bl	RZA_IO_RegWrite_32
 3054              	.LVL272:
 971:../generate/sc_drivers/r_riic/src/lld/r_rza2_riic_lld.c ****     RIIC_ICFER_SALE);
 3055              		.loc 1 971 5 view .LVU829
 3056 003c 0830A0E3 		mov	r3, #8
 3057 0040 0320A0E3 		mov	r2, #3
 3058 0044 0110A0E3 		mov	r1, #1
 3059 0048 0400A0E1 		mov	r0, r4
 3060 004c FEFFFFEB 		bl	RZA_IO_RegWrite_32
 3061              	.LVL273:
 975:../generate/sc_drivers/r_riic/src/lld/r_rza2_riic_lld.c ****     RIIC_ICIER_ALIE);
 3062              		.loc 1 975 5 view .LVU830
 3063 0050 0230A0E3 		mov	r3, #2
 3064 0054 0120A0E3 		mov	r2, #1
 3065 0058 0210A0E1 		mov	r1, r2
 3066 005c 1C0085E2 		add	r0, r5, #28
 3067 0060 FEFFFFEB 		bl	RZA_IO_RegWrite_32
 3068              	.LVL274:
 978:../generate/sc_drivers/r_riic/src/lld/r_rza2_riic_lld.c **** }
 3069              		.loc 1 978 5 view .LVU831
 979:../generate/sc_drivers/r_riic/src/lld/r_rza2_riic_lld.c **** /******************************************************************************
 3070              		.loc 1 979 1 is_stmt 0 view .LVU832
 3071 0064 7080BDE8 		pop	{r4, r5, r6, pc}
 3072              		.cfi_endproc
 3073              	.LFE26:
 3075              		.section	.text.R_RIIC_DetectArbitrationStop,"ax",%progbits
 3076              		.align	2
 3077              		.global	R_RIIC_DetectArbitrationStop
 3078              		.syntax unified
 3079              		.arm
 3080              		.fpu neon
 3082              	R_RIIC_DetectArbitrationStop:
 3083              	.LVL275:
 3084              	.LFB27:
 992:../generate/sc_drivers/r_riic/src/lld/r_rza2_riic_lld.c ****     /* cast to volatile uint32_t pointer */
 3085              		.loc 1 992 1 is_stmt 1 view -0
 3086              		.cfi_startproc
 3087              		@ args = 0, pretend = 0, frame = 0
 3088              		@ frame_needed = 0, uses_anonymous_args = 0
 992:../generate/sc_drivers/r_riic/src/lld/r_rza2_riic_lld.c ****     /* cast to volatile uint32_t pointer */
 3089              		.loc 1 992 1 is_stmt 0 view .LVU834
 3090 0000 10402DE9 		push	{r4, lr}
 3091              		.cfi_def_cfa_offset 8
 3092              		.cfi_offset 4, -8
 3093              		.cfi_offset 14, -4
 994:../generate/sc_drivers/r_riic/src/lld/r_rza2_riic_lld.c ****     RIIC_ICIER_ALIE);
 3094              		.loc 1 994 5 is_stmt 1 view .LVU835
 994:../generate/sc_drivers/r_riic/src/lld/r_rza2_riic_lld.c ****     RIIC_ICIER_ALIE);
 3095              		.loc 1 994 55 is_stmt 0 view .LVU836
 3096 0004 003000E3 		movw	r3, #:lower16:.LANCHOR3
 3097 0008 003040E3 		movt	r3, #:upper16:.LANCHOR3
 3098 000c 004193E7 		ldr	r4, [r3, r0, lsl #2]
 994:../generate/sc_drivers/r_riic/src/lld/r_rza2_riic_lld.c ****     RIIC_ICIER_ALIE);
 3099              		.loc 1 994 5 view .LVU837
 3100 0010 0230A0E3 		mov	r3, #2
 3101 0014 0120A0E3 		mov	r2, #1
 3102 0018 0010A0E3 		mov	r1, #0
 3103 001c 1C0084E2 		add	r0, r4, #28
 3104              	.LVL276:
 994:../generate/sc_drivers/r_riic/src/lld/r_rza2_riic_lld.c ****     RIIC_ICIER_ALIE);
 3105              		.loc 1 994 5 view .LVU838
 3106 0020 FEFFFFEB 		bl	RZA_IO_RegWrite_32
 3107              	.LVL277:
 998:../generate/sc_drivers/r_riic/src/lld/r_rza2_riic_lld.c ****     RIIC_ICFER_MALE);
 3108              		.loc 1 998 5 is_stmt 1 view .LVU839
 998:../generate/sc_drivers/r_riic/src/lld/r_rza2_riic_lld.c ****     RIIC_ICFER_MALE);
 3109              		.loc 1 998 46 is_stmt 0 view .LVU840
 3110 0024 144084E2 		add	r4, r4, #20
 998:../generate/sc_drivers/r_riic/src/lld/r_rza2_riic_lld.c ****     RIIC_ICFER_MALE);
 3111              		.loc 1 998 5 view .LVU841
 3112 0028 0230A0E3 		mov	r3, #2
 3113 002c 0120A0E3 		mov	r2, #1
 3114 0030 0010A0E3 		mov	r1, #0
 3115 0034 0400A0E1 		mov	r0, r4
 3116 0038 FEFFFFEB 		bl	RZA_IO_RegWrite_32
 3117              	.LVL278:
1002:../generate/sc_drivers/r_riic/src/lld/r_rza2_riic_lld.c ****     RIIC_ICFER_NALE);
 3118              		.loc 1 1002 5 is_stmt 1 view .LVU842
 3119 003c 0430A0E3 		mov	r3, #4
 3120 0040 0220A0E3 		mov	r2, #2
 3121 0044 0010A0E3 		mov	r1, #0
 3122 0048 0400A0E1 		mov	r0, r4
 3123 004c FEFFFFEB 		bl	RZA_IO_RegWrite_32
 3124              	.LVL279:
1006:../generate/sc_drivers/r_riic/src/lld/r_rza2_riic_lld.c ****     RIIC_ICFER_SALE);
 3125              		.loc 1 1006 5 view .LVU843
 3126 0050 0830A0E3 		mov	r3, #8
 3127 0054 0320A0E3 		mov	r2, #3
 3128 0058 0010A0E3 		mov	r1, #0
 3129 005c 0400A0E1 		mov	r0, r4
 3130 0060 FEFFFFEB 		bl	RZA_IO_RegWrite_32
 3131              	.LVL280:
1009:../generate/sc_drivers/r_riic/src/lld/r_rza2_riic_lld.c **** }
 3132              		.loc 1 1009 5 view .LVU844
1010:../generate/sc_drivers/r_riic/src/lld/r_rza2_riic_lld.c **** /******************************************************************************
 3133              		.loc 1 1010 1 is_stmt 0 view .LVU845
 3134 0064 1080BDE8 		pop	{r4, pc}
 3135              		.cfi_endproc
 3136              	.LFE27:
 3138              		.section	.text.R_RIIC_GetSlaveAddrNum,"ax",%progbits
 3139              		.align	2
 3140              		.global	R_RIIC_GetSlaveAddrNum
 3141              		.syntax unified
 3142              		.arm
 3143              		.fpu neon
 3145              	R_RIIC_GetSlaveAddrNum:
 3146              	.LVL281:
 3147              	.LFB28:
1027:../generate/sc_drivers/r_riic/src/lld/r_rza2_riic_lld.c ****     uint32_t detect_stat = 0;
 3148              		.loc 1 1027 1 is_stmt 1 view -0
 3149              		.cfi_startproc
 3150              		@ args = 0, pretend = 0, frame = 0
 3151              		@ frame_needed = 0, uses_anonymous_args = 0
1027:../generate/sc_drivers/r_riic/src/lld/r_rza2_riic_lld.c ****     uint32_t detect_stat = 0;
 3152              		.loc 1 1027 1 is_stmt 0 view .LVU847
 3153 0000 70402DE9 		push	{r4, r5, r6, lr}
 3154              		.cfi_def_cfa_offset 16
 3155              		.cfi_offset 4, -16
 3156              		.cfi_offset 5, -12
 3157              		.cfi_offset 6, -8
 3158              		.cfi_offset 14, -4
 3159 0004 0050A0E1 		mov	r5, r0
1028:../generate/sc_drivers/r_riic/src/lld/r_rza2_riic_lld.c ****     e_riic_slave_addr_num_t detect_num = 0;
 3160              		.loc 1 1028 5 is_stmt 1 view .LVU848
 3161              	.LVL282:
1029:../generate/sc_drivers/r_riic/src/lld/r_rza2_riic_lld.c **** 
 3162              		.loc 1 1029 5 view .LVU849
1032:../generate/sc_drivers/r_riic/src/lld/r_rza2_riic_lld.c ****     {
 3163              		.loc 1 1032 5 view .LVU850
1029:../generate/sc_drivers/r_riic/src/lld/r_rza2_riic_lld.c **** 
 3164              		.loc 1 1029 29 is_stmt 0 view .LVU851
 3165 0008 0040A0E3 		mov	r4, #0
1032:../generate/sc_drivers/r_riic/src/lld/r_rza2_riic_lld.c ****     {
 3166              		.loc 1 1032 11 view .LVU852
 3167 000c 010000EA 		b	.L131
 3168              	.LVL283:
 3169              	.L137:
1039:../generate/sc_drivers/r_riic/src/lld/r_rza2_riic_lld.c ****     }
 3170              		.loc 1 1039 9 is_stmt 1 view .LVU853
1039:../generate/sc_drivers/r_riic/src/lld/r_rza2_riic_lld.c ****     }
 3171              		.loc 1 1039 19 is_stmt 0 view .LVU854
 3172 0010 014084E2 		add	r4, r4, #1
 3173              	.LVL284:
1039:../generate/sc_drivers/r_riic/src/lld/r_rza2_riic_lld.c ****     }
 3174              		.loc 1 1039 19 view .LVU855
 3175 0014 7440EFE6 		uxtb	r4, r4
 3176              	.LVL285:
 3177              	.L131:
1032:../generate/sc_drivers/r_riic/src/lld/r_rza2_riic_lld.c ****     {
 3178              		.loc 1 1032 11 is_stmt 1 view .LVU856
 3179 0018 020054E3 		cmp	r4, #2
 3180 001c 0900008A 		bhi	.L132
1034:../generate/sc_drivers/r_riic/src/lld/r_rza2_riic_lld.c ****         if (0 != detect_stat)
 3181              		.loc 1 1034 9 view .LVU857
1034:../generate/sc_drivers/r_riic/src/lld/r_rza2_riic_lld.c ****         if (0 != detect_stat)
 3182              		.loc 1 1034 51 is_stmt 0 view .LVU858
 3183 0020 003000E3 		movw	r3, #:lower16:.LANCHOR3
 3184 0024 003040E3 		movt	r3, #:upper16:.LANCHOR3
 3185 0028 050193E7 		ldr	r0, [r3, r5, lsl #2]
1034:../generate/sc_drivers/r_riic/src/lld/r_rza2_riic_lld.c ****         if (0 != detect_stat)
 3186              		.loc 1 1034 23 view .LVU859
 3187 002c 0120A0E3 		mov	r2, #1
 3188 0030 1224A0E1 		lsl	r2, r2, r4
 3189 0034 0010A0E3 		mov	r1, #0
 3190 0038 200080E2 		add	r0, r0, #32
 3191 003c FEFFFFEB 		bl	RZA_IO_RegRead_32
 3192              	.LVL286:
1035:../generate/sc_drivers/r_riic/src/lld/r_rza2_riic_lld.c ****         {
 3193              		.loc 1 1035 9 is_stmt 1 view .LVU860
1035:../generate/sc_drivers/r_riic/src/lld/r_rza2_riic_lld.c ****         {
 3194              		.loc 1 1035 12 is_stmt 0 view .LVU861
 3195 0040 000050E3 		cmp	r0, #0
 3196 0044 F1FFFF0A 		beq	.L137
 3197              	.LVL287:
 3198              	.L132:
1042:../generate/sc_drivers/r_riic/src/lld/r_rza2_riic_lld.c ****     {
 3199              		.loc 1 1042 5 is_stmt 1 view .LVU862
1042:../generate/sc_drivers/r_riic/src/lld/r_rza2_riic_lld.c ****     {
 3200              		.loc 1 1042 8 is_stmt 0 view .LVU863
 3201 0048 030054E3 		cmp	r4, #3
 3202 004c 0100000A 		beq	.L138
 3203              	.LVL288:
 3204              	.L134:
1048:../generate/sc_drivers/r_riic/src/lld/r_rza2_riic_lld.c **** /******************************************************************************
 3205              		.loc 1 1048 1 view .LVU864
 3206 0050 0400A0E1 		mov	r0, r4
 3207 0054 7080BDE8 		pop	{r4, r5, r6, pc}
 3208              	.LVL289:
 3209              	.L138:
1044:../generate/sc_drivers/r_riic/src/lld/r_rza2_riic_lld.c ****     }
 3210              		.loc 1 1044 16 view .LVU865
 3211 0058 FF40A0E3 		mov	r4, #255
 3212              	.LVL290:
1044:../generate/sc_drivers/r_riic/src/lld/r_rza2_riic_lld.c ****     }
 3213              		.loc 1 1044 16 view .LVU866
 3214 005c FBFFFFEA 		b	.L134
 3215              		.cfi_endproc
 3216              	.LFE28:
 3218              		.section	.rodata.R_RIIC_GetVersion.str1.4,"aMS",%progbits,1
 3219              		.align	2
 3220              	.LC0:
 3221 0000 4C4C4420 		.ascii	"LLD EBK_RZA2M RIIC\000"
 3221      45424B5F 
 3221      525A4132 
 3221      4D205249 
 3221      494300
 3222              		.section	.text.R_RIIC_GetVersion,"ax",%progbits
 3223              		.align	2
 3224              		.global	R_RIIC_GetVersion
 3225              		.syntax unified
 3226              		.arm
 3227              		.fpu neon
 3229              	R_RIIC_GetVersion:
 3230              	.LVL291:
 3231              	.LFB29:
1060:../generate/sc_drivers/r_riic/src/lld/r_rza2_riic_lld.c ****     pVerInfo->lld.p_szdriver_name = STDIO_RIIC_RZ_LLD_DRV_NAME;
 3232              		.loc 1 1060 1 is_stmt 1 view -0
 3233              		.cfi_startproc
 3234              		@ args = 0, pretend = 0, frame = 0
 3235              		@ frame_needed = 0, uses_anonymous_args = 0
 3236              		@ link register save eliminated.
1060:../generate/sc_drivers/r_riic/src/lld/r_rza2_riic_lld.c ****     pVerInfo->lld.p_szdriver_name = STDIO_RIIC_RZ_LLD_DRV_NAME;
 3237              		.loc 1 1060 1 is_stmt 0 view .LVU868
 3238 0000 0030A0E1 		mov	r3, r0
1061:../generate/sc_drivers/r_riic/src/lld/r_rza2_riic_lld.c ****     pVerInfo->lld.version.sub.major = STDIO_RIIC_RZ_LLD_VERSION_MAJOR;
 3239              		.loc 1 1061 5 is_stmt 1 view .LVU869
1061:../generate/sc_drivers/r_riic/src/lld/r_rza2_riic_lld.c ****     pVerInfo->lld.version.sub.major = STDIO_RIIC_RZ_LLD_VERSION_MAJOR;
 3240              		.loc 1 1061 35 is_stmt 0 view .LVU870
 3241 0004 002000E3 		movw	r2, #:lower16:.LC0
 3242 0008 002040E3 		movt	r2, #:upper16:.LC0
 3243 000c 142080E5 		str	r2, [r0, #20]
1062:../generate/sc_drivers/r_riic/src/lld/r_rza2_riic_lld.c ****     pVerInfo->lld.version.sub.minor = STDIO_RIIC_RZ_LLD_VERSION_MINOR;
 3244              		.loc 1 1062 5 is_stmt 1 view .LVU871
1062:../generate/sc_drivers/r_riic/src/lld/r_rza2_riic_lld.c ****     pVerInfo->lld.version.sub.minor = STDIO_RIIC_RZ_LLD_VERSION_MINOR;
 3245              		.loc 1 1062 37 is_stmt 0 view .LVU872
 3246 0010 0120A0E3 		mov	r2, #1
 3247 0014 BE20C0E1 		strh	r2, [r0, #14]	@ movhi
1063:../generate/sc_drivers/r_riic/src/lld/r_rza2_riic_lld.c ****     pVerInfo->lld.build = STDIO_RIIC_RZ_LLD_BUILD_NUM;
 3248              		.loc 1 1063 5 is_stmt 1 view .LVU873
1063:../generate/sc_drivers/r_riic/src/lld/r_rza2_riic_lld.c ****     pVerInfo->lld.build = STDIO_RIIC_RZ_LLD_BUILD_NUM;
 3249              		.loc 1 1063 37 is_stmt 0 view .LVU874
 3250 0018 0420A0E3 		mov	r2, #4
 3251 001c BC20C0E1 		strh	r2, [r0, #12]	@ movhi
1064:../generate/sc_drivers/r_riic/src/lld/r_rza2_riic_lld.c **** 
 3252              		.loc 1 1064 5 is_stmt 1 view .LVU875
1064:../generate/sc_drivers/r_riic/src/lld/r_rza2_riic_lld.c **** 
 3253              		.loc 1 1064 25 is_stmt 0 view .LVU876
 3254 0020 0000A0E3 		mov	r0, #0
 3255              	.LVL292:
1064:../generate/sc_drivers/r_riic/src/lld/r_rza2_riic_lld.c **** 
 3256              		.loc 1 1064 25 view .LVU877
 3257 0024 100083E5 		str	r0, [r3, #16]
1066:../generate/sc_drivers/r_riic/src/lld/r_rza2_riic_lld.c **** }
 3258              		.loc 1 1066 5 is_stmt 1 view .LVU878
1067:../generate/sc_drivers/r_riic/src/lld/r_rza2_riic_lld.c **** /******************************************************************************
 3259              		.loc 1 1067 1 is_stmt 0 view .LVU879
 3260 0028 1EFF2FE1 		bx	lr
 3261              		.cfi_endproc
 3262              	.LFE29:
 3264              		.section	.bss.gs_board_pclk,"aw",%nobits
 3265              		.align	2
 3266              		.set	.LANCHOR7,. + 0
 3269              	gs_board_pclk:
 3270 0000 00000000 		.space	4
 3271              		.section	.bss.gs_riic_config,"aw",%nobits
 3272              		.align	2
 3273              		.set	.LANCHOR6,. + 0
 3276              	gs_riic_config:
 3277 0000 00000000 		.space	208
 3277      00000000 
 3277      00000000 
 3277      00000000 
 3277      00000000 
 3278              		.section	.rodata.GPIO_SC_TABLE_riic1,"a"
 3279              		.align	2
 3282              	GPIO_SC_TABLE_riic1:
 3283 0000 020D     		.short	3330
 3284 0002 07       		.byte	7
 3285 0003 01       		.byte	1
 3286 0004 05       		.byte	5
 3287 0005 00       		.space	1
 3288 0006 030D     		.short	3331
 3289 0008 07       		.byte	7
 3290 0009 01       		.byte	1
 3291 000a 05       		.byte	5
 3292 000b 00       		.space	1
 3293              		.section	.rodata.RIIC_SC_TABLE,"a"
 3294              		.align	2
 3295              		.set	.LANCHOR5,. + 0
 3298              	RIIC_SC_TABLE:
 3299 0000 01000000 		.word	1
 3300 0004 00       		.byte	0
 3301 0005 000000   		.space	3
 3302 0008 01000000 		.word	1
 3303 000c 00000000 		.word	0
 3304 0010 00000000 		.word	0
 3305 0014 0100     		.short	1
 3306 0016 0100     		.short	1
 3307 0018 0100     		.short	1
 3308 001a 00       		.byte	0
 3309 001b 00       		.byte	0
 3310 001c 00       		.byte	0
 3311 001d 00       		.byte	0
 3312 001e 04       		.byte	4
 3313 001f 00       		.space	1
 3314 0020 00000000 		.word	0
 3315 0024 00000000 		.word	0
 3316 0028 00       		.byte	0
 3317 0029 00       		.byte	0
 3318 002a 00       		.byte	0
 3319 002b 00       		.space	1
 3320 002c 00000000 		.word	0
 3321 0030 09       		.byte	9
 3322 0031 09       		.byte	9
 3323 0032 09       		.byte	9
 3324 0033 09       		.byte	9
 3325 0034 09       		.byte	9
 3326 0035 09       		.byte	9
 3327 0036 09       		.byte	9
 3328 0037 09       		.byte	9
 3329 0038 00000000 		.word	GPIO_SC_TABLE_riic1
 3330 003c 02000000 		.word	2
 3331 0040 00000000 		.space	4
 3332              		.section	.rodata.gs_noise_filter_nf_table,"a"
 3333              		.align	2
 3334              		.set	.LANCHOR4,. + 0
 3337              	gs_noise_filter_nf_table:
 3338 0000 00000000 		.word	0
 3339 0004 00000000 		.word	0
 3340 0008 01000000 		.word	1
 3341 000c 02000000 		.word	2
 3342 0010 03000000 		.word	3
 3343              		.section	.rodata.gs_riic_clk_base_param_55m,"a"
 3344              		.align	2
 3345              		.set	.LANCHOR2,. + 0
 3348              	gs_riic_clk_base_param_55m:
 3349 0000 04       		.byte	4
 3350 0001 000000   		.space	3
 3351 0004 03000000 		.word	3
 3352 0008 1C000000 		.word	28
 3353 000c 04       		.byte	4
 3354 000d 000000   		.space	3
 3355 0010 06000000 		.word	6
 3356 0014 19000000 		.word	25
 3357 0018 04       		.byte	4
 3358 0019 000000   		.space	3
 3359 001c 09000000 		.word	9
 3360 0020 16000000 		.word	22
 3361 0024 04       		.byte	4
 3362 0025 000000   		.space	3
 3363 0028 0C000000 		.word	12
 3364 002c 13000000 		.word	19
 3365 0030 04       		.byte	4
 3366 0031 000000   		.space	3
 3367 0034 0F000000 		.word	15
 3368 0038 10000000 		.word	16
 3369 003c 04       		.byte	4
 3370 003d 000000   		.space	3
 3371 0040 13000000 		.word	19
 3372 0044 0C000000 		.word	12
 3373 0048 04       		.byte	4
 3374 0049 000000   		.space	3
 3375 004c 16000000 		.word	22
 3376 0050 09000000 		.word	9
 3377 0054 04       		.byte	4
 3378 0055 000000   		.space	3
 3379 0058 19000000 		.word	25
 3380 005c 06000000 		.word	6
 3381 0060 04       		.byte	4
 3382 0061 000000   		.space	3
 3383 0064 1C000000 		.word	28
 3384 0068 03000000 		.word	3
 3385 006c 02       		.byte	2
 3386 006d 000000   		.space	3
 3387 0070 03000000 		.word	3
 3388 0074 1C000000 		.word	28
 3389 0078 02       		.byte	2
 3390 0079 000000   		.space	3
 3391 007c 06000000 		.word	6
 3392 0080 19000000 		.word	25
 3393 0084 02       		.byte	2
 3394 0085 000000   		.space	3
 3395 0088 09000000 		.word	9
 3396 008c 16000000 		.word	22
 3397 0090 02       		.byte	2
 3398 0091 000000   		.space	3
 3399 0094 0C000000 		.word	12
 3400 0098 13000000 		.word	19
 3401 009c 02       		.byte	2
 3402 009d 000000   		.space	3
 3403 00a0 0F000000 		.word	15
 3404 00a4 10000000 		.word	16
 3405 00a8 02       		.byte	2
 3406 00a9 000000   		.space	3
 3407 00ac 13000000 		.word	19
 3408 00b0 0C000000 		.word	12
 3409 00b4 02       		.byte	2
 3410 00b5 000000   		.space	3
 3411 00b8 16000000 		.word	22
 3412 00bc 09000000 		.word	9
 3413 00c0 02       		.byte	2
 3414 00c1 000000   		.space	3
 3415 00c4 19000000 		.word	25
 3416 00c8 06000000 		.word	6
 3417 00cc 02       		.byte	2
 3418 00cd 000000   		.space	3
 3419 00d0 1C000000 		.word	28
 3420 00d4 03000000 		.word	3
 3421 00d8 01       		.byte	1
 3422 00d9 000000   		.space	3
 3423 00dc 02000000 		.word	2
 3424 00e0 14000000 		.word	20
 3425 00e4 01       		.byte	1
 3426 00e5 000000   		.space	3
 3427 00e8 04000000 		.word	4
 3428 00ec 12000000 		.word	18
 3429 00f0 01       		.byte	1
 3430 00f1 000000   		.space	3
 3431 00f4 07000000 		.word	7
 3432 00f8 0F000000 		.word	15
 3433 00fc 01       		.byte	1
 3434 00fd 000000   		.space	3
 3435 0100 09000000 		.word	9
 3436 0104 0D000000 		.word	13
 3437 0108 01       		.byte	1
 3438 0109 000000   		.space	3
 3439 010c 0B000000 		.word	11
 3440 0110 0B000000 		.word	11
 3441 0114 01       		.byte	1
 3442 0115 000000   		.space	3
 3443 0118 0D000000 		.word	13
 3444 011c 09000000 		.word	9
 3445 0120 01       		.byte	1
 3446 0121 000000   		.space	3
 3447 0124 0F000000 		.word	15
 3448 0128 07000000 		.word	7
 3449 012c 01       		.byte	1
 3450 012d 000000   		.space	3
 3451 0130 12000000 		.word	18
 3452 0134 04000000 		.word	4
 3453 0138 01       		.byte	1
 3454 0139 000000   		.space	3
 3455 013c 14000000 		.word	20
 3456 0140 02000000 		.word	2
 3457              		.section	.rodata.gs_riic_clk_base_param_60m,"a"
 3458              		.align	2
 3459              		.set	.LANCHOR1,. + 0
 3462              	gs_riic_clk_base_param_60m:
 3463 0000 04       		.byte	4
 3464 0001 000000   		.space	3
 3465 0004 03000000 		.word	3
 3466 0008 1F000000 		.word	31
 3467 000c 04       		.byte	4
 3468 000d 000000   		.space	3
 3469 0010 07000000 		.word	7
 3470 0014 1B000000 		.word	27
 3471 0018 04       		.byte	4
 3472 0019 000000   		.space	3
 3473 001c 0A000000 		.word	10
 3474 0020 18000000 		.word	24
 3475 0024 04       		.byte	4
 3476 0025 000000   		.space	3
 3477 0028 0D000000 		.word	13
 3478 002c 15000000 		.word	21
 3479 0030 04       		.byte	4
 3480 0031 000000   		.space	3
 3481 0034 11000000 		.word	17
 3482 0038 11000000 		.word	17
 3483 003c 04       		.byte	4
 3484 003d 000000   		.space	3
 3485 0040 15000000 		.word	21
 3486 0044 0D000000 		.word	13
 3487 0048 04       		.byte	4
 3488 0049 000000   		.space	3
 3489 004c 18000000 		.word	24
 3490 0050 0A000000 		.word	10
 3491 0054 04       		.byte	4
 3492 0055 000000   		.space	3
 3493 0058 1B000000 		.word	27
 3494 005c 07000000 		.word	7
 3495 0060 04       		.byte	4
 3496 0061 000000   		.space	3
 3497 0064 1F000000 		.word	31
 3498 0068 03000000 		.word	3
 3499 006c 02       		.byte	2
 3500 006d 000000   		.space	3
 3501 0070 03000000 		.word	3
 3502 0074 1F000000 		.word	31
 3503 0078 02       		.byte	2
 3504 0079 000000   		.space	3
 3505 007c 07000000 		.word	7
 3506 0080 1B000000 		.word	27
 3507 0084 02       		.byte	2
 3508 0085 000000   		.space	3
 3509 0088 0A000000 		.word	10
 3510 008c 18000000 		.word	24
 3511 0090 02       		.byte	2
 3512 0091 000000   		.space	3
 3513 0094 0D000000 		.word	13
 3514 0098 15000000 		.word	21
 3515 009c 02       		.byte	2
 3516 009d 000000   		.space	3
 3517 00a0 11000000 		.word	17
 3518 00a4 11000000 		.word	17
 3519 00a8 02       		.byte	2
 3520 00a9 000000   		.space	3
 3521 00ac 15000000 		.word	21
 3522 00b0 0D000000 		.word	13
 3523 00b4 02       		.byte	2
 3524 00b5 000000   		.space	3
 3525 00b8 18000000 		.word	24
 3526 00bc 0A000000 		.word	10
 3527 00c0 02       		.byte	2
 3528 00c1 000000   		.space	3
 3529 00c4 1B000000 		.word	27
 3530 00c8 07000000 		.word	7
 3531 00cc 02       		.byte	2
 3532 00cd 000000   		.space	3
 3533 00d0 1F000000 		.word	31
 3534 00d4 03000000 		.word	3
 3535 00d8 01       		.byte	1
 3536 00d9 000000   		.space	3
 3537 00dc 02000000 		.word	2
 3538 00e0 16000000 		.word	22
 3539 00e4 01       		.byte	1
 3540 00e5 000000   		.space	3
 3541 00e8 05000000 		.word	5
 3542 00ec 13000000 		.word	19
 3543 00f0 01       		.byte	1
 3544 00f1 000000   		.space	3
 3545 00f4 07000000 		.word	7
 3546 00f8 11000000 		.word	17
 3547 00fc 01       		.byte	1
 3548 00fd 000000   		.space	3
 3549 0100 0A000000 		.word	10
 3550 0104 0E000000 		.word	14
 3551 0108 01       		.byte	1
 3552 0109 000000   		.space	3
 3553 010c 0C000000 		.word	12
 3554 0110 0C000000 		.word	12
 3555 0114 01       		.byte	1
 3556 0115 000000   		.space	3
 3557 0118 0E000000 		.word	14
 3558 011c 0A000000 		.word	10
 3559 0120 01       		.byte	1
 3560 0121 000000   		.space	3
 3561 0124 11000000 		.word	17
 3562 0128 07000000 		.word	7
 3563 012c 01       		.byte	1
 3564 012d 000000   		.space	3
 3565 0130 13000000 		.word	19
 3566 0134 05000000 		.word	5
 3567 0138 01       		.byte	1
 3568 0139 000000   		.space	3
 3569 013c 16000000 		.word	22
 3570 0140 02000000 		.word	2
 3571              		.section	.rodata.gs_riic_clk_base_param_66m,"a"
 3572              		.align	2
 3573              		.set	.LANCHOR0,. + 0
 3576              	gs_riic_clk_base_param_66m:
 3577 0000 04       		.byte	4
 3578 0001 000000   		.space	3
 3579 0004 04000000 		.word	4
 3580 0008 22000000 		.word	34
 3581 000c 04       		.byte	4
 3582 000d 000000   		.space	3
 3583 0010 08000000 		.word	8
 3584 0014 1E000000 		.word	30
 3585 0018 04       		.byte	4
 3586 0019 000000   		.space	3
 3587 001c 0B000000 		.word	11
 3588 0020 1B000000 		.word	27
 3589 0024 04       		.byte	4
 3590 0025 000000   		.space	3
 3591 0028 0F000000 		.word	15
 3592 002c 17000000 		.word	23
 3593 0030 04       		.byte	4
 3594 0031 000000   		.space	3
 3595 0034 13000000 		.word	19
 3596 0038 13000000 		.word	19
 3597 003c 04       		.byte	4
 3598 003d 000000   		.space	3
 3599 0040 17000000 		.word	23
 3600 0044 0F000000 		.word	15
 3601 0048 04       		.byte	4
 3602 0049 000000   		.space	3
 3603 004c 1B000000 		.word	27
 3604 0050 0B000000 		.word	11
 3605 0054 04       		.byte	4
 3606 0055 000000   		.space	3
 3607 0058 1E000000 		.word	30
 3608 005c 08000000 		.word	8
 3609 0060 04       		.byte	4
 3610 0061 000000   		.space	3
 3611 0064 22000000 		.word	34
 3612 0068 04000000 		.word	4
 3613 006c 02       		.byte	2
 3614 006d 000000   		.space	3
 3615 0070 04000000 		.word	4
 3616 0074 22000000 		.word	34
 3617 0078 02       		.byte	2
 3618 0079 000000   		.space	3
 3619 007c 08000000 		.word	8
 3620 0080 1E000000 		.word	30
 3621 0084 02       		.byte	2
 3622 0085 000000   		.space	3
 3623 0088 0B000000 		.word	11
 3624 008c 1B000000 		.word	27
 3625 0090 02       		.byte	2
 3626 0091 000000   		.space	3
 3627 0094 0F000000 		.word	15
 3628 0098 17000000 		.word	23
 3629 009c 02       		.byte	2
 3630 009d 000000   		.space	3
 3631 00a0 13000000 		.word	19
 3632 00a4 13000000 		.word	19
 3633 00a8 02       		.byte	2
 3634 00a9 000000   		.space	3
 3635 00ac 17000000 		.word	23
 3636 00b0 0F000000 		.word	15
 3637 00b4 02       		.byte	2
 3638 00b5 000000   		.space	3
 3639 00b8 1B000000 		.word	27
 3640 00bc 0B000000 		.word	11
 3641 00c0 02       		.byte	2
 3642 00c1 000000   		.space	3
 3643 00c4 1E000000 		.word	30
 3644 00c8 08000000 		.word	8
 3645 00cc 02       		.byte	2
 3646 00cd 000000   		.space	3
 3647 00d0 22000000 		.word	34
 3648 00d4 04000000 		.word	4
 3649 00d8 01       		.byte	1
 3650 00d9 000000   		.space	3
 3651 00dc 03000000 		.word	3
 3652 00e0 18000000 		.word	24
 3653 00e4 01       		.byte	1
 3654 00e5 000000   		.space	3
 3655 00e8 05000000 		.word	5
 3656 00ec 16000000 		.word	22
 3657 00f0 01       		.byte	1
 3658 00f1 000000   		.space	3
 3659 00f4 08000000 		.word	8
 3660 00f8 13000000 		.word	19
 3661 00fc 01       		.byte	1
 3662 00fd 000000   		.space	3
 3663 0100 0A000000 		.word	10
 3664 0104 11000000 		.word	17
 3665 0108 01       		.byte	1
 3666 0109 000000   		.space	3
 3667 010c 0D000000 		.word	13
 3668 0110 0E000000 		.word	14
 3669 0114 01       		.byte	1
 3670 0115 000000   		.space	3
 3671 0118 11000000 		.word	17
 3672 011c 0A000000 		.word	10
 3673 0120 01       		.byte	1
 3674 0121 000000   		.space	3
 3675 0124 13000000 		.word	19
 3676 0128 08000000 		.word	8
 3677 012c 01       		.byte	1
 3678 012d 000000   		.space	3
 3679 0130 16000000 		.word	22
 3680 0134 05000000 		.word	5
 3681 0138 01       		.byte	1
 3682 0139 000000   		.space	3
 3683 013c 18000000 		.word	24
 3684 0140 03000000 		.word	3
 3685              		.section	.rodata.gs_riic_module,"a"
 3686              		.align	2
 3687              		.set	.LANCHOR8,. + 0
 3690              	gs_riic_module:
 3691 0000 20       		.byte	32
 3692 0001 21       		.byte	33
 3693 0002 22       		.byte	34
 3694 0003 23       		.byte	35
 3695              		.section	.rodata.gsp_riic,"a"
 3696              		.align	2
 3697              		.set	.LANCHOR3,. + 0
 3700              	gsp_riic:
 3701 0000 00A003E8 		.word	-402415616
 3702 0004 00A403E8 		.word	-402414592
 3703 0008 00A803E8 		.word	-402413568
 3704 000c 00AC03E8 		.word	-402412544
 3705              		.text
 3706              	.Letext0:
 3707              		.file 2 "c:\\program files (x86)\\gnu arm embedded toolchain\\9 2020-q2-update\\arm-none-eabi\\inc
 3708              		.file 3 "c:\\program files (x86)\\gnu arm embedded toolchain\\9 2020-q2-update\\arm-none-eabi\\inc
 3709              		.file 4 "c:\\program files (x86)\\gnu arm embedded toolchain\\9 2020-q2-update\\lib\\gcc\\arm-none
 3710              		.file 5 "c:\\program files (x86)\\gnu arm embedded toolchain\\9 2020-q2-update\\arm-none-eabi\\inc
 3711              		.file 6 "c:\\program files (x86)\\gnu arm embedded toolchain\\9 2020-q2-update\\arm-none-eabi\\inc
 3712              		.file 7 "c:\\program files (x86)\\gnu arm embedded toolchain\\9 2020-q2-update\\arm-none-eabi\\inc
 3713              		.file 8 "c:\\program files (x86)\\gnu arm embedded toolchain\\9 2020-q2-update\\arm-none-eabi\\inc
 3714              		.file 9 "C:/Users/ryota/e2_studio/workspace/rza2m_ssif_sample_freertos_gcc/generate/system/inc/r_t
 3715              		.file 10 "C:/Users/ryota/e2_studio/workspace/rza2m_ssif_sample_freertos_gcc/generate/system/iodefi
 3716              		.file 11 "C:/Users/ryota/e2_studio/workspace/rza2m_ssif_sample_freertos_gcc/generate/system/inc/dr
 3717              		.file 12 "C:/Users/ryota/e2_studio/workspace/rza2m_ssif_sample_freertos_gcc/generate/sc_drivers/r_
 3718              		.file 13 "c:\\program files (x86)\\gnu arm embedded toolchain\\9 2020-q2-update\\arm-none-eabi\\in
 3719              		.file 14 "c:\\program files (x86)\\gnu arm embedded toolchain\\9 2020-q2-update\\arm-none-eabi\\in
 3720              		.file 15 "C:/Users/ryota/e2_studio/workspace/rza2m_ssif_sample_freertos_gcc/generate/sc_drivers/r_
 3721              		.file 16 "C:/Users/ryota/e2_studio/workspace/rza2m_ssif_sample_freertos_gcc/generate/drivers/r_gpi
 3722              		.file 17 "C:/Users/ryota/e2_studio/workspace/rza2m_ssif_sample_freertos_gcc/generate/drivers/r_gpi
 3723              		.file 18 "C:/Users/ryota/e2_studio/workspace/rza2m_ssif_sample_freertos_gcc/generate/drivers/r_gpi
 3724              		.file 19 "C:/Users/ryota/e2_studio/workspace/rza2m_ssif_sample_freertos_gcc/generate/sc_drivers/r_
 3725              		.file 20 "C:/Users/ryota/e2_studio/workspace/rza2m_ssif_sample_freertos_gcc/generate/drivers/r_int
 3726              		.file 21 "C:/Users/ryota/e2_studio/workspace/rza2m_ssif_sample_freertos_gcc/generate/sc_drivers/r_
 3727              		.file 22 "C:/Users/ryota/e2_studio/workspace/rza2m_ssif_sample_freertos_gcc/generate/drivers/r_stb
 3728              		.file 23 "C:/Users/ryota/e2_studio/workspace/rza2m_ssif_sample_freertos_gcc/generate/system/inc/rz
DEFINED SYMBOLS
                            *ABS*:00000000 r_rza2_riic_lld.c
C:\Users\ryota\AppData\Local\Temp\ccU3YNZk.s:18     .text.riic_adjust_scl_clk:00000000 $a
C:\Users\ryota\AppData\Local\Temp\ccU3YNZk.s:26     .text.riic_adjust_scl_clk:00000000 riic_adjust_scl_clk
C:\Users\ryota\AppData\Local\Temp\ccU3YNZk.s:3573   .rodata.gs_riic_clk_base_param_66m:00000000 .LANCHOR0
C:\Users\ryota\AppData\Local\Temp\ccU3YNZk.s:3459   .rodata.gs_riic_clk_base_param_60m:00000000 .LANCHOR1
C:\Users\ryota\AppData\Local\Temp\ccU3YNZk.s:3345   .rodata.gs_riic_clk_base_param_55m:00000000 .LANCHOR2
C:\Users\ryota\AppData\Local\Temp\ccU3YNZk.s:382    .text.riic_set_reset:00000000 $a
C:\Users\ryota\AppData\Local\Temp\ccU3YNZk.s:387    .text.riic_set_reset:00000000 riic_set_reset
C:\Users\ryota\AppData\Local\Temp\ccU3YNZk.s:3697   .rodata.gsp_riic:00000000 .LANCHOR3
C:\Users\ryota\AppData\Local\Temp\ccU3YNZk.s:435    .text.riic_register_slave_addrss:00000000 $a
C:\Users\ryota\AppData\Local\Temp\ccU3YNZk.s:440    .text.riic_register_slave_addrss:00000000 riic_register_slave_addrss
C:\Users\ryota\AppData\Local\Temp\ccU3YNZk.s:515    .text.riic_set_scl_clk:00000000 $a
C:\Users\ryota\AppData\Local\Temp\ccU3YNZk.s:520    .text.riic_set_scl_clk:00000000 riic_set_scl_clk
C:\Users\ryota\AppData\Local\Temp\ccU3YNZk.s:712    .text.riic_set_bus_format:00000000 $a
C:\Users\ryota\AppData\Local\Temp\ccU3YNZk.s:717    .text.riic_set_bus_format:00000000 riic_set_bus_format
C:\Users\ryota\AppData\Local\Temp\ccU3YNZk.s:822    .text.riic_set_noise_filter:00000000 $a
C:\Users\ryota\AppData\Local\Temp\ccU3YNZk.s:827    .text.riic_set_noise_filter:00000000 riic_set_noise_filter
C:\Users\ryota\AppData\Local\Temp\ccU3YNZk.s:3334   .rodata.gs_noise_filter_nf_table:00000000 .LANCHOR4
C:\Users\ryota\AppData\Local\Temp\ccU3YNZk.s:903    .text.riic_set_timeout:00000000 $a
C:\Users\ryota\AppData\Local\Temp\ccU3YNZk.s:908    .text.riic_set_timeout:00000000 riic_set_timeout
C:\Users\ryota\AppData\Local\Temp\ccU3YNZk.s:1033   .text.riic_hw_init:00000000 $a
C:\Users\ryota\AppData\Local\Temp\ccU3YNZk.s:1038   .text.riic_hw_init:00000000 riic_hw_init
C:\Users\ryota\AppData\Local\Temp\ccU3YNZk.s:1173   .text.riic_release_reset:00000000 $a
C:\Users\ryota\AppData\Local\Temp\ccU3YNZk.s:1178   .text.riic_release_reset:00000000 riic_release_reset
C:\Users\ryota\AppData\Local\Temp\ccU3YNZk.s:1211   .text.R_RIIC_ScInitChannel:00000000 $a
C:\Users\ryota\AppData\Local\Temp\ccU3YNZk.s:1217   .text.R_RIIC_ScInitChannel:00000000 R_RIIC_ScInitChannel
C:\Users\ryota\AppData\Local\Temp\ccU3YNZk.s:3295   .rodata.RIIC_SC_TABLE:00000000 .LANCHOR5
C:\Users\ryota\AppData\Local\Temp\ccU3YNZk.s:3273   .bss.gs_riic_config:00000000 .LANCHOR6
C:\Users\ryota\AppData\Local\Temp\ccU3YNZk.s:3266   .bss.gs_board_pclk:00000000 .LANCHOR7
C:\Users\ryota\AppData\Local\Temp\ccU3YNZk.s:3687   .rodata.gs_riic_module:00000000 .LANCHOR8
C:\Users\ryota\AppData\Local\Temp\ccU3YNZk.s:1546   .text.R_RIIC_CloseChannel:00000000 $a
C:\Users\ryota\AppData\Local\Temp\ccU3YNZk.s:1552   .text.R_RIIC_CloseChannel:00000000 R_RIIC_CloseChannel
C:\Users\ryota\AppData\Local\Temp\ccU3YNZk.s:1593   .text.R_RIIC_SetConfig:00000000 $a
C:\Users\ryota\AppData\Local\Temp\ccU3YNZk.s:1599   .text.R_RIIC_SetConfig:00000000 R_RIIC_SetConfig
C:\Users\ryota\AppData\Local\Temp\ccU3YNZk.s:1889   .text.R_RIIC_GetConfig:00000000 $a
C:\Users\ryota\AppData\Local\Temp\ccU3YNZk.s:1895   .text.R_RIIC_GetConfig:00000000 R_RIIC_GetConfig
C:\Users\ryota\AppData\Local\Temp\ccU3YNZk.s:2063   .text.R_RIIC_TransmitStop:00000000 $a
C:\Users\ryota\AppData\Local\Temp\ccU3YNZk.s:2069   .text.R_RIIC_TransmitStop:00000000 R_RIIC_TransmitStop
C:\Users\ryota\AppData\Local\Temp\ccU3YNZk.s:2120   .text.R_RIIC_ClearStop:00000000 $a
C:\Users\ryota\AppData\Local\Temp\ccU3YNZk.s:2126   .text.R_RIIC_ClearStop:00000000 R_RIIC_ClearStop
C:\Users\ryota\AppData\Local\Temp\ccU3YNZk.s:2207   .text.R_RIIC_TransmitStart:00000000 $a
C:\Users\ryota\AppData\Local\Temp\ccU3YNZk.s:2213   .text.R_RIIC_TransmitStart:00000000 R_RIIC_TransmitStart
C:\Users\ryota\AppData\Local\Temp\ccU3YNZk.s:2271   .text.R_RIIC_TransmitRestart:00000000 $a
C:\Users\ryota\AppData\Local\Temp\ccU3YNZk.s:2277   .text.R_RIIC_TransmitRestart:00000000 R_RIIC_TransmitRestart
C:\Users\ryota\AppData\Local\Temp\ccU3YNZk.s:2335   .text.R_RIIC_ClearNack:00000000 $a
C:\Users\ryota\AppData\Local\Temp\ccU3YNZk.s:2341   .text.R_RIIC_ClearNack:00000000 R_RIIC_ClearNack
C:\Users\ryota\AppData\Local\Temp\ccU3YNZk.s:2373   .text.R_RIIC_GetAckStatus:00000000 $a
C:\Users\ryota\AppData\Local\Temp\ccU3YNZk.s:2379   .text.R_RIIC_GetAckStatus:00000000 R_RIIC_GetAckStatus
C:\Users\ryota\AppData\Local\Temp\ccU3YNZk.s:2414   .text.R_RIIC_TransmitAck:00000000 $a
C:\Users\ryota\AppData\Local\Temp\ccU3YNZk.s:2420   .text.R_RIIC_TransmitAck:00000000 R_RIIC_TransmitAck
C:\Users\ryota\AppData\Local\Temp\ccU3YNZk.s:2469   .text.R_RIIC_TransmitNack:00000000 $a
C:\Users\ryota\AppData\Local\Temp\ccU3YNZk.s:2475   .text.R_RIIC_TransmitNack:00000000 R_RIIC_TransmitNack
C:\Users\ryota\AppData\Local\Temp\ccU3YNZk.s:2524   .text.R_RIIC_AssertLowHold:00000000 $a
C:\Users\ryota\AppData\Local\Temp\ccU3YNZk.s:2530   .text.R_RIIC_AssertLowHold:00000000 R_RIIC_AssertLowHold
C:\Users\ryota\AppData\Local\Temp\ccU3YNZk.s:2562   .text.R_RIIC_ReleaseLowHold:00000000 $a
C:\Users\ryota\AppData\Local\Temp\ccU3YNZk.s:2568   .text.R_RIIC_ReleaseLowHold:00000000 R_RIIC_ReleaseLowHold
C:\Users\ryota\AppData\Local\Temp\ccU3YNZk.s:2600   .text.R_RIIC_EnableTransEndIntr:00000000 $a
C:\Users\ryota\AppData\Local\Temp\ccU3YNZk.s:2606   .text.R_RIIC_EnableTransEndIntr:00000000 R_RIIC_EnableTransEndIntr
C:\Users\ryota\AppData\Local\Temp\ccU3YNZk.s:2638   .text.R_RIIC_DisableTransEndIntr:00000000 $a
C:\Users\ryota\AppData\Local\Temp\ccU3YNZk.s:2644   .text.R_RIIC_DisableTransEndIntr:00000000 R_RIIC_DisableTransEndIntr
C:\Users\ryota\AppData\Local\Temp\ccU3YNZk.s:2676   .text.R_RIIC_WriteByte:00000000 $a
C:\Users\ryota\AppData\Local\Temp\ccU3YNZk.s:2682   .text.R_RIIC_WriteByte:00000000 R_RIIC_WriteByte
C:\Users\ryota\AppData\Local\Temp\ccU3YNZk.s:2713   .text.R_RIIC_ReadByte:00000000 $a
C:\Users\ryota\AppData\Local\Temp\ccU3YNZk.s:2719   .text.R_RIIC_ReadByte:00000000 R_RIIC_ReadByte
C:\Users\ryota\AppData\Local\Temp\ccU3YNZk.s:2754   .text.R_RIIC_IsBusBusy:00000000 $a
C:\Users\ryota\AppData\Local\Temp\ccU3YNZk.s:2760   .text.R_RIIC_IsBusBusy:00000000 R_RIIC_IsBusBusy
C:\Users\ryota\AppData\Local\Temp\ccU3YNZk.s:2795   .text.R_RIIC_IsStopAsserted:00000000 $a
C:\Users\ryota\AppData\Local\Temp\ccU3YNZk.s:2801   .text.R_RIIC_IsStopAsserted:00000000 R_RIIC_IsStopAsserted
C:\Users\ryota\AppData\Local\Temp\ccU3YNZk.s:2836   .text.R_RIIC_WaitSlaveAddr:00000000 $a
C:\Users\ryota\AppData\Local\Temp\ccU3YNZk.s:2842   .text.R_RIIC_WaitSlaveAddr:00000000 R_RIIC_WaitSlaveAddr
C:\Users\ryota\AppData\Local\Temp\ccU3YNZk.s:2920   .text.R_RIIC_DetectTimeoutStart:00000000 $a
C:\Users\ryota\AppData\Local\Temp\ccU3YNZk.s:2926   .text.R_RIIC_DetectTimeoutStart:00000000 R_RIIC_DetectTimeoutStart
C:\Users\ryota\AppData\Local\Temp\ccU3YNZk.s:2966   .text.R_RIIC_DetectTimeoutStop:00000000 $a
C:\Users\ryota\AppData\Local\Temp\ccU3YNZk.s:2972   .text.R_RIIC_DetectTimeoutStop:00000000 R_RIIC_DetectTimeoutStop
C:\Users\ryota\AppData\Local\Temp\ccU3YNZk.s:3012   .text.R_RIIC_DetectArbitrationStart:00000000 $a
C:\Users\ryota\AppData\Local\Temp\ccU3YNZk.s:3018   .text.R_RIIC_DetectArbitrationStart:00000000 R_RIIC_DetectArbitrationStart
C:\Users\ryota\AppData\Local\Temp\ccU3YNZk.s:3076   .text.R_RIIC_DetectArbitrationStop:00000000 $a
C:\Users\ryota\AppData\Local\Temp\ccU3YNZk.s:3082   .text.R_RIIC_DetectArbitrationStop:00000000 R_RIIC_DetectArbitrationStop
C:\Users\ryota\AppData\Local\Temp\ccU3YNZk.s:3139   .text.R_RIIC_GetSlaveAddrNum:00000000 $a
C:\Users\ryota\AppData\Local\Temp\ccU3YNZk.s:3145   .text.R_RIIC_GetSlaveAddrNum:00000000 R_RIIC_GetSlaveAddrNum
C:\Users\ryota\AppData\Local\Temp\ccU3YNZk.s:3219   .rodata.R_RIIC_GetVersion.str1.4:00000000 $d
C:\Users\ryota\AppData\Local\Temp\ccU3YNZk.s:3220   .rodata.R_RIIC_GetVersion.str1.4:00000000 .LC0
C:\Users\ryota\AppData\Local\Temp\ccU3YNZk.s:3223   .text.R_RIIC_GetVersion:00000000 $a
C:\Users\ryota\AppData\Local\Temp\ccU3YNZk.s:3229   .text.R_RIIC_GetVersion:00000000 R_RIIC_GetVersion
C:\Users\ryota\AppData\Local\Temp\ccU3YNZk.s:3265   .bss.gs_board_pclk:00000000 $d
C:\Users\ryota\AppData\Local\Temp\ccU3YNZk.s:3269   .bss.gs_board_pclk:00000000 gs_board_pclk
C:\Users\ryota\AppData\Local\Temp\ccU3YNZk.s:3272   .bss.gs_riic_config:00000000 $d
C:\Users\ryota\AppData\Local\Temp\ccU3YNZk.s:3276   .bss.gs_riic_config:00000000 gs_riic_config
C:\Users\ryota\AppData\Local\Temp\ccU3YNZk.s:3279   .rodata.GPIO_SC_TABLE_riic1:00000000 $d
C:\Users\ryota\AppData\Local\Temp\ccU3YNZk.s:3282   .rodata.GPIO_SC_TABLE_riic1:00000000 GPIO_SC_TABLE_riic1
C:\Users\ryota\AppData\Local\Temp\ccU3YNZk.s:3294   .rodata.RIIC_SC_TABLE:00000000 $d
C:\Users\ryota\AppData\Local\Temp\ccU3YNZk.s:3298   .rodata.RIIC_SC_TABLE:00000000 RIIC_SC_TABLE
C:\Users\ryota\AppData\Local\Temp\ccU3YNZk.s:3333   .rodata.gs_noise_filter_nf_table:00000000 $d
C:\Users\ryota\AppData\Local\Temp\ccU3YNZk.s:3337   .rodata.gs_noise_filter_nf_table:00000000 gs_noise_filter_nf_table
C:\Users\ryota\AppData\Local\Temp\ccU3YNZk.s:3344   .rodata.gs_riic_clk_base_param_55m:00000000 $d
C:\Users\ryota\AppData\Local\Temp\ccU3YNZk.s:3348   .rodata.gs_riic_clk_base_param_55m:00000000 gs_riic_clk_base_param_55m
C:\Users\ryota\AppData\Local\Temp\ccU3YNZk.s:3458   .rodata.gs_riic_clk_base_param_60m:00000000 $d
C:\Users\ryota\AppData\Local\Temp\ccU3YNZk.s:3462   .rodata.gs_riic_clk_base_param_60m:00000000 gs_riic_clk_base_param_60m
C:\Users\ryota\AppData\Local\Temp\ccU3YNZk.s:3572   .rodata.gs_riic_clk_base_param_66m:00000000 $d
C:\Users\ryota\AppData\Local\Temp\ccU3YNZk.s:3576   .rodata.gs_riic_clk_base_param_66m:00000000 gs_riic_clk_base_param_66m
C:\Users\ryota\AppData\Local\Temp\ccU3YNZk.s:3686   .rodata.gs_riic_module:00000000 $d
C:\Users\ryota\AppData\Local\Temp\ccU3YNZk.s:3690   .rodata.gs_riic_module:00000000 gs_riic_module
C:\Users\ryota\AppData\Local\Temp\ccU3YNZk.s:3696   .rodata.gsp_riic:00000000 $d
C:\Users\ryota\AppData\Local\Temp\ccU3YNZk.s:3700   .rodata.gsp_riic:00000000 gsp_riic
                           .group:00000000 wm4.0.3d5c910ebb40df6df78b28e37cd67f3d
                           .group:00000000 wm4.stddef.h.39.144cf5ddcd53cbfdac30259dc1a6c87f
                           .group:00000000 wm4._newlib_version.h.4.1ef4e12f167f8b69d7c30054be56050d
                           .group:00000000 wm4.features.h.33.318b64d71e0957639cfb30f1db1f7ec8
                           .group:00000000 wm4._default_types.h.15.247e5cd201eca3442cbf5404108c4935
                           .group:00000000 wm4._intsup.h.10.48bafbb683905c4daa4565a85aeeb264
                           .group:00000000 wm4._stdint.h.10.c24fa3af3bc1706662bb5593a907e841
                           .group:00000000 wm4.stdint.h.23.d53047a68f4a85177f80b422d52785ed
                           .group:00000000 wm4.newlib.h.8.7cb3972cd43265932d4782d5eb589854
                           .group:00000000 wm4.ieeefp.h.77.3f06799abf5dd88bdddee084775a1223
                           .group:00000000 wm4.config.h.224.c701144a7b0518c6ee9b9b5465b79f81
                           .group:00000000 wm4._ansi.h.31.de524f58584151836e90d8620a16f8e8
                           .group:00000000 wm4._types.h.20.dd0d04dca3800a0d2a6129b87f3adbb2
                           .group:00000000 wm4.stddef.h.155.3588ebfdd1e8c7ede80509bb9c3b8009
                           .group:00000000 wm4._types.h.127.34941de1b2539d59d5cac00e0dd27a45
                           .group:00000000 wm4.reent.h.17.e292bf8b0bec6c96e131a54347145a30
                           .group:00000000 wm4.lock.h.2.1461d1fff82dffe8bfddc23307f6484f
                           .group:00000000 wm4.reent.h.77.dcd6129ff07fe81bd5636db29abe53b2
                           .group:00000000 wm4.cdefs.h.49.6260d97adb8d27534cbdc0f868b8ea87
                           .group:00000000 wm4.math.h.13.97100c05caf9f40dd9f5a3cda48ccc01
                           .group:00000000 wm4.r_typedefs.h.38.e90d9de5300d9ae020e5db8c5af88b3e
                           .group:00000000 wm4.adc_iodefine.h.29.14c6f50dce37432a7d004e4b1ce33da7
                           .group:00000000 wm4.bsc_iodefine.h.29.9281d1f3639266933964d6d0c2d42c4f
                           .group:00000000 wm4.ceu_iodefine.h.29.2a669d0b46fdde030a50db9e3c307fbf
                           .group:00000000 wm4.cpg_iodefine.h.29.d6fdc9cb4798723afd88b251d64c2ce2
                           .group:00000000 wm4.csi2link_iodefine.h.29.221c4531636a409f24d307b16341ada8
                           .group:00000000 wm4.dmac_iodefine.h.29.578fccc2cc1da886ec95a029bf874f01
                           .group:00000000 wm4.drpk_iodefine.h.29.580eb8588a2b2d43d2726fbe791e513f
                           .group:00000000 wm4.drw_iodefine.h.29.df30f4a4a34a79f6a86c4df91353dffe
                           .group:00000000 wm4.edmac_iodefine.h.29.33e8759349004a722f42f5429c1353f6
                           .group:00000000 wm4.eptpc_iodefine.h.29.74d8f9fab0f5549b56097fb9e937dde8
                           .group:00000000 wm4.etherc_iodefine.h.29.14602750383a574f1c21f994ad33a366
                           .group:00000000 wm4.gpio_iodefine.h.29.3d0b021c56839cee4ae5149903684e4b
                           .group:00000000 wm4.gpt_iodefine.h.29.557ead75d7b0585b898d3898b64c7f87
                           .group:00000000 wm4.hyper_iodefine.h.29.000caadbb74d881e97db55b39b432154
                           .group:00000000 wm4.imr_iodefine.h.29.77c022f017e711c4d51cc0145db1dad3
                           .group:00000000 wm4.intc_iodefine.h.29.b68f5799a35a7495d63b4cd458e1ba57
                           .group:00000000 wm4.irda_iodefine.h.29.37e67bd2005173d68a74d1cc937d8444
                           .group:00000000 wm4.jcu_iodefine.h.29.3aca452908962e7a7ccf26164751feda
                           .group:00000000 wm4.lvds_iodefine.h.29.c11cbe1900e5209c8dcc76c2336c16bc
                           .group:00000000 wm4.mtu_iodefine.h.29.5498fb974bb53caf05aa143c2deec781
                           .group:00000000 wm4.nandc_iodefine.h.29.e0b343306750f017ee86e169ad98efe9
                           .group:00000000 wm4.octa_iodefine.h.29.4cb0d62e4b9633e173858000dc1c626c
                           .group:00000000 wm4.ostm_iodefine.h.29.6914f7e330a1cf0008b34219adcdfed4
                           .group:00000000 wm4.pl_iodefine.h.29.abbb6d725aed990aa8343242bfe31416
                           .group:00000000 wm4.pmg_iodefine.h.29.8bcfbc4771a6f9b7dd4d6f504427219e
                           .group:00000000 wm4.poeg_iodefine.h.29.0d8e258d10986260cbc70cfb8c0ef273
                           .group:00000000 wm4.poe_iodefine.h.29.fe74e55e7b6b4afbe3596c74ba035e98
                           .group:00000000 wm4.prr_iodefine.h.29.c1f15576f7a27b9c83aa3b40f5b2f988
                           .group:00000000 wm4.ptpedmac_iodefine.h.29.cd24a93374ce35cebc41e26889d619ef
                           .group:00000000 wm4.rcanfd_iodefine.h.29.532dd48b82fcb61d63538aba4b6f1289
                           .group:00000000 wm4.rcan_iodefine.h.29.a47a89db1b35c12b54af48fa1956acba
                           .group:00000000 wm4.riic_iodefine.h.29.f96943d49800d297612c4af3bba5c943
                           .group:00000000 wm4.rspi_iodefine.h.29.7efa041fe34a7d27db66a7b337879dfe
                           .group:00000000 wm4.rtc_iodefine.h.29.6dc76be5ca3df69cecb5a81d06cc46b5
                           .group:00000000 wm4.scifa_iodefine.h.29.b04ccd664d71baaf31c75761c45b9c4d
                           .group:00000000 wm4.scim_iodefine.h.29.87d0760abf94446b00d826c797bf0ff2
                           .group:00000000 wm4.sdmmc_iodefine.h.29.e67e9815445e8057a3262d1566bea0db
                           .group:00000000 wm4.spdif_iodefine.h.29.59f5d70150fa200a4d8ee50be1ee34c8
                           .group:00000000 wm4.spibsc_iodefine.h.29.f4930f8b8da1140200204513a363c76f
                           .group:00000000 wm4.sprite_iodefine.h.29.55796d1fa083a2457fea4ece974a192e
                           .group:00000000 wm4.ssif_iodefine.h.29.054ec6d95f487f631f16aee39c85c47a
                           .group:00000000 wm4.usb_iodefine.h.29.6dc44ea388ba227e8fdcfb33c315887b
                           .group:00000000 wm4.vdc_iodefine.h.29.db282ded1f052d8567fbbd3b61ce8f7a
                           .group:00000000 wm4.vin_iodefine.h.29.9b392e5601347d53e64be3272934e170
                           .group:00000000 wm4.wdt_iodefine.h.29.ed07bb44b797072f8c28b41c64fdca30
                           .group:00000000 wm4.iobitmask.h.29.773e8f8428b0c21e1206a8c47a6d3927
                           .group:00000000 wm4.adc_iobitmask.h.29.48ba2821c8a4fc20022447ad9316d399
                           .group:00000000 wm4.bsc_iobitmask.h.29.115d15c4ad4b48e00598dcd62d33c637
                           .group:00000000 wm4.ceu_iobitmask.h.29.413b5b68bb3c2148786493166a57173e
                           .group:00000000 wm4.cpg_iobitmask.h.29.128911f0454a5339c74031b8d73e8fed
                           .group:00000000 wm4.csi2link_iobitmask.h.29.701c130cb17627664fe7c147084057cf
                           .group:00000000 wm4.dmac_iobitmask.h.29.98850e876107975c53dc0bb8ebb53eb5
                           .group:00000000 wm4.drpk_iobitmask.h.29.167e7cf6b1feb4d38b8903a46d8c35ac
                           .group:00000000 wm4.drw_iobitmask.h.29.71d46f2244f6e7ae6117fe6c41c5567d
                           .group:00000000 wm4.edmac_iobitmask.h.29.4e406d859155ba914663e1cf61cad89a
                           .group:00000000 wm4.eptpc_iobitmask.h.29.64bcd0a67db3a886572992ae6da8898c
                           .group:00000000 wm4.etherc_iobitmask.h.29.07b13cb10c426023658e5c51f952b6de
                           .group:00000000 wm4.gpio_iobitmask.h.29.ea8c1464682eb61f2d0763b97ed530f9
                           .group:00000000 wm4.gpt_iobitmask.h.29.94173800a704c5ba32e348ba97cd23cf
                           .group:00000000 wm4.hyper_iobitmask.h.29.f09febbc7b835674abe34ae75f3c700d
                           .group:00000000 wm4.imr2_iobitmask.h.29.fff702c4c9409266054e806327fa236b
                           .group:00000000 wm4.intc_iobitmask.h.29.6d3be2e47bf3d7eb7e91eeddcab863af
                           .group:00000000 wm4.irda_iobitmask.h.29.6f43dde454e599a1d4a8be2978ac9459
                           .group:00000000 wm4.jcu_iobitmask.h.29.9fd48851a81ff31733aa19b29e4846ad
                           .group:00000000 wm4.lvds_iobitmask.h.29.4a6f69c8911426fa05f0b05eab5f5e15
                           .group:00000000 wm4.mtu_iobitmask.h.29.0dfead439d92d73e6bac91e937399f90
                           .group:00000000 wm4.nandc_iobitmask.h.29.26dc88335e3fd43a64a25f5ba82d9db4
                           .group:00000000 wm4.octa_iobitmask.h.29.75dc3e3c70ac86c7551744de3991f583
                           .group:00000000 wm4.ostm_iobitmask.h.29.38ee9f4e1711e17bd3f38545ba631cde
                           .group:00000000 wm4.pl310_iobitmask.h.29.c1ef5625c0a9d67f24e89fe2fd7e4886
                           .group:00000000 wm4.pmg_iobitmask.h.29.d20cb8352080a58cf6cbf526935d968e
                           .group:00000000 wm4.poe3_iobitmask.h.29.3a3444cc2dbf606e2370573e16d57254
                           .group:00000000 wm4.poeg_iobitmask.h.29.5601eb8cf1161926d683c0720340f85d
                           .group:00000000 wm4.prr_iobitmask.h.29.52f8479a52e2236c122b5956e4bdbfce
                           .group:00000000 wm4.ptpedmac_iobitmask.h.29.494dcb2240ebba7fa20d0c2ab02007f7
                           .group:00000000 wm4.rcanfd_iobitmask.h.29.d172f89cbc4f253e32a4e10346bdc9f6
                           .group:00000000 wm4.rcan_iobitmask.h.29.c6f8b9b62e8fdc007f8b5f40c1f7e95d
                           .group:00000000 wm4.riic_iobitmask.h.29.faa52a36e584704b50a2c22ab62c84de
                           .group:00000000 wm4.rspi_iobitmask.h.29.2e257f44186c83ca40dbb0db2548623b
                           .group:00000000 wm4.rtc_iobitmask.h.29.2c82d3237997f1de7d2ac9d93855f3da
                           .group:00000000 wm4.scifa_iobitmask.h.29.c7af830569e0d6a26f3d66e3adc293d7
                           .group:00000000 wm4.scim_iobitmask.h.29.3b5e9d8b03a11c94acd93de96d2037f6
                           .group:00000000 wm4.sdmmc_iobitmask.h.29.21d47a25c0df1ed3d24cd6232ec3b4e7
                           .group:00000000 wm4.spdif_iobitmask.h.29.c16f83f628828ab24aa2b72615b93e69
                           .group:00000000 wm4.spibsc_iobitmask.h.29.8ade4a581f57cd5b82569a69eb5f0d67
                           .group:00000000 wm4.sprite_iobitmask.h.29.82888597faf7ebb3bc86b5f1018a2253
                           .group:00000000 wm4.ssif_iobitmask.h.29.482529b431f1ad627a02168620c61eee
                           .group:00000000 wm4.usb_iobitmask.h.29.aae4dfd463dfdd120bf5855c9dc97483
                           .group:00000000 wm4.vdc6_iobitmask.h.29.3ce0a3f9d2209ce71e4fec48b4ecb79a
                           .group:00000000 wm4.vin_iobitmask.h.29.576a1d6e4b2cf6cbd353044865e437f2
                           .group:00000000 wm4.wdt_iobitmask.h.29.c612db09eac33fb3da8d8aaee67287a9
                           .group:00000000 wm4.rza_io_regrw.h.33.07c1ee176b41ade23637426c80e4b86a
                           .group:00000000 wm4.driver.h.34.180df73e0731406f5e50150641059ede
                           .group:00000000 wm4.r_rza2m_riic_lld_cfg.h.34.420dadece52c9d581310a82d03ef7a9c
                           .group:00000000 wm4.r_rza2m_riic_lld_api.h.36.fbae5305df069aab4ee8737f6b4cc155
                           .group:00000000 wm4.stdio.h.27.3fc80220048df77954e38daec3bb9670
                           .group:00000000 wm4.stddef.h.155.ba788add86a0e365f264484f110c3c29
                           .group:00000000 wm4.stdarg.h.34.3a23a216c0c293b3d2ea2e89281481e6
                           .group:00000000 wm4.types.h.40.8b6acba56cefbb11746718204edc8f5e
                           .group:00000000 wm4._endian.h.31.65a10590763c3dde1ac4a7f66d7d4891
                           .group:00000000 wm4.endian.h.9.49f3a4695c1b61e8a0808de3c4a106cb
                           .group:00000000 wm4._timeval.h.32.bec3221fa7a9bb0bdde696c9c57e47d2
                           .group:00000000 wm4.timespec.h.41.d855182eb0e690443ab8651bcedca6e1
                           .group:00000000 wm4.select.h.19.97ca6fd0c752a0f3b6719fd314d361e6
                           .group:00000000 wm4.types.h.51.5571ec98f267d17d3c670b7a3ba33afa
                           .group:00000000 wm4.sched.h.22.c60982713a5c428609783c78f9c78d95
                           .group:00000000 wm4._pthreadtypes.h.36.fcee9961c35163dde6267ef772ad1972
                           .group:00000000 wm4.stdio.h.2.4aa87247282eca6c8f36f9de33d8df1a
                           .group:00000000 wm4.stdio.h.81.932d0c162786b883f622b8d05c120c78
                           .group:00000000 wm4.stdlib.h.13.4ed386f5c1a80d71e72172885d946ef2
                           .group:00000000 wm4.alloca.h.8.dfc0c703c47ec3e69746825b17d9e66d
                           .group:00000000 wm4.stdlib.h.56.f4862cfbf4363a1db01842d5bdf72c18
                           .group:00000000 wm4.reent.h.91.b3ea049ebc5486622b61409b78486f84
                           .group:00000000 wm4._default_fcntl.h.6.791f38f41eee7843f224ce48f47caa9b
                           .group:00000000 wm4.time.h.8.db4619001f026d0b4874c029fef0e91f
                           .group:00000000 wm4.time.h.2.4581ce0ffb6627cfc02162c94bf846c9
                           .group:00000000 wm4.time.h.25.0e6a0fdbc9955f5707ed54246ed2e089
                           .group:00000000 wm4.time.h.162.85256a1e684b58f061361067da714e0e
                           .group:00000000 wm4.stat.h.54.5a9b823658423102e7a8de4ed089eedc
                           .group:00000000 wm4.fcntl.h.9.9336f33d7f5028f694c75e6e224e0cf7
                           .group:00000000 wm4.r_devlink_wrapper.h.72.ad1de4c851513efa3aed0532ebca7ca2
                           .group:00000000 wm4.r_riic_drv_api.h.81.8cfa166374387345d2e15a569d3903b9
                           .group:00000000 wm4.r_gpio_lld_rza2m.h.35.96c370653fb2c866d018d89b2befa42a
                           .group:00000000 wm4.r_gpio_drv_api.h.82.65cb5059c23a4e3e6bc10574003162e6
                           .group:00000000 wm4.r_riic_drv_sc_cfg.h.61.5b602d36b67415ece823db1792791a3e
                           .group:00000000 wm4.r_intc_lld_rza2m.h.35.148dee33e6a963828fdce2545668b517
                           .group:00000000 wm4.r_rza2m_riic_lld_prv.h.63.f25e9a27396c28527691a5b6942f7c3a
                           .group:00000000 wm4.r_stb_lld_rza2m.h.40.c61d2089eb09a49a0dd94a4e921c320f

UNDEFINED SYMBOLS
__aeabi_uidiv
RZA_IO_RegWrite_32
R_STB_StartModule
interrupt_init
interrupt_uninit
R_STB_StopModule
RZA_IO_RegRead_32
