   1              		.cpu cortex-a9
   2              		.eabi_attribute 28, 1
   3              		.eabi_attribute 20, 1
   4              		.eabi_attribute 21, 1
   5              		.eabi_attribute 23, 3
   6              		.eabi_attribute 24, 1
   7              		.eabi_attribute 25, 1
   8              		.eabi_attribute 26, 1
   9              		.eabi_attribute 30, 1
  10              		.eabi_attribute 34, 0
  11              		.eabi_attribute 18, 4
  12              		.file	"riic_max9867.c"
  13              		.text
  14              	.Ltext0:
  15              		.cfi_sections	.debug_frame
  16              		.section	.rodata.R_CODEC_MAX9867Init.str1.4,"aMS",%progbits,1
  17              		.align	2
  18              	.LC0:
  19 0000 5C5C2E5C 		.ascii	"\\\\.\\riic1\000"
  19      72696963 
  19      3100
  20              		.section	.text.R_CODEC_MAX9867Init,"ax",%progbits
  21              		.align	2
  22              		.global	R_CODEC_MAX9867Init
  23              		.arch armv7-a
  24              		.arch_extension mp
  25              		.arch_extension sec
  26              		.syntax unified
  27              		.arm
  28              		.fpu neon
  30              	R_CODEC_MAX9867Init:
  31              	.LFB3:
  32              		.file 1 "../src/renesas/middle/riic_max9867.c"
   1:../src/renesas/middle/riic_max9867.c **** /*******************************************************************************
   2:../src/renesas/middle/riic_max9867.c **** * DISCLAIMER
   3:../src/renesas/middle/riic_max9867.c **** * This software is supplied by Renesas Electronics Corporation and is only
   4:../src/renesas/middle/riic_max9867.c **** * intended for use with Renesas products. No other uses are authorized. This
   5:../src/renesas/middle/riic_max9867.c **** * software is owned by Renesas Electronics Corporation and is protected under
   6:../src/renesas/middle/riic_max9867.c **** * all applicable laws, including copyright laws.
   7:../src/renesas/middle/riic_max9867.c **** * THIS SOFTWARE IS PROVIDED "AS IS" AND RENESAS MAKES NO WARRANTIES REGARDING
   8:../src/renesas/middle/riic_max9867.c **** * THIS SOFTWARE, WHETHER EXPRESS, IMPLIED OR STATUTORY, INCLUDING BUT NOT
   9:../src/renesas/middle/riic_max9867.c **** * LIMITED TO WARRANTIES OF MERCHANTABILITY, FITNESS FOR A PARTICULAR PURPOSE
  10:../src/renesas/middle/riic_max9867.c **** * AND NON-INFRINGEMENT. ALL SUCH WARRANTIES ARE EXPRESSLY DISCLAIMED.
  11:../src/renesas/middle/riic_max9867.c **** * TO THE MAXIMUM EXTENT PERMITTED NOT PROHIBITED BY LAW, NEITHER RENESAS
  12:../src/renesas/middle/riic_max9867.c **** * ELECTRONICS CORPORATION NOR ANY OF ITS AFFILIATED COMPANIES SHALL BE LIABLE
  13:../src/renesas/middle/riic_max9867.c **** * FOR ANY DIRECT, INDIRECT, SPECIAL, INCIDENTAL OR CONSEQUENTIAL DAMAGES FOR
  14:../src/renesas/middle/riic_max9867.c **** * ANY REASON RELATED TO THIS SOFTWARE, EVEN IF RENESAS OR ITS AFFILIATES HAVE
  15:../src/renesas/middle/riic_max9867.c **** * BEEN ADVISED OF THE POSSIBILITY OF SUCH DAMAGES.
  16:../src/renesas/middle/riic_max9867.c **** * Renesas reserves the right, without notice, to make changes to this software
  17:../src/renesas/middle/riic_max9867.c **** * and to discontinue the availability of this software. By using this software,
  18:../src/renesas/middle/riic_max9867.c **** * you agree to the additional terms and conditions found by accessing the
  19:../src/renesas/middle/riic_max9867.c **** * following link:
  20:../src/renesas/middle/riic_max9867.c **** * http://www.renesas.com/disclaimer
  21:../src/renesas/middle/riic_max9867.c **** * Copyright (C) 2020 Renesas Electronics Corporation. All rights reserved.
  22:../src/renesas/middle/riic_max9867.c **** *******************************************************************************/
  23:../src/renesas/middle/riic_max9867.c **** /*******************************************************************************
  24:../src/renesas/middle/riic_max9867.c **** * File Name   : riic_max9867.c
  25:../src/renesas/middle/riic_max9867.c **** * Description  : This module is sample of Audio codec control program.
  26:../src/renesas/middle/riic_max9867.c **** ******************************************************************************/
  27:../src/renesas/middle/riic_max9867.c **** 
  28:../src/renesas/middle/riic_max9867.c **** /******************************************************************************
  29:../src/renesas/middle/riic_max9867.c **** Includes   <System Includes> , "Project Includes"
  30:../src/renesas/middle/riic_max9867.c **** ******************************************************************************/
  31:../src/renesas/middle/riic_max9867.c **** #include "r_typedefs.h"
  32:../src/renesas/middle/riic_max9867.c **** #include "iodefine.h"
  33:../src/renesas/middle/riic_max9867.c **** #include "r_riic_drv_api.h"
  34:../src/renesas/middle/riic_max9867.c **** 
  35:../src/renesas/middle/riic_max9867.c **** /******************************************************************************
  36:../src/renesas/middle/riic_max9867.c **** Macro definitions
  37:../src/renesas/middle/riic_max9867.c **** ******************************************************************************/
  38:../src/renesas/middle/riic_max9867.c **** #define MAX9867_S_ADDR_WRITE (0x30) /* I2C Slave Address for all write commands */
  39:../src/renesas/middle/riic_max9867.c **** 
  40:../src/renesas/middle/riic_max9867.c **** 
  41:../src/renesas/middle/riic_max9867.c **** /* ==== Register Address ==== */
  42:../src/renesas/middle/riic_max9867.c **** /* STATUS */
  43:../src/renesas/middle/riic_max9867.c **** #define MAX9867_REGADR_STATUS       (0x00u)
  44:../src/renesas/middle/riic_max9867.c **** #define MAX9867_REGADR_JACKSENSE    (0x01u)
  45:../src/renesas/middle/riic_max9867.c **** #define MAX9867_REGADR_AUX_HIGH     (0x02u)
  46:../src/renesas/middle/riic_max9867.c **** #define MAX9867_REGADR_AUX_LOW      (0x03u)
  47:../src/renesas/middle/riic_max9867.c **** #define MAX9867_REGADR_INT_ENABLE   (0x04u)
  48:../src/renesas/middle/riic_max9867.c **** /* CLOCK CONTROL */
  49:../src/renesas/middle/riic_max9867.c **** #define MAX9867_REGADR_SYS_CLOCK    (0x05u)
  50:../src/renesas/middle/riic_max9867.c **** #define MAX9867_REGADR_AUD_CTL_HIGH (0x06u)
  51:../src/renesas/middle/riic_max9867.c **** #define MAX9867_REGADR_AUD_CTL_LOW  (0x07u)
  52:../src/renesas/middle/riic_max9867.c **** /* DIGITAL AUDIO INTERFACE */
  53:../src/renesas/middle/riic_max9867.c **** #define MAX9867_REGADR_INT_MODE1    (0x08u)
  54:../src/renesas/middle/riic_max9867.c **** #define MAX9867_REGADR_INT_MODE2    (0x09u)
  55:../src/renesas/middle/riic_max9867.c **** /* DIGITAL FILTERING */
  56:../src/renesas/middle/riic_max9867.c **** #define MAX9867_REGADR_FILTER       (0x0Au)
  57:../src/renesas/middle/riic_max9867.c **** /* LEVEL CONTROL */
  58:../src/renesas/middle/riic_max9867.c **** #define MAX9867_REGADR_SIDETONE     (0x0Bu)
  59:../src/renesas/middle/riic_max9867.c **** #define MAX9867_REGADR_DAC_LV       (0x0Cu)
  60:../src/renesas/middle/riic_max9867.c **** #define MAX9867_REGADR_ADC_LV       (0x0Du)
  61:../src/renesas/middle/riic_max9867.c **** #define MAX9867_REGADR_LINE_IN_LV_L (0x0Eu)
  62:../src/renesas/middle/riic_max9867.c **** #define MAX9867_REGADR_LINE_IN_LV_R (0x0Fu)
  63:../src/renesas/middle/riic_max9867.c **** #define MAX9867_REGADR_VOL_L        (0x10u)
  64:../src/renesas/middle/riic_max9867.c **** #define MAX9867_REGADR_VOL_R        (0x11u)
  65:../src/renesas/middle/riic_max9867.c **** #define MAX9867_REGADR_MIC_GAIN_L   (0x12u)
  66:../src/renesas/middle/riic_max9867.c **** #define MAX9867_REGADR_MIC_GAIN_R   (0x13u)
  67:../src/renesas/middle/riic_max9867.c **** /* CONFIGURATION */
  68:../src/renesas/middle/riic_max9867.c **** #define MAX9867_REGADR_ADC_INPUT    (0x14u)
  69:../src/renesas/middle/riic_max9867.c **** #define MAX9867_REGADR_MIC          (0x15u)
  70:../src/renesas/middle/riic_max9867.c **** #define MAX9867_REGADR_MODE         (0x16u)
  71:../src/renesas/middle/riic_max9867.c **** /* POWER MANAGEMENT */
  72:../src/renesas/middle/riic_max9867.c **** #define MAX9867_REGADR_SYS_DOWN     (0x17u)
  73:../src/renesas/middle/riic_max9867.c **** #define MAX9867_REGADR_REVISION     (0xFFu)
  74:../src/renesas/middle/riic_max9867.c **** 
  75:../src/renesas/middle/riic_max9867.c **** /* ==== Register Setting Value ==== */
  76:../src/renesas/middle/riic_max9867.c **** /* RESET */
  77:../src/renesas/middle/riic_max9867.c **** #define MAX9867_RESET_INI_VALUE      (0x80u)  /* SHDN=1,LNLEN=0,LNREN=0,DALEN=0,DAREN=0,ADLEN=0,ADR
  78:../src/renesas/middle/riic_max9867.c **** #define MAX9867_PW_ON_VALUE          (0x0Eu)  /* SHDN=0,LNLEN=0,LNREN=0,DALEN=1,DAREN=1,ADLEN=1,ADR
  79:../src/renesas/middle/riic_max9867.c **** /* Frequency */
  80:../src/renesas/middle/riic_max9867.c **** #define MAX9867_FREQ_48000_HIGH      (0x624Eu)
  81:../src/renesas/middle/riic_max9867.c **** #define MAX9867_FREQ_44100_HIGH      (0x5A51u)
  82:../src/renesas/middle/riic_max9867.c **** #define MAX9867_FREQ_32000_HIGH      (0x4189u)
  83:../src/renesas/middle/riic_max9867.c **** #define MAX9867_FREQ_24000_HIGH      (0x3127u)
  84:../src/renesas/middle/riic_max9867.c **** #define MAX9867_FREQ_16000_HIGH      (0x20C5u)
  85:../src/renesas/middle/riic_max9867.c **** #define MAX9867_FREQ_8000_HIGH       (0x1062u)
  86:../src/renesas/middle/riic_max9867.c **** 
  87:../src/renesas/middle/riic_max9867.c **** /******************************************************************************
  88:../src/renesas/middle/riic_max9867.c **** Typedef definitions
  89:../src/renesas/middle/riic_max9867.c **** ******************************************************************************/
  90:../src/renesas/middle/riic_max9867.c **** 
  91:../src/renesas/middle/riic_max9867.c **** 
  92:../src/renesas/middle/riic_max9867.c **** /******************************************************************************
  93:../src/renesas/middle/riic_max9867.c **** Imported global variables and functions (from other files)
  94:../src/renesas/middle/riic_max9867.c **** ******************************************************************************/
  95:../src/renesas/middle/riic_max9867.c **** 
  96:../src/renesas/middle/riic_max9867.c **** 
  97:../src/renesas/middle/riic_max9867.c **** /******************************************************************************
  98:../src/renesas/middle/riic_max9867.c **** Private global variables and functions
  99:../src/renesas/middle/riic_max9867.c **** ******************************************************************************/
 100:../src/renesas/middle/riic_max9867.c **** 
 101:../src/renesas/middle/riic_max9867.c **** /******************************************************************************
 102:../src/renesas/middle/riic_max9867.c **** * Function Name: R_CODEC_MAX9867Init
 103:../src/renesas/middle/riic_max9867.c **** * Description  : MAX9867 initialization
 104:../src/renesas/middle/riic_max9867.c **** * Arguments    : none
 105:../src/renesas/middle/riic_max9867.c **** * Return Value : none
 106:../src/renesas/middle/riic_max9867.c **** ******************************************************************************/
 107:../src/renesas/middle/riic_max9867.c **** void R_CODEC_MAX9867Init(void)
 108:../src/renesas/middle/riic_max9867.c **** {
  33              		.loc 1 108 1 view -0
  34              		.cfi_startproc
  35              		@ args = 0, pretend = 0, frame = 24
  36              		@ frame_needed = 0, uses_anonymous_args = 0
  37 0000 F04F2DE9 		push	{r4, r5, r6, r7, r8, r9, r10, fp, lr}
  38              		.cfi_def_cfa_offset 36
  39              		.cfi_offset 4, -36
  40              		.cfi_offset 5, -32
  41              		.cfi_offset 6, -28
  42              		.cfi_offset 7, -24
  43              		.cfi_offset 8, -20
  44              		.cfi_offset 9, -16
  45              		.cfi_offset 10, -12
  46              		.cfi_offset 11, -8
  47              		.cfi_offset 14, -4
  48 0004 1CD04DE2 		sub	sp, sp, #28
  49              		.cfi_def_cfa_offset 64
 109:../src/renesas/middle/riic_max9867.c ****     uint8_t        reg_addr;
  50              		.loc 1 109 5 view .LVU1
 110:../src/renesas/middle/riic_max9867.c ****     uint8_t        reg_data;
  51              		.loc 1 110 5 view .LVU2
 111:../src/renesas/middle/riic_max9867.c ****     int_t          handle;
  52              		.loc 1 111 5 view .LVU3
 112:../src/renesas/middle/riic_max9867.c ****     uint8_t        cmd[5] = {0};
  53              		.loc 1 112 5 view .LVU4
  54              		.loc 1 112 20 is_stmt 0 view .LVU5
  55 0008 0090A0E3 		mov	r9, #0
  56 000c 10908DE5 		str	r9, [sp, #16]
  57 0010 1490CDE5 		strb	r9, [sp, #20]
 113:../src/renesas/middle/riic_max9867.c ****     st_r_drv_riic_transfer_t i2c_write;
  58              		.loc 1 113 5 is_stmt 1 view .LVU6
 114:../src/renesas/middle/riic_max9867.c ****     uint16_t       lrclk;
  59              		.loc 1 114 5 view .LVU7
 115:../src/renesas/middle/riic_max9867.c ****     int_t          ret;
  60              		.loc 1 115 5 view .LVU8
 116:../src/renesas/middle/riic_max9867.c ****     
 117:../src/renesas/middle/riic_max9867.c ****     handle = open(DEVICE_INDENTIFIER "riic1", O_RDWR);
  61              		.loc 1 117 5 view .LVU9
  62              		.loc 1 117 14 is_stmt 0 view .LVU10
  63 0014 0210A0E3 		mov	r1, #2
  64 0018 000000E3 		movw	r0, #:lower16:.LC0
  65 001c 000040E3 		movt	r0, #:upper16:.LC0
  66 0020 FEFFFFEB 		bl	open
  67              	.LVL0:
  68 0024 0050A0E1 		mov	r5, r0
  69              	.LVL1:
 118:../src/renesas/middle/riic_max9867.c **** 
 119:../src/renesas/middle/riic_max9867.c ****     /* ==== Soft Reset ==== */
 120:../src/renesas/middle/riic_max9867.c ****     cmd[0] = 0x80;    /* SHDN=1,LNLEN=0,LNREN=0,DALEN=0,DAREN=0,ADLEN=0,ADREN=0 */
  70              		.loc 1 120 5 is_stmt 1 view .LVU11
  71              		.loc 1 120 12 is_stmt 0 view .LVU12
  72 0028 7F30E0E3 		mvn	r3, #127
  73 002c 1030CDE5 		strb	r3, [sp, #16]
 121:../src/renesas/middle/riic_max9867.c ****     
 122:../src/renesas/middle/riic_max9867.c ****     i2c_write.device_address = MAX9867_S_ADDR_WRITE;
  74              		.loc 1 122 5 is_stmt 1 view .LVU13
  75              		.loc 1 122 30 is_stmt 0 view .LVU14
  76 0030 3070A0E3 		mov	r7, #48
  77 0034 B070CDE1 		strh	r7, [sp]	@ movhi
 123:../src/renesas/middle/riic_max9867.c ****     i2c_write.sub_address_type = RIIC_SUB_ADDR_WIDTH_8_BITS;
  78              		.loc 1 123 5 is_stmt 1 view .LVU15
  79              		.loc 1 123 32 is_stmt 0 view .LVU16
  80 0038 0140A0E3 		mov	r4, #1
  81 003c 0240CDE5 		strb	r4, [sp, #2]
 124:../src/renesas/middle/riic_max9867.c ****     i2c_write.sub_address = 0x17;
  82              		.loc 1 124 5 is_stmt 1 view .LVU17
  83              		.loc 1 124 27 is_stmt 0 view .LVU18
  84 0040 1730A0E3 		mov	r3, #23
  85 0044 04308DE5 		str	r3, [sp, #4]
 125:../src/renesas/middle/riic_max9867.c ****     i2c_write.number_of_bytes = 1;
  86              		.loc 1 125 5 is_stmt 1 view .LVU19
  87              		.loc 1 125 31 is_stmt 0 view .LVU20
  88 0048 08408DE5 		str	r4, [sp, #8]
 126:../src/renesas/middle/riic_max9867.c ****     i2c_write.p_data_buffer = cmd;
  89              		.loc 1 126 5 is_stmt 1 view .LVU21
  90              		.loc 1 126 29 is_stmt 0 view .LVU22
  91 004c 10608DE2 		add	r6, sp, #16
  92 0050 0C608DE5 		str	r6, [sp, #12]
 127:../src/renesas/middle/riic_max9867.c ****     ret = control(handle, CTL_RIIC_WRITE, &i2c_write);
  93              		.loc 1 127 5 is_stmt 1 view .LVU23
  94              		.loc 1 127 11 is_stmt 0 view .LVU24
  95 0054 0D20A0E1 		mov	r2, sp
  96 0058 0410A0E3 		mov	r1, #4
  97 005c FEFFFFEB 		bl	control
  98              	.LVL2:
 128:../src/renesas/middle/riic_max9867.c **** 
 129:../src/renesas/middle/riic_max9867.c ****     /* ==== Frequency Setting ==== */
 130:../src/renesas/middle/riic_max9867.c ****     lrclk = 0x5A51;   /* 44.1kHz */
  99              		.loc 1 130 5 is_stmt 1 view .LVU25
 131:../src/renesas/middle/riic_max9867.c ****     cmd[0] = 0x10;    /* PSCLK = 00  FREQ = 0x0 */
 100              		.loc 1 131 5 view .LVU26
 101              		.loc 1 131 12 is_stmt 0 view .LVU27
 102 0060 1030A0E3 		mov	r3, #16
 103 0064 1030CDE5 		strb	r3, [sp, #16]
 132:../src/renesas/middle/riic_max9867.c ****     cmd[1] = (uint8_t)(lrclk >> 8);
 104              		.loc 1 132 5 is_stmt 1 view .LVU28
 105              		.loc 1 132 12 is_stmt 0 view .LVU29
 106 0068 5A30A0E3 		mov	r3, #90
 107 006c 1130CDE5 		strb	r3, [sp, #17]
 133:../src/renesas/middle/riic_max9867.c ****     cmd[2] = (uint8_t)(lrclk);
 108              		.loc 1 133 5 is_stmt 1 view .LVU30
 109              		.loc 1 133 12 is_stmt 0 view .LVU31
 110 0070 5130A0E3 		mov	r3, #81
 111 0074 1230CDE5 		strb	r3, [sp, #18]
 134:../src/renesas/middle/riic_max9867.c **** 
 135:../src/renesas/middle/riic_max9867.c ****     i2c_write.device_address = MAX9867_S_ADDR_WRITE;
 112              		.loc 1 135 5 is_stmt 1 view .LVU32
 113              		.loc 1 135 30 is_stmt 0 view .LVU33
 114 0078 B070CDE1 		strh	r7, [sp]	@ movhi
 136:../src/renesas/middle/riic_max9867.c ****     i2c_write.sub_address_type = RIIC_SUB_ADDR_WIDTH_8_BITS;
 115              		.loc 1 136 5 is_stmt 1 view .LVU34
 116              		.loc 1 136 32 is_stmt 0 view .LVU35
 117 007c 0240CDE5 		strb	r4, [sp, #2]
 137:../src/renesas/middle/riic_max9867.c ****     i2c_write.sub_address = 0x05;
 118              		.loc 1 137 5 is_stmt 1 view .LVU36
 119              		.loc 1 137 27 is_stmt 0 view .LVU37
 120 0080 0530A0E3 		mov	r3, #5
 121 0084 04308DE5 		str	r3, [sp, #4]
 138:../src/renesas/middle/riic_max9867.c ****     i2c_write.number_of_bytes = 3;
 122              		.loc 1 138 5 is_stmt 1 view .LVU38
 123              		.loc 1 138 31 is_stmt 0 view .LVU39
 124 0088 0320A0E3 		mov	r2, #3
 125 008c 08208DE5 		str	r2, [sp, #8]
 139:../src/renesas/middle/riic_max9867.c ****     i2c_write.p_data_buffer = cmd;
 126              		.loc 1 139 5 is_stmt 1 view .LVU40
 127              		.loc 1 139 29 is_stmt 0 view .LVU41
 128 0090 0C608DE5 		str	r6, [sp, #12]
 140:../src/renesas/middle/riic_max9867.c ****     ret = control(handle, CTL_RIIC_WRITE, &i2c_write);
 129              		.loc 1 140 5 is_stmt 1 view .LVU42
 130              		.loc 1 140 11 is_stmt 0 view .LVU43
 131 0094 0D20A0E1 		mov	r2, sp
 132 0098 0410A0E3 		mov	r1, #4
 133 009c 0500A0E1 		mov	r0, r5
 134 00a0 FEFFFFEB 		bl	control
 135              	.LVL3:
 141:../src/renesas/middle/riic_max9867.c ****     
 142:../src/renesas/middle/riic_max9867.c ****     /* ==== Digital Interface Setting ==== */
 143:../src/renesas/middle/riic_max9867.c ****     /* Interrupt Enable */
 144:../src/renesas/middle/riic_max9867.c ****     cmd[0] = 0x00;    /*ICLE=0,ISLD=0,IULK=0,SDODLY=0,IJDET=0*/
 136              		.loc 1 144 5 is_stmt 1 view .LVU44
 137              		.loc 1 144 12 is_stmt 0 view .LVU45
 138 00a4 1090CDE5 		strb	r9, [sp, #16]
 145:../src/renesas/middle/riic_max9867.c **** 
 146:../src/renesas/middle/riic_max9867.c ****     i2c_write.device_address = MAX9867_S_ADDR_WRITE;
 139              		.loc 1 146 5 is_stmt 1 view .LVU46
 140              		.loc 1 146 30 is_stmt 0 view .LVU47
 141 00a8 B070CDE1 		strh	r7, [sp]	@ movhi
 147:../src/renesas/middle/riic_max9867.c ****     i2c_write.sub_address_type = RIIC_SUB_ADDR_WIDTH_8_BITS;
 142              		.loc 1 147 5 is_stmt 1 view .LVU48
 143              		.loc 1 147 32 is_stmt 0 view .LVU49
 144 00ac 0240CDE5 		strb	r4, [sp, #2]
 148:../src/renesas/middle/riic_max9867.c ****     i2c_write.sub_address = 0x04;
 145              		.loc 1 148 5 is_stmt 1 view .LVU50
 146              		.loc 1 148 27 is_stmt 0 view .LVU51
 147 00b0 0480A0E3 		mov	r8, #4
 148 00b4 04808DE5 		str	r8, [sp, #4]
 149:../src/renesas/middle/riic_max9867.c ****     i2c_write.number_of_bytes = 1;
 149              		.loc 1 149 5 is_stmt 1 view .LVU52
 150              		.loc 1 149 31 is_stmt 0 view .LVU53
 151 00b8 08408DE5 		str	r4, [sp, #8]
 150:../src/renesas/middle/riic_max9867.c ****     i2c_write.p_data_buffer = cmd;
 152              		.loc 1 150 5 is_stmt 1 view .LVU54
 153              		.loc 1 150 29 is_stmt 0 view .LVU55
 154 00bc 0C608DE5 		str	r6, [sp, #12]
 151:../src/renesas/middle/riic_max9867.c ****     ret = control(handle, CTL_RIIC_WRITE, &i2c_write);
 155              		.loc 1 151 5 is_stmt 1 view .LVU56
 156              		.loc 1 151 11 is_stmt 0 view .LVU57
 157 00c0 0D20A0E1 		mov	r2, sp
 158 00c4 0810A0E1 		mov	r1, r8
 159 00c8 0500A0E1 		mov	r0, r5
 160 00cc FEFFFFEB 		bl	control
 161              	.LVL4:
 152:../src/renesas/middle/riic_max9867.c ****     
 153:../src/renesas/middle/riic_max9867.c ****     /* Interface Mode */
 154:../src/renesas/middle/riic_max9867.c ****     cmd[0] = 0x90;    /* MAS=1,WCI=0,BCI=0,DLY=1,HIZOFF=0,TDM=0 */
 162              		.loc 1 154 5 is_stmt 1 view .LVU58
 163              		.loc 1 154 12 is_stmt 0 view .LVU59
 164 00d0 6F30E0E3 		mvn	r3, #111
 165 00d4 1030CDE5 		strb	r3, [sp, #16]
 155:../src/renesas/middle/riic_max9867.c ****     cmd[1] = 0x02;    /* LVOLFIX=0,DMONO=0,BSEL=010 */
 166              		.loc 1 155 5 is_stmt 1 view .LVU60
 167              		.loc 1 155 12 is_stmt 0 view .LVU61
 168 00d8 02A0A0E3 		mov	r10, #2
 169 00dc 11A0CDE5 		strb	r10, [sp, #17]
 156:../src/renesas/middle/riic_max9867.c **** 
 157:../src/renesas/middle/riic_max9867.c ****     i2c_write.device_address = MAX9867_S_ADDR_WRITE;
 170              		.loc 1 157 5 is_stmt 1 view .LVU62
 171              		.loc 1 157 30 is_stmt 0 view .LVU63
 172 00e0 B070CDE1 		strh	r7, [sp]	@ movhi
 158:../src/renesas/middle/riic_max9867.c ****     i2c_write.sub_address_type = RIIC_SUB_ADDR_WIDTH_8_BITS;
 173              		.loc 1 158 5 is_stmt 1 view .LVU64
 174              		.loc 1 158 32 is_stmt 0 view .LVU65
 175 00e4 0240CDE5 		strb	r4, [sp, #2]
 159:../src/renesas/middle/riic_max9867.c ****     i2c_write.sub_address = 0x08;
 176              		.loc 1 159 5 is_stmt 1 view .LVU66
 177              		.loc 1 159 27 is_stmt 0 view .LVU67
 178 00e8 0830A0E3 		mov	r3, #8
 179 00ec 04308DE5 		str	r3, [sp, #4]
 160:../src/renesas/middle/riic_max9867.c ****     i2c_write.number_of_bytes = 2;
 180              		.loc 1 160 5 is_stmt 1 view .LVU68
 181              		.loc 1 160 31 is_stmt 0 view .LVU69
 182 00f0 08A08DE5 		str	r10, [sp, #8]
 161:../src/renesas/middle/riic_max9867.c ****     i2c_write.p_data_buffer = cmd;
 183              		.loc 1 161 5 is_stmt 1 view .LVU70
 184              		.loc 1 161 29 is_stmt 0 view .LVU71
 185 00f4 0C608DE5 		str	r6, [sp, #12]
 162:../src/renesas/middle/riic_max9867.c ****     ret = control(handle, CTL_RIIC_WRITE, &i2c_write);
 186              		.loc 1 162 5 is_stmt 1 view .LVU72
 187              		.loc 1 162 11 is_stmt 0 view .LVU73
 188 00f8 0D20A0E1 		mov	r2, sp
 189 00fc 0810A0E1 		mov	r1, r8
 190 0100 0500A0E1 		mov	r0, r5
 191 0104 FEFFFFEB 		bl	control
 192              	.LVL5:
 163:../src/renesas/middle/riic_max9867.c **** 
 164:../src/renesas/middle/riic_max9867.c ****     /* Digital Gain Control */
 165:../src/renesas/middle/riic_max9867.c ****     cmd[0] = 0x00;    /* DSTS=0,DVST=0 */
 193              		.loc 1 165 5 is_stmt 1 view .LVU74
 194              		.loc 1 165 12 is_stmt 0 view .LVU75
 195 0108 1090CDE5 		strb	r9, [sp, #16]
 166:../src/renesas/middle/riic_max9867.c **** 
 167:../src/renesas/middle/riic_max9867.c ****     i2c_write.device_address = MAX9867_S_ADDR_WRITE;
 196              		.loc 1 167 5 is_stmt 1 view .LVU76
 197              		.loc 1 167 30 is_stmt 0 view .LVU77
 198 010c B070CDE1 		strh	r7, [sp]	@ movhi
 168:../src/renesas/middle/riic_max9867.c ****     i2c_write.sub_address_type = RIIC_SUB_ADDR_WIDTH_8_BITS;
 199              		.loc 1 168 5 is_stmt 1 view .LVU78
 200              		.loc 1 168 32 is_stmt 0 view .LVU79
 201 0110 0240CDE5 		strb	r4, [sp, #2]
 169:../src/renesas/middle/riic_max9867.c ****     i2c_write.sub_address = 0x0B;
 202              		.loc 1 169 5 is_stmt 1 view .LVU80
 203              		.loc 1 169 27 is_stmt 0 view .LVU81
 204 0114 0B30A0E3 		mov	r3, #11
 205 0118 04308DE5 		str	r3, [sp, #4]
 170:../src/renesas/middle/riic_max9867.c ****     i2c_write.number_of_bytes = 1;
 206              		.loc 1 170 5 is_stmt 1 view .LVU82
 207              		.loc 1 170 31 is_stmt 0 view .LVU83
 208 011c 08408DE5 		str	r4, [sp, #8]
 171:../src/renesas/middle/riic_max9867.c ****     i2c_write.p_data_buffer = cmd;
 209              		.loc 1 171 5 is_stmt 1 view .LVU84
 210              		.loc 1 171 29 is_stmt 0 view .LVU85
 211 0120 0C608DE5 		str	r6, [sp, #12]
 172:../src/renesas/middle/riic_max9867.c ****     ret = control(handle, CTL_RIIC_WRITE, &i2c_write);
 212              		.loc 1 172 5 is_stmt 1 view .LVU86
 213              		.loc 1 172 11 is_stmt 0 view .LVU87
 214 0124 0D20A0E1 		mov	r2, sp
 215 0128 0810A0E1 		mov	r1, r8
 216 012c 0500A0E1 		mov	r0, r5
 217 0130 FEFFFFEB 		bl	control
 218              	.LVL6:
 173:../src/renesas/middle/riic_max9867.c **** 
 174:../src/renesas/middle/riic_max9867.c ****     /* Line Input Registers */
 175:../src/renesas/middle/riic_max9867.c ****     cmd[0] = 0x40;    /* LILM=1,LIGL=0x00 */
 219              		.loc 1 175 5 is_stmt 1 view .LVU88
 220              		.loc 1 175 12 is_stmt 0 view .LVU89
 221 0134 40B0A0E3 		mov	fp, #64
 222 0138 10B0CDE5 		strb	fp, [sp, #16]
 176:../src/renesas/middle/riic_max9867.c ****     cmd[1] = 0x40;    /* LIRM=1,LIGR=0x00 */
 223              		.loc 1 176 5 is_stmt 1 view .LVU90
 224              		.loc 1 176 12 is_stmt 0 view .LVU91
 225 013c 11B0CDE5 		strb	fp, [sp, #17]
 177:../src/renesas/middle/riic_max9867.c **** 
 178:../src/renesas/middle/riic_max9867.c ****     i2c_write.device_address = MAX9867_S_ADDR_WRITE;
 226              		.loc 1 178 5 is_stmt 1 view .LVU92
 227              		.loc 1 178 30 is_stmt 0 view .LVU93
 228 0140 B070CDE1 		strh	r7, [sp]	@ movhi
 179:../src/renesas/middle/riic_max9867.c ****     i2c_write.sub_address_type = RIIC_SUB_ADDR_WIDTH_8_BITS;
 229              		.loc 1 179 5 is_stmt 1 view .LVU94
 230              		.loc 1 179 32 is_stmt 0 view .LVU95
 231 0144 0240CDE5 		strb	r4, [sp, #2]
 180:../src/renesas/middle/riic_max9867.c ****     i2c_write.sub_address = 0x0E;
 232              		.loc 1 180 5 is_stmt 1 view .LVU96
 233              		.loc 1 180 27 is_stmt 0 view .LVU97
 234 0148 0E30A0E3 		mov	r3, #14
 235 014c 04308DE5 		str	r3, [sp, #4]
 181:../src/renesas/middle/riic_max9867.c ****     i2c_write.number_of_bytes = 2;
 236              		.loc 1 181 5 is_stmt 1 view .LVU98
 237              		.loc 1 181 31 is_stmt 0 view .LVU99
 238 0150 08A08DE5 		str	r10, [sp, #8]
 182:../src/renesas/middle/riic_max9867.c ****     i2c_write.p_data_buffer = cmd;
 239              		.loc 1 182 5 is_stmt 1 view .LVU100
 240              		.loc 1 182 29 is_stmt 0 view .LVU101
 241 0154 0C608DE5 		str	r6, [sp, #12]
 183:../src/renesas/middle/riic_max9867.c ****     ret = control(handle, CTL_RIIC_WRITE, &i2c_write);
 242              		.loc 1 183 5 is_stmt 1 view .LVU102
 243              		.loc 1 183 11 is_stmt 0 view .LVU103
 244 0158 0D20A0E1 		mov	r2, sp
 245 015c 0810A0E1 		mov	r1, r8
 246 0160 0500A0E1 		mov	r0, r5
 247 0164 FEFFFFEB 		bl	control
 248              	.LVL7:
 184:../src/renesas/middle/riic_max9867.c **** 
 185:../src/renesas/middle/riic_max9867.c ****     /* Microphone Input Registers */
 186:../src/renesas/middle/riic_max9867.c ****     cmd[0] = 0x45;    /* +35dB: PALEN=10(+20dB),PGAML=0x05(+15dB) */
 249              		.loc 1 186 5 is_stmt 1 view .LVU104
 250              		.loc 1 186 12 is_stmt 0 view .LVU105
 251 0168 4530A0E3 		mov	r3, #69
 252 016c 1030CDE5 		strb	r3, [sp, #16]
 187:../src/renesas/middle/riic_max9867.c ****     cmd[1] = 0x00;    /* Right Microphone Gain PAREN=00,PGAMR=0x00 */
 253              		.loc 1 187 5 is_stmt 1 view .LVU106
 254              		.loc 1 187 12 is_stmt 0 view .LVU107
 255 0170 1190CDE5 		strb	r9, [sp, #17]
 188:../src/renesas/middle/riic_max9867.c **** 
 189:../src/renesas/middle/riic_max9867.c ****     i2c_write.device_address = MAX9867_S_ADDR_WRITE;
 256              		.loc 1 189 5 is_stmt 1 view .LVU108
 257              		.loc 1 189 30 is_stmt 0 view .LVU109
 258 0174 B070CDE1 		strh	r7, [sp]	@ movhi
 190:../src/renesas/middle/riic_max9867.c ****     i2c_write.sub_address_type = RIIC_SUB_ADDR_WIDTH_8_BITS;
 259              		.loc 1 190 5 is_stmt 1 view .LVU110
 260              		.loc 1 190 32 is_stmt 0 view .LVU111
 261 0178 0240CDE5 		strb	r4, [sp, #2]
 191:../src/renesas/middle/riic_max9867.c ****     i2c_write.sub_address = 0x12;
 262              		.loc 1 191 5 is_stmt 1 view .LVU112
 263              		.loc 1 191 27 is_stmt 0 view .LVU113
 264 017c 1230A0E3 		mov	r3, #18
 265 0180 04308DE5 		str	r3, [sp, #4]
 192:../src/renesas/middle/riic_max9867.c ****     i2c_write.number_of_bytes = 2;
 266              		.loc 1 192 5 is_stmt 1 view .LVU114
 267              		.loc 1 192 31 is_stmt 0 view .LVU115
 268 0184 08A08DE5 		str	r10, [sp, #8]
 193:../src/renesas/middle/riic_max9867.c ****     i2c_write.p_data_buffer = cmd;
 269              		.loc 1 193 5 is_stmt 1 view .LVU116
 270              		.loc 1 193 29 is_stmt 0 view .LVU117
 271 0188 0C608DE5 		str	r6, [sp, #12]
 194:../src/renesas/middle/riic_max9867.c ****     ret = control(handle, CTL_RIIC_WRITE, &i2c_write);
 272              		.loc 1 194 5 is_stmt 1 view .LVU118
 273              		.loc 1 194 11 is_stmt 0 view .LVU119
 274 018c 0D20A0E1 		mov	r2, sp
 275 0190 0810A0E1 		mov	r1, r8
 276 0194 0500A0E1 		mov	r0, r5
 277 0198 FEFFFFEB 		bl	control
 278              	.LVL8:
 195:../src/renesas/middle/riic_max9867.c **** 
 196:../src/renesas/middle/riic_max9867.c ****     /* CONFIGURATION */
 197:../src/renesas/middle/riic_max9867.c ****     cmd[0] = 0x40;    /* MXINL=01,MXINR=00,AUXCAP=0,AUXGAIN=0,AUXCAL=0,AUXEN= */
 279              		.loc 1 197 5 is_stmt 1 view .LVU120
 280              		.loc 1 197 12 is_stmt 0 view .LVU121
 281 019c 10B0CDE5 		strb	fp, [sp, #16]
 198:../src/renesas/middle/riic_max9867.c ****     cmd[1] = 0x00;    /* MICCLK=0,DIGMICL=0,DIGMICR=0 */
 282              		.loc 1 198 5 is_stmt 1 view .LVU122
 283              		.loc 1 198 12 is_stmt 0 view .LVU123
 284 01a0 1190CDE5 		strb	r9, [sp, #17]
 199:../src/renesas/middle/riic_max9867.c ****     cmd[2] = 0x02;    /* DSLEW=0,VSEN=0,ZDEN=0,JDETEN=0,HPMODE=000 */
 285              		.loc 1 199 5 is_stmt 1 view .LVU124
 286              		.loc 1 199 12 is_stmt 0 view .LVU125
 287 01a4 12A0CDE5 		strb	r10, [sp, #18]
 200:../src/renesas/middle/riic_max9867.c **** 
 201:../src/renesas/middle/riic_max9867.c ****     i2c_write.device_address = MAX9867_S_ADDR_WRITE;
 288              		.loc 1 201 5 is_stmt 1 view .LVU126
 289              		.loc 1 201 30 is_stmt 0 view .LVU127
 290 01a8 B070CDE1 		strh	r7, [sp]	@ movhi
 202:../src/renesas/middle/riic_max9867.c ****     i2c_write.sub_address_type = RIIC_SUB_ADDR_WIDTH_8_BITS;
 291              		.loc 1 202 5 is_stmt 1 view .LVU128
 292              		.loc 1 202 32 is_stmt 0 view .LVU129
 293 01ac 0240CDE5 		strb	r4, [sp, #2]
 203:../src/renesas/middle/riic_max9867.c ****     i2c_write.sub_address = 0x14;
 294              		.loc 1 203 5 is_stmt 1 view .LVU130
 295              		.loc 1 203 27 is_stmt 0 view .LVU131
 296 01b0 1430A0E3 		mov	r3, #20
 297 01b4 04308DE5 		str	r3, [sp, #4]
 204:../src/renesas/middle/riic_max9867.c ****     i2c_write.number_of_bytes = 3;
 298              		.loc 1 204 5 is_stmt 1 view .LVU132
 299              		.loc 1 204 31 is_stmt 0 view .LVU133
 300 01b8 0320A0E3 		mov	r2, #3
 301 01bc 08208DE5 		str	r2, [sp, #8]
 205:../src/renesas/middle/riic_max9867.c ****     i2c_write.p_data_buffer = cmd;
 302              		.loc 1 205 5 is_stmt 1 view .LVU134
 303              		.loc 1 205 29 is_stmt 0 view .LVU135
 304 01c0 0C608DE5 		str	r6, [sp, #12]
 206:../src/renesas/middle/riic_max9867.c ****     ret = control(handle, CTL_RIIC_WRITE, &i2c_write);
 305              		.loc 1 206 5 is_stmt 1 view .LVU136
 306              		.loc 1 206 11 is_stmt 0 view .LVU137
 307 01c4 0D20A0E1 		mov	r2, sp
 308 01c8 0810A0E1 		mov	r1, r8
 309 01cc 0500A0E1 		mov	r0, r5
 310 01d0 FEFFFFEB 		bl	control
 311              	.LVL9:
 207:../src/renesas/middle/riic_max9867.c **** 
 208:../src/renesas/middle/riic_max9867.c ****     /* ==== Power ON ==== */
 209:../src/renesas/middle/riic_max9867.c ****     cmd[0] = 0x8E;    /* SHDN=1,LNLEN=0,LNREN=0,DALEN=1,DAREN=1,ADLEN=1,ADREN=0 */
 312              		.loc 1 209 5 is_stmt 1 view .LVU138
 313              		.loc 1 209 12 is_stmt 0 view .LVU139
 314 01d4 7130E0E3 		mvn	r3, #113
 315 01d8 1030CDE5 		strb	r3, [sp, #16]
 210:../src/renesas/middle/riic_max9867.c ****     
 211:../src/renesas/middle/riic_max9867.c ****     i2c_write.device_address = MAX9867_S_ADDR_WRITE;
 316              		.loc 1 211 5 is_stmt 1 view .LVU140
 317              		.loc 1 211 30 is_stmt 0 view .LVU141
 318 01dc B070CDE1 		strh	r7, [sp]	@ movhi
 212:../src/renesas/middle/riic_max9867.c ****     i2c_write.sub_address_type = RIIC_SUB_ADDR_WIDTH_8_BITS;
 319              		.loc 1 212 5 is_stmt 1 view .LVU142
 320              		.loc 1 212 32 is_stmt 0 view .LVU143
 321 01e0 0240CDE5 		strb	r4, [sp, #2]
 213:../src/renesas/middle/riic_max9867.c ****     i2c_write.sub_address = 0x17;
 322              		.loc 1 213 5 is_stmt 1 view .LVU144
 323              		.loc 1 213 27 is_stmt 0 view .LVU145
 324 01e4 1730A0E3 		mov	r3, #23
 325 01e8 04308DE5 		str	r3, [sp, #4]
 214:../src/renesas/middle/riic_max9867.c ****     i2c_write.number_of_bytes = 1;
 326              		.loc 1 214 5 is_stmt 1 view .LVU146
 327              		.loc 1 214 31 is_stmt 0 view .LVU147
 328 01ec 08408DE5 		str	r4, [sp, #8]
 215:../src/renesas/middle/riic_max9867.c ****     i2c_write.p_data_buffer = cmd;
 329              		.loc 1 215 5 is_stmt 1 view .LVU148
 330              		.loc 1 215 29 is_stmt 0 view .LVU149
 331 01f0 0C608DE5 		str	r6, [sp, #12]
 216:../src/renesas/middle/riic_max9867.c ****     ret = control(handle, CTL_RIIC_WRITE, &i2c_write);
 332              		.loc 1 216 5 is_stmt 1 view .LVU150
 333              		.loc 1 216 11 is_stmt 0 view .LVU151
 334 01f4 0D20A0E1 		mov	r2, sp
 335 01f8 0810A0E1 		mov	r1, r8
 336 01fc 0500A0E1 		mov	r0, r5
 337 0200 FEFFFFEB 		bl	control
 338              	.LVL10:
 217:../src/renesas/middle/riic_max9867.c **** 
 218:../src/renesas/middle/riic_max9867.c ****     close(handle);
 339              		.loc 1 218 5 is_stmt 1 view .LVU152
 340 0204 0500A0E1 		mov	r0, r5
 341 0208 FEFFFFEB 		bl	close
 342              	.LVL11:
 219:../src/renesas/middle/riic_max9867.c **** }
 343              		.loc 1 219 1 is_stmt 0 view .LVU153
 344 020c 1CD08DE2 		add	sp, sp, #28
 345              		.cfi_def_cfa_offset 36
 346              		@ sp needed
 347 0210 F08FBDE8 		pop	{r4, r5, r6, r7, r8, r9, r10, fp, pc}
 348              		.loc 1 219 1 view .LVU154
 349              		.cfi_endproc
 350              	.LFE3:
 352              		.text
 353              	.Letext0:
 354              		.file 2 "c:\\program files (x86)\\gnu arm embedded toolchain\\9 2020-q2-update\\arm-none-eabi\\inc
 355              		.file 3 "c:\\program files (x86)\\gnu arm embedded toolchain\\9 2020-q2-update\\arm-none-eabi\\inc
 356              		.file 4 "c:\\program files (x86)\\gnu arm embedded toolchain\\9 2020-q2-update\\lib\\gcc\\arm-none
 357              		.file 5 "c:\\program files (x86)\\gnu arm embedded toolchain\\9 2020-q2-update\\arm-none-eabi\\inc
 358              		.file 6 "c:\\program files (x86)\\gnu arm embedded toolchain\\9 2020-q2-update\\arm-none-eabi\\inc
 359              		.file 7 "c:\\program files (x86)\\gnu arm embedded toolchain\\9 2020-q2-update\\arm-none-eabi\\inc
 360              		.file 8 "c:\\program files (x86)\\gnu arm embedded toolchain\\9 2020-q2-update\\arm-none-eabi\\inc
 361              		.file 9 "C:/Users/ryota/e2_studio/workspace/rza2m_ssif_sample_freertos_gcc/generate/system/inc/r_t
 362              		.file 10 "c:\\program files (x86)\\gnu arm embedded toolchain\\9 2020-q2-update\\arm-none-eabi\\in
 363              		.file 11 "c:\\program files (x86)\\gnu arm embedded toolchain\\9 2020-q2-update\\arm-none-eabi\\in
 364              		.file 12 "C:/Users/ryota/e2_studio/workspace/rza2m_ssif_sample_freertos_gcc/generate/system/inc/dr
 365              		.file 13 "C:/Users/ryota/e2_studio/workspace/rza2m_ssif_sample_freertos_gcc/generate/sc_drivers/r_
 366              		.file 14 "C:/Users/ryota/e2_studio/workspace/rza2m_ssif_sample_freertos_gcc/generate/sc_drivers/r_
 367              		.file 15 "c:\\program files (x86)\\gnu arm embedded toolchain\\9 2020-q2-update\\arm-none-eabi\\in
 368              		.file 16 "C:/Users/ryota/e2_studio/workspace/rza2m_ssif_sample_freertos_gcc/generate/system/inc/r_
DEFINED SYMBOLS
                            *ABS*:00000000 riic_max9867.c
C:\Users\ryota\AppData\Local\Temp\ccOUI2yr.s:17     .rodata.R_CODEC_MAX9867Init.str1.4:00000000 $d
C:\Users\ryota\AppData\Local\Temp\ccOUI2yr.s:18     .rodata.R_CODEC_MAX9867Init.str1.4:00000000 .LC0
C:\Users\ryota\AppData\Local\Temp\ccOUI2yr.s:21     .text.R_CODEC_MAX9867Init:00000000 $a
C:\Users\ryota\AppData\Local\Temp\ccOUI2yr.s:30     .text.R_CODEC_MAX9867Init:00000000 R_CODEC_MAX9867Init
                           .group:00000000 wm4.0.3d5c910ebb40df6df78b28e37cd67f3d
                           .group:00000000 wm4.stddef.h.39.144cf5ddcd53cbfdac30259dc1a6c87f
                           .group:00000000 wm4._newlib_version.h.4.1ef4e12f167f8b69d7c30054be56050d
                           .group:00000000 wm4.features.h.33.318b64d71e0957639cfb30f1db1f7ec8
                           .group:00000000 wm4._default_types.h.15.247e5cd201eca3442cbf5404108c4935
                           .group:00000000 wm4._intsup.h.10.48bafbb683905c4daa4565a85aeeb264
                           .group:00000000 wm4._stdint.h.10.c24fa3af3bc1706662bb5593a907e841
                           .group:00000000 wm4.stdint.h.23.d53047a68f4a85177f80b422d52785ed
                           .group:00000000 wm4.newlib.h.8.7cb3972cd43265932d4782d5eb589854
                           .group:00000000 wm4.ieeefp.h.77.3f06799abf5dd88bdddee084775a1223
                           .group:00000000 wm4.config.h.224.c701144a7b0518c6ee9b9b5465b79f81
                           .group:00000000 wm4._ansi.h.31.de524f58584151836e90d8620a16f8e8
                           .group:00000000 wm4._types.h.20.dd0d04dca3800a0d2a6129b87f3adbb2
                           .group:00000000 wm4.stddef.h.155.3588ebfdd1e8c7ede80509bb9c3b8009
                           .group:00000000 wm4._types.h.127.34941de1b2539d59d5cac00e0dd27a45
                           .group:00000000 wm4.reent.h.17.e292bf8b0bec6c96e131a54347145a30
                           .group:00000000 wm4.lock.h.2.1461d1fff82dffe8bfddc23307f6484f
                           .group:00000000 wm4.reent.h.77.dcd6129ff07fe81bd5636db29abe53b2
                           .group:00000000 wm4.cdefs.h.49.6260d97adb8d27534cbdc0f868b8ea87
                           .group:00000000 wm4.math.h.13.97100c05caf9f40dd9f5a3cda48ccc01
                           .group:00000000 wm4.r_typedefs.h.38.e90d9de5300d9ae020e5db8c5af88b3e
                           .group:00000000 wm4.adc_iodefine.h.29.14c6f50dce37432a7d004e4b1ce33da7
                           .group:00000000 wm4.bsc_iodefine.h.29.9281d1f3639266933964d6d0c2d42c4f
                           .group:00000000 wm4.ceu_iodefine.h.29.2a669d0b46fdde030a50db9e3c307fbf
                           .group:00000000 wm4.cpg_iodefine.h.29.d6fdc9cb4798723afd88b251d64c2ce2
                           .group:00000000 wm4.csi2link_iodefine.h.29.221c4531636a409f24d307b16341ada8
                           .group:00000000 wm4.dmac_iodefine.h.29.578fccc2cc1da886ec95a029bf874f01
                           .group:00000000 wm4.drpk_iodefine.h.29.580eb8588a2b2d43d2726fbe791e513f
                           .group:00000000 wm4.drw_iodefine.h.29.df30f4a4a34a79f6a86c4df91353dffe
                           .group:00000000 wm4.edmac_iodefine.h.29.33e8759349004a722f42f5429c1353f6
                           .group:00000000 wm4.eptpc_iodefine.h.29.74d8f9fab0f5549b56097fb9e937dde8
                           .group:00000000 wm4.etherc_iodefine.h.29.14602750383a574f1c21f994ad33a366
                           .group:00000000 wm4.gpio_iodefine.h.29.3d0b021c56839cee4ae5149903684e4b
                           .group:00000000 wm4.gpt_iodefine.h.29.557ead75d7b0585b898d3898b64c7f87
                           .group:00000000 wm4.hyper_iodefine.h.29.000caadbb74d881e97db55b39b432154
                           .group:00000000 wm4.imr_iodefine.h.29.77c022f017e711c4d51cc0145db1dad3
                           .group:00000000 wm4.intc_iodefine.h.29.b68f5799a35a7495d63b4cd458e1ba57
                           .group:00000000 wm4.irda_iodefine.h.29.37e67bd2005173d68a74d1cc937d8444
                           .group:00000000 wm4.jcu_iodefine.h.29.3aca452908962e7a7ccf26164751feda
                           .group:00000000 wm4.lvds_iodefine.h.29.c11cbe1900e5209c8dcc76c2336c16bc
                           .group:00000000 wm4.mtu_iodefine.h.29.5498fb974bb53caf05aa143c2deec781
                           .group:00000000 wm4.nandc_iodefine.h.29.e0b343306750f017ee86e169ad98efe9
                           .group:00000000 wm4.octa_iodefine.h.29.4cb0d62e4b9633e173858000dc1c626c
                           .group:00000000 wm4.ostm_iodefine.h.29.6914f7e330a1cf0008b34219adcdfed4
                           .group:00000000 wm4.pl_iodefine.h.29.abbb6d725aed990aa8343242bfe31416
                           .group:00000000 wm4.pmg_iodefine.h.29.8bcfbc4771a6f9b7dd4d6f504427219e
                           .group:00000000 wm4.poeg_iodefine.h.29.0d8e258d10986260cbc70cfb8c0ef273
                           .group:00000000 wm4.poe_iodefine.h.29.fe74e55e7b6b4afbe3596c74ba035e98
                           .group:00000000 wm4.prr_iodefine.h.29.c1f15576f7a27b9c83aa3b40f5b2f988
                           .group:00000000 wm4.ptpedmac_iodefine.h.29.cd24a93374ce35cebc41e26889d619ef
                           .group:00000000 wm4.rcanfd_iodefine.h.29.532dd48b82fcb61d63538aba4b6f1289
                           .group:00000000 wm4.rcan_iodefine.h.29.a47a89db1b35c12b54af48fa1956acba
                           .group:00000000 wm4.riic_iodefine.h.29.f96943d49800d297612c4af3bba5c943
                           .group:00000000 wm4.rspi_iodefine.h.29.7efa041fe34a7d27db66a7b337879dfe
                           .group:00000000 wm4.rtc_iodefine.h.29.6dc76be5ca3df69cecb5a81d06cc46b5
                           .group:00000000 wm4.scifa_iodefine.h.29.b04ccd664d71baaf31c75761c45b9c4d
                           .group:00000000 wm4.scim_iodefine.h.29.87d0760abf94446b00d826c797bf0ff2
                           .group:00000000 wm4.sdmmc_iodefine.h.29.e67e9815445e8057a3262d1566bea0db
                           .group:00000000 wm4.spdif_iodefine.h.29.59f5d70150fa200a4d8ee50be1ee34c8
                           .group:00000000 wm4.spibsc_iodefine.h.29.f4930f8b8da1140200204513a363c76f
                           .group:00000000 wm4.sprite_iodefine.h.29.55796d1fa083a2457fea4ece974a192e
                           .group:00000000 wm4.ssif_iodefine.h.29.054ec6d95f487f631f16aee39c85c47a
                           .group:00000000 wm4.usb_iodefine.h.29.6dc44ea388ba227e8fdcfb33c315887b
                           .group:00000000 wm4.vdc_iodefine.h.29.db282ded1f052d8567fbbd3b61ce8f7a
                           .group:00000000 wm4.vin_iodefine.h.29.9b392e5601347d53e64be3272934e170
                           .group:00000000 wm4.wdt_iodefine.h.29.ed07bb44b797072f8c28b41c64fdca30
                           .group:00000000 wm4.stdio.h.27.3fc80220048df77954e38daec3bb9670
                           .group:00000000 wm4.stddef.h.155.ba788add86a0e365f264484f110c3c29
                           .group:00000000 wm4.stdarg.h.34.3a23a216c0c293b3d2ea2e89281481e6
                           .group:00000000 wm4.types.h.40.8b6acba56cefbb11746718204edc8f5e
                           .group:00000000 wm4._endian.h.31.65a10590763c3dde1ac4a7f66d7d4891
                           .group:00000000 wm4.endian.h.9.49f3a4695c1b61e8a0808de3c4a106cb
                           .group:00000000 wm4._timeval.h.32.bec3221fa7a9bb0bdde696c9c57e47d2
                           .group:00000000 wm4.timespec.h.41.d855182eb0e690443ab8651bcedca6e1
                           .group:00000000 wm4.select.h.19.97ca6fd0c752a0f3b6719fd314d361e6
                           .group:00000000 wm4.types.h.51.5571ec98f267d17d3c670b7a3ba33afa
                           .group:00000000 wm4.sched.h.22.c60982713a5c428609783c78f9c78d95
                           .group:00000000 wm4._pthreadtypes.h.36.fcee9961c35163dde6267ef772ad1972
                           .group:00000000 wm4.stdio.h.2.4aa87247282eca6c8f36f9de33d8df1a
                           .group:00000000 wm4.stdio.h.81.932d0c162786b883f622b8d05c120c78
                           .group:00000000 wm4.stdlib.h.13.4ed386f5c1a80d71e72172885d946ef2
                           .group:00000000 wm4.alloca.h.8.dfc0c703c47ec3e69746825b17d9e66d
                           .group:00000000 wm4.stdlib.h.56.f4862cfbf4363a1db01842d5bdf72c18
                           .group:00000000 wm4.reent.h.91.b3ea049ebc5486622b61409b78486f84
                           .group:00000000 wm4._default_fcntl.h.6.791f38f41eee7843f224ce48f47caa9b
                           .group:00000000 wm4.time.h.8.db4619001f026d0b4874c029fef0e91f
                           .group:00000000 wm4.time.h.2.4581ce0ffb6627cfc02162c94bf846c9
                           .group:00000000 wm4.time.h.25.0e6a0fdbc9955f5707ed54246ed2e089
                           .group:00000000 wm4.time.h.162.85256a1e684b58f061361067da714e0e
                           .group:00000000 wm4.stat.h.54.5a9b823658423102e7a8de4ed089eedc
                           .group:00000000 wm4.fcntl.h.9.9336f33d7f5028f694c75e6e224e0cf7
                           .group:00000000 wm4.driver.h.34.180df73e0731406f5e50150641059ede
                           .group:00000000 wm4.r_devlink_wrapper.h.72.ad1de4c851513efa3aed0532ebca7ca2
                           .group:00000000 wm4.r_rza2m_riic_lld_cfg.h.34.420dadece52c9d581310a82d03ef7a9c
                           .group:00000000 wm4.r_rza2m_riic_lld_api.h.36.fbae5305df069aab4ee8737f6b4cc155
                           .group:00000000 wm4.r_riic_drv_api.h.81.8cfa166374387345d2e15a569d3903b9

UNDEFINED SYMBOLS
open
control
close
