   1              		.cpu cortex-a9
   2              		.eabi_attribute 28, 1
   3              		.eabi_attribute 20, 1
   4              		.eabi_attribute 21, 1
   5              		.eabi_attribute 23, 3
   6              		.eabi_attribute 24, 1
   7              		.eabi_attribute 25, 1
   8              		.eabi_attribute 26, 1
   9              		.eabi_attribute 30, 1
  10              		.eabi_attribute 34, 0
  11              		.eabi_attribute 18, 4
  12              		.file	"r_scifa_drv_api.c"
  13              		.text
  14              	.Ltext0:
  15              		.cfi_sections	.debug_frame
  16              		.section	.rodata.scifa_hld_get_version.str1.4,"aMS",%progbits,1
  17              		.align	2
  18              	.LC0:
  19 0000 484C4420 		.ascii	"HLD SCIFA\000"
  19      53434946 
  19      4100
  20              		.section	.text.scifa_hld_get_version,"ax",%progbits
  21              		.align	2
  22              		.arch armv7-a
  23              		.arch_extension mp
  24              		.arch_extension sec
  25              		.syntax unified
  26              		.arm
  27              		.fpu neon
  29              	scifa_hld_get_version:
  30              	.LVL0:
  31              	.LFB8:
  32              		.file 1 "../generate/sc_drivers/r_scifa/src/hld/r_scifa_drv_api.c"
   1:../generate/sc_drivers/r_scifa/src/hld/r_scifa_drv_api.c **** /**************************************************************************************************
   2:../generate/sc_drivers/r_scifa/src/hld/r_scifa_drv_api.c ****  * DISCLAIMER
   3:../generate/sc_drivers/r_scifa/src/hld/r_scifa_drv_api.c ****  * This software is supplied by Renesas Electronics Corporation and is only
   4:../generate/sc_drivers/r_scifa/src/hld/r_scifa_drv_api.c ****  * intended for use with Renesas products. No other uses are authorized. This
   5:../generate/sc_drivers/r_scifa/src/hld/r_scifa_drv_api.c ****  * software is owned by Renesas Electronics Corporation and is protected under
   6:../generate/sc_drivers/r_scifa/src/hld/r_scifa_drv_api.c ****  * all applicable laws, including copyright laws.
   7:../generate/sc_drivers/r_scifa/src/hld/r_scifa_drv_api.c ****  * THIS SOFTWARE IS PROVIDED "AS IS" AND RENESAS MAKES NO WARRANTIES REGARDING
   8:../generate/sc_drivers/r_scifa/src/hld/r_scifa_drv_api.c ****  * THIS SOFTWARE, WHETHER EXPRESS, IMPLIED OR STATUTORY, INCLUDING BUT NOT
   9:../generate/sc_drivers/r_scifa/src/hld/r_scifa_drv_api.c ****  * LIMITED TO WARRANTIES OF MERCHANTABILITY, FITNESS FOR A PARTICULAR PURPOSE
  10:../generate/sc_drivers/r_scifa/src/hld/r_scifa_drv_api.c ****  * AND NON-INFRINGEMENT. ALL SUCH WARRANTIES ARE EXPRESSLY DISCLAIMED.
  11:../generate/sc_drivers/r_scifa/src/hld/r_scifa_drv_api.c ****  * TO THE MAXIMUM EXTENT PERMITTED NOT PROHIBITED BY LAW, NEITHER RENESAS
  12:../generate/sc_drivers/r_scifa/src/hld/r_scifa_drv_api.c ****  * ELECTRONICS CORPORATION NOR ANY OF ITS AFFILIATED COMPANIES SHALL BE LIABLE
  13:../generate/sc_drivers/r_scifa/src/hld/r_scifa_drv_api.c ****  * FOR ANY DIRECT, INDIRECT, SPECIAL, INCIDENTAL OR CONSEQUENTIAL DAMAGES FOR
  14:../generate/sc_drivers/r_scifa/src/hld/r_scifa_drv_api.c ****  * ANY REASON RELATED TO THIS SOFTWARE, EVEN IF RENESAS OR ITS AFFILIATES HAVE
  15:../generate/sc_drivers/r_scifa/src/hld/r_scifa_drv_api.c ****  * BEEN ADVISED OF THE POSSIBILITY OF SUCH DAMAGES.
  16:../generate/sc_drivers/r_scifa/src/hld/r_scifa_drv_api.c ****  * Renesas reserves the right, without notice, to make changes to this software
  17:../generate/sc_drivers/r_scifa/src/hld/r_scifa_drv_api.c ****  * and to discontinue the availability of this software. By using this software,
  18:../generate/sc_drivers/r_scifa/src/hld/r_scifa_drv_api.c ****  * you agree to the additional terms and conditions found by accessing the
  19:../generate/sc_drivers/r_scifa/src/hld/r_scifa_drv_api.c ****  * following link:
  20:../generate/sc_drivers/r_scifa/src/hld/r_scifa_drv_api.c ****  * http://www.renesas.com/disclaimer
  21:../generate/sc_drivers/r_scifa/src/hld/r_scifa_drv_api.c ****  * Copyright (C) 2019 Renesas Electronics Corporation. All rights reserved.
  22:../generate/sc_drivers/r_scifa/src/hld/r_scifa_drv_api.c ****  **************************************************************************************************
  23:../generate/sc_drivers/r_scifa/src/hld/r_scifa_drv_api.c **** /**************************************************************************************************
  24:../generate/sc_drivers/r_scifa/src/hld/r_scifa_drv_api.c ****  * File Name    : r_scifa_drv_api.c
  25:../generate/sc_drivers/r_scifa/src/hld/r_scifa_drv_api.c ****  * Description  : SCIFA High Layer Device driver
  26:../generate/sc_drivers/r_scifa/src/hld/r_scifa_drv_api.c ****  **************************************************************************************************
  27:../generate/sc_drivers/r_scifa/src/hld/r_scifa_drv_api.c **** /**************************************************************************************************
  28:../generate/sc_drivers/r_scifa/src/hld/r_scifa_drv_api.c ****  * History      : DD.MM.YYYY Version Description
  29:../generate/sc_drivers/r_scifa/src/hld/r_scifa_drv_api.c ****  *              : 15.05.2018 1.00    Release
  30:../generate/sc_drivers/r_scifa/src/hld/r_scifa_drv_api.c ****  *              : 10.05.2019 1.01    Fixed issue with channel 0 Baud rate setting
  31:../generate/sc_drivers/r_scifa/src/hld/r_scifa_drv_api.c ****  *              : 23.05.2019 1.02    Restructuring to ensure that other LLDs are only accessed from
  32:../generate/sc_drivers/r_scifa/src/hld/r_scifa_drv_api.c ****  **************************************************************************************************
  33:../generate/sc_drivers/r_scifa/src/hld/r_scifa_drv_api.c **** 
  34:../generate/sc_drivers/r_scifa/src/hld/r_scifa_drv_api.c **** /**************************************************************************************************
  35:../generate/sc_drivers/r_scifa/src/hld/r_scifa_drv_api.c ****  Includes   <System Includes> , "Project Includes"
  36:../generate/sc_drivers/r_scifa/src/hld/r_scifa_drv_api.c ****  **************************************************************************************************
  37:../generate/sc_drivers/r_scifa/src/hld/r_scifa_drv_api.c **** #include "r_devlink_wrapper.h"      /* Devlink API header */
  38:../generate/sc_drivers/r_scifa/src/hld/r_scifa_drv_api.c **** #include "r_scifa_drv_api.h"        /* SCIFA driver API header */
  39:../generate/sc_drivers/r_scifa/src/hld/r_scifa_drv_api.c **** #include "r_scifa_drv_link.h"       /* Link include to Low Layer Driver */
  40:../generate/sc_drivers/r_scifa/src/hld/r_scifa_drv_api.c **** #include "r_scifa_hld_prv.h"        /* High Layer Driver private functions */
  41:../generate/sc_drivers/r_scifa/src/hld/r_scifa_drv_api.c **** 
  42:../generate/sc_drivers/r_scifa/src/hld/r_scifa_drv_api.c **** #include "r_gpio_drv_api.h"
  43:../generate/sc_drivers/r_scifa/src/hld/r_scifa_drv_api.c **** #include "r_gpio_drv_sc_cfg.h"
  44:../generate/sc_drivers/r_scifa/src/hld/r_scifa_drv_api.c **** 
  45:../generate/sc_drivers/r_scifa/src/hld/r_scifa_drv_api.c **** #include "r_os_abstraction_api.h"
  46:../generate/sc_drivers/r_scifa/src/hld/r_scifa_drv_api.c **** 
  47:../generate/sc_drivers/r_scifa/src/hld/r_scifa_drv_api.c **** #include "driver.h"                 /* device driver header */
  48:../generate/sc_drivers/r_scifa/src/hld/r_scifa_drv_api.c **** 
  49:../generate/sc_drivers/r_scifa/src/hld/r_scifa_drv_api.c **** 
  50:../generate/sc_drivers/r_scifa/src/hld/r_scifa_drv_api.c **** /**************************************************************************************************
  51:../generate/sc_drivers/r_scifa/src/hld/r_scifa_drv_api.c ****  Macro definitions
  52:../generate/sc_drivers/r_scifa/src/hld/r_scifa_drv_api.c ****  **************************************************************************************************
  53:../generate/sc_drivers/r_scifa/src/hld/r_scifa_drv_api.c **** 
  54:../generate/sc_drivers/r_scifa/src/hld/r_scifa_drv_api.c **** /**************************************************************************************************
  55:../generate/sc_drivers/r_scifa/src/hld/r_scifa_drv_api.c ****  Function Prototypes
  56:../generate/sc_drivers/r_scifa/src/hld/r_scifa_drv_api.c ****  **************************************************************************************************
  57:../generate/sc_drivers/r_scifa/src/hld/r_scifa_drv_api.c **** /* STDIO */
  58:../generate/sc_drivers/r_scifa/src/hld/r_scifa_drv_api.c **** static int_t scifa_hld_open (st_stream_ptr_t p_stream);
  59:../generate/sc_drivers/r_scifa/src/hld/r_scifa_drv_api.c **** static void  scifa_hld_close (st_stream_ptr_t p_stream);
  60:../generate/sc_drivers/r_scifa/src/hld/r_scifa_drv_api.c **** static int_t scifa_hld_read (st_stream_ptr_t p_stream, uint8_t *p_buffer, uint32_t ui_count);
  61:../generate/sc_drivers/r_scifa/src/hld/r_scifa_drv_api.c **** static int_t scifa_hld_write (st_stream_ptr_t p_stream, const uint8_t *p_buffer, uint32_t count);
  62:../generate/sc_drivers/r_scifa/src/hld/r_scifa_drv_api.c **** static int_t scifa_hld_control (st_stream_ptr_t p_stream, uint32_t ctlCode, void *pCtlStruct);
  63:../generate/sc_drivers/r_scifa/src/hld/r_scifa_drv_api.c **** static int_t scifa_hld_get_version (st_stream_ptr_t stream_ptr, st_ver_info_t *pVerInfo);
  64:../generate/sc_drivers/r_scifa/src/hld/r_scifa_drv_api.c **** 
  65:../generate/sc_drivers/r_scifa/src/hld/r_scifa_drv_api.c **** /* file stream access */
  66:../generate/sc_drivers/r_scifa/src/hld/r_scifa_drv_api.c **** static r_sc_index_t scifa_get_config_index (st_stream_ptr_t stream_ptr);
  67:../generate/sc_drivers/r_scifa/src/hld/r_scifa_drv_api.c **** 
  68:../generate/sc_drivers/r_scifa/src/hld/r_scifa_drv_api.c **** /**************************************************************************************************
  69:../generate/sc_drivers/r_scifa/src/hld/r_scifa_drv_api.c ****  Constant Data
  70:../generate/sc_drivers/r_scifa/src/hld/r_scifa_drv_api.c ****  **************************************************************************************************
  71:../generate/sc_drivers/r_scifa/src/hld/r_scifa_drv_api.c **** 
  72:../generate/sc_drivers/r_scifa/src/hld/r_scifa_drv_api.c **** static const st_drv_info_t gs_hld_info =
  73:../generate/sc_drivers/r_scifa/src/hld/r_scifa_drv_api.c **** {
  74:../generate/sc_drivers/r_scifa/src/hld/r_scifa_drv_api.c ****     {
  75:../generate/sc_drivers/r_scifa/src/hld/r_scifa_drv_api.c ****         ((STDIO_SCIFA_RZ_HLD_VERSION_MAJOR << 16) + STDIO_SCIFA_RZ_HLD_VERSION_MINOR)
  76:../generate/sc_drivers/r_scifa/src/hld/r_scifa_drv_api.c ****     },
  77:../generate/sc_drivers/r_scifa/src/hld/r_scifa_drv_api.c ****     STDIO_SCIFA_RZ_HLD_BUILD_NUM,
  78:../generate/sc_drivers/r_scifa/src/hld/r_scifa_drv_api.c ****     STDIO_SCIFA_RZ_HLD_DRV_NAME
  79:../generate/sc_drivers/r_scifa/src/hld/r_scifa_drv_api.c **** };
  80:../generate/sc_drivers/r_scifa/src/hld/r_scifa_drv_api.c **** 
  81:../generate/sc_drivers/r_scifa/src/hld/r_scifa_drv_api.c **** /* Define the driver function table for this implementation */
  82:../generate/sc_drivers/r_scifa/src/hld/r_scifa_drv_api.c **** const st_r_driver_t g_scifa_driver =
  83:../generate/sc_drivers/r_scifa/src/hld/r_scifa_drv_api.c **** {"SCIFA Device Driver", scifa_hld_open, scifa_hld_close, scifa_hld_read, scifa_hld_write, scifa_hld
  84:../generate/sc_drivers/r_scifa/src/hld/r_scifa_drv_api.c **** 
  85:../generate/sc_drivers/r_scifa/src/hld/r_scifa_drv_api.c **** /**************************************************************************************************
  86:../generate/sc_drivers/r_scifa/src/hld/r_scifa_drv_api.c ****  Private global variables
  87:../generate/sc_drivers/r_scifa/src/hld/r_scifa_drv_api.c ****  **************************************************************************************************
  88:../generate/sc_drivers/r_scifa/src/hld/r_scifa_drv_api.c **** 
  89:../generate/sc_drivers/r_scifa/src/hld/r_scifa_drv_api.c **** /**************************************************************************************************
  90:../generate/sc_drivers/r_scifa/src/hld/r_scifa_drv_api.c ****  Private Functions
  91:../generate/sc_drivers/r_scifa/src/hld/r_scifa_drv_api.c ****  **************************************************************************************************
  92:../generate/sc_drivers/r_scifa/src/hld/r_scifa_drv_api.c **** 
  93:../generate/sc_drivers/r_scifa/src/hld/r_scifa_drv_api.c **** /**
  94:../generate/sc_drivers/r_scifa/src/hld/r_scifa_drv_api.c ****  * @brief  Opens the SCIFA device driver
  95:../generate/sc_drivers/r_scifa/src/hld/r_scifa_drv_api.c ****  * 
  96:../generate/sc_drivers/r_scifa/src/hld/r_scifa_drv_api.c ****  * This function allows for a channel to be ready for
  97:../generate/sc_drivers/r_scifa/src/hld/r_scifa_drv_api.c ****  * operational use. If a channel is unavailable or a
  98:../generate/sc_drivers/r_scifa/src/hld/r_scifa_drv_api.c ****  * channel is already opened this function will return
  99:../generate/sc_drivers/r_scifa/src/hld/r_scifa_drv_api.c ****  * a fail (-1)
 100:../generate/sc_drivers/r_scifa/src/hld/r_scifa_drv_api.c ****  *
 101:../generate/sc_drivers/r_scifa/src/hld/r_scifa_drv_api.c ****  * @param[in] p_stream Pointer to the file stream
 102:../generate/sc_drivers/r_scifa/src/hld/r_scifa_drv_api.c ****  * 
 103:../generate/sc_drivers/r_scifa/src/hld/r_scifa_drv_api.c ****  * @retval 0  DRV_SUCCESS
 104:../generate/sc_drivers/r_scifa/src/hld/r_scifa_drv_api.c ****  * @retval -1 DRV_ERROR 
 105:../generate/sc_drivers/r_scifa/src/hld/r_scifa_drv_api.c ****  **/
 106:../generate/sc_drivers/r_scifa/src/hld/r_scifa_drv_api.c **** static int_t scifa_hld_open (st_stream_ptr_t p_stream)
 107:../generate/sc_drivers/r_scifa/src/hld/r_scifa_drv_api.c **** {
 108:../generate/sc_drivers/r_scifa/src/hld/r_scifa_drv_api.c ****     int_t ret = DRV_ERROR;
 109:../generate/sc_drivers/r_scifa/src/hld/r_scifa_drv_api.c **** 
 110:../generate/sc_drivers/r_scifa/src/hld/r_scifa_drv_api.c ****     /* get the Smart Configuration index associated with the handle */
 111:../generate/sc_drivers/r_scifa/src/hld/r_scifa_drv_api.c ****     r_sc_index_t sc_config_index = scifa_get_config_index(p_stream);
 112:../generate/sc_drivers/r_scifa/src/hld/r_scifa_drv_api.c **** 
 113:../generate/sc_drivers/r_scifa/src/hld/r_scifa_drv_api.c ****     /* open using SC settings for selected channel */
 114:../generate/sc_drivers/r_scifa/src/hld/r_scifa_drv_api.c ****     ret = r_scifa_hld_prv_open(sc_config_index, p_stream->file_mode);
 115:../generate/sc_drivers/r_scifa/src/hld/r_scifa_drv_api.c **** 
 116:../generate/sc_drivers/r_scifa/src/hld/r_scifa_drv_api.c ****     /* return status */
 117:../generate/sc_drivers/r_scifa/src/hld/r_scifa_drv_api.c ****     return (ret);
 118:../generate/sc_drivers/r_scifa/src/hld/r_scifa_drv_api.c **** }
 119:../generate/sc_drivers/r_scifa/src/hld/r_scifa_drv_api.c **** /**************************************************************************************************
 120:../generate/sc_drivers/r_scifa/src/hld/r_scifa_drv_api.c ****  * End of Function scifa_hld_open
 121:../generate/sc_drivers/r_scifa/src/hld/r_scifa_drv_api.c ****  **************************************************************************************************
 122:../generate/sc_drivers/r_scifa/src/hld/r_scifa_drv_api.c **** 
 123:../generate/sc_drivers/r_scifa/src/hld/r_scifa_drv_api.c **** /**
 124:../generate/sc_drivers/r_scifa/src/hld/r_scifa_drv_api.c ****  * @brief Closes the SCIFA driver
 125:../generate/sc_drivers/r_scifa/src/hld/r_scifa_drv_api.c ****  *
 126:../generate/sc_drivers/r_scifa/src/hld/r_scifa_drv_api.c ****  * The SCIFA driver's file stream can be closed once
 127:../generate/sc_drivers/r_scifa/src/hld/r_scifa_drv_api.c ****  * the desired operation has been done, freeing any
 128:../generate/sc_drivers/r_scifa/src/hld/r_scifa_drv_api.c ****  * memory or resources it uses
 129:../generate/sc_drivers/r_scifa/src/hld/r_scifa_drv_api.c ****  * 
 130:../generate/sc_drivers/r_scifa/src/hld/r_scifa_drv_api.c ****  * @param[in] p_stream Pointer to the file stream
 131:../generate/sc_drivers/r_scifa/src/hld/r_scifa_drv_api.c ****  *
 132:../generate/sc_drivers/r_scifa/src/hld/r_scifa_drv_api.c ****  * @return None
 133:../generate/sc_drivers/r_scifa/src/hld/r_scifa_drv_api.c ****  */
 134:../generate/sc_drivers/r_scifa/src/hld/r_scifa_drv_api.c **** static void scifa_hld_close (st_stream_ptr_t p_stream)
 135:../generate/sc_drivers/r_scifa/src/hld/r_scifa_drv_api.c **** {
 136:../generate/sc_drivers/r_scifa/src/hld/r_scifa_drv_api.c ****     /* get the Smart Configuration index associated with the handle */
 137:../generate/sc_drivers/r_scifa/src/hld/r_scifa_drv_api.c ****     r_sc_index_t sc_config_index = scifa_get_config_index(p_stream);
 138:../generate/sc_drivers/r_scifa/src/hld/r_scifa_drv_api.c **** 
 139:../generate/sc_drivers/r_scifa/src/hld/r_scifa_drv_api.c ****     /* close the channel */
 140:../generate/sc_drivers/r_scifa/src/hld/r_scifa_drv_api.c ****     r_scifa_hld_prv_close(sc_config_index);
 141:../generate/sc_drivers/r_scifa/src/hld/r_scifa_drv_api.c **** }
 142:../generate/sc_drivers/r_scifa/src/hld/r_scifa_drv_api.c **** /**************************************************************************************************
 143:../generate/sc_drivers/r_scifa/src/hld/r_scifa_drv_api.c ****  * End of Function scifa_hld_close
 144:../generate/sc_drivers/r_scifa/src/hld/r_scifa_drv_api.c ****  **************************************************************************************************
 145:../generate/sc_drivers/r_scifa/src/hld/r_scifa_drv_api.c **** 
 146:../generate/sc_drivers/r_scifa/src/hld/r_scifa_drv_api.c **** /**
 147:../generate/sc_drivers/r_scifa/src/hld/r_scifa_drv_api.c ****  * @brief Translates the read operation to the private read function.
 148:../generate/sc_drivers/r_scifa/src/hld/r_scifa_drv_api.c ****  *
 149:../generate/sc_drivers/r_scifa/src/hld/r_scifa_drv_api.c ****  * The private read function requires to get the channel instead of the
 150:../generate/sc_drivers/r_scifa/src/hld/r_scifa_drv_api.c ****  * file stream and therefore some translation is required.
 151:../generate/sc_drivers/r_scifa/src/hld/r_scifa_drv_api.c ****  *
 152:../generate/sc_drivers/r_scifa/src/hld/r_scifa_drv_api.c ****  * @param[in]  p_stream The file stream that contains the desired SCIFA channel
 153:../generate/sc_drivers/r_scifa/src/hld/r_scifa_drv_api.c ****  * @param[out] p_buffer The buffer to be populated with the data read
 154:../generate/sc_drivers/r_scifa/src/hld/r_scifa_drv_api.c ****  * @param[in]  count    The size of p_buffer
 155:../generate/sc_drivers/r_scifa/src/hld/r_scifa_drv_api.c ****  *
 156:../generate/sc_drivers/r_scifa/src/hld/r_scifa_drv_api.c ****  * @retval  N Where N is the number of bytes read
 157:../generate/sc_drivers/r_scifa/src/hld/r_scifa_drv_api.c ****  * @retval -1 DRV_ERROR 
 158:../generate/sc_drivers/r_scifa/src/hld/r_scifa_drv_api.c ****  */
 159:../generate/sc_drivers/r_scifa/src/hld/r_scifa_drv_api.c **** static int_t scifa_hld_read (st_stream_ptr_t p_stream, uint8_t *p_buffer, uint32_t count)
 160:../generate/sc_drivers/r_scifa/src/hld/r_scifa_drv_api.c **** {
 161:../generate/sc_drivers/r_scifa/src/hld/r_scifa_drv_api.c ****     /* get the Smart Configuration index associated with the handle */
 162:../generate/sc_drivers/r_scifa/src/hld/r_scifa_drv_api.c ****     r_sc_index_t sc_config_index = scifa_get_config_index(p_stream);
 163:../generate/sc_drivers/r_scifa/src/hld/r_scifa_drv_api.c **** 
 164:../generate/sc_drivers/r_scifa/src/hld/r_scifa_drv_api.c ****     /* read from channel */
 165:../generate/sc_drivers/r_scifa/src/hld/r_scifa_drv_api.c ****     return (r_scifa_hld_prv_read(sc_config_index, p_buffer, (int32_t) count));
 166:../generate/sc_drivers/r_scifa/src/hld/r_scifa_drv_api.c **** }
 167:../generate/sc_drivers/r_scifa/src/hld/r_scifa_drv_api.c **** /**************************************************************************************************
 168:../generate/sc_drivers/r_scifa/src/hld/r_scifa_drv_api.c ****  * End of Function scifa_hld_read
 169:../generate/sc_drivers/r_scifa/src/hld/r_scifa_drv_api.c ****  **************************************************************************************************
 170:../generate/sc_drivers/r_scifa/src/hld/r_scifa_drv_api.c **** 
 171:../generate/sc_drivers/r_scifa/src/hld/r_scifa_drv_api.c **** /**
 172:../generate/sc_drivers/r_scifa/src/hld/r_scifa_drv_api.c ****  * @brief Translates the write operation to the private write function
 173:../generate/sc_drivers/r_scifa/src/hld/r_scifa_drv_api.c ****  *
 174:../generate/sc_drivers/r_scifa/src/hld/r_scifa_drv_api.c ****  * The private write function requires to get the channel instead of the
 175:../generate/sc_drivers/r_scifa/src/hld/r_scifa_drv_api.c ****  * file stream and therefore some translation is required
 176:../generate/sc_drivers/r_scifa/src/hld/r_scifa_drv_api.c ****  *
 177:../generate/sc_drivers/r_scifa/src/hld/r_scifa_drv_api.c ****  * @param[in] p_stream The file stream that contains the desired SCIFA channel
 178:../generate/sc_drivers/r_scifa/src/hld/r_scifa_drv_api.c ****  * @param[in] p_buffer The intended buffer of data intended to be written
 179:../generate/sc_drivers/r_scifa/src/hld/r_scifa_drv_api.c ****  * @param[in] count    The amount of data in the p_buffer
 180:../generate/sc_drivers/r_scifa/src/hld/r_scifa_drv_api.c ****  *
 181:../generate/sc_drivers/r_scifa/src/hld/r_scifa_drv_api.c ****  * @retval >0 The number of bytes written
 182:../generate/sc_drivers/r_scifa/src/hld/r_scifa_drv_api.c ****  * @retval  0 0 byte transmission
 183:../generate/sc_drivers/r_scifa/src/hld/r_scifa_drv_api.c ****  * @retval -1 DRV_ERROR 
 184:../generate/sc_drivers/r_scifa/src/hld/r_scifa_drv_api.c ****  */
 185:../generate/sc_drivers/r_scifa/src/hld/r_scifa_drv_api.c **** static int_t scifa_hld_write (st_stream_ptr_t p_stream, const uint8_t *p_buffer, uint32_t count)
 186:../generate/sc_drivers/r_scifa/src/hld/r_scifa_drv_api.c **** {
 187:../generate/sc_drivers/r_scifa/src/hld/r_scifa_drv_api.c ****     /* get the Smart Configuration index associated with the handle */
 188:../generate/sc_drivers/r_scifa/src/hld/r_scifa_drv_api.c ****     r_sc_index_t sc_config_index = scifa_get_config_index(p_stream);
 189:../generate/sc_drivers/r_scifa/src/hld/r_scifa_drv_api.c **** 
 190:../generate/sc_drivers/r_scifa/src/hld/r_scifa_drv_api.c ****     /* write to channel */
 191:../generate/sc_drivers/r_scifa/src/hld/r_scifa_drv_api.c ****     return (r_scifa_hld_prv_write(sc_config_index, p_buffer, (int32_t) count));
 192:../generate/sc_drivers/r_scifa/src/hld/r_scifa_drv_api.c **** }
 193:../generate/sc_drivers/r_scifa/src/hld/r_scifa_drv_api.c **** /**************************************************************************************************
 194:../generate/sc_drivers/r_scifa/src/hld/r_scifa_drv_api.c ****  * End of Function scifa_hld_write
 195:../generate/sc_drivers/r_scifa/src/hld/r_scifa_drv_api.c ****  **************************************************************************************************
 196:../generate/sc_drivers/r_scifa/src/hld/r_scifa_drv_api.c **** 
 197:../generate/sc_drivers/r_scifa/src/hld/r_scifa_drv_api.c **** /**
 198:../generate/sc_drivers/r_scifa/src/hld/r_scifa_drv_api.c ****  * @brief scifa_hld_control handles custom controls for the SCIFA device driver
 199:../generate/sc_drivers/r_scifa/src/hld/r_scifa_drv_api.c ****  * 
 200:../generate/sc_drivers/r_scifa/src/hld/r_scifa_drv_api.c ****  * Depending on the ctl_code given the control function will perform specific
 201:../generate/sc_drivers/r_scifa/src/hld/r_scifa_drv_api.c ****  * tasks. For the SCIFA this includes getting and setting the configuration.
 202:../generate/sc_drivers/r_scifa/src/hld/r_scifa_drv_api.c ****  * If a invalid ctl_code is given the return value will be -1 and the trace will
 203:../generate/sc_drivers/r_scifa/src/hld/r_scifa_drv_api.c ****  * print a message accordingly.
 204:../generate/sc_drivers/r_scifa/src/hld/r_scifa_drv_api.c ****  *
 205:../generate/sc_drivers/r_scifa/src/hld/r_scifa_drv_api.c ****  * @param[in] p_stream          Pointer to the file stream
 206:../generate/sc_drivers/r_scifa/src/hld/r_scifa_drv_api.c ****  * @param[in] ctl_code          The custom control code
 207:../generate/sc_drivers/r_scifa/src/hld/r_scifa_drv_api.c ****  * @param[in,out] p_ctl_struct  Pointer to the custom control structure
 208:../generate/sc_drivers/r_scifa/src/hld/r_scifa_drv_api.c ****  *
 209:../generate/sc_drivers/r_scifa/src/hld/r_scifa_drv_api.c ****  * @retval 0  DRV_SUCCESS
 210:../generate/sc_drivers/r_scifa/src/hld/r_scifa_drv_api.c ****  * @retval -1 DRV_ERROR 
 211:../generate/sc_drivers/r_scifa/src/hld/r_scifa_drv_api.c ****  */
 212:../generate/sc_drivers/r_scifa/src/hld/r_scifa_drv_api.c **** static int_t scifa_hld_control (st_stream_ptr_t p_stream, uint32_t ctl_code, void *p_ctl_struct)
 213:../generate/sc_drivers/r_scifa/src/hld/r_scifa_drv_api.c **** {
 214:../generate/sc_drivers/r_scifa/src/hld/r_scifa_drv_api.c ****     int_t ret = DRV_ERROR;
 215:../generate/sc_drivers/r_scifa/src/hld/r_scifa_drv_api.c **** 
 216:../generate/sc_drivers/r_scifa/src/hld/r_scifa_drv_api.c ****     /* get the Smart Configuration index associated with the handle */
 217:../generate/sc_drivers/r_scifa/src/hld/r_scifa_drv_api.c ****     r_sc_index_t sc_config_index = scifa_get_config_index(p_stream);
 218:../generate/sc_drivers/r_scifa/src/hld/r_scifa_drv_api.c **** 
 219:../generate/sc_drivers/r_scifa/src/hld/r_scifa_drv_api.c ****     /* if the configuration index is valid */
 220:../generate/sc_drivers/r_scifa/src/hld/r_scifa_drv_api.c ****     if (DRV_ERROR != sc_config_index)
 221:../generate/sc_drivers/r_scifa/src/hld/r_scifa_drv_api.c ****     {
 222:../generate/sc_drivers/r_scifa/src/hld/r_scifa_drv_api.c ****         switch (ctl_code)
 223:../generate/sc_drivers/r_scifa/src/hld/r_scifa_drv_api.c ****         {
 224:../generate/sc_drivers/r_scifa/src/hld/r_scifa_drv_api.c ****             case CTL_SCIFA_SET_CONFIGURATION:
 225:../generate/sc_drivers/r_scifa/src/hld/r_scifa_drv_api.c ****             {
 226:../generate/sc_drivers/r_scifa/src/hld/r_scifa_drv_api.c ****                 /* check argument is not NULL */
 227:../generate/sc_drivers/r_scifa/src/hld/r_scifa_drv_api.c ****                 if (NULL != p_ctl_struct)
 228:../generate/sc_drivers/r_scifa/src/hld/r_scifa_drv_api.c ****                 {
 229:../generate/sc_drivers/r_scifa/src/hld/r_scifa_drv_api.c ****                     ret = r_scifa_hld_prv_set_config(sc_config_index, p_ctl_struct);
 230:../generate/sc_drivers/r_scifa/src/hld/r_scifa_drv_api.c ****                 }
 231:../generate/sc_drivers/r_scifa/src/hld/r_scifa_drv_api.c ****                 break;
 232:../generate/sc_drivers/r_scifa/src/hld/r_scifa_drv_api.c ****             }
 233:../generate/sc_drivers/r_scifa/src/hld/r_scifa_drv_api.c **** 
 234:../generate/sc_drivers/r_scifa/src/hld/r_scifa_drv_api.c ****             case CTL_SCIFA_GET_CONFIGURATION:
 235:../generate/sc_drivers/r_scifa/src/hld/r_scifa_drv_api.c ****             {
 236:../generate/sc_drivers/r_scifa/src/hld/r_scifa_drv_api.c ****                 /* check argument is not NULL */
 237:../generate/sc_drivers/r_scifa/src/hld/r_scifa_drv_api.c ****                 if (NULL != p_ctl_struct)
 238:../generate/sc_drivers/r_scifa/src/hld/r_scifa_drv_api.c ****                 {
 239:../generate/sc_drivers/r_scifa/src/hld/r_scifa_drv_api.c ****                     ret = r_scifa_hld_prv_get_config(sc_config_index, p_ctl_struct);
 240:../generate/sc_drivers/r_scifa/src/hld/r_scifa_drv_api.c ****                 }
 241:../generate/sc_drivers/r_scifa/src/hld/r_scifa_drv_api.c ****                 break;
 242:../generate/sc_drivers/r_scifa/src/hld/r_scifa_drv_api.c ****             }
 243:../generate/sc_drivers/r_scifa/src/hld/r_scifa_drv_api.c **** 
 244:../generate/sc_drivers/r_scifa/src/hld/r_scifa_drv_api.c ****             case CTL_SCIFA_DMA_READ_ABORT:
 245:../generate/sc_drivers/r_scifa/src/hld/r_scifa_drv_api.c ****             {
 246:../generate/sc_drivers/r_scifa/src/hld/r_scifa_drv_api.c ****                 ret = r_scifa_hld_dma_read_abort(sc_config_index);
 247:../generate/sc_drivers/r_scifa/src/hld/r_scifa_drv_api.c ****                 break;
 248:../generate/sc_drivers/r_scifa/src/hld/r_scifa_drv_api.c ****             }
 249:../generate/sc_drivers/r_scifa/src/hld/r_scifa_drv_api.c **** 
 250:../generate/sc_drivers/r_scifa/src/hld/r_scifa_drv_api.c ****             case CTL_SCIFA_DMA_WRITE_ABORT:
 251:../generate/sc_drivers/r_scifa/src/hld/r_scifa_drv_api.c ****             {
 252:../generate/sc_drivers/r_scifa/src/hld/r_scifa_drv_api.c ****                 ret = r_scifa_hld_dma_write_abort(sc_config_index);
 253:../generate/sc_drivers/r_scifa/src/hld/r_scifa_drv_api.c ****                 break;
 254:../generate/sc_drivers/r_scifa/src/hld/r_scifa_drv_api.c ****             }
 255:../generate/sc_drivers/r_scifa/src/hld/r_scifa_drv_api.c **** 
 256:../generate/sc_drivers/r_scifa/src/hld/r_scifa_drv_api.c ****             case CTL_SCIFA_READ_NEXT:
 257:../generate/sc_drivers/r_scifa/src/hld/r_scifa_drv_api.c ****             {
 258:../generate/sc_drivers/r_scifa/src/hld/r_scifa_drv_api.c ****                 /* check argument is not NULL */
 259:../generate/sc_drivers/r_scifa/src/hld/r_scifa_drv_api.c ****                 if (NULL != p_ctl_struct)
 260:../generate/sc_drivers/r_scifa/src/hld/r_scifa_drv_api.c ****                 {
 261:../generate/sc_drivers/r_scifa/src/hld/r_scifa_drv_api.c ****                     /* Set next DMA read */
 262:../generate/sc_drivers/r_scifa/src/hld/r_scifa_drv_api.c ****                     ret = r_scifa_hld_dma_read_next(sc_config_index, (st_scifa_dma_rw_t *) p_ctl_st
 263:../generate/sc_drivers/r_scifa/src/hld/r_scifa_drv_api.c ****                 }
 264:../generate/sc_drivers/r_scifa/src/hld/r_scifa_drv_api.c ****                 break;
 265:../generate/sc_drivers/r_scifa/src/hld/r_scifa_drv_api.c ****             }
 266:../generate/sc_drivers/r_scifa/src/hld/r_scifa_drv_api.c **** 
 267:../generate/sc_drivers/r_scifa/src/hld/r_scifa_drv_api.c ****             case CTL_SCIFA_WRITE_NEXT:
 268:../generate/sc_drivers/r_scifa/src/hld/r_scifa_drv_api.c ****             {
 269:../generate/sc_drivers/r_scifa/src/hld/r_scifa_drv_api.c ****                 /* check argument is not NULL */
 270:../generate/sc_drivers/r_scifa/src/hld/r_scifa_drv_api.c ****                 if (NULL != p_ctl_struct)
 271:../generate/sc_drivers/r_scifa/src/hld/r_scifa_drv_api.c ****                 {
 272:../generate/sc_drivers/r_scifa/src/hld/r_scifa_drv_api.c ****                     /* Set next DMA write */
 273:../generate/sc_drivers/r_scifa/src/hld/r_scifa_drv_api.c ****                     ret = r_scifa_hld_dma_write_next(sc_config_index, (st_scifa_dma_rw_t *) p_ctl_s
 274:../generate/sc_drivers/r_scifa/src/hld/r_scifa_drv_api.c ****                 }
 275:../generate/sc_drivers/r_scifa/src/hld/r_scifa_drv_api.c ****                 break;
 276:../generate/sc_drivers/r_scifa/src/hld/r_scifa_drv_api.c ****             }
 277:../generate/sc_drivers/r_scifa/src/hld/r_scifa_drv_api.c **** 
 278:../generate/sc_drivers/r_scifa/src/hld/r_scifa_drv_api.c ****             case CTL_SCIFA_FLUSH_OUTPUT:
 279:../generate/sc_drivers/r_scifa/src/hld/r_scifa_drv_api.c ****             {
 280:../generate/sc_drivers/r_scifa/src/hld/r_scifa_drv_api.c ****                 ret = r_scifa_hld_tx_flush(sc_config_index);
 281:../generate/sc_drivers/r_scifa/src/hld/r_scifa_drv_api.c ****                 break;
 282:../generate/sc_drivers/r_scifa/src/hld/r_scifa_drv_api.c ****             }
 283:../generate/sc_drivers/r_scifa/src/hld/r_scifa_drv_api.c **** 
 284:../generate/sc_drivers/r_scifa/src/hld/r_scifa_drv_api.c ****             default:
 285:../generate/sc_drivers/r_scifa/src/hld/r_scifa_drv_api.c ****             {
 286:../generate/sc_drivers/r_scifa/src/hld/r_scifa_drv_api.c ****                 printf("SCIFA Driver: Unknown control code %ld\r\n", ctl_code);
 287:../generate/sc_drivers/r_scifa/src/hld/r_scifa_drv_api.c ****                 break;
 288:../generate/sc_drivers/r_scifa/src/hld/r_scifa_drv_api.c ****             }
 289:../generate/sc_drivers/r_scifa/src/hld/r_scifa_drv_api.c ****         }
 290:../generate/sc_drivers/r_scifa/src/hld/r_scifa_drv_api.c ****     }
 291:../generate/sc_drivers/r_scifa/src/hld/r_scifa_drv_api.c **** 
 292:../generate/sc_drivers/r_scifa/src/hld/r_scifa_drv_api.c ****     return (ret);
 293:../generate/sc_drivers/r_scifa/src/hld/r_scifa_drv_api.c **** }
 294:../generate/sc_drivers/r_scifa/src/hld/r_scifa_drv_api.c **** /**************************************************************************************************
 295:../generate/sc_drivers/r_scifa/src/hld/r_scifa_drv_api.c ****  * End of Function scifa_hld_control()
 296:../generate/sc_drivers/r_scifa/src/hld/r_scifa_drv_api.c ****  **************************************************************************************************
 297:../generate/sc_drivers/r_scifa/src/hld/r_scifa_drv_api.c **** 
 298:../generate/sc_drivers/r_scifa/src/hld/r_scifa_drv_api.c **** /**
 299:../generate/sc_drivers/r_scifa/src/hld/r_scifa_drv_api.c ****  * @brief Provides build information even if driver fails to open\n
 300:../generate/sc_drivers/r_scifa/src/hld/r_scifa_drv_api.c ****  *        version information is updated by developer
 301:../generate/sc_drivers/r_scifa/src/hld/r_scifa_drv_api.c ****  * 
 302:../generate/sc_drivers/r_scifa/src/hld/r_scifa_drv_api.c ****  * Acquires the version information for both the high layer and
 303:../generate/sc_drivers/r_scifa/src/hld/r_scifa_drv_api.c ****  * low layer driver. This allows for control of releases and debugging
 304:../generate/sc_drivers/r_scifa/src/hld/r_scifa_drv_api.c ****  * code.
 305:../generate/sc_drivers/r_scifa/src/hld/r_scifa_drv_api.c ****  *
 306:../generate/sc_drivers/r_scifa/src/hld/r_scifa_drv_api.c ****  * @param stream_ptr  Pointer to the file stream
 307:../generate/sc_drivers/r_scifa/src/hld/r_scifa_drv_api.c ****  * @param p_ver_info  Structure holding the version information
 308:../generate/sc_drivers/r_scifa/src/hld/r_scifa_drv_api.c ****  *
 309:../generate/sc_drivers/r_scifa/src/hld/r_scifa_drv_api.c ****  * @retval 0  DRV_SUCCESS (Never Fails)
 310:../generate/sc_drivers/r_scifa/src/hld/r_scifa_drv_api.c ****  */
 311:../generate/sc_drivers/r_scifa/src/hld/r_scifa_drv_api.c **** static int_t scifa_hld_get_version (st_stream_ptr_t stream_ptr, st_ver_info_t *p_ver_info)
 312:../generate/sc_drivers/r_scifa/src/hld/r_scifa_drv_api.c **** {
  33              		.loc 1 312 1 view -0
  34              		.cfi_startproc
  35              		@ args = 0, pretend = 0, frame = 0
  36              		@ frame_needed = 0, uses_anonymous_args = 0
  37              		.loc 1 312 1 is_stmt 0 view .LVU1
  38 0000 10402DE9 		push	{r4, lr}
  39              		.cfi_def_cfa_offset 8
  40              		.cfi_offset 4, -8
  41              		.cfi_offset 14, -4
  42 0004 0100A0E1 		mov	r0, r1
  43              	.LVL1:
 313:../generate/sc_drivers/r_scifa/src/hld/r_scifa_drv_api.c ****     (void) stream_ptr;
  44              		.loc 1 313 5 is_stmt 1 view .LVU2
 314:../generate/sc_drivers/r_scifa/src/hld/r_scifa_drv_api.c **** 
 315:../generate/sc_drivers/r_scifa/src/hld/r_scifa_drv_api.c ****     p_ver_info->hld.version.sub.major = gs_hld_info.version.sub.major;
  45              		.loc 1 315 5 view .LVU3
  46              		.loc 1 315 39 is_stmt 0 view .LVU4
  47 0008 0230A0E3 		mov	r3, #2
  48 000c B230C1E1 		strh	r3, [r1, #2]	@ movhi
 316:../generate/sc_drivers/r_scifa/src/hld/r_scifa_drv_api.c ****     p_ver_info->hld.version.sub.minor = gs_hld_info.version.sub.minor;
  49              		.loc 1 316 5 is_stmt 1 view .LVU5
  50              		.loc 1 316 39 is_stmt 0 view .LVU6
  51 0010 0430A0E3 		mov	r3, #4
  52 0014 B030C1E1 		strh	r3, [r1]	@ movhi
 317:../generate/sc_drivers/r_scifa/src/hld/r_scifa_drv_api.c ****     p_ver_info->hld.build = gs_hld_info.build;
  53              		.loc 1 317 5 is_stmt 1 view .LVU7
  54              		.loc 1 317 27 is_stmt 0 view .LVU8
  55 0018 0040A0E3 		mov	r4, #0
  56 001c 044081E5 		str	r4, [r1, #4]
 318:../generate/sc_drivers/r_scifa/src/hld/r_scifa_drv_api.c ****     p_ver_info->hld.p_szdriver_name = gs_hld_info.p_szdriver_name;
  57              		.loc 1 318 5 is_stmt 1 view .LVU9
  58              		.loc 1 318 37 is_stmt 0 view .LVU10
  59 0020 003000E3 		movw	r3, #:lower16:.LC0
  60 0024 003040E3 		movt	r3, #:upper16:.LC0
  61 0028 083081E5 		str	r3, [r1, #8]
 319:../generate/sc_drivers/r_scifa/src/hld/r_scifa_drv_api.c **** 
 320:../generate/sc_drivers/r_scifa/src/hld/r_scifa_drv_api.c ****     /* Obtain version information from Low Layer Driver */
 321:../generate/sc_drivers/r_scifa/src/hld/r_scifa_drv_api.c ****     R_SCIFA_GetVersion(p_ver_info);
  62              		.loc 1 321 5 is_stmt 1 view .LVU11
  63 002c FEFFFFEB 		bl	R_SCIFA_GetVersion
  64              	.LVL2:
 322:../generate/sc_drivers/r_scifa/src/hld/r_scifa_drv_api.c **** 
 323:../generate/sc_drivers/r_scifa/src/hld/r_scifa_drv_api.c ****     return (DRV_SUCCESS);
  65              		.loc 1 323 5 view .LVU12
 324:../generate/sc_drivers/r_scifa/src/hld/r_scifa_drv_api.c **** }
  66              		.loc 1 324 1 is_stmt 0 view .LVU13
  67 0030 0400A0E1 		mov	r0, r4
  68 0034 1080BDE8 		pop	{r4, pc}
  69              		.cfi_endproc
  70              	.LFE8:
  72              		.section	.text.scifa_get_config_index,"ax",%progbits
  73              		.align	2
  74              		.syntax unified
  75              		.arm
  76              		.fpu neon
  78              	scifa_get_config_index:
  79              	.LVL3:
  80              	.LFB9:
 325:../generate/sc_drivers/r_scifa/src/hld/r_scifa_drv_api.c **** /**************************************************************************************************
 326:../generate/sc_drivers/r_scifa/src/hld/r_scifa_drv_api.c ****  * End of Function scifa_hld_get_version
 327:../generate/sc_drivers/r_scifa/src/hld/r_scifa_drv_api.c ****  **************************************************************************************************
 328:../generate/sc_drivers/r_scifa/src/hld/r_scifa_drv_api.c **** 
 329:../generate/sc_drivers/r_scifa/src/hld/r_scifa_drv_api.c **** /**
 330:../generate/sc_drivers/r_scifa/src/hld/r_scifa_drv_api.c ****  * @brief Acquires and validates the smart configuration index from a given stream_ptr
 331:../generate/sc_drivers/r_scifa/src/hld/r_scifa_drv_api.c ****  *
 332:../generate/sc_drivers/r_scifa/src/hld/r_scifa_drv_api.c ****  * This function safely returns a configuration index if it is
 333:../generate/sc_drivers/r_scifa/src/hld/r_scifa_drv_api.c ****  * supported by the driver, otherwise it returns -1
 334:../generate/sc_drivers/r_scifa/src/hld/r_scifa_drv_api.c ****  *
 335:../generate/sc_drivers/r_scifa/src/hld/r_scifa_drv_api.c ****  * @param stream_ptr Pointer to the file stream
 336:../generate/sc_drivers/r_scifa/src/hld/r_scifa_drv_api.c ****  *
 337:../generate/sc_drivers/r_scifa/src/hld/r_scifa_drv_api.c ****  * @retval  N Where N is the configuration index
 338:../generate/sc_drivers/r_scifa/src/hld/r_scifa_drv_api.c ****  * @retval -1 DRV_ERROR
 339:../generate/sc_drivers/r_scifa/src/hld/r_scifa_drv_api.c ****  */
 340:../generate/sc_drivers/r_scifa/src/hld/r_scifa_drv_api.c **** static r_sc_index_t scifa_get_config_index (st_stream_ptr_t stream_ptr)
 341:../generate/sc_drivers/r_scifa/src/hld/r_scifa_drv_api.c **** {
  81              		.loc 1 341 1 is_stmt 1 view -0
  82              		.cfi_startproc
  83              		@ args = 0, pretend = 0, frame = 0
  84              		@ frame_needed = 0, uses_anonymous_args = 0
  85              		.loc 1 341 1 is_stmt 0 view .LVU15
  86 0000 10402DE9 		push	{r4, lr}
  87              		.cfi_def_cfa_offset 8
  88              		.cfi_offset 4, -8
  89              		.cfi_offset 14, -4
 342:../generate/sc_drivers/r_scifa/src/hld/r_scifa_drv_api.c ****     r_channel_t channel_id;
  90              		.loc 1 342 5 is_stmt 1 view .LVU16
 343:../generate/sc_drivers/r_scifa/src/hld/r_scifa_drv_api.c ****     r_sc_index_t sc_config_index;
  91              		.loc 1 343 5 view .LVU17
 344:../generate/sc_drivers/r_scifa/src/hld/r_scifa_drv_api.c **** 
 345:../generate/sc_drivers/r_scifa/src/hld/r_scifa_drv_api.c ****     /* return error if not valid stream pointer */
 346:../generate/sc_drivers/r_scifa/src/hld/r_scifa_drv_api.c ****     if (NULL == stream_ptr)
  92              		.loc 1 346 5 view .LVU18
  93              		.loc 1 346 8 is_stmt 0 view .LVU19
  94 0004 000050E3 		cmp	r0, #0
  95              		.loc 1 346 8 view .LVU20
  96 0008 0E00000A 		beq	.L5
 347:../generate/sc_drivers/r_scifa/src/hld/r_scifa_drv_api.c ****     {
 348:../generate/sc_drivers/r_scifa/src/hld/r_scifa_drv_api.c ****         return (DRV_ERROR);
 349:../generate/sc_drivers/r_scifa/src/hld/r_scifa_drv_api.c ****     }
 350:../generate/sc_drivers/r_scifa/src/hld/r_scifa_drv_api.c **** 
 351:../generate/sc_drivers/r_scifa/src/hld/r_scifa_drv_api.c ****     /* get channel associated with configuration */
 352:../generate/sc_drivers/r_scifa/src/hld/r_scifa_drv_api.c ****     sc_config_index = (int_t) (stream_ptr->sc_config_index);
  97              		.loc 1 352 5 is_stmt 1 view .LVU21
  98              		.loc 1 352 21 is_stmt 0 view .LVU22
  99 000c 1C40D0E5 		ldrb	r4, [r0, #28]	@ zero_extendqisi2
 100              	.LVL4:
 353:../generate/sc_drivers/r_scifa/src/hld/r_scifa_drv_api.c ****     channel_id = R_SCIFA_GetChannel(sc_config_index);
 101              		.loc 1 353 5 is_stmt 1 view .LVU23
 102              		.loc 1 353 18 is_stmt 0 view .LVU24
 103 0010 0400A0E1 		mov	r0, r4
 104              	.LVL5:
 105              		.loc 1 353 18 view .LVU25
 106 0014 FEFFFFEB 		bl	R_SCIFA_GetChannel
 107              	.LVL6:
 354:../generate/sc_drivers/r_scifa/src/hld/r_scifa_drv_api.c **** 
 355:../generate/sc_drivers/r_scifa/src/hld/r_scifa_drv_api.c ****     if (DRV_ERROR == channel_id)
 108              		.loc 1 355 5 is_stmt 1 view .LVU26
 109              		.loc 1 355 8 is_stmt 0 view .LVU27
 110 0018 010070E3 		cmn	r0, #1
 111 001c 0B00000A 		beq	.L6
 356:../generate/sc_drivers/r_scifa/src/hld/r_scifa_drv_api.c ****     {
 357:../generate/sc_drivers/r_scifa/src/hld/r_scifa_drv_api.c ****         return (DRV_ERROR);
 358:../generate/sc_drivers/r_scifa/src/hld/r_scifa_drv_api.c ****     }
 359:../generate/sc_drivers/r_scifa/src/hld/r_scifa_drv_api.c **** 
 360:../generate/sc_drivers/r_scifa/src/hld/r_scifa_drv_api.c ****     /* verify that the channel is supported */
 361:../generate/sc_drivers/r_scifa/src/hld/r_scifa_drv_api.c ****     /* look for channel in the map of available channels from low level driver */
 362:../generate/sc_drivers/r_scifa/src/hld/r_scifa_drv_api.c ****     /* (e_channel_id_t). This is a bit field where the power of 2 is the available channel */
 363:../generate/sc_drivers/r_scifa/src/hld/r_scifa_drv_api.c ****     if (((1 << channel_id) <= R_CH15))
 112              		.loc 1 363 5 is_stmt 1 view .LVU28
 113              		.loc 1 363 13 is_stmt 0 view .LVU29
 114 0020 0130A0E3 		mov	r3, #1
 115 0024 1300A0E1 		lsl	r0, r3, r0
 116              	.LVL7:
 117              		.loc 1 363 8 view .LVU30
 118 0028 020950E3 		cmp	r0, #32768
 119 002c 090000CA 		bgt	.L7
 120              	.LBB2:
 364:../generate/sc_drivers/r_scifa/src/hld/r_scifa_drv_api.c ****     {
 365:../generate/sc_drivers/r_scifa/src/hld/r_scifa_drv_api.c ****         /* set channel as bit field where value is 2 << channel */
 366:../generate/sc_drivers/r_scifa/src/hld/r_scifa_drv_api.c ****         uint16_t channel_bit_value = (uint16_t) (1 << channel_id);
 121              		.loc 1 366 9 is_stmt 1 view .LVU31
 122              	.LVL8:
 367:../generate/sc_drivers/r_scifa/src/hld/r_scifa_drv_api.c **** 
 368:../generate/sc_drivers/r_scifa/src/hld/r_scifa_drv_api.c ****         /* get bit field of supported channels */
 369:../generate/sc_drivers/r_scifa/src/hld/r_scifa_drv_api.c ****         uint16_t supported_channels = SCIFA_CFG_LLD_SUPPORTED_CHANNELS;
 123              		.loc 1 369 9 view .LVU32
 370:../generate/sc_drivers/r_scifa/src/hld/r_scifa_drv_api.c **** 
 371:../generate/sc_drivers/r_scifa/src/hld/r_scifa_drv_api.c ****         if (0 != (channel_bit_value & supported_channels))
 124              		.loc 1 371 9 view .LVU33
 125              		.loc 1 371 12 is_stmt 0 view .LVU34
 126 0030 1F0010E3 		tst	r0, #31
 127 0034 0100000A 		beq	.L9
 128              	.LVL9:
 129              	.L4:
 130              		.loc 1 371 12 view .LVU35
 131              	.LBE2:
 372:../generate/sc_drivers/r_scifa/src/hld/r_scifa_drv_api.c ****         {
 373:../generate/sc_drivers/r_scifa/src/hld/r_scifa_drv_api.c ****             /* channel is supported */
 374:../generate/sc_drivers/r_scifa/src/hld/r_scifa_drv_api.c ****             return (sc_config_index);
 375:../generate/sc_drivers/r_scifa/src/hld/r_scifa_drv_api.c ****         }
 376:../generate/sc_drivers/r_scifa/src/hld/r_scifa_drv_api.c ****     }
 377:../generate/sc_drivers/r_scifa/src/hld/r_scifa_drv_api.c **** 
 378:../generate/sc_drivers/r_scifa/src/hld/r_scifa_drv_api.c ****     return (DRV_ERROR);
 379:../generate/sc_drivers/r_scifa/src/hld/r_scifa_drv_api.c **** }
 132              		.loc 1 379 1 view .LVU36
 133 0038 0400A0E1 		mov	r0, r4
 134 003c 1080BDE8 		pop	{r4, pc}
 135              	.LVL10:
 136              	.L9:
 378:../generate/sc_drivers/r_scifa/src/hld/r_scifa_drv_api.c **** }
 137              		.loc 1 378 12 view .LVU37
 138 0040 0040E0E3 		mvn	r4, #0
 139              	.LVL11:
 378:../generate/sc_drivers/r_scifa/src/hld/r_scifa_drv_api.c **** }
 140              		.loc 1 378 12 view .LVU38
 141 0044 FBFFFFEA 		b	.L4
 142              	.LVL12:
 143              	.L5:
 348:../generate/sc_drivers/r_scifa/src/hld/r_scifa_drv_api.c ****     }
 144              		.loc 1 348 16 view .LVU39
 145 0048 0040E0E3 		mvn	r4, #0
 146 004c F9FFFFEA 		b	.L4
 147              	.LVL13:
 148              	.L6:
 357:../generate/sc_drivers/r_scifa/src/hld/r_scifa_drv_api.c ****     }
 149              		.loc 1 357 16 view .LVU40
 150 0050 0040E0E3 		mvn	r4, #0
 151              	.LVL14:
 357:../generate/sc_drivers/r_scifa/src/hld/r_scifa_drv_api.c ****     }
 152              		.loc 1 357 16 view .LVU41
 153 0054 F7FFFFEA 		b	.L4
 154              	.LVL15:
 155              	.L7:
 378:../generate/sc_drivers/r_scifa/src/hld/r_scifa_drv_api.c **** }
 156              		.loc 1 378 12 view .LVU42
 157 0058 0040E0E3 		mvn	r4, #0
 158              	.LVL16:
 378:../generate/sc_drivers/r_scifa/src/hld/r_scifa_drv_api.c **** }
 159              		.loc 1 378 12 view .LVU43
 160 005c F5FFFFEA 		b	.L4
 161              		.cfi_endproc
 162              	.LFE9:
 164              		.section	.rodata.scifa_hld_control.str1.4,"aMS",%progbits,1
 165              		.align	2
 166              	.LC1:
 167 0000 53434946 		.ascii	"SCIFA Driver: Unknown control code %ld\015\012\000"
 167      41204472 
 167      69766572 
 167      3A20556E 
 167      6B6E6F77 
 168              		.section	.text.scifa_hld_control,"ax",%progbits
 169              		.align	2
 170              		.syntax unified
 171              		.arm
 172              		.fpu neon
 174              	scifa_hld_control:
 175              	.LVL17:
 176              	.LFB7:
 213:../generate/sc_drivers/r_scifa/src/hld/r_scifa_drv_api.c ****     int_t ret = DRV_ERROR;
 177              		.loc 1 213 1 is_stmt 1 view -0
 178              		.cfi_startproc
 179              		@ args = 0, pretend = 0, frame = 0
 180              		@ frame_needed = 0, uses_anonymous_args = 0
 213:../generate/sc_drivers/r_scifa/src/hld/r_scifa_drv_api.c ****     int_t ret = DRV_ERROR;
 181              		.loc 1 213 1 is_stmt 0 view .LVU45
 182 0000 70402DE9 		push	{r4, r5, r6, lr}
 183              		.cfi_def_cfa_offset 16
 184              		.cfi_offset 4, -16
 185              		.cfi_offset 5, -12
 186              		.cfi_offset 6, -8
 187              		.cfi_offset 14, -4
 188 0004 0140A0E1 		mov	r4, r1
 189 0008 0250A0E1 		mov	r5, r2
 214:../generate/sc_drivers/r_scifa/src/hld/r_scifa_drv_api.c **** 
 190              		.loc 1 214 5 is_stmt 1 view .LVU46
 191              	.LVL18:
 217:../generate/sc_drivers/r_scifa/src/hld/r_scifa_drv_api.c **** 
 192              		.loc 1 217 5 view .LVU47
 217:../generate/sc_drivers/r_scifa/src/hld/r_scifa_drv_api.c **** 
 193              		.loc 1 217 36 is_stmt 0 view .LVU48
 194 000c FEFFFFEB 		bl	scifa_get_config_index
 195              	.LVL19:
 220:../generate/sc_drivers/r_scifa/src/hld/r_scifa_drv_api.c ****     {
 196              		.loc 1 220 5 is_stmt 1 view .LVU49
 220:../generate/sc_drivers/r_scifa/src/hld/r_scifa_drv_api.c ****     {
 197              		.loc 1 220 8 is_stmt 0 view .LVU50
 198 0010 010070E3 		cmn	r0, #1
 199 0014 2A00000A 		beq	.L21
 222:../generate/sc_drivers/r_scifa/src/hld/r_scifa_drv_api.c ****         {
 200              		.loc 1 222 9 is_stmt 1 view .LVU51
 201 0018 4D3844E2 		sub	r3, r4, #5046272
 202 001c 060053E3 		cmp	r3, #6
 203 0020 03F19F97 		ldrls	pc, [pc, r3, asl #2]
 204 0024 200000EA 		b	.L12
 205              	.L14:
 206 0028 44000000 		.word	.L20
 207 002c 58000000 		.word	.L19
 208 0030 6C000000 		.word	.L18
 209 0034 74000000 		.word	.L17
 210 0038 90000000 		.word	.L16
 211 003c 7C000000 		.word	.L15
 212 0040 A4000000 		.word	.L13
 213              	.L20:
 227:../generate/sc_drivers/r_scifa/src/hld/r_scifa_drv_api.c ****                 {
 214              		.loc 1 227 17 view .LVU52
 227:../generate/sc_drivers/r_scifa/src/hld/r_scifa_drv_api.c ****                 {
 215              		.loc 1 227 20 is_stmt 0 view .LVU53
 216 0044 000055E3 		cmp	r5, #0
 217 0048 1F00000A 		beq	.L22
 229:../generate/sc_drivers/r_scifa/src/hld/r_scifa_drv_api.c ****                 }
 218              		.loc 1 229 21 is_stmt 1 view .LVU54
 229:../generate/sc_drivers/r_scifa/src/hld/r_scifa_drv_api.c ****                 }
 219              		.loc 1 229 27 is_stmt 0 view .LVU55
 220 004c 0510A0E1 		mov	r1, r5
 221 0050 FEFFFFEB 		bl	r_scifa_hld_prv_set_config
 222              	.LVL20:
 229:../generate/sc_drivers/r_scifa/src/hld/r_scifa_drv_api.c ****                 }
 223              		.loc 1 229 27 view .LVU56
 224 0054 7080BDE8 		pop	{r4, r5, r6, pc}
 225              	.LVL21:
 226              	.L19:
 237:../generate/sc_drivers/r_scifa/src/hld/r_scifa_drv_api.c ****                 {
 227              		.loc 1 237 17 is_stmt 1 view .LVU57
 237:../generate/sc_drivers/r_scifa/src/hld/r_scifa_drv_api.c ****                 {
 228              		.loc 1 237 20 is_stmt 0 view .LVU58
 229 0058 000055E3 		cmp	r5, #0
 230 005c 1C00000A 		beq	.L23
 239:../generate/sc_drivers/r_scifa/src/hld/r_scifa_drv_api.c ****                 }
 231              		.loc 1 239 21 is_stmt 1 view .LVU59
 239:../generate/sc_drivers/r_scifa/src/hld/r_scifa_drv_api.c ****                 }
 232              		.loc 1 239 27 is_stmt 0 view .LVU60
 233 0060 0510A0E1 		mov	r1, r5
 234 0064 FEFFFFEB 		bl	r_scifa_hld_prv_get_config
 235              	.LVL22:
 239:../generate/sc_drivers/r_scifa/src/hld/r_scifa_drv_api.c ****                 }
 236              		.loc 1 239 27 view .LVU61
 237 0068 7080BDE8 		pop	{r4, r5, r6, pc}
 238              	.LVL23:
 239              	.L18:
 246:../generate/sc_drivers/r_scifa/src/hld/r_scifa_drv_api.c ****                 break;
 240              		.loc 1 246 17 is_stmt 1 view .LVU62
 246:../generate/sc_drivers/r_scifa/src/hld/r_scifa_drv_api.c ****                 break;
 241              		.loc 1 246 23 is_stmt 0 view .LVU63
 242 006c FEFFFFEB 		bl	r_scifa_hld_dma_read_abort
 243              	.LVL24:
 247:../generate/sc_drivers/r_scifa/src/hld/r_scifa_drv_api.c ****             }
 244              		.loc 1 247 17 is_stmt 1 view .LVU64
 245 0070 7080BDE8 		pop	{r4, r5, r6, pc}
 246              	.LVL25:
 247              	.L17:
 252:../generate/sc_drivers/r_scifa/src/hld/r_scifa_drv_api.c ****                 break;
 248              		.loc 1 252 17 view .LVU65
 252:../generate/sc_drivers/r_scifa/src/hld/r_scifa_drv_api.c ****                 break;
 249              		.loc 1 252 23 is_stmt 0 view .LVU66
 250 0074 FEFFFFEB 		bl	r_scifa_hld_dma_write_abort
 251              	.LVL26:
 253:../generate/sc_drivers/r_scifa/src/hld/r_scifa_drv_api.c ****             }
 252              		.loc 1 253 17 is_stmt 1 view .LVU67
 253 0078 7080BDE8 		pop	{r4, r5, r6, pc}
 254              	.LVL27:
 255              	.L15:
 259:../generate/sc_drivers/r_scifa/src/hld/r_scifa_drv_api.c ****                 {
 256              		.loc 1 259 17 view .LVU68
 259:../generate/sc_drivers/r_scifa/src/hld/r_scifa_drv_api.c ****                 {
 257              		.loc 1 259 20 is_stmt 0 view .LVU69
 258 007c 000055E3 		cmp	r5, #0
 259 0080 1500000A 		beq	.L24
 262:../generate/sc_drivers/r_scifa/src/hld/r_scifa_drv_api.c ****                 }
 260              		.loc 1 262 21 is_stmt 1 view .LVU70
 262:../generate/sc_drivers/r_scifa/src/hld/r_scifa_drv_api.c ****                 }
 261              		.loc 1 262 27 is_stmt 0 view .LVU71
 262 0084 0510A0E1 		mov	r1, r5
 263 0088 FEFFFFEB 		bl	r_scifa_hld_dma_read_next
 264              	.LVL28:
 262:../generate/sc_drivers/r_scifa/src/hld/r_scifa_drv_api.c ****                 }
 265              		.loc 1 262 27 view .LVU72
 266 008c 7080BDE8 		pop	{r4, r5, r6, pc}
 267              	.LVL29:
 268              	.L16:
 270:../generate/sc_drivers/r_scifa/src/hld/r_scifa_drv_api.c ****                 {
 269              		.loc 1 270 17 is_stmt 1 view .LVU73
 270:../generate/sc_drivers/r_scifa/src/hld/r_scifa_drv_api.c ****                 {
 270              		.loc 1 270 20 is_stmt 0 view .LVU74
 271 0090 000055E3 		cmp	r5, #0
 272 0094 1200000A 		beq	.L25
 273:../generate/sc_drivers/r_scifa/src/hld/r_scifa_drv_api.c ****                 }
 273              		.loc 1 273 21 is_stmt 1 view .LVU75
 273:../generate/sc_drivers/r_scifa/src/hld/r_scifa_drv_api.c ****                 }
 274              		.loc 1 273 27 is_stmt 0 view .LVU76
 275 0098 0510A0E1 		mov	r1, r5
 276 009c FEFFFFEB 		bl	r_scifa_hld_dma_write_next
 277              	.LVL30:
 273:../generate/sc_drivers/r_scifa/src/hld/r_scifa_drv_api.c ****                 }
 278              		.loc 1 273 27 view .LVU77
 279 00a0 7080BDE8 		pop	{r4, r5, r6, pc}
 280              	.LVL31:
 281              	.L13:
 280:../generate/sc_drivers/r_scifa/src/hld/r_scifa_drv_api.c ****                 break;
 282              		.loc 1 280 17 is_stmt 1 view .LVU78
 280:../generate/sc_drivers/r_scifa/src/hld/r_scifa_drv_api.c ****                 break;
 283              		.loc 1 280 23 is_stmt 0 view .LVU79
 284 00a4 FEFFFFEB 		bl	r_scifa_hld_tx_flush
 285              	.LVL32:
 281:../generate/sc_drivers/r_scifa/src/hld/r_scifa_drv_api.c ****             }
 286              		.loc 1 281 17 is_stmt 1 view .LVU80
 287 00a8 7080BDE8 		pop	{r4, r5, r6, pc}
 288              	.LVL33:
 289              	.L12:
 286:../generate/sc_drivers/r_scifa/src/hld/r_scifa_drv_api.c ****                 break;
 290              		.loc 1 286 17 view .LVU81
 291 00ac 0410A0E1 		mov	r1, r4
 292 00b0 000000E3 		movw	r0, #:lower16:.LC1
 293              	.LVL34:
 286:../generate/sc_drivers/r_scifa/src/hld/r_scifa_drv_api.c ****                 break;
 294              		.loc 1 286 17 is_stmt 0 view .LVU82
 295 00b4 000040E3 		movt	r0, #:upper16:.LC1
 296 00b8 FEFFFFEB 		bl	printf
 297              	.LVL35:
 287:../generate/sc_drivers/r_scifa/src/hld/r_scifa_drv_api.c ****             }
 298              		.loc 1 287 17 is_stmt 1 view .LVU83
 214:../generate/sc_drivers/r_scifa/src/hld/r_scifa_drv_api.c **** 
 299              		.loc 1 214 11 is_stmt 0 view .LVU84
 300 00bc 0000E0E3 		mvn	r0, #0
 287:../generate/sc_drivers/r_scifa/src/hld/r_scifa_drv_api.c ****             }
 301              		.loc 1 287 17 view .LVU85
 302 00c0 7080BDE8 		pop	{r4, r5, r6, pc}
 303              	.LVL36:
 304              	.L21:
 214:../generate/sc_drivers/r_scifa/src/hld/r_scifa_drv_api.c **** 
 305              		.loc 1 214 11 view .LVU86
 306 00c4 0000E0E3 		mvn	r0, #0
 307              	.LVL37:
 214:../generate/sc_drivers/r_scifa/src/hld/r_scifa_drv_api.c **** 
 308              		.loc 1 214 11 view .LVU87
 309 00c8 7080BDE8 		pop	{r4, r5, r6, pc}
 310              	.LVL38:
 311              	.L22:
 214:../generate/sc_drivers/r_scifa/src/hld/r_scifa_drv_api.c **** 
 312              		.loc 1 214 11 view .LVU88
 313 00cc 0000E0E3 		mvn	r0, #0
 314              	.LVL39:
 214:../generate/sc_drivers/r_scifa/src/hld/r_scifa_drv_api.c **** 
 315              		.loc 1 214 11 view .LVU89
 316 00d0 7080BDE8 		pop	{r4, r5, r6, pc}
 317              	.LVL40:
 318              	.L23:
 214:../generate/sc_drivers/r_scifa/src/hld/r_scifa_drv_api.c **** 
 319              		.loc 1 214 11 view .LVU90
 320 00d4 0000E0E3 		mvn	r0, #0
 321              	.LVL41:
 214:../generate/sc_drivers/r_scifa/src/hld/r_scifa_drv_api.c **** 
 322              		.loc 1 214 11 view .LVU91
 323 00d8 7080BDE8 		pop	{r4, r5, r6, pc}
 324              	.LVL42:
 325              	.L24:
 214:../generate/sc_drivers/r_scifa/src/hld/r_scifa_drv_api.c **** 
 326              		.loc 1 214 11 view .LVU92
 327 00dc 0000E0E3 		mvn	r0, #0
 328              	.LVL43:
 214:../generate/sc_drivers/r_scifa/src/hld/r_scifa_drv_api.c **** 
 329              		.loc 1 214 11 view .LVU93
 330 00e0 7080BDE8 		pop	{r4, r5, r6, pc}
 331              	.LVL44:
 332              	.L25:
 214:../generate/sc_drivers/r_scifa/src/hld/r_scifa_drv_api.c **** 
 333              		.loc 1 214 11 view .LVU94
 334 00e4 0000E0E3 		mvn	r0, #0
 335              	.LVL45:
 292:../generate/sc_drivers/r_scifa/src/hld/r_scifa_drv_api.c **** }
 336              		.loc 1 292 5 is_stmt 1 view .LVU95
 293:../generate/sc_drivers/r_scifa/src/hld/r_scifa_drv_api.c **** /**************************************************************************************************
 337              		.loc 1 293 1 is_stmt 0 view .LVU96
 338 00e8 7080BDE8 		pop	{r4, r5, r6, pc}
 339              		.cfi_endproc
 340              	.LFE7:
 342              		.section	.text.scifa_hld_write,"ax",%progbits
 343              		.align	2
 344              		.syntax unified
 345              		.arm
 346              		.fpu neon
 348              	scifa_hld_write:
 349              	.LVL46:
 350              	.LFB6:
 186:../generate/sc_drivers/r_scifa/src/hld/r_scifa_drv_api.c ****     /* get the Smart Configuration index associated with the handle */
 351              		.loc 1 186 1 is_stmt 1 view -0
 352              		.cfi_startproc
 353              		@ args = 0, pretend = 0, frame = 0
 354              		@ frame_needed = 0, uses_anonymous_args = 0
 186:../generate/sc_drivers/r_scifa/src/hld/r_scifa_drv_api.c ****     /* get the Smart Configuration index associated with the handle */
 355              		.loc 1 186 1 is_stmt 0 view .LVU98
 356 0000 70402DE9 		push	{r4, r5, r6, lr}
 357              		.cfi_def_cfa_offset 16
 358              		.cfi_offset 4, -16
 359              		.cfi_offset 5, -12
 360              		.cfi_offset 6, -8
 361              		.cfi_offset 14, -4
 362 0004 0140A0E1 		mov	r4, r1
 363 0008 0250A0E1 		mov	r5, r2
 188:../generate/sc_drivers/r_scifa/src/hld/r_scifa_drv_api.c **** 
 364              		.loc 1 188 5 is_stmt 1 view .LVU99
 188:../generate/sc_drivers/r_scifa/src/hld/r_scifa_drv_api.c **** 
 365              		.loc 1 188 36 is_stmt 0 view .LVU100
 366 000c FEFFFFEB 		bl	scifa_get_config_index
 367              	.LVL47:
 191:../generate/sc_drivers/r_scifa/src/hld/r_scifa_drv_api.c **** }
 368              		.loc 1 191 5 is_stmt 1 view .LVU101
 191:../generate/sc_drivers/r_scifa/src/hld/r_scifa_drv_api.c **** }
 369              		.loc 1 191 13 is_stmt 0 view .LVU102
 370 0010 0520A0E1 		mov	r2, r5
 371 0014 0410A0E1 		mov	r1, r4
 372 0018 FEFFFFEB 		bl	r_scifa_hld_prv_write
 373              	.LVL48:
 192:../generate/sc_drivers/r_scifa/src/hld/r_scifa_drv_api.c **** /**************************************************************************************************
 374              		.loc 1 192 1 view .LVU103
 375 001c 7080BDE8 		pop	{r4, r5, r6, pc}
 376              		.cfi_endproc
 377              	.LFE6:
 379              		.section	.text.scifa_hld_read,"ax",%progbits
 380              		.align	2
 381              		.syntax unified
 382              		.arm
 383              		.fpu neon
 385              	scifa_hld_read:
 386              	.LVL49:
 387              	.LFB5:
 160:../generate/sc_drivers/r_scifa/src/hld/r_scifa_drv_api.c ****     /* get the Smart Configuration index associated with the handle */
 388              		.loc 1 160 1 is_stmt 1 view -0
 389              		.cfi_startproc
 390              		@ args = 0, pretend = 0, frame = 0
 391              		@ frame_needed = 0, uses_anonymous_args = 0
 160:../generate/sc_drivers/r_scifa/src/hld/r_scifa_drv_api.c ****     /* get the Smart Configuration index associated with the handle */
 392              		.loc 1 160 1 is_stmt 0 view .LVU105
 393 0000 70402DE9 		push	{r4, r5, r6, lr}
 394              		.cfi_def_cfa_offset 16
 395              		.cfi_offset 4, -16
 396              		.cfi_offset 5, -12
 397              		.cfi_offset 6, -8
 398              		.cfi_offset 14, -4
 399 0004 0140A0E1 		mov	r4, r1
 400 0008 0250A0E1 		mov	r5, r2
 162:../generate/sc_drivers/r_scifa/src/hld/r_scifa_drv_api.c **** 
 401              		.loc 1 162 5 is_stmt 1 view .LVU106
 162:../generate/sc_drivers/r_scifa/src/hld/r_scifa_drv_api.c **** 
 402              		.loc 1 162 36 is_stmt 0 view .LVU107
 403 000c FEFFFFEB 		bl	scifa_get_config_index
 404              	.LVL50:
 165:../generate/sc_drivers/r_scifa/src/hld/r_scifa_drv_api.c **** }
 405              		.loc 1 165 5 is_stmt 1 view .LVU108
 165:../generate/sc_drivers/r_scifa/src/hld/r_scifa_drv_api.c **** }
 406              		.loc 1 165 13 is_stmt 0 view .LVU109
 407 0010 0520A0E1 		mov	r2, r5
 408 0014 0410A0E1 		mov	r1, r4
 409 0018 FEFFFFEB 		bl	r_scifa_hld_prv_read
 410              	.LVL51:
 166:../generate/sc_drivers/r_scifa/src/hld/r_scifa_drv_api.c **** /**************************************************************************************************
 411              		.loc 1 166 1 view .LVU110
 412 001c 7080BDE8 		pop	{r4, r5, r6, pc}
 413              		.cfi_endproc
 414              	.LFE5:
 416              		.section	.text.scifa_hld_close,"ax",%progbits
 417              		.align	2
 418              		.syntax unified
 419              		.arm
 420              		.fpu neon
 422              	scifa_hld_close:
 423              	.LVL52:
 424              	.LFB4:
 135:../generate/sc_drivers/r_scifa/src/hld/r_scifa_drv_api.c ****     /* get the Smart Configuration index associated with the handle */
 425              		.loc 1 135 1 is_stmt 1 view -0
 426              		.cfi_startproc
 427              		@ args = 0, pretend = 0, frame = 0
 428              		@ frame_needed = 0, uses_anonymous_args = 0
 135:../generate/sc_drivers/r_scifa/src/hld/r_scifa_drv_api.c ****     /* get the Smart Configuration index associated with the handle */
 429              		.loc 1 135 1 is_stmt 0 view .LVU112
 430 0000 10402DE9 		push	{r4, lr}
 431              		.cfi_def_cfa_offset 8
 432              		.cfi_offset 4, -8
 433              		.cfi_offset 14, -4
 137:../generate/sc_drivers/r_scifa/src/hld/r_scifa_drv_api.c **** 
 434              		.loc 1 137 5 is_stmt 1 view .LVU113
 137:../generate/sc_drivers/r_scifa/src/hld/r_scifa_drv_api.c **** 
 435              		.loc 1 137 36 is_stmt 0 view .LVU114
 436 0004 FEFFFFEB 		bl	scifa_get_config_index
 437              	.LVL53:
 140:../generate/sc_drivers/r_scifa/src/hld/r_scifa_drv_api.c **** }
 438              		.loc 1 140 5 is_stmt 1 view .LVU115
 439 0008 FEFFFFEB 		bl	r_scifa_hld_prv_close
 440              	.LVL54:
 141:../generate/sc_drivers/r_scifa/src/hld/r_scifa_drv_api.c **** /**************************************************************************************************
 441              		.loc 1 141 1 is_stmt 0 view .LVU116
 442 000c 1080BDE8 		pop	{r4, pc}
 443              		.cfi_endproc
 444              	.LFE4:
 446              		.section	.text.scifa_hld_open,"ax",%progbits
 447              		.align	2
 448              		.syntax unified
 449              		.arm
 450              		.fpu neon
 452              	scifa_hld_open:
 453              	.LVL55:
 454              	.LFB3:
 107:../generate/sc_drivers/r_scifa/src/hld/r_scifa_drv_api.c ****     int_t ret = DRV_ERROR;
 455              		.loc 1 107 1 is_stmt 1 view -0
 456              		.cfi_startproc
 457              		@ args = 0, pretend = 0, frame = 0
 458              		@ frame_needed = 0, uses_anonymous_args = 0
 107:../generate/sc_drivers/r_scifa/src/hld/r_scifa_drv_api.c ****     int_t ret = DRV_ERROR;
 459              		.loc 1 107 1 is_stmt 0 view .LVU118
 460 0000 10402DE9 		push	{r4, lr}
 461              		.cfi_def_cfa_offset 8
 462              		.cfi_offset 4, -8
 463              		.cfi_offset 14, -4
 464 0004 0040A0E1 		mov	r4, r0
 108:../generate/sc_drivers/r_scifa/src/hld/r_scifa_drv_api.c **** 
 465              		.loc 1 108 5 is_stmt 1 view .LVU119
 466              	.LVL56:
 111:../generate/sc_drivers/r_scifa/src/hld/r_scifa_drv_api.c **** 
 467              		.loc 1 111 5 view .LVU120
 111:../generate/sc_drivers/r_scifa/src/hld/r_scifa_drv_api.c **** 
 468              		.loc 1 111 36 is_stmt 0 view .LVU121
 469 0008 FEFFFFEB 		bl	scifa_get_config_index
 470              	.LVL57:
 114:../generate/sc_drivers/r_scifa/src/hld/r_scifa_drv_api.c **** 
 471              		.loc 1 114 5 is_stmt 1 view .LVU122
 114:../generate/sc_drivers/r_scifa/src/hld/r_scifa_drv_api.c **** 
 472              		.loc 1 114 11 is_stmt 0 view .LVU123
 473 000c 141094E5 		ldr	r1, [r4, #20]
 474 0010 FEFFFFEB 		bl	r_scifa_hld_prv_open
 475              	.LVL58:
 117:../generate/sc_drivers/r_scifa/src/hld/r_scifa_drv_api.c **** }
 476              		.loc 1 117 5 is_stmt 1 view .LVU124
 118:../generate/sc_drivers/r_scifa/src/hld/r_scifa_drv_api.c **** /**************************************************************************************************
 477              		.loc 1 118 1 is_stmt 0 view .LVU125
 478 0014 1080BDE8 		pop	{r4, pc}
 479              		.cfi_endproc
 480              	.LFE3:
 482              		.global	g_scifa_driver
 483              		.section	.rodata.str1.4,"aMS",%progbits,1
 484              		.align	2
 485              	.LC2:
 486 0000 53434946 		.ascii	"SCIFA Device Driver\000"
 486      41204465 
 486      76696365 
 486      20447269 
 486      76657200 
 487              		.section	.rodata.g_scifa_driver,"a"
 488              		.align	2
 491              	g_scifa_driver:
 492 0000 00000000 		.word	.LC2
 493 0004 00000000 		.word	scifa_hld_open
 494 0008 00000000 		.word	scifa_hld_close
 495 000c 00000000 		.word	scifa_hld_read
 496 0010 00000000 		.word	scifa_hld_write
 497 0014 00000000 		.word	scifa_hld_control
 498 0018 00000000 		.word	scifa_hld_get_version
 499              		.text
 500              	.Letext0:
 501              		.file 2 "c:\\program files (x86)\\gnu arm embedded toolchain\\9 2020-q2-update\\arm-none-eabi\\inc
 502              		.file 3 "c:\\program files (x86)\\gnu arm embedded toolchain\\9 2020-q2-update\\arm-none-eabi\\inc
 503              		.file 4 "c:\\program files (x86)\\gnu arm embedded toolchain\\9 2020-q2-update\\lib\\gcc\\arm-none
 504              		.file 5 "c:\\program files (x86)\\gnu arm embedded toolchain\\9 2020-q2-update\\arm-none-eabi\\inc
 505              		.file 6 "c:\\program files (x86)\\gnu arm embedded toolchain\\9 2020-q2-update\\arm-none-eabi\\inc
 506              		.file 7 "c:\\program files (x86)\\gnu arm embedded toolchain\\9 2020-q2-update\\arm-none-eabi\\inc
 507              		.file 8 "c:\\program files (x86)\\gnu arm embedded toolchain\\9 2020-q2-update\\arm-none-eabi\\inc
 508              		.file 9 "C:/Users/ryota/e2_studio/workspace/rza2m_ssif_sample_freertos_gcc/generate/system/inc/r_t
 509              		.file 10 "c:\\program files (x86)\\gnu arm embedded toolchain\\9 2020-q2-update\\arm-none-eabi\\in
 510              		.file 11 "c:\\program files (x86)\\gnu arm embedded toolchain\\9 2020-q2-update\\arm-none-eabi\\in
 511              		.file 12 "C:/Users/ryota/e2_studio/workspace/rza2m_ssif_sample_freertos_gcc/generate/system/inc/dr
 512              		.file 13 "C:/Users/ryota/e2_studio/workspace/rza2m_ssif_sample_freertos_gcc/generate/sc_drivers/r_
 513              		.file 14 "C:/Users/ryota/e2_studio/workspace/rza2m_ssif_sample_freertos_gcc/generate/drivers/r_int
 514              		.file 15 "C:/Users/ryota/e2_studio/workspace/rza2m_ssif_sample_freertos_gcc/generate/sc_drivers/r_
 515              		.file 16 "C:/Users/ryota/e2_studio/workspace/rza2m_ssif_sample_freertos_gcc/generate/drivers/r_gpi
 516              		.file 17 "C:/Users/ryota/e2_studio/workspace/rza2m_ssif_sample_freertos_gcc/generate/drivers/r_gpi
 517              		.file 18 "C:/Users/ryota/e2_studio/workspace/rza2m_ssif_sample_freertos_gcc/generate/drivers/r_gpi
 518              		.file 19 "C:/Users/ryota/e2_studio/workspace/rza2m_ssif_sample_freertos_gcc/generate/sc_drivers/r_
 519              		.file 20 "C:/Users/ryota/e2_studio/workspace/rza2m_ssif_sample_freertos_gcc/generate/os_abstractio
 520              		.file 21 "C:/Users/ryota/e2_studio/workspace/rza2m_ssif_sample_freertos_gcc/generate/sc_drivers/r_
 521              		.file 22 "C:/Users/ryota/e2_studio/workspace/rza2m_ssif_sample_freertos_gcc/generate/sc_drivers/r_
 522              		.file 23 "c:\\program files (x86)\\gnu arm embedded toolchain\\9 2020-q2-update\\arm-none-eabi\\in