   1              		.cpu cortex-a9
   2              		.eabi_attribute 28, 1
   3              		.eabi_attribute 20, 1
   4              		.eabi_attribute 21, 1
   5              		.eabi_attribute 23, 3
   6              		.eabi_attribute 24, 1
   7              		.eabi_attribute 25, 1
   8              		.eabi_attribute 26, 1
   9              		.eabi_attribute 30, 1
  10              		.eabi_attribute 34, 0
  11              		.eabi_attribute 18, 4
  12              		.file	"r_stb_lld_rza2m.c"
  13              		.text
  14              	.Ltext0:
  15              		.cfi_sections	.debug_frame
  16              		.section	.text.get_stbcr_info,"ax",%progbits
  17              		.align	2
  18              		.arch armv7-a
  19              		.arch_extension mp
  20              		.arch_extension sec
  21              		.syntax unified
  22              		.arm
  23              		.fpu neon
  25              	get_stbcr_info:
  26              	.LVL0:
  27              	.LFB3:
  28              		.file 1 "../generate/drivers/r_stb/src/lld/r_stb_lld_rza2m.c"
   1:../generate/drivers/r_stb/src/lld/r_stb_lld_rza2m.c **** /**************************************************************************************************
   2:../generate/drivers/r_stb/src/lld/r_stb_lld_rza2m.c ****  * DISCLAIMER
   3:../generate/drivers/r_stb/src/lld/r_stb_lld_rza2m.c ****  * This software is supplied by Renesas Electronics Corporation and is only intended for use with R
   4:../generate/drivers/r_stb/src/lld/r_stb_lld_rza2m.c ****  * other uses are authorized. This software is owned by Renesas Electronics Corporation and is prot
   5:../generate/drivers/r_stb/src/lld/r_stb_lld_rza2m.c ****  * applicable laws, including copyright laws.
   6:../generate/drivers/r_stb/src/lld/r_stb_lld_rza2m.c ****  * THIS SOFTWARE IS PROVIDED "AS IS" AND RENESAS MAKES NO WARRANTIES REGARDING
   7:../generate/drivers/r_stb/src/lld/r_stb_lld_rza2m.c ****  * THIS SOFTWARE, WHETHER EXPRESS, IMPLIED OR STATUTORY, INCLUDING BUT NOT LIMITED TO WARRANTIES OF
   8:../generate/drivers/r_stb/src/lld/r_stb_lld_rza2m.c ****  * FITNESS FOR A PARTICULAR PURPOSE AND NON-INFRINGEMENT. ALL SUCH WARRANTIES ARE EXPRESSLY DISCLAI
   9:../generate/drivers/r_stb/src/lld/r_stb_lld_rza2m.c ****  * EXTENT PERMITTED NOT PROHIBITED BY LAW, NEITHER RENESAS ELECTRONICS CORPORATION NOR ANY OF ITS A
  10:../generate/drivers/r_stb/src/lld/r_stb_lld_rza2m.c ****  * SHALL BE LIABLE FOR ANY DIRECT, INDIRECT, SPECIAL, INCIDENTAL OR CONSEQUENTIAL DAMAGES FOR ANY R
  11:../generate/drivers/r_stb/src/lld/r_stb_lld_rza2m.c ****  * THIS SOFTWARE, EVEN IF RENESAS OR ITS AFFILIATES HAVE BEEN ADVISED OF THE POSSIBILITY OF SUCH DA
  12:../generate/drivers/r_stb/src/lld/r_stb_lld_rza2m.c ****  * Renesas reserves the right, without notice, to make changes to this software and to discontinue 
  13:../generate/drivers/r_stb/src/lld/r_stb_lld_rza2m.c ****  * this software. By using this software, you agree to the additional terms and conditions found by
  14:../generate/drivers/r_stb/src/lld/r_stb_lld_rza2m.c ****  * following link:
  15:../generate/drivers/r_stb/src/lld/r_stb_lld_rza2m.c ****  * http://www.renesas.com/disclaimer
  16:../generate/drivers/r_stb/src/lld/r_stb_lld_rza2m.c ****  *
  17:../generate/drivers/r_stb/src/lld/r_stb_lld_rza2m.c ****  * Copyright (C) 2018 Renesas Electronics Corporation. All rights reserved.
  18:../generate/drivers/r_stb/src/lld/r_stb_lld_rza2m.c ****  **************************************************************************************************
  19:../generate/drivers/r_stb/src/lld/r_stb_lld_rza2m.c **** 
  20:../generate/drivers/r_stb/src/lld/r_stb_lld_rza2m.c **** /*******************************************************************************
  21:../generate/drivers/r_stb/src/lld/r_stb_lld_rza2m.c **** * File Name    : r_stb_lld_rza2m.c
  22:../generate/drivers/r_stb/src/lld/r_stb_lld_rza2m.c **** * Device(s)    : RZ/A2M
  23:../generate/drivers/r_stb/src/lld/r_stb_lld_rza2m.c **** * Tool-Chain   : e2Studio Ver 7.5.0
  24:../generate/drivers/r_stb/src/lld/r_stb_lld_rza2m.c **** *              : GNU Arm Embedded Toolchain 6-2017-q2-update
  25:../generate/drivers/r_stb/src/lld/r_stb_lld_rza2m.c **** * OS           : None
  26:../generate/drivers/r_stb/src/lld/r_stb_lld_rza2m.c **** * H/W Platform : RZ/A2M Evaluation Board
  27:../generate/drivers/r_stb/src/lld/r_stb_lld_rza2m.c **** * Description  : RZ/A2M Sample Program - API function of STB module
  28:../generate/drivers/r_stb/src/lld/r_stb_lld_rza2m.c **** * Operation    :
  29:../generate/drivers/r_stb/src/lld/r_stb_lld_rza2m.c **** * Limitations  :
  30:../generate/drivers/r_stb/src/lld/r_stb_lld_rza2m.c **** *******************************************************************************/
  31:../generate/drivers/r_stb/src/lld/r_stb_lld_rza2m.c **** 
  32:../generate/drivers/r_stb/src/lld/r_stb_lld_rza2m.c **** /******************************************************************************
  33:../generate/drivers/r_stb/src/lld/r_stb_lld_rza2m.c **** Includes   <System Includes> , "Project Includes"
  34:../generate/drivers/r_stb/src/lld/r_stb_lld_rza2m.c **** ******************************************************************************/
  35:../generate/drivers/r_stb/src/lld/r_stb_lld_rza2m.c **** #include <string.h>
  36:../generate/drivers/r_stb/src/lld/r_stb_lld_rza2m.c **** #include <ctype.h>
  37:../generate/drivers/r_stb/src/lld/r_stb_lld_rza2m.c **** #include "r_typedefs.h"
  38:../generate/drivers/r_stb/src/lld/r_stb_lld_rza2m.c **** #include "r_stb_drv_link.h"
  39:../generate/drivers/r_stb/src/lld/r_stb_lld_rza2m.c **** #include "rza_io_regrw.h"
  40:../generate/drivers/r_stb/src/lld/r_stb_lld_rza2m.c **** #include "iodefine.h"
  41:../generate/drivers/r_stb/src/lld/r_stb_lld_rza2m.c **** #include "iobitmask.h"
  42:../generate/drivers/r_stb/src/lld/r_stb_lld_rza2m.c **** #include "compiler_settings.h"
  43:../generate/drivers/r_stb/src/lld/r_stb_lld_rza2m.c **** 
  44:../generate/drivers/r_stb/src/lld/r_stb_lld_rza2m.c **** 
  45:../generate/drivers/r_stb/src/lld/r_stb_lld_rza2m.c **** /******************************************************************************
  46:../generate/drivers/r_stb/src/lld/r_stb_lld_rza2m.c **** Macro definitions
  47:../generate/drivers/r_stb/src/lld/r_stb_lld_rza2m.c **** ******************************************************************************/
  48:../generate/drivers/r_stb/src/lld/r_stb_lld_rza2m.c **** #define STB_PRV_RRAM_AREA_3 (*(volatile unsigned long *)0x80010000)
  49:../generate/drivers/r_stb/src/lld/r_stb_lld_rza2m.c **** #define STB_PRV_RRAM_AREA_2 (*(volatile unsigned long *)0x80008000)
  50:../generate/drivers/r_stb/src/lld/r_stb_lld_rza2m.c **** #define STB_PRV_RRAM_AREA_1 (*(volatile unsigned long *)0x80004000)
  51:../generate/drivers/r_stb/src/lld/r_stb_lld_rza2m.c **** #define STB_PRV_RRAM_AREA_0 (*(volatile unsigned long *)0x80000000)
  52:../generate/drivers/r_stb/src/lld/r_stb_lld_rza2m.c **** 
  53:../generate/drivers/r_stb/src/lld/r_stb_lld_rza2m.c **** /******************************************************************************
  54:../generate/drivers/r_stb/src/lld/r_stb_lld_rza2m.c **** Typedef definitions
  55:../generate/drivers/r_stb/src/lld/r_stb_lld_rza2m.c **** ******************************************************************************/
  56:../generate/drivers/r_stb/src/lld/r_stb_lld_rza2m.c **** typedef struct
  57:../generate/drivers/r_stb/src/lld/r_stb_lld_rza2m.c **** {
  58:../generate/drivers/r_stb/src/lld/r_stb_lld_rza2m.c ****     e_stb_module_t   module;
  59:../generate/drivers/r_stb/src/lld/r_stb_lld_rza2m.c ****     volatile void  * reg_address;
  60:../generate/drivers/r_stb/src/lld/r_stb_lld_rza2m.c ****     uint8_t          mask;
  61:../generate/drivers/r_stb/src/lld/r_stb_lld_rza2m.c **** } st_r_prv_reg_info_t;
  62:../generate/drivers/r_stb/src/lld/r_stb_lld_rza2m.c **** 
  63:../generate/drivers/r_stb/src/lld/r_stb_lld_rza2m.c **** /******************************************************************************
  64:../generate/drivers/r_stb/src/lld/r_stb_lld_rza2m.c **** Imported global variables and functions (from other files)
  65:../generate/drivers/r_stb/src/lld/r_stb_lld_rza2m.c **** ******************************************************************************/
  66:../generate/drivers/r_stb/src/lld/r_stb_lld_rza2m.c **** 
  67:../generate/drivers/r_stb/src/lld/r_stb_lld_rza2m.c **** 
  68:../generate/drivers/r_stb/src/lld/r_stb_lld_rza2m.c **** /******************************************************************************
  69:../generate/drivers/r_stb/src/lld/r_stb_lld_rza2m.c **** Exported global variables and functions (to be accessed by other files)
  70:../generate/drivers/r_stb/src/lld/r_stb_lld_rza2m.c **** ******************************************************************************/
  71:../generate/drivers/r_stb/src/lld/r_stb_lld_rza2m.c **** 
  72:../generate/drivers/r_stb/src/lld/r_stb_lld_rza2m.c **** 
  73:../generate/drivers/r_stb/src/lld/r_stb_lld_rza2m.c **** /******************************************************************************
  74:../generate/drivers/r_stb/src/lld/r_stb_lld_rza2m.c **** Private global variables and functions
  75:../generate/drivers/r_stb/src/lld/r_stb_lld_rza2m.c **** ******************************************************************************/
  76:../generate/drivers/r_stb/src/lld/r_stb_lld_rza2m.c **** /*! Version Information */
  77:../generate/drivers/r_stb/src/lld/r_stb_lld_rza2m.c **** static const st_drv_info_t gs_lld_info =
  78:../generate/drivers/r_stb/src/lld/r_stb_lld_rza2m.c **** {
  79:../generate/drivers/r_stb/src/lld/r_stb_lld_rza2m.c ****     {
  80:../generate/drivers/r_stb/src/lld/r_stb_lld_rza2m.c ****         ((STDIO_STB_RZ_LLD_VERSION_MAJOR << 16) + STDIO_STB_RZ_LLD_VERSION_MINOR)
  81:../generate/drivers/r_stb/src/lld/r_stb_lld_rza2m.c ****     },
  82:../generate/drivers/r_stb/src/lld/r_stb_lld_rza2m.c ****     STDIO_STB_RZ_LLD_BUILD_NUM,
  83:../generate/drivers/r_stb/src/lld/r_stb_lld_rza2m.c ****     STDIO_STB_RZ_LLD_DRV_NAME
  84:../generate/drivers/r_stb/src/lld/r_stb_lld_rza2m.c **** };
  85:../generate/drivers/r_stb/src/lld/r_stb_lld_rza2m.c **** 
  86:../generate/drivers/r_stb/src/lld/r_stb_lld_rza2m.c **** static const st_r_prv_reg_info_t gs_stbcr[] =
  87:../generate/drivers/r_stb/src/lld/r_stb_lld_rza2m.c **** {
  88:../generate/drivers/r_stb/src/lld/r_stb_lld_rza2m.c ****     {MODULE_CORESIGHT, &CPG.STBCR2.BYTE,  CPG_STBCR2_MSTP20},
  89:../generate/drivers/r_stb/src/lld/r_stb_lld_rza2m.c ****     {MODULE_OSTM0,     &CPG.STBCR3.BYTE,  CPG_STBCR3_MSTP36},
  90:../generate/drivers/r_stb/src/lld/r_stb_lld_rza2m.c ****     {MODULE_OSTM1,     &CPG.STBCR3.BYTE,  CPG_STBCR3_MSTP35},
  91:../generate/drivers/r_stb/src/lld/r_stb_lld_rza2m.c ****     {MODULE_OSTM2,     &CPG.STBCR3.BYTE,  CPG_STBCR3_MSTP34},
  92:../generate/drivers/r_stb/src/lld/r_stb_lld_rza2m.c ****     {MODULE_MTU3,      &CPG.STBCR3.BYTE,  CPG_STBCR3_MSTP33},
  93:../generate/drivers/r_stb/src/lld/r_stb_lld_rza2m.c ****     {MODULE_CANFD,     &CPG.STBCR3.BYTE,  CPG_STBCR3_MSTP32},
  94:../generate/drivers/r_stb/src/lld/r_stb_lld_rza2m.c ****     {MODULE_ADC,       &CPG.STBCR5.BYTE,  CPG_STBCR5_MSTP57},
  95:../generate/drivers/r_stb/src/lld/r_stb_lld_rza2m.c ****     {MODULE_GPT,       &CPG.STBCR3.BYTE,  CPG_STBCR3_MSTP30},
  96:../generate/drivers/r_stb/src/lld/r_stb_lld_rza2m.c ****     {MODULE_SCIFA0,    &CPG.STBCR4.BYTE,  CPG_STBCR4_MSTP47},
  97:../generate/drivers/r_stb/src/lld/r_stb_lld_rza2m.c ****     {MODULE_SCIFA1,    &CPG.STBCR4.BYTE,  CPG_STBCR4_MSTP46},
  98:../generate/drivers/r_stb/src/lld/r_stb_lld_rza2m.c ****     {MODULE_SCIFA2,    &CPG.STBCR4.BYTE,  CPG_STBCR4_MSTP45},
  99:../generate/drivers/r_stb/src/lld/r_stb_lld_rza2m.c ****     {MODULE_SCIFA3,    &CPG.STBCR4.BYTE,  CPG_STBCR4_MSTP44},
 100:../generate/drivers/r_stb/src/lld/r_stb_lld_rza2m.c ****     {MODULE_SCIFA4,    &CPG.STBCR4.BYTE,  CPG_STBCR4_MSTP43},
 101:../generate/drivers/r_stb/src/lld/r_stb_lld_rza2m.c ****     {MODULE_SCI0,      &CPG.STBCR4.BYTE,  CPG_STBCR4_MSTP42},
 102:../generate/drivers/r_stb/src/lld/r_stb_lld_rza2m.c ****     {MODULE_SCI1,      &CPG.STBCR4.BYTE,  CPG_STBCR4_MSTP41},
 103:../generate/drivers/r_stb/src/lld/r_stb_lld_rza2m.c ****     {MODULE_IrDA,      &CPG.STBCR4.BYTE,  CPG_STBCR4_MSTP40},
 104:../generate/drivers/r_stb/src/lld/r_stb_lld_rza2m.c ****     {MODULE_CEU,       &CPG.STBCR5.BYTE,  CPG_STBCR5_MSTP56},
 105:../generate/drivers/r_stb/src/lld/r_stb_lld_rza2m.c ****     {MODULE_RTC0,      &CPG.STBCR5.BYTE,  CPG_STBCR5_MSTP53},
 106:../generate/drivers/r_stb/src/lld/r_stb_lld_rza2m.c ****     {MODULE_RTC1,      &CPG.STBCR5.BYTE,  CPG_STBCR5_MSTP52},
 107:../generate/drivers/r_stb/src/lld/r_stb_lld_rza2m.c ****     {MODULE_JCU,       &CPG.STBCR5.BYTE,  CPG_STBCR5_MSTP51},
 108:../generate/drivers/r_stb/src/lld/r_stb_lld_rza2m.c ****     {MODULE_VIN,       &CPG.STBCR6.BYTE,  CPG_STBCR6_MSTP66},
 109:../generate/drivers/r_stb/src/lld/r_stb_lld_rza2m.c ****     {MODULE_ETHER,     &CPG.STBCR6.BYTE,  CPG_STBCR6_MSTP65|CPG_STBCR6_MSTP64|CPG_STBCR6_MSTP63|CPG
 110:../generate/drivers/r_stb/src/lld/r_stb_lld_rza2m.c ****     {MODULE_USB0,      &CPG.STBCR6.BYTE,  CPG_STBCR6_MSTP61},
 111:../generate/drivers/r_stb/src/lld/r_stb_lld_rza2m.c ****     {MODULE_USB1,      &CPG.STBCR6.BYTE,  CPG_STBCR6_MSTP60},
 112:../generate/drivers/r_stb/src/lld/r_stb_lld_rza2m.c ****     {MODULE_IMR2,      &CPG.STBCR7.BYTE,  CPG_STBCR7_MSTP77},
 113:../generate/drivers/r_stb/src/lld/r_stb_lld_rza2m.c ****     {MODULE_DRW,       &CPG.STBCR7.BYTE,  CPG_STBCR7_MSTP76},
 114:../generate/drivers/r_stb/src/lld/r_stb_lld_rza2m.c ****     {MODULE_MIPI,      &CPG.STBCR7.BYTE,  CPG_STBCR7_MSTP75},
 115:../generate/drivers/r_stb/src/lld/r_stb_lld_rza2m.c ****     {MODULE_SSIF0,     &CPG.STBCR7.BYTE,  CPG_STBCR7_MSTP73},
 116:../generate/drivers/r_stb/src/lld/r_stb_lld_rza2m.c ****     {MODULE_SSIF1,     &CPG.STBCR7.BYTE,  CPG_STBCR7_MSTP72},
 117:../generate/drivers/r_stb/src/lld/r_stb_lld_rza2m.c ****     {MODULE_SSIF2,     &CPG.STBCR7.BYTE,  CPG_STBCR7_MSTP71},
 118:../generate/drivers/r_stb/src/lld/r_stb_lld_rza2m.c ****     {MODULE_SSIF3,     &CPG.STBCR7.BYTE,  CPG_STBCR7_MSTP70},
 119:../generate/drivers/r_stb/src/lld/r_stb_lld_rza2m.c ****     {MODULE_I2C0,      &CPG.STBCR8.BYTE,  CPG_STBCR8_MSTP87},
 120:../generate/drivers/r_stb/src/lld/r_stb_lld_rza2m.c ****     {MODULE_I2C1,      &CPG.STBCR8.BYTE,  CPG_STBCR8_MSTP86},
 121:../generate/drivers/r_stb/src/lld/r_stb_lld_rza2m.c ****     {MODULE_I2C2,      &CPG.STBCR8.BYTE,  CPG_STBCR8_MSTP85},
 122:../generate/drivers/r_stb/src/lld/r_stb_lld_rza2m.c ****     {MODULE_I2C3,      &CPG.STBCR8.BYTE,  CPG_STBCR8_MSTP84},
 123:../generate/drivers/r_stb/src/lld/r_stb_lld_rza2m.c ****     {MODULE_SPIBSC,    &CPG.STBCR8.BYTE,  CPG_STBCR8_MSTP83},
 124:../generate/drivers/r_stb/src/lld/r_stb_lld_rza2m.c ****     {MODULE_VDC6,      &CPG.STBCR8.BYTE,  CPG_STBCR8_MSTP81},
 125:../generate/drivers/r_stb/src/lld/r_stb_lld_rza2m.c ****     {MODULE_RSPI0,     &CPG.STBCR9.BYTE,  CPG_STBCR9_MSTP97},
 126:../generate/drivers/r_stb/src/lld/r_stb_lld_rza2m.c ****     {MODULE_RSPI1,     &CPG.STBCR9.BYTE,  CPG_STBCR9_MSTP96},
 127:../generate/drivers/r_stb/src/lld/r_stb_lld_rza2m.c ****     {MODULE_RSPI2,     &CPG.STBCR9.BYTE,  CPG_STBCR9_MSTP95},
 128:../generate/drivers/r_stb/src/lld/r_stb_lld_rza2m.c ****     {MODULE_HYPERBUS,  &CPG.STBCR9.BYTE,  CPG_STBCR9_MSTP93},
 129:../generate/drivers/r_stb/src/lld/r_stb_lld_rza2m.c ****     {MODULE_OCTAMEM,   &CPG.STBCR9.BYTE,  CPG_STBCR9_MSTP92},
 130:../generate/drivers/r_stb/src/lld/r_stb_lld_rza2m.c ****     {MODULE_RSPDIF,    &CPG.STBCR9.BYTE,  CPG_STBCR9_MSTP91},
 131:../generate/drivers/r_stb/src/lld/r_stb_lld_rza2m.c ****     {MODULE_DRP,       &CPG.STBCR9.BYTE,  CPG_STBCR9_MSTP90},
 132:../generate/drivers/r_stb/src/lld/r_stb_lld_rza2m.c ****     {MODULE_TSIP,      &CPG.STBCR10.BYTE, CPG_STBCR10_MSTP107},
 133:../generate/drivers/r_stb/src/lld/r_stb_lld_rza2m.c ****     {MODULE_NAND,      &CPG.STBCR10.BYTE, CPG_STBCR10_MSTP104},
 134:../generate/drivers/r_stb/src/lld/r_stb_lld_rza2m.c ****     {MODULE_SDMMC0,    &CPG.STBCR10.BYTE, CPG_STBCR10_MSTP103|CPG_STBCR10_MSTP102},
 135:../generate/drivers/r_stb/src/lld/r_stb_lld_rza2m.c ****     {MODULE_SDMMC1,    &CPG.STBCR10.BYTE, CPG_STBCR10_MSTP101|CPG_STBCR10_MSTP100},
 136:../generate/drivers/r_stb/src/lld/r_stb_lld_rza2m.c **** };
 137:../generate/drivers/r_stb/src/lld/r_stb_lld_rza2m.c **** 
 138:../generate/drivers/r_stb/src/lld/r_stb_lld_rza2m.c **** static const st_r_prv_reg_info_t gs_stbreq[] =
 139:../generate/drivers/r_stb/src/lld/r_stb_lld_rza2m.c **** {
 140:../generate/drivers/r_stb/src/lld/r_stb_lld_rza2m.c ****     {MODULE_CORESIGHT, &CPG.STBREQ1.BYTE, CPG_STBREQ1_STBRQ15},
 141:../generate/drivers/r_stb/src/lld/r_stb_lld_rza2m.c ****     {MODULE_CEU,       &CPG.STBREQ1.BYTE, CPG_STBREQ1_STBRQ10},
 142:../generate/drivers/r_stb/src/lld/r_stb_lld_rza2m.c ****     {MODULE_JCU,       &CPG.STBREQ1.BYTE, CPG_STBREQ1_STBRQ13},
 143:../generate/drivers/r_stb/src/lld/r_stb_lld_rza2m.c ****     {MODULE_VIN,       &CPG.STBREQ2.BYTE, CPG_STBREQ2_STBRQ27},
 144:../generate/drivers/r_stb/src/lld/r_stb_lld_rza2m.c ****     {MODULE_ETHER,     &CPG.STBREQ2.BYTE, CPG_STBREQ2_STBRQ26},
 145:../generate/drivers/r_stb/src/lld/r_stb_lld_rza2m.c ****     {MODULE_USB0,      &CPG.STBREQ3.BYTE, CPG_STBREQ3_STBRQ31|CPG_STBREQ3_STBRQ30},
 146:../generate/drivers/r_stb/src/lld/r_stb_lld_rza2m.c ****     {MODULE_USB1,      &CPG.STBREQ3.BYTE, CPG_STBREQ3_STBRQ33|CPG_STBREQ3_STBRQ32},
 147:../generate/drivers/r_stb/src/lld/r_stb_lld_rza2m.c ****     {MODULE_IMR2,      &CPG.STBREQ2.BYTE, CPG_STBREQ2_STBRQ23},
 148:../generate/drivers/r_stb/src/lld/r_stb_lld_rza2m.c ****     {MODULE_DRW,       &CPG.STBREQ2.BYTE, CPG_STBREQ2_STBRQ21|CPG_STBREQ2_STBRQ20},
 149:../generate/drivers/r_stb/src/lld/r_stb_lld_rza2m.c ****     {MODULE_VDC6,      &CPG.STBREQ2.BYTE, CPG_STBREQ2_STBRQ25},
 150:../generate/drivers/r_stb/src/lld/r_stb_lld_rza2m.c ****     {MODULE_DRP,       &CPG.STBREQ2.BYTE, CPG_STBREQ2_STBRQ24},
 151:../generate/drivers/r_stb/src/lld/r_stb_lld_rza2m.c ****     {MODULE_NAND,      &CPG.STBREQ2.BYTE, CPG_STBREQ2_STBRQ22},
 152:../generate/drivers/r_stb/src/lld/r_stb_lld_rza2m.c ****     {MODULE_SDMMC0,    &CPG.STBREQ1.BYTE, CPG_STBREQ1_STBRQ12},
 153:../generate/drivers/r_stb/src/lld/r_stb_lld_rza2m.c ****     {MODULE_SDMMC1,    &CPG.STBREQ1.BYTE, CPG_STBREQ1_STBRQ11},
 154:../generate/drivers/r_stb/src/lld/r_stb_lld_rza2m.c **** };
 155:../generate/drivers/r_stb/src/lld/r_stb_lld_rza2m.c **** 
 156:../generate/drivers/r_stb/src/lld/r_stb_lld_rza2m.c **** static const st_r_prv_reg_info_t gs_stback[] =
 157:../generate/drivers/r_stb/src/lld/r_stb_lld_rza2m.c **** {
 158:../generate/drivers/r_stb/src/lld/r_stb_lld_rza2m.c ****     {MODULE_CORESIGHT, &CPG.STBACK1.BYTE, CPG_STBACK1_STBAK15},
 159:../generate/drivers/r_stb/src/lld/r_stb_lld_rza2m.c ****     {MODULE_CEU,       &CPG.STBACK1.BYTE, CPG_STBACK1_STBAK10},
 160:../generate/drivers/r_stb/src/lld/r_stb_lld_rza2m.c ****     {MODULE_JCU,       &CPG.STBACK1.BYTE, CPG_STBACK1_STBAK13},
 161:../generate/drivers/r_stb/src/lld/r_stb_lld_rza2m.c ****     {MODULE_VIN,       &CPG.STBACK2.BYTE, CPG_STBACK2_STBAK27},
 162:../generate/drivers/r_stb/src/lld/r_stb_lld_rza2m.c ****     {MODULE_ETHER,     &CPG.STBACK2.BYTE, CPG_STBACK2_STBAK26},
 163:../generate/drivers/r_stb/src/lld/r_stb_lld_rza2m.c ****     {MODULE_USB0,      &CPG.STBACK3.BYTE, CPG_STBACK3_STBAK31|CPG_STBACK3_STBAK30},
 164:../generate/drivers/r_stb/src/lld/r_stb_lld_rza2m.c ****     {MODULE_USB1,      &CPG.STBACK3.BYTE, CPG_STBACK3_STBAK33|CPG_STBACK3_STBAK32},
 165:../generate/drivers/r_stb/src/lld/r_stb_lld_rza2m.c ****     {MODULE_IMR2,      &CPG.STBACK2.BYTE, CPG_STBACK2_STBAK23},
 166:../generate/drivers/r_stb/src/lld/r_stb_lld_rza2m.c ****     {MODULE_DRW,       &CPG.STBACK2.BYTE, CPG_STBACK2_STBAK21|CPG_STBACK2_STBAK20},
 167:../generate/drivers/r_stb/src/lld/r_stb_lld_rza2m.c ****     {MODULE_VDC6,      &CPG.STBACK2.BYTE, CPG_STBACK2_STBAK25},
 168:../generate/drivers/r_stb/src/lld/r_stb_lld_rza2m.c ****     {MODULE_DRP,       &CPG.STBACK2.BYTE, CPG_STBACK2_STBAK24},
 169:../generate/drivers/r_stb/src/lld/r_stb_lld_rza2m.c ****     {MODULE_NAND,      &CPG.STBACK2.BYTE, CPG_STBACK2_STBAK22},
 170:../generate/drivers/r_stb/src/lld/r_stb_lld_rza2m.c ****     {MODULE_SDMMC0,    &CPG.STBACK1.BYTE, CPG_STBACK1_STBAK12},
 171:../generate/drivers/r_stb/src/lld/r_stb_lld_rza2m.c ****     {MODULE_SDMMC1,    &CPG.STBACK1.BYTE, CPG_STBACK1_STBAK11},
 172:../generate/drivers/r_stb/src/lld/r_stb_lld_rza2m.c **** };
 173:../generate/drivers/r_stb/src/lld/r_stb_lld_rza2m.c **** 
 174:../generate/drivers/r_stb/src/lld/r_stb_lld_rza2m.c **** static const st_r_prv_reg_info_t gs_swrstcr[] =
 175:../generate/drivers/r_stb/src/lld/r_stb_lld_rza2m.c **** {
 176:../generate/drivers/r_stb/src/lld/r_stb_lld_rza2m.c ****     {MODULE_CEU,       &CPG.SWRSTCR2.BYTE, CPG_SWRSTCR2_SRST21},
 177:../generate/drivers/r_stb/src/lld/r_stb_lld_rza2m.c ****     {MODULE_JCU,       &CPG.SWRSTCR1.BYTE, CPG_SWRSTCR1_SRST11},
 178:../generate/drivers/r_stb/src/lld/r_stb_lld_rza2m.c ****     {MODULE_VIN,       &CPG.SWRSTCR2.BYTE, CPG_SWRSTCR2_SRST25},
 179:../generate/drivers/r_stb/src/lld/r_stb_lld_rza2m.c ****     {MODULE_IMR2,      &CPG.SWRSTCR2.BYTE, CPG_SWRSTCR2_SRST24},
 180:../generate/drivers/r_stb/src/lld/r_stb_lld_rza2m.c ****     {MODULE_DRW,       &CPG.SWRSTCR2.BYTE, CPG_SWRSTCR2_SRST22},
 181:../generate/drivers/r_stb/src/lld/r_stb_lld_rza2m.c ****     {MODULE_MIPI,      &CPG.SWRSTCR2.BYTE, CPG_SWRSTCR2_SRST23},
 182:../generate/drivers/r_stb/src/lld/r_stb_lld_rza2m.c ****     {MODULE_SPIBSC,    &CPG.SWRSTCR1.BYTE, CPG_SWRSTCR1_SRST10},
 183:../generate/drivers/r_stb/src/lld/r_stb_lld_rza2m.c ****     {MODULE_VDC6,      &CPG.SWRSTCR1.BYTE, CPG_SWRSTCR1_SRST13},
 184:../generate/drivers/r_stb/src/lld/r_stb_lld_rza2m.c ****     {MODULE_TSIP,      &CPG.SWRSTCR1.BYTE, CPG_SWRSTCR1_SRST12},
 185:../generate/drivers/r_stb/src/lld/r_stb_lld_rza2m.c ****     {MODULE_NAND,      &CPG.SWRSTCR2.BYTE, CPG_SWRSTCR2_SRST26},
 186:../generate/drivers/r_stb/src/lld/r_stb_lld_rza2m.c **** 
 187:../generate/drivers/r_stb/src/lld/r_stb_lld_rza2m.c **** };
 188:../generate/drivers/r_stb/src/lld/r_stb_lld_rza2m.c **** 
 189:../generate/drivers/r_stb/src/lld/r_stb_lld_rza2m.c **** static e_clk_stat_t g_clk_state[MODULE_MAX]=
 190:../generate/drivers/r_stb/src/lld/r_stb_lld_rza2m.c **** {
 191:../generate/drivers/r_stb/src/lld/r_stb_lld_rza2m.c ****     CLK_OFF,    /*  dummy               */
 192:../generate/drivers/r_stb/src/lld/r_stb_lld_rza2m.c ****     CLK_ON,     /*  MODULE_CORESIGHT=1  */
 193:../generate/drivers/r_stb/src/lld/r_stb_lld_rza2m.c ****     CLK_OFF,    /*  MODULE_OSTM0,       */
 194:../generate/drivers/r_stb/src/lld/r_stb_lld_rza2m.c ****     CLK_OFF,    /*  MODULE_OSTM1,       */
 195:../generate/drivers/r_stb/src/lld/r_stb_lld_rza2m.c ****     CLK_OFF,    /*  MODULE_OSTM2,       */
 196:../generate/drivers/r_stb/src/lld/r_stb_lld_rza2m.c ****     CLK_OFF,    /*  MODULE_MTU3,        */
 197:../generate/drivers/r_stb/src/lld/r_stb_lld_rza2m.c ****     CLK_OFF,    /*  MODULE_CANFD,       */
 198:../generate/drivers/r_stb/src/lld/r_stb_lld_rza2m.c ****     CLK_OFF,    /*  MODULE_ADC,         */
 199:../generate/drivers/r_stb/src/lld/r_stb_lld_rza2m.c ****     CLK_OFF,    /*  MODULE_GPT,         */
 200:../generate/drivers/r_stb/src/lld/r_stb_lld_rza2m.c ****     CLK_OFF,    /*  MODULE_SCIFA0,      */
 201:../generate/drivers/r_stb/src/lld/r_stb_lld_rza2m.c ****     CLK_OFF,    /*  MODULE_SCIFA1,      */
 202:../generate/drivers/r_stb/src/lld/r_stb_lld_rza2m.c ****     CLK_OFF,    /*  MODULE_SCIFA2,      */
 203:../generate/drivers/r_stb/src/lld/r_stb_lld_rza2m.c ****     CLK_OFF,    /*  MODULE_SCIFA3,      */
 204:../generate/drivers/r_stb/src/lld/r_stb_lld_rza2m.c ****     CLK_OFF,    /*  MODULE_SCIFA4,      */
 205:../generate/drivers/r_stb/src/lld/r_stb_lld_rza2m.c ****     CLK_OFF,    /*  MODULE_SCI0,        */
 206:../generate/drivers/r_stb/src/lld/r_stb_lld_rza2m.c ****     CLK_OFF,    /*  MODULE_SCI1,        */
 207:../generate/drivers/r_stb/src/lld/r_stb_lld_rza2m.c ****     CLK_OFF,    /*  MODULE_IrDA,        */
 208:../generate/drivers/r_stb/src/lld/r_stb_lld_rza2m.c ****     CLK_OFF,    /*  MODULE_CEU,         */
 209:../generate/drivers/r_stb/src/lld/r_stb_lld_rza2m.c ****     CLK_ON,     /*  MODULE_RTC0,        */
 210:../generate/drivers/r_stb/src/lld/r_stb_lld_rza2m.c ****     CLK_ON,     /*  MODULE_RTC1,        */
 211:../generate/drivers/r_stb/src/lld/r_stb_lld_rza2m.c ****     CLK_OFF,    /*  MODULE_JCU,         */
 212:../generate/drivers/r_stb/src/lld/r_stb_lld_rza2m.c ****     CLK_OFF,    /*  MODULE_VIN,         */
 213:../generate/drivers/r_stb/src/lld/r_stb_lld_rza2m.c ****     CLK_OFF,    /*  MODULE_ETHER,       */
 214:../generate/drivers/r_stb/src/lld/r_stb_lld_rza2m.c ****     CLK_OFF,    /*  MODULE_USB0,        */
 215:../generate/drivers/r_stb/src/lld/r_stb_lld_rza2m.c ****     CLK_OFF,    /*  MODULE_USB1,        */
 216:../generate/drivers/r_stb/src/lld/r_stb_lld_rza2m.c ****     CLK_OFF,    /*  MODULE_IMR2,        */
 217:../generate/drivers/r_stb/src/lld/r_stb_lld_rza2m.c ****     CLK_OFF,    /*  MODULE_DRW,         */
 218:../generate/drivers/r_stb/src/lld/r_stb_lld_rza2m.c ****     CLK_OFF,    /*  MODULE_MIPI,        */
 219:../generate/drivers/r_stb/src/lld/r_stb_lld_rza2m.c ****     CLK_OFF,    /*  MODULE_SSIF0,       */
 220:../generate/drivers/r_stb/src/lld/r_stb_lld_rza2m.c ****     CLK_OFF,    /*  MODULE_SSIF1,       */
 221:../generate/drivers/r_stb/src/lld/r_stb_lld_rza2m.c ****     CLK_OFF,    /*  MODULE_SSIF2,       */
 222:../generate/drivers/r_stb/src/lld/r_stb_lld_rza2m.c ****     CLK_OFF,    /*  MODULE_SSIF3,       */
 223:../generate/drivers/r_stb/src/lld/r_stb_lld_rza2m.c ****     CLK_OFF,    /*  MODULE_I2C0,        */
 224:../generate/drivers/r_stb/src/lld/r_stb_lld_rza2m.c ****     CLK_OFF,    /*  MODULE_I2C1,        */
 225:../generate/drivers/r_stb/src/lld/r_stb_lld_rza2m.c ****     CLK_OFF,    /*  MODULE_I2C2,        */
 226:../generate/drivers/r_stb/src/lld/r_stb_lld_rza2m.c ****     CLK_OFF,    /*  MODULE_I2C3,        */
 227:../generate/drivers/r_stb/src/lld/r_stb_lld_rza2m.c ****     CLK_ON,     /*  MODULE_SPIBSC,      */
 228:../generate/drivers/r_stb/src/lld/r_stb_lld_rza2m.c ****     CLK_OFF,    /*  MODULE_VDC6,        */
 229:../generate/drivers/r_stb/src/lld/r_stb_lld_rza2m.c ****     CLK_OFF,    /*  MODULE_RSPI0,       */
 230:../generate/drivers/r_stb/src/lld/r_stb_lld_rza2m.c ****     CLK_OFF,    /*  MODULE_RSPI1,       */
 231:../generate/drivers/r_stb/src/lld/r_stb_lld_rza2m.c ****     CLK_OFF,    /*  MODULE_RSPI2,       */
 232:../generate/drivers/r_stb/src/lld/r_stb_lld_rza2m.c ****     CLK_OFF,    /*  MODULE_HYPERBUS,    */
 233:../generate/drivers/r_stb/src/lld/r_stb_lld_rza2m.c ****     CLK_OFF,    /*  MODULE_OCTAMEM,     */
 234:../generate/drivers/r_stb/src/lld/r_stb_lld_rza2m.c ****     CLK_OFF,    /*  MODULE_RSPDIF,      */
 235:../generate/drivers/r_stb/src/lld/r_stb_lld_rza2m.c ****     CLK_OFF,    /*  MODULE_DRP,         */
 236:../generate/drivers/r_stb/src/lld/r_stb_lld_rza2m.c ****     CLK_OFF,    /*  MODULE_TSIP,        */
 237:../generate/drivers/r_stb/src/lld/r_stb_lld_rza2m.c ****     CLK_OFF,    /*  MODULE_NAND,        */
 238:../generate/drivers/r_stb/src/lld/r_stb_lld_rza2m.c ****     CLK_OFF,    /*  MODULE_SDMMC0,      */
 239:../generate/drivers/r_stb/src/lld/r_stb_lld_rza2m.c ****     CLK_OFF,    /*  MODULE_SDMMC1,      */
 240:../generate/drivers/r_stb/src/lld/r_stb_lld_rza2m.c **** };
 241:../generate/drivers/r_stb/src/lld/r_stb_lld_rza2m.c **** 
 242:../generate/drivers/r_stb/src/lld/r_stb_lld_rza2m.c **** /**
 243:../generate/drivers/r_stb/src/lld/r_stb_lld_rza2m.c ****  * @fn         get_stbcr_info
 244:../generate/drivers/r_stb/src/lld/r_stb_lld_rza2m.c ****  * @brief      Get STBCR register information for specified module
 245:../generate/drivers/r_stb/src/lld/r_stb_lld_rza2m.c ****  * @param[in]  module: module to check
 246:../generate/drivers/r_stb/src/lld/r_stb_lld_rza2m.c ****  * @return     Pointer for register information or NULL if invalid module
 247:../generate/drivers/r_stb/src/lld/r_stb_lld_rza2m.c ****  */
 248:../generate/drivers/r_stb/src/lld/r_stb_lld_rza2m.c **** static const st_r_prv_reg_info_t * get_stbcr_info(e_stb_module_t module)
 249:../generate/drivers/r_stb/src/lld/r_stb_lld_rza2m.c **** {
  29              		.loc 1 249 1 view -0
  30              		.cfi_startproc
  31              		@ args = 0, pretend = 0, frame = 0
  32              		@ frame_needed = 0, uses_anonymous_args = 0
  33              		@ link register save eliminated.
 250:../generate/drivers/r_stb/src/lld/r_stb_lld_rza2m.c ****     size_t index;
  34              		.loc 1 250 5 view .LVU1
 251:../generate/drivers/r_stb/src/lld/r_stb_lld_rza2m.c ****     size_t count = (sizeof gs_stbcr) / (sizeof gs_stbcr[0]);
  35              		.loc 1 251 5 view .LVU2
 252:../generate/drivers/r_stb/src/lld/r_stb_lld_rza2m.c **** 
 253:../generate/drivers/r_stb/src/lld/r_stb_lld_rza2m.c ****     for ( index = 0; index < count; index++ )
  36              		.loc 1 253 5 view .LVU3
  37              		.loc 1 253 17 is_stmt 0 view .LVU4
  38 0000 0030A0E3 		mov	r3, #0
  39              	.LVL1:
  40              	.L2:
  41              		.loc 1 253 22 is_stmt 1 discriminator 1 view .LVU5
  42              		.loc 1 253 5 is_stmt 0 discriminator 1 view .LVU6
  43 0004 2F0053E3 		cmp	r3, #47
  44 0008 0A00008A 		bhi	.L6
 254:../generate/drivers/r_stb/src/lld/r_stb_lld_rza2m.c ****     {
 255:../generate/drivers/r_stb/src/lld/r_stb_lld_rza2m.c ****         if ( module == gs_stbcr[index].module )
  45              		.loc 1 255 9 is_stmt 1 view .LVU7
  46              		.loc 1 255 39 is_stmt 0 view .LVU8
  47 000c 002000E3 		movw	r2, #:lower16:.LANCHOR0
  48 0010 002040E3 		movt	r2, #:upper16:.LANCHOR0
  49 0014 831083E0 		add	r1, r3, r3, lsl #1
  50 0018 0121D2E7 		ldrb	r2, [r2, r1, lsl #2]	@ zero_extendqisi2
  51              		.loc 1 255 12 view .LVU9
  52 001c 000052E1 		cmp	r2, r0
 253:../generate/drivers/r_stb/src/lld/r_stb_lld_rza2m.c ****     {
  53              		.loc 1 253 37 is_stmt 1 discriminator 2 view .LVU10
 253:../generate/drivers/r_stb/src/lld/r_stb_lld_rza2m.c ****     {
  54              		.loc 1 253 42 is_stmt 0 discriminator 2 view .LVU11
  55 0020 01308312 		addne	r3, r3, #1
  56              	.LVL2:
 253:../generate/drivers/r_stb/src/lld/r_stb_lld_rza2m.c ****     {
  57              		.loc 1 253 42 discriminator 2 view .LVU12
  58 0024 F6FFFF1A 		bne	.L2
  59              	.L7:
 256:../generate/drivers/r_stb/src/lld/r_stb_lld_rza2m.c ****         {
 257:../generate/drivers/r_stb/src/lld/r_stb_lld_rza2m.c ****             return &gs_stbcr[index];
  60              		.loc 1 257 13 is_stmt 1 view .LVU13
  61              		.loc 1 257 20 is_stmt 0 view .LVU14
  62 0028 000000E3 		movw	r0, #:lower16:.LANCHOR0
  63              	.LVL3:
  64              		.loc 1 257 20 view .LVU15
  65 002c 000040E3 		movt	r0, #:upper16:.LANCHOR0
  66 0030 010180E0 		add	r0, r0, r1, lsl #2
  67 0034 1EFF2FE1 		bx	lr
  68              	.LVL4:
  69              	.L6:
 258:../generate/drivers/r_stb/src/lld/r_stb_lld_rza2m.c ****         }
 259:../generate/drivers/r_stb/src/lld/r_stb_lld_rza2m.c ****     }
 260:../generate/drivers/r_stb/src/lld/r_stb_lld_rza2m.c **** 
 261:../generate/drivers/r_stb/src/lld/r_stb_lld_rza2m.c ****     /* return NULL if not found */
 262:../generate/drivers/r_stb/src/lld/r_stb_lld_rza2m.c ****     return NULL;
  70              		.loc 1 262 12 view .LVU16
  71 0038 0000A0E3 		mov	r0, #0
  72              	.LVL5:
 263:../generate/drivers/r_stb/src/lld/r_stb_lld_rza2m.c **** }
  73              		.loc 1 263 1 view .LVU17
  74 003c 1EFF2FE1 		bx	lr
  75              		.cfi_endproc
  76              	.LFE3:
  78              		.section	.text.get_stbreq_info,"ax",%progbits
  79              		.align	2
  80              		.syntax unified
  81              		.arm
  82              		.fpu neon
  84              	get_stbreq_info:
  85              	.LVL6:
  86              	.LFB4:
 264:../generate/drivers/r_stb/src/lld/r_stb_lld_rza2m.c **** /******************************************************************************
 265:../generate/drivers/r_stb/src/lld/r_stb_lld_rza2m.c ****  * End of function get_stbcr_info
 266:../generate/drivers/r_stb/src/lld/r_stb_lld_rza2m.c ****  ******************************************************************************/
 267:../generate/drivers/r_stb/src/lld/r_stb_lld_rza2m.c **** 
 268:../generate/drivers/r_stb/src/lld/r_stb_lld_rza2m.c **** /**
 269:../generate/drivers/r_stb/src/lld/r_stb_lld_rza2m.c ****  * @fn         get_stbreq_info
 270:../generate/drivers/r_stb/src/lld/r_stb_lld_rza2m.c ****  * @brief      Get STBREQ register information for specified module
 271:../generate/drivers/r_stb/src/lld/r_stb_lld_rza2m.c ****  * @param[in]  module: module to check
 272:../generate/drivers/r_stb/src/lld/r_stb_lld_rza2m.c ****  * @return     Pointer for register information or NULL if invalid module
 273:../generate/drivers/r_stb/src/lld/r_stb_lld_rza2m.c ****  */
 274:../generate/drivers/r_stb/src/lld/r_stb_lld_rza2m.c **** static const st_r_prv_reg_info_t * get_stbreq_info(e_stb_module_t module)
 275:../generate/drivers/r_stb/src/lld/r_stb_lld_rza2m.c **** {
  87              		.loc 1 275 1 is_stmt 1 view -0
  88              		.cfi_startproc
  89              		@ args = 0, pretend = 0, frame = 0
  90              		@ frame_needed = 0, uses_anonymous_args = 0
  91              		@ link register save eliminated.
 276:../generate/drivers/r_stb/src/lld/r_stb_lld_rza2m.c ****     size_t index;
  92              		.loc 1 276 5 view .LVU19
 277:../generate/drivers/r_stb/src/lld/r_stb_lld_rza2m.c ****     size_t count = (sizeof gs_stbreq) / (sizeof gs_stbreq[0]);
  93              		.loc 1 277 5 view .LVU20
 278:../generate/drivers/r_stb/src/lld/r_stb_lld_rza2m.c **** 
 279:../generate/drivers/r_stb/src/lld/r_stb_lld_rza2m.c ****     for ( index = 0; index < count; index++ )
  94              		.loc 1 279 5 view .LVU21
  95              		.loc 1 279 17 is_stmt 0 view .LVU22
  96 0000 0030A0E3 		mov	r3, #0
  97              	.LVL7:
  98              	.L9:
  99              		.loc 1 279 22 is_stmt 1 discriminator 1 view .LVU23
 100              		.loc 1 279 5 is_stmt 0 discriminator 1 view .LVU24
 101 0004 0D0053E3 		cmp	r3, #13
 102 0008 0A00008A 		bhi	.L13
 280:../generate/drivers/r_stb/src/lld/r_stb_lld_rza2m.c ****     {
 281:../generate/drivers/r_stb/src/lld/r_stb_lld_rza2m.c ****         if ( module == gs_stbreq[index].module )
 103              		.loc 1 281 9 is_stmt 1 view .LVU25
 104              		.loc 1 281 40 is_stmt 0 view .LVU26
 105 000c 002000E3 		movw	r2, #:lower16:.LANCHOR1
 106 0010 002040E3 		movt	r2, #:upper16:.LANCHOR1
 107 0014 831083E0 		add	r1, r3, r3, lsl #1
 108 0018 0121D2E7 		ldrb	r2, [r2, r1, lsl #2]	@ zero_extendqisi2
 109              		.loc 1 281 12 view .LVU27
 110 001c 000052E1 		cmp	r2, r0
 279:../generate/drivers/r_stb/src/lld/r_stb_lld_rza2m.c ****     {
 111              		.loc 1 279 37 is_stmt 1 discriminator 2 view .LVU28
 279:../generate/drivers/r_stb/src/lld/r_stb_lld_rza2m.c ****     {
 112              		.loc 1 279 42 is_stmt 0 discriminator 2 view .LVU29
 113 0020 01308312 		addne	r3, r3, #1
 114              	.LVL8:
 279:../generate/drivers/r_stb/src/lld/r_stb_lld_rza2m.c ****     {
 115              		.loc 1 279 42 discriminator 2 view .LVU30
 116 0024 F6FFFF1A 		bne	.L9
 117              	.L14:
 282:../generate/drivers/r_stb/src/lld/r_stb_lld_rza2m.c ****         {
 283:../generate/drivers/r_stb/src/lld/r_stb_lld_rza2m.c ****             return &gs_stbreq[index];
 118              		.loc 1 283 13 is_stmt 1 view .LVU31
 119              		.loc 1 283 20 is_stmt 0 view .LVU32
 120 0028 000000E3 		movw	r0, #:lower16:.LANCHOR1
 121              	.LVL9:
 122              		.loc 1 283 20 view .LVU33
 123 002c 000040E3 		movt	r0, #:upper16:.LANCHOR1
 124 0030 010180E0 		add	r0, r0, r1, lsl #2
 125 0034 1EFF2FE1 		bx	lr
 126              	.LVL10:
 127              	.L13:
 284:../generate/drivers/r_stb/src/lld/r_stb_lld_rza2m.c ****         }
 285:../generate/drivers/r_stb/src/lld/r_stb_lld_rza2m.c ****     }
 286:../generate/drivers/r_stb/src/lld/r_stb_lld_rza2m.c **** 
 287:../generate/drivers/r_stb/src/lld/r_stb_lld_rza2m.c ****     /* return NULL if not found */
 288:../generate/drivers/r_stb/src/lld/r_stb_lld_rza2m.c ****     return NULL;
 128              		.loc 1 288 12 view .LVU34
 129 0038 0000A0E3 		mov	r0, #0
 130              	.LVL11:
 289:../generate/drivers/r_stb/src/lld/r_stb_lld_rza2m.c **** }
 131              		.loc 1 289 1 view .LVU35
 132 003c 1EFF2FE1 		bx	lr
 133              		.cfi_endproc
 134              	.LFE4:
 136              		.section	.text.get_stback_info,"ax",%progbits
 137              		.align	2
 138              		.syntax unified
 139              		.arm
 140              		.fpu neon
 142              	get_stback_info:
 143              	.LVL12:
 144              	.LFB5:
 290:../generate/drivers/r_stb/src/lld/r_stb_lld_rza2m.c **** /******************************************************************************
 291:../generate/drivers/r_stb/src/lld/r_stb_lld_rza2m.c ****  * End of function get_stbreq_info
 292:../generate/drivers/r_stb/src/lld/r_stb_lld_rza2m.c ****  ******************************************************************************/
 293:../generate/drivers/r_stb/src/lld/r_stb_lld_rza2m.c **** 
 294:../generate/drivers/r_stb/src/lld/r_stb_lld_rza2m.c **** /**
 295:../generate/drivers/r_stb/src/lld/r_stb_lld_rza2m.c ****  * @fn         get_stback_info
 296:../generate/drivers/r_stb/src/lld/r_stb_lld_rza2m.c ****  * @brief      Get STBACK register information for specified module
 297:../generate/drivers/r_stb/src/lld/r_stb_lld_rza2m.c ****  * @param[in]  module: module to check
 298:../generate/drivers/r_stb/src/lld/r_stb_lld_rza2m.c ****  * @return     Pointer for register information or NULL if invalid module
 299:../generate/drivers/r_stb/src/lld/r_stb_lld_rza2m.c ****  */
 300:../generate/drivers/r_stb/src/lld/r_stb_lld_rza2m.c **** static const st_r_prv_reg_info_t * get_stback_info(e_stb_module_t module)
 301:../generate/drivers/r_stb/src/lld/r_stb_lld_rza2m.c **** {
 145              		.loc 1 301 1 is_stmt 1 view -0
 146              		.cfi_startproc
 147              		@ args = 0, pretend = 0, frame = 0
 148              		@ frame_needed = 0, uses_anonymous_args = 0
 149              		@ link register save eliminated.
 302:../generate/drivers/r_stb/src/lld/r_stb_lld_rza2m.c ****     size_t index;
 150              		.loc 1 302 5 view .LVU37
 303:../generate/drivers/r_stb/src/lld/r_stb_lld_rza2m.c ****     size_t count = (sizeof gs_stback) / (sizeof gs_stback[0]);
 151              		.loc 1 303 5 view .LVU38
 304:../generate/drivers/r_stb/src/lld/r_stb_lld_rza2m.c **** 
 305:../generate/drivers/r_stb/src/lld/r_stb_lld_rza2m.c ****     for ( index = 0; index < count; index++ )
 152              		.loc 1 305 5 view .LVU39
 153              		.loc 1 305 17 is_stmt 0 view .LVU40
 154 0000 0030A0E3 		mov	r3, #0
 155              	.LVL13:
 156              	.L16:
 157              		.loc 1 305 22 is_stmt 1 discriminator 1 view .LVU41
 158              		.loc 1 305 5 is_stmt 0 discriminator 1 view .LVU42
 159 0004 0D0053E3 		cmp	r3, #13
 160 0008 0A00008A 		bhi	.L20
 306:../generate/drivers/r_stb/src/lld/r_stb_lld_rza2m.c ****     {
 307:../generate/drivers/r_stb/src/lld/r_stb_lld_rza2m.c ****         if ( module == gs_stback[index].module )
 161              		.loc 1 307 9 is_stmt 1 view .LVU43
 162              		.loc 1 307 40 is_stmt 0 view .LVU44
 163 000c 002000E3 		movw	r2, #:lower16:.LANCHOR2
 164 0010 002040E3 		movt	r2, #:upper16:.LANCHOR2
 165 0014 831083E0 		add	r1, r3, r3, lsl #1
 166 0018 0121D2E7 		ldrb	r2, [r2, r1, lsl #2]	@ zero_extendqisi2
 167              		.loc 1 307 12 view .LVU45
 168 001c 000052E1 		cmp	r2, r0
 305:../generate/drivers/r_stb/src/lld/r_stb_lld_rza2m.c ****     {
 169              		.loc 1 305 37 is_stmt 1 discriminator 2 view .LVU46
 305:../generate/drivers/r_stb/src/lld/r_stb_lld_rza2m.c ****     {
 170              		.loc 1 305 42 is_stmt 0 discriminator 2 view .LVU47
 171 0020 01308312 		addne	r3, r3, #1
 172              	.LVL14:
 305:../generate/drivers/r_stb/src/lld/r_stb_lld_rza2m.c ****     {
 173              		.loc 1 305 42 discriminator 2 view .LVU48
 174 0024 F6FFFF1A 		bne	.L16
 175              	.L21:
 308:../generate/drivers/r_stb/src/lld/r_stb_lld_rza2m.c ****         {
 309:../generate/drivers/r_stb/src/lld/r_stb_lld_rza2m.c ****             return &gs_stback[index];
 176              		.loc 1 309 13 is_stmt 1 view .LVU49
 177              		.loc 1 309 20 is_stmt 0 view .LVU50
 178 0028 000000E3 		movw	r0, #:lower16:.LANCHOR2
 179              	.LVL15:
 180              		.loc 1 309 20 view .LVU51
 181 002c 000040E3 		movt	r0, #:upper16:.LANCHOR2
 182 0030 010180E0 		add	r0, r0, r1, lsl #2
 183 0034 1EFF2FE1 		bx	lr
 184              	.LVL16:
 185              	.L20:
 310:../generate/drivers/r_stb/src/lld/r_stb_lld_rza2m.c ****         }
 311:../generate/drivers/r_stb/src/lld/r_stb_lld_rza2m.c ****     }
 312:../generate/drivers/r_stb/src/lld/r_stb_lld_rza2m.c **** 
 313:../generate/drivers/r_stb/src/lld/r_stb_lld_rza2m.c ****     /* return NULL if not found */
 314:../generate/drivers/r_stb/src/lld/r_stb_lld_rza2m.c ****     return NULL;
 186              		.loc 1 314 12 view .LVU52
 187 0038 0000A0E3 		mov	r0, #0
 188              	.LVL17:
 315:../generate/drivers/r_stb/src/lld/r_stb_lld_rza2m.c **** }
 189              		.loc 1 315 1 view .LVU53
 190 003c 1EFF2FE1 		bx	lr
 191              		.cfi_endproc
 192              	.LFE5:
 194              		.section	.text.get_swrstcr_info,"ax",%progbits
 195              		.align	2
 196              		.syntax unified
 197              		.arm
 198              		.fpu neon
 200              	get_swrstcr_info:
 201              	.LVL18:
 202              	.LFB6:
 316:../generate/drivers/r_stb/src/lld/r_stb_lld_rza2m.c **** /******************************************************************************
 317:../generate/drivers/r_stb/src/lld/r_stb_lld_rza2m.c ****  * End of function get_stback_info
 318:../generate/drivers/r_stb/src/lld/r_stb_lld_rza2m.c ****  ******************************************************************************/
 319:../generate/drivers/r_stb/src/lld/r_stb_lld_rza2m.c **** 
 320:../generate/drivers/r_stb/src/lld/r_stb_lld_rza2m.c **** /**
 321:../generate/drivers/r_stb/src/lld/r_stb_lld_rza2m.c ****  * @fn         get_swrstcr_info
 322:../generate/drivers/r_stb/src/lld/r_stb_lld_rza2m.c ****  * @brief      Get SWRSTCR register information for specified module
 323:../generate/drivers/r_stb/src/lld/r_stb_lld_rza2m.c ****  * @param[in]  module: module to check
 324:../generate/drivers/r_stb/src/lld/r_stb_lld_rza2m.c ****  * @return     Pointer for register information or NULL if invalid module
 325:../generate/drivers/r_stb/src/lld/r_stb_lld_rza2m.c ****  */
 326:../generate/drivers/r_stb/src/lld/r_stb_lld_rza2m.c **** static const st_r_prv_reg_info_t * get_swrstcr_info(e_stb_module_t module)
 327:../generate/drivers/r_stb/src/lld/r_stb_lld_rza2m.c **** {
 203              		.loc 1 327 1 is_stmt 1 view -0
 204              		.cfi_startproc
 205              		@ args = 0, pretend = 0, frame = 0
 206              		@ frame_needed = 0, uses_anonymous_args = 0
 207              		@ link register save eliminated.
 328:../generate/drivers/r_stb/src/lld/r_stb_lld_rza2m.c ****     size_t index;
 208              		.loc 1 328 5 view .LVU55
 329:../generate/drivers/r_stb/src/lld/r_stb_lld_rza2m.c ****     size_t count = (sizeof gs_swrstcr) / (sizeof gs_swrstcr[0]);
 209              		.loc 1 329 5 view .LVU56
 330:../generate/drivers/r_stb/src/lld/r_stb_lld_rza2m.c **** 
 331:../generate/drivers/r_stb/src/lld/r_stb_lld_rza2m.c ****     for ( index = 0; index < count; index++ )
 210              		.loc 1 331 5 view .LVU57
 211              		.loc 1 331 17 is_stmt 0 view .LVU58
 212 0000 0030A0E3 		mov	r3, #0
 213              	.LVL19:
 214              	.L23:
 215              		.loc 1 331 22 is_stmt 1 discriminator 1 view .LVU59
 216              		.loc 1 331 5 is_stmt 0 discriminator 1 view .LVU60
 217 0004 090053E3 		cmp	r3, #9
 218 0008 0A00008A 		bhi	.L27
 332:../generate/drivers/r_stb/src/lld/r_stb_lld_rza2m.c ****     {
 333:../generate/drivers/r_stb/src/lld/r_stb_lld_rza2m.c ****         if ( module == gs_swrstcr[index].module )
 219              		.loc 1 333 9 is_stmt 1 view .LVU61
 220              		.loc 1 333 41 is_stmt 0 view .LVU62
 221 000c 002000E3 		movw	r2, #:lower16:.LANCHOR3
 222 0010 002040E3 		movt	r2, #:upper16:.LANCHOR3
 223 0014 831083E0 		add	r1, r3, r3, lsl #1
 224 0018 0121D2E7 		ldrb	r2, [r2, r1, lsl #2]	@ zero_extendqisi2
 225              		.loc 1 333 12 view .LVU63
 226 001c 000052E1 		cmp	r2, r0
 331:../generate/drivers/r_stb/src/lld/r_stb_lld_rza2m.c ****     {
 227              		.loc 1 331 37 is_stmt 1 discriminator 2 view .LVU64
 331:../generate/drivers/r_stb/src/lld/r_stb_lld_rza2m.c ****     {
 228              		.loc 1 331 42 is_stmt 0 discriminator 2 view .LVU65
 229 0020 01308312 		addne	r3, r3, #1
 230              	.LVL20:
 331:../generate/drivers/r_stb/src/lld/r_stb_lld_rza2m.c ****     {
 231              		.loc 1 331 42 discriminator 2 view .LVU66
 232 0024 F6FFFF1A 		bne	.L23
 233              	.L28:
 334:../generate/drivers/r_stb/src/lld/r_stb_lld_rza2m.c ****         {
 335:../generate/drivers/r_stb/src/lld/r_stb_lld_rza2m.c ****             return &gs_swrstcr[index];
 234              		.loc 1 335 13 is_stmt 1 view .LVU67
 235              		.loc 1 335 20 is_stmt 0 view .LVU68
 236 0028 000000E3 		movw	r0, #:lower16:.LANCHOR3
 237              	.LVL21:
 238              		.loc 1 335 20 view .LVU69
 239 002c 000040E3 		movt	r0, #:upper16:.LANCHOR3
 240 0030 010180E0 		add	r0, r0, r1, lsl #2
 241 0034 1EFF2FE1 		bx	lr
 242              	.LVL22:
 243              	.L27:
 336:../generate/drivers/r_stb/src/lld/r_stb_lld_rza2m.c ****         }
 337:../generate/drivers/r_stb/src/lld/r_stb_lld_rza2m.c ****     }
 338:../generate/drivers/r_stb/src/lld/r_stb_lld_rza2m.c **** 
 339:../generate/drivers/r_stb/src/lld/r_stb_lld_rza2m.c ****     /* return NULL if not found */
 340:../generate/drivers/r_stb/src/lld/r_stb_lld_rza2m.c ****     return NULL;
 244              		.loc 1 340 12 view .LVU70
 245 0038 0000A0E3 		mov	r0, #0
 246              	.LVL23:
 341:../generate/drivers/r_stb/src/lld/r_stb_lld_rza2m.c **** }
 247              		.loc 1 341 1 view .LVU71
 248 003c 1EFF2FE1 		bx	lr
 249              		.cfi_endproc
 250              	.LFE6:
 252              		.section	.text.is_clock_supplied,"ax",%progbits
 253              		.align	2
 254              		.syntax unified
 255              		.arm
 256              		.fpu neon
 258              	is_clock_supplied:
 259              	.LVL24:
 260              	.LFB7:
 342:../generate/drivers/r_stb/src/lld/r_stb_lld_rza2m.c **** /******************************************************************************
 343:../generate/drivers/r_stb/src/lld/r_stb_lld_rza2m.c ****  * End of function get_swrstcr_info
 344:../generate/drivers/r_stb/src/lld/r_stb_lld_rza2m.c ****  ******************************************************************************/
 345:../generate/drivers/r_stb/src/lld/r_stb_lld_rza2m.c **** 
 346:../generate/drivers/r_stb/src/lld/r_stb_lld_rza2m.c **** /**
 347:../generate/drivers/r_stb/src/lld/r_stb_lld_rza2m.c ****  * @fn         is_clock_supplied
 348:../generate/drivers/r_stb/src/lld/r_stb_lld_rza2m.c ****  * @brief      Check if clock supplied for specified module
 349:../generate/drivers/r_stb/src/lld/r_stb_lld_rza2m.c ****  * @param[in]  module: module to check
 350:../generate/drivers/r_stb/src/lld/r_stb_lld_rza2m.c ****  * @retval     true Clock is supplied
 351:../generate/drivers/r_stb/src/lld/r_stb_lld_rza2m.c ****  * @retval     false Clock not suppliked
 352:../generate/drivers/r_stb/src/lld/r_stb_lld_rza2m.c ****  */
 353:../generate/drivers/r_stb/src/lld/r_stb_lld_rza2m.c **** static bool_t is_clock_supplied(e_stb_module_t module)
 354:../generate/drivers/r_stb/src/lld/r_stb_lld_rza2m.c **** {
 261              		.loc 1 354 1 is_stmt 1 view -0
 262              		.cfi_startproc
 263              		@ args = 0, pretend = 0, frame = 0
 264              		@ frame_needed = 0, uses_anonymous_args = 0
 265              		@ link register save eliminated.
 355:../generate/drivers/r_stb/src/lld/r_stb_lld_rza2m.c ****     bool_t result;
 266              		.loc 1 355 5 view .LVU73
 356:../generate/drivers/r_stb/src/lld/r_stb_lld_rza2m.c **** 
 357:../generate/drivers/r_stb/src/lld/r_stb_lld_rza2m.c ****     /* initialise as clock is not supplied */
 358:../generate/drivers/r_stb/src/lld/r_stb_lld_rza2m.c ****     result = false;
 267              		.loc 1 358 5 view .LVU74
 359:../generate/drivers/r_stb/src/lld/r_stb_lld_rza2m.c **** 
 360:../generate/drivers/r_stb/src/lld/r_stb_lld_rza2m.c ****     if (g_clk_state[module] == CLK_ON)
 268              		.loc 1 360 5 view .LVU75
 269              		.loc 1 360 20 is_stmt 0 view .LVU76
 270 0000 003000E3 		movw	r3, #:lower16:.LANCHOR4
 271 0004 003040E3 		movt	r3, #:upper16:.LANCHOR4
 272 0008 0030D3E7 		ldrb	r3, [r3, r0]	@ zero_extendqisi2
 273              		.loc 1 360 8 view .LVU77
 274 000c 000053E3 		cmp	r3, #0
 275 0010 0100000A 		beq	.L31
 358:../generate/drivers/r_stb/src/lld/r_stb_lld_rza2m.c **** 
 276              		.loc 1 358 12 view .LVU78
 277 0014 0000A0E3 		mov	r0, #0
 278              	.LVL25:
 358:../generate/drivers/r_stb/src/lld/r_stb_lld_rza2m.c **** 
 279              		.loc 1 358 12 view .LVU79
 280 0018 1EFF2FE1 		bx	lr
 281              	.LVL26:
 282              	.L31:
 361:../generate/drivers/r_stb/src/lld/r_stb_lld_rza2m.c ****     {
 362:../generate/drivers/r_stb/src/lld/r_stb_lld_rza2m.c ****         result = true;
 283              		.loc 1 362 16 view .LVU80
 284 001c 0100A0E3 		mov	r0, #1
 285              	.LVL27:
 363:../generate/drivers/r_stb/src/lld/r_stb_lld_rza2m.c ****     }
 364:../generate/drivers/r_stb/src/lld/r_stb_lld_rza2m.c **** 
 365:../generate/drivers/r_stb/src/lld/r_stb_lld_rza2m.c ****     return result;
 286              		.loc 1 365 5 is_stmt 1 view .LVU81
 366:../generate/drivers/r_stb/src/lld/r_stb_lld_rza2m.c **** }
 287              		.loc 1 366 1 is_stmt 0 view .LVU82
 288 0020 1EFF2FE1 		bx	lr
 289              		.cfi_endproc
 290              	.LFE7:
 292              		.section	.text.R_STB_RequestModuleStart,"ax",%progbits
 293              		.align	2
 294              		.global	R_STB_RequestModuleStart
 295              		.syntax unified
 296              		.arm
 297              		.fpu neon
 299              	R_STB_RequestModuleStart:
 300              	.LVL28:
 301              	.LFB8:
 367:../generate/drivers/r_stb/src/lld/r_stb_lld_rza2m.c **** /******************************************************************************
 368:../generate/drivers/r_stb/src/lld/r_stb_lld_rza2m.c ****  * End of function is_clock_supplied
 369:../generate/drivers/r_stb/src/lld/r_stb_lld_rza2m.c ****  ******************************************************************************/
 370:../generate/drivers/r_stb/src/lld/r_stb_lld_rza2m.c **** 
 371:../generate/drivers/r_stb/src/lld/r_stb_lld_rza2m.c **** /**
 372:../generate/drivers/r_stb/src/lld/r_stb_lld_rza2m.c ****  * @fn         R_STB_RequestModuleStart
 373:../generate/drivers/r_stb/src/lld/r_stb_lld_rza2m.c ****  * @brief      Cleanup to start the module after supplying clock
 374:../generate/drivers/r_stb/src/lld/r_stb_lld_rza2m.c ****  * @param[in]  module: module number
 375:../generate/drivers/r_stb/src/lld/r_stb_lld_rza2m.c ****  * @retval     STB_SUCCESS           Successful operation.
 376:../generate/drivers/r_stb/src/lld/r_stb_lld_rza2m.c ****  * @retval     STB_INVALID_MODULE    Invalid module number or does not supported
 377:../generate/drivers/r_stb/src/lld/r_stb_lld_rza2m.c ****  * @retval     STB_INVALID_STATE     Invalid state for operation
 378:../generate/drivers/r_stb/src/lld/r_stb_lld_rza2m.c ****  * @retval     STB_AGAIN             This operation was not completed
 379:../generate/drivers/r_stb/src/lld/r_stb_lld_rza2m.c ****  */
 380:../generate/drivers/r_stb/src/lld/r_stb_lld_rza2m.c **** e_stb_err_t R_STB_RequestModuleStart( e_stb_module_t module )
 381:../generate/drivers/r_stb/src/lld/r_stb_lld_rza2m.c **** {
 302              		.loc 1 381 1 is_stmt 1 view -0
 303              		.cfi_startproc
 304              		@ args = 0, pretend = 0, frame = 0
 305              		@ frame_needed = 0, uses_anonymous_args = 0
 306              		.loc 1 381 1 is_stmt 0 view .LVU84
 307 0000 70402DE9 		push	{r4, r5, r6, lr}
 308              		.cfi_def_cfa_offset 16
 309              		.cfi_offset 4, -16
 310              		.cfi_offset 5, -12
 311              		.cfi_offset 6, -8
 312              		.cfi_offset 14, -4
 313 0004 0050A0E1 		mov	r5, r0
 382:../generate/drivers/r_stb/src/lld/r_stb_lld_rza2m.c ****     e_stb_err_t ret;
 314              		.loc 1 382 5 is_stmt 1 view .LVU85
 383:../generate/drivers/r_stb/src/lld/r_stb_lld_rza2m.c ****     const st_r_prv_reg_info_t * p_stbreq;
 315              		.loc 1 383 5 view .LVU86
 384:../generate/drivers/r_stb/src/lld/r_stb_lld_rza2m.c ****     const st_r_prv_reg_info_t * p_stback;
 316              		.loc 1 384 5 view .LVU87
 385:../generate/drivers/r_stb/src/lld/r_stb_lld_rza2m.c ****     uint8_t value;
 317              		.loc 1 385 5 view .LVU88
 386:../generate/drivers/r_stb/src/lld/r_stb_lld_rza2m.c **** 
 387:../generate/drivers/r_stb/src/lld/r_stb_lld_rza2m.c ****     /* Initialise error state */
 388:../generate/drivers/r_stb/src/lld/r_stb_lld_rza2m.c ****     ret = STB_SUCCESS;
 318              		.loc 1 388 5 view .LVU89
 319              	.LVL29:
 389:../generate/drivers/r_stb/src/lld/r_stb_lld_rza2m.c **** 
 390:../generate/drivers/r_stb/src/lld/r_stb_lld_rza2m.c ****     /* obtain the STBREQ and the STBACK information */
 391:../generate/drivers/r_stb/src/lld/r_stb_lld_rza2m.c ****     p_stbreq = get_stbreq_info(module);
 320              		.loc 1 391 5 view .LVU90
 321              		.loc 1 391 16 is_stmt 0 view .LVU91
 322 0008 FEFFFFEB 		bl	get_stbreq_info
 323              	.LVL30:
 324              		.loc 1 391 16 view .LVU92
 325 000c 0040A0E1 		mov	r4, r0
 326              	.LVL31:
 392:../generate/drivers/r_stb/src/lld/r_stb_lld_rza2m.c ****     p_stback = get_stback_info(module);
 327              		.loc 1 392 5 is_stmt 1 view .LVU93
 328              		.loc 1 392 16 is_stmt 0 view .LVU94
 329 0010 0500A0E1 		mov	r0, r5
 330              	.LVL32:
 331              		.loc 1 392 16 view .LVU95
 332 0014 FEFFFFEB 		bl	get_stback_info
 333              	.LVL33:
 393:../generate/drivers/r_stb/src/lld/r_stb_lld_rza2m.c **** 
 394:../generate/drivers/r_stb/src/lld/r_stb_lld_rza2m.c ****     /* check if unsupported module */
 395:../generate/drivers/r_stb/src/lld/r_stb_lld_rza2m.c ****     if ( (NULL == p_stback) || (NULL == p_stbreq) )
 334              		.loc 1 395 5 is_stmt 1 view .LVU96
 335              		.loc 1 395 16 is_stmt 0 view .LVU97
 336 0018 0060A0E1 		mov	r6, r0
 337              		.loc 1 395 38 view .LVU98
 338 001c 143F6FE1 		clz	r3, r4
 339 0020 A332A0E1 		lsr	r3, r3, #5
 340              		.loc 1 395 29 view .LVU99
 341 0024 000050E3 		cmp	r0, #0
 342 0028 0130A003 		moveq	r3, #1
 343              		.loc 1 395 8 view .LVU100
 344 002c 000053E3 		cmp	r3, #0
 345 0030 0500001A 		bne	.L35
 396:../generate/drivers/r_stb/src/lld/r_stb_lld_rza2m.c ****     {
 397:../generate/drivers/r_stb/src/lld/r_stb_lld_rza2m.c ****         ret = STB_INVALID_MODULE;
 398:../generate/drivers/r_stb/src/lld/r_stb_lld_rza2m.c ****     }
 399:../generate/drivers/r_stb/src/lld/r_stb_lld_rza2m.c **** 
 400:../generate/drivers/r_stb/src/lld/r_stb_lld_rza2m.c ****     /* check if clock supplied or not */
 401:../generate/drivers/r_stb/src/lld/r_stb_lld_rza2m.c ****     if ( STB_SUCCESS == ret )
 346              		.loc 1 401 5 is_stmt 1 view .LVU101
 402:../generate/drivers/r_stb/src/lld/r_stb_lld_rza2m.c ****     {
 403:../generate/drivers/r_stb/src/lld/r_stb_lld_rza2m.c ****         if ( !is_clock_supplied(module) )
 347              		.loc 1 403 9 view .LVU102
 348              		.loc 1 403 15 is_stmt 0 view .LVU103
 349 0034 0500A0E1 		mov	r0, r5
 350              	.LVL34:
 351              		.loc 1 403 15 view .LVU104
 352 0038 FEFFFFEB 		bl	is_clock_supplied
 353              	.LVL35:
 354              		.loc 1 403 12 view .LVU105
 355 003c 000050E3 		cmp	r0, #0
 356 0040 1600000A 		beq	.L36
 388:../generate/drivers/r_stb/src/lld/r_stb_lld_rza2m.c **** 
 357              		.loc 1 388 9 view .LVU106
 358 0044 0050A0E3 		mov	r5, #0
 359 0048 000000EA 		b	.L33
 360              	.LVL36:
 361              	.L35:
 397:../generate/drivers/r_stb/src/lld/r_stb_lld_rza2m.c ****     }
 362              		.loc 1 397 13 view .LVU107
 363 004c 0050E0E3 		mvn	r5, #0
 364              	.LVL37:
 365              	.L33:
 404:../generate/drivers/r_stb/src/lld/r_stb_lld_rza2m.c ****         {
 405:../generate/drivers/r_stb/src/lld/r_stb_lld_rza2m.c ****             /* if clock does not supplied, the module can not start. */
 406:../generate/drivers/r_stb/src/lld/r_stb_lld_rza2m.c ****             ret = STB_INVALID_STATE;
 407:../generate/drivers/r_stb/src/lld/r_stb_lld_rza2m.c ****         }
 408:../generate/drivers/r_stb/src/lld/r_stb_lld_rza2m.c ****     }
 409:../generate/drivers/r_stb/src/lld/r_stb_lld_rza2m.c **** 
 410:../generate/drivers/r_stb/src/lld/r_stb_lld_rza2m.c ****     if ( STB_SUCCESS == ret )
 366              		.loc 1 410 5 is_stmt 1 view .LVU108
 367              		.loc 1 410 8 is_stmt 0 view .LVU109
 368 0050 000055E3 		cmp	r5, #0
 369 0054 0100000A 		beq	.L39
 370              	.LVL38:
 371              	.L34:
 411:../generate/drivers/r_stb/src/lld/r_stb_lld_rza2m.c ****     {
 412:../generate/drivers/r_stb/src/lld/r_stb_lld_rza2m.c ****         /* turned off standby request bit */
 413:../generate/drivers/r_stb/src/lld/r_stb_lld_rza2m.c ****         RZA_IO_RegWrite_8(p_stbreq->reg_address, 0, IOREG_NONSHIFT_ACCESS, p_stbreq->mask);
 414:../generate/drivers/r_stb/src/lld/r_stb_lld_rza2m.c **** 
 415:../generate/drivers/r_stb/src/lld/r_stb_lld_rza2m.c ****         /* dummy read */
 416:../generate/drivers/r_stb/src/lld/r_stb_lld_rza2m.c ****         RZA_IO_RegRead_8(p_stbreq->reg_address, IOREG_NONSHIFT_ACCESS, IOREG_NONMASK_ACCESS);
 417:../generate/drivers/r_stb/src/lld/r_stb_lld_rza2m.c **** 
 418:../generate/drivers/r_stb/src/lld/r_stb_lld_rza2m.c ****         /* read start completion */
 419:../generate/drivers/r_stb/src/lld/r_stb_lld_rza2m.c ****         value = RZA_IO_RegRead_8(p_stback->reg_address, IOREG_NONSHIFT_ACCESS, p_stback->mask);
 420:../generate/drivers/r_stb/src/lld/r_stb_lld_rza2m.c ****         if ( 0 != value )
 421:../generate/drivers/r_stb/src/lld/r_stb_lld_rza2m.c ****         {
 422:../generate/drivers/r_stb/src/lld/r_stb_lld_rza2m.c ****             /* If at least one related bits still 1, start not completed.
 423:../generate/drivers/r_stb/src/lld/r_stb_lld_rza2m.c ****              * In this case, return STB_AGAIN.
 424:../generate/drivers/r_stb/src/lld/r_stb_lld_rza2m.c ****              */
 425:../generate/drivers/r_stb/src/lld/r_stb_lld_rza2m.c ****             ret = STB_AGAIN;
 426:../generate/drivers/r_stb/src/lld/r_stb_lld_rza2m.c ****         }
 427:../generate/drivers/r_stb/src/lld/r_stb_lld_rza2m.c ****     }
 428:../generate/drivers/r_stb/src/lld/r_stb_lld_rza2m.c **** 
 429:../generate/drivers/r_stb/src/lld/r_stb_lld_rza2m.c ****     return ret;
 372              		.loc 1 429 5 is_stmt 1 view .LVU110
 430:../generate/drivers/r_stb/src/lld/r_stb_lld_rza2m.c **** }
 373              		.loc 1 430 1 is_stmt 0 view .LVU111
 374 0058 0500A0E1 		mov	r0, r5
 375 005c 7080BDE8 		pop	{r4, r5, r6, pc}
 376              	.L39:
 413:../generate/drivers/r_stb/src/lld/r_stb_lld_rza2m.c **** 
 377              		.loc 1 413 9 is_stmt 1 view .LVU112
 378 0060 0830D4E5 		ldrb	r3, [r4, #8]	@ zero_extendqisi2
 379 0064 0020A0E3 		mov	r2, #0
 380 0068 0210A0E1 		mov	r1, r2
 381 006c 040094E5 		ldr	r0, [r4, #4]
 382 0070 FEFFFFEB 		bl	RZA_IO_RegWrite_8
 383              	.LVL39:
 416:../generate/drivers/r_stb/src/lld/r_stb_lld_rza2m.c **** 
 384              		.loc 1 416 9 view .LVU113
 385 0074 0020E0E3 		mvn	r2, #0
 386 0078 0010A0E3 		mov	r1, #0
 387 007c 040094E5 		ldr	r0, [r4, #4]
 388 0080 FEFFFFEB 		bl	RZA_IO_RegRead_8
 389              	.LVL40:
 419:../generate/drivers/r_stb/src/lld/r_stb_lld_rza2m.c ****         if ( 0 != value )
 390              		.loc 1 419 9 view .LVU114
 419:../generate/drivers/r_stb/src/lld/r_stb_lld_rza2m.c ****         if ( 0 != value )
 391              		.loc 1 419 17 is_stmt 0 view .LVU115
 392 0084 0820D6E5 		ldrb	r2, [r6, #8]	@ zero_extendqisi2
 393 0088 0010A0E3 		mov	r1, #0
 394 008c 040096E5 		ldr	r0, [r6, #4]
 395 0090 FEFFFFEB 		bl	RZA_IO_RegRead_8
 396              	.LVL41:
 420:../generate/drivers/r_stb/src/lld/r_stb_lld_rza2m.c ****         {
 397              		.loc 1 420 9 is_stmt 1 view .LVU116
 420:../generate/drivers/r_stb/src/lld/r_stb_lld_rza2m.c ****         {
 398              		.loc 1 420 12 is_stmt 0 view .LVU117
 399 0094 000050E3 		cmp	r0, #0
 425:../generate/drivers/r_stb/src/lld/r_stb_lld_rza2m.c ****         }
 400              		.loc 1 425 17 view .LVU118
 401 0098 0150E013 		mvnne	r5, #1
 402              	.LVL42:
 425:../generate/drivers/r_stb/src/lld/r_stb_lld_rza2m.c ****         }
 403              		.loc 1 425 17 view .LVU119
 404 009c EDFFFFEA 		b	.L34
 405              	.LVL43:
 406              	.L36:
 406:../generate/drivers/r_stb/src/lld/r_stb_lld_rza2m.c ****         }
 407              		.loc 1 406 17 view .LVU120
 408 00a0 0250E0E3 		mvn	r5, #2
 409 00a4 EBFFFFEA 		b	.L34
 410              		.cfi_endproc
 411              	.LFE8:
 413              		.section	.text.R_STB_RequestModuleStop,"ax",%progbits
 414              		.align	2
 415              		.global	R_STB_RequestModuleStop
 416              		.syntax unified
 417              		.arm
 418              		.fpu neon
 420              	R_STB_RequestModuleStop:
 421              	.LVL44:
 422              	.LFB9:
 431:../generate/drivers/r_stb/src/lld/r_stb_lld_rza2m.c **** /******************************************************************************
 432:../generate/drivers/r_stb/src/lld/r_stb_lld_rza2m.c ****  * End of function R_STB_RequestModuleStart
 433:../generate/drivers/r_stb/src/lld/r_stb_lld_rza2m.c ****  ******************************************************************************/
 434:../generate/drivers/r_stb/src/lld/r_stb_lld_rza2m.c **** 
 435:../generate/drivers/r_stb/src/lld/r_stb_lld_rza2m.c **** /**
 436:../generate/drivers/r_stb/src/lld/r_stb_lld_rza2m.c ****  * @fn         R_STB_RequestModuleStop
 437:../generate/drivers/r_stb/src/lld/r_stb_lld_rza2m.c ****  * @brief      Prepare to stop the module
 438:../generate/drivers/r_stb/src/lld/r_stb_lld_rza2m.c ****  * @param[in]  module: module number
 439:../generate/drivers/r_stb/src/lld/r_stb_lld_rza2m.c ****  * @retval     STB_SUCCESS           Successful operation.
 440:../generate/drivers/r_stb/src/lld/r_stb_lld_rza2m.c ****  * @retval     STB_INVALID_MODULE    Invalid module number or does not supported
 441:../generate/drivers/r_stb/src/lld/r_stb_lld_rza2m.c ****  * @retval     STB_INVALID_STATE     Invalid state for operation
 442:../generate/drivers/r_stb/src/lld/r_stb_lld_rza2m.c ****  * @retval     STB_AGAIN             This operation was not completed
 443:../generate/drivers/r_stb/src/lld/r_stb_lld_rza2m.c ****  */
 444:../generate/drivers/r_stb/src/lld/r_stb_lld_rza2m.c **** e_stb_err_t  R_STB_RequestModuleStop( e_stb_module_t module )
 445:../generate/drivers/r_stb/src/lld/r_stb_lld_rza2m.c **** {
 423              		.loc 1 445 1 is_stmt 1 view -0
 424              		.cfi_startproc
 425              		@ args = 0, pretend = 0, frame = 0
 426              		@ frame_needed = 0, uses_anonymous_args = 0
 427              		.loc 1 445 1 is_stmt 0 view .LVU122
 428 0000 70402DE9 		push	{r4, r5, r6, lr}
 429              		.cfi_def_cfa_offset 16
 430              		.cfi_offset 4, -16
 431              		.cfi_offset 5, -12
 432              		.cfi_offset 6, -8
 433              		.cfi_offset 14, -4
 434 0004 0050A0E1 		mov	r5, r0
 446:../generate/drivers/r_stb/src/lld/r_stb_lld_rza2m.c ****     e_stb_err_t ret;
 435              		.loc 1 446 5 is_stmt 1 view .LVU123
 447:../generate/drivers/r_stb/src/lld/r_stb_lld_rza2m.c ****     const st_r_prv_reg_info_t * p_stbreq;
 436              		.loc 1 447 5 view .LVU124
 448:../generate/drivers/r_stb/src/lld/r_stb_lld_rza2m.c ****     const st_r_prv_reg_info_t * p_stback;
 437              		.loc 1 448 5 view .LVU125
 449:../generate/drivers/r_stb/src/lld/r_stb_lld_rza2m.c ****     uint8_t value;
 438              		.loc 1 449 5 view .LVU126
 450:../generate/drivers/r_stb/src/lld/r_stb_lld_rza2m.c **** 
 451:../generate/drivers/r_stb/src/lld/r_stb_lld_rza2m.c ****     /* Initialise error state */
 452:../generate/drivers/r_stb/src/lld/r_stb_lld_rza2m.c ****     ret = STB_SUCCESS;
 439              		.loc 1 452 5 view .LVU127
 440              	.LVL45:
 453:../generate/drivers/r_stb/src/lld/r_stb_lld_rza2m.c **** 
 454:../generate/drivers/r_stb/src/lld/r_stb_lld_rza2m.c ****     /* obtain the STBREQ and the STBACK information */
 455:../generate/drivers/r_stb/src/lld/r_stb_lld_rza2m.c ****     p_stbreq = get_stbreq_info(module);
 441              		.loc 1 455 5 view .LVU128
 442              		.loc 1 455 16 is_stmt 0 view .LVU129
 443 0008 FEFFFFEB 		bl	get_stbreq_info
 444              	.LVL46:
 445              		.loc 1 455 16 view .LVU130
 446 000c 0040A0E1 		mov	r4, r0
 447              	.LVL47:
 456:../generate/drivers/r_stb/src/lld/r_stb_lld_rza2m.c ****     p_stback = get_stback_info(module);
 448              		.loc 1 456 5 is_stmt 1 view .LVU131
 449              		.loc 1 456 16 is_stmt 0 view .LVU132
 450 0010 0500A0E1 		mov	r0, r5
 451              	.LVL48:
 452              		.loc 1 456 16 view .LVU133
 453 0014 FEFFFFEB 		bl	get_stback_info
 454              	.LVL49:
 457:../generate/drivers/r_stb/src/lld/r_stb_lld_rza2m.c **** 
 458:../generate/drivers/r_stb/src/lld/r_stb_lld_rza2m.c ****     /* check if unsupported module */
 459:../generate/drivers/r_stb/src/lld/r_stb_lld_rza2m.c ****     if ( (NULL == p_stback) || (NULL == p_stbreq) )
 455              		.loc 1 459 5 is_stmt 1 view .LVU134
 456              		.loc 1 459 16 is_stmt 0 view .LVU135
 457 0018 0060A0E1 		mov	r6, r0
 458              		.loc 1 459 38 view .LVU136
 459 001c 143F6FE1 		clz	r3, r4
 460 0020 A332A0E1 		lsr	r3, r3, #5
 461              		.loc 1 459 29 view .LVU137
 462 0024 000050E3 		cmp	r0, #0
 463 0028 0130A003 		moveq	r3, #1
 464              		.loc 1 459 8 view .LVU138
 465 002c 000053E3 		cmp	r3, #0
 466 0030 0500001A 		bne	.L43
 460:../generate/drivers/r_stb/src/lld/r_stb_lld_rza2m.c ****     {
 461:../generate/drivers/r_stb/src/lld/r_stb_lld_rza2m.c ****         ret = STB_INVALID_MODULE;
 462:../generate/drivers/r_stb/src/lld/r_stb_lld_rza2m.c ****     }
 463:../generate/drivers/r_stb/src/lld/r_stb_lld_rza2m.c **** 
 464:../generate/drivers/r_stb/src/lld/r_stb_lld_rza2m.c ****     /* check if clock supplied or not */
 465:../generate/drivers/r_stb/src/lld/r_stb_lld_rza2m.c ****     if ( STB_SUCCESS == ret )
 467              		.loc 1 465 5 is_stmt 1 view .LVU139
 466:../generate/drivers/r_stb/src/lld/r_stb_lld_rza2m.c ****     {
 467:../generate/drivers/r_stb/src/lld/r_stb_lld_rza2m.c ****         if ( !is_clock_supplied(module) )
 468              		.loc 1 467 9 view .LVU140
 469              		.loc 1 467 15 is_stmt 0 view .LVU141
 470 0034 0500A0E1 		mov	r0, r5
 471              	.LVL50:
 472              		.loc 1 467 15 view .LVU142
 473 0038 FEFFFFEB 		bl	is_clock_supplied
 474              	.LVL51:
 475              		.loc 1 467 12 view .LVU143
 476 003c 000050E3 		cmp	r0, #0
 477 0040 1700000A 		beq	.L44
 452:../generate/drivers/r_stb/src/lld/r_stb_lld_rza2m.c **** 
 478              		.loc 1 452 9 view .LVU144
 479 0044 0050A0E3 		mov	r5, #0
 480 0048 000000EA 		b	.L41
 481              	.LVL52:
 482              	.L43:
 461:../generate/drivers/r_stb/src/lld/r_stb_lld_rza2m.c ****     }
 483              		.loc 1 461 13 view .LVU145
 484 004c 0050E0E3 		mvn	r5, #0
 485              	.LVL53:
 486              	.L41:
 468:../generate/drivers/r_stb/src/lld/r_stb_lld_rza2m.c ****         {
 469:../generate/drivers/r_stb/src/lld/r_stb_lld_rza2m.c ****             /* if clock does not supplied, the module can not start. */
 470:../generate/drivers/r_stb/src/lld/r_stb_lld_rza2m.c ****             ret = STB_INVALID_STATE;
 471:../generate/drivers/r_stb/src/lld/r_stb_lld_rza2m.c ****         }
 472:../generate/drivers/r_stb/src/lld/r_stb_lld_rza2m.c ****     }
 473:../generate/drivers/r_stb/src/lld/r_stb_lld_rza2m.c **** 
 474:../generate/drivers/r_stb/src/lld/r_stb_lld_rza2m.c ****     if ( STB_SUCCESS == ret )
 487              		.loc 1 474 5 is_stmt 1 view .LVU146
 488              		.loc 1 474 8 is_stmt 0 view .LVU147
 489 0050 000055E3 		cmp	r5, #0
 490 0054 0100000A 		beq	.L47
 491              	.LVL54:
 492              	.L42:
 475:../generate/drivers/r_stb/src/lld/r_stb_lld_rza2m.c ****     {
 476:../generate/drivers/r_stb/src/lld/r_stb_lld_rza2m.c ****         /* turned on standby request bit */
 477:../generate/drivers/r_stb/src/lld/r_stb_lld_rza2m.c ****         RZA_IO_RegWrite_8(p_stbreq->reg_address, p_stbreq->mask, IOREG_NONSHIFT_ACCESS, p_stbreq->m
 478:../generate/drivers/r_stb/src/lld/r_stb_lld_rza2m.c **** 
 479:../generate/drivers/r_stb/src/lld/r_stb_lld_rza2m.c ****         /* dummy read */
 480:../generate/drivers/r_stb/src/lld/r_stb_lld_rza2m.c ****         RZA_IO_RegRead_8(p_stbreq->reg_address, IOREG_NONSHIFT_ACCESS, IOREG_NONMASK_ACCESS);
 481:../generate/drivers/r_stb/src/lld/r_stb_lld_rza2m.c **** 
 482:../generate/drivers/r_stb/src/lld/r_stb_lld_rza2m.c ****         /* read stop completion */
 483:../generate/drivers/r_stb/src/lld/r_stb_lld_rza2m.c ****         value = RZA_IO_RegRead_8(p_stback->reg_address, IOREG_NONSHIFT_ACCESS, p_stback->mask);
 484:../generate/drivers/r_stb/src/lld/r_stb_lld_rza2m.c ****         if ( p_stback->mask != value )
 485:../generate/drivers/r_stb/src/lld/r_stb_lld_rza2m.c ****         {
 486:../generate/drivers/r_stb/src/lld/r_stb_lld_rza2m.c ****             /* If at least one related bits still 0, stop not completed.
 487:../generate/drivers/r_stb/src/lld/r_stb_lld_rza2m.c ****              * In this case, return STB_AGAIN.
 488:../generate/drivers/r_stb/src/lld/r_stb_lld_rza2m.c ****              */
 489:../generate/drivers/r_stb/src/lld/r_stb_lld_rza2m.c ****             ret = STB_AGAIN;
 490:../generate/drivers/r_stb/src/lld/r_stb_lld_rza2m.c ****         }
 491:../generate/drivers/r_stb/src/lld/r_stb_lld_rza2m.c ****     }
 492:../generate/drivers/r_stb/src/lld/r_stb_lld_rza2m.c **** 
 493:../generate/drivers/r_stb/src/lld/r_stb_lld_rza2m.c ****     return ret;
 493              		.loc 1 493 5 is_stmt 1 view .LVU148
 494:../generate/drivers/r_stb/src/lld/r_stb_lld_rza2m.c **** }
 494              		.loc 1 494 1 is_stmt 0 view .LVU149
 495 0058 0500A0E1 		mov	r0, r5
 496 005c 7080BDE8 		pop	{r4, r5, r6, pc}
 497              	.L47:
 477:../generate/drivers/r_stb/src/lld/r_stb_lld_rza2m.c **** 
 498              		.loc 1 477 9 is_stmt 1 view .LVU150
 499 0060 0810D4E5 		ldrb	r1, [r4, #8]	@ zero_extendqisi2
 500 0064 0130A0E1 		mov	r3, r1
 501 0068 0020A0E3 		mov	r2, #0
 502 006c 040094E5 		ldr	r0, [r4, #4]
 503 0070 FEFFFFEB 		bl	RZA_IO_RegWrite_8
 504              	.LVL55:
 480:../generate/drivers/r_stb/src/lld/r_stb_lld_rza2m.c **** 
 505              		.loc 1 480 9 view .LVU151
 506 0074 0020E0E3 		mvn	r2, #0
 507 0078 0010A0E3 		mov	r1, #0
 508 007c 040094E5 		ldr	r0, [r4, #4]
 509 0080 FEFFFFEB 		bl	RZA_IO_RegRead_8
 510              	.LVL56:
 483:../generate/drivers/r_stb/src/lld/r_stb_lld_rza2m.c ****         if ( p_stback->mask != value )
 511              		.loc 1 483 9 view .LVU152
 483:../generate/drivers/r_stb/src/lld/r_stb_lld_rza2m.c ****         if ( p_stback->mask != value )
 512              		.loc 1 483 17 is_stmt 0 view .LVU153
 513 0084 0820D6E5 		ldrb	r2, [r6, #8]	@ zero_extendqisi2
 514 0088 0010A0E3 		mov	r1, #0
 515 008c 040096E5 		ldr	r0, [r6, #4]
 516 0090 FEFFFFEB 		bl	RZA_IO_RegRead_8
 517              	.LVL57:
 484:../generate/drivers/r_stb/src/lld/r_stb_lld_rza2m.c ****         {
 518              		.loc 1 484 9 is_stmt 1 view .LVU154
 484:../generate/drivers/r_stb/src/lld/r_stb_lld_rza2m.c ****         {
 519              		.loc 1 484 22 is_stmt 0 view .LVU155
 520 0094 0830D6E5 		ldrb	r3, [r6, #8]	@ zero_extendqisi2
 484:../generate/drivers/r_stb/src/lld/r_stb_lld_rza2m.c ****         {
 521              		.loc 1 484 12 view .LVU156
 522 0098 000053E1 		cmp	r3, r0
 489:../generate/drivers/r_stb/src/lld/r_stb_lld_rza2m.c ****         }
 523              		.loc 1 489 17 view .LVU157
 524 009c 0150E013 		mvnne	r5, #1
 525              	.LVL58:
 489:../generate/drivers/r_stb/src/lld/r_stb_lld_rza2m.c ****         }
 526              		.loc 1 489 17 view .LVU158
 527 00a0 ECFFFFEA 		b	.L42
 528              	.LVL59:
 529              	.L44:
 470:../generate/drivers/r_stb/src/lld/r_stb_lld_rza2m.c ****         }
 530              		.loc 1 470 17 view .LVU159
 531 00a4 0250E0E3 		mvn	r5, #2
 532 00a8 EAFFFFEA 		b	.L42
 533              		.cfi_endproc
 534              	.LFE9:
 536              		.section	.text.R_STB_StopModule,"ax",%progbits
 537              		.align	2
 538              		.global	R_STB_StopModule
 539              		.syntax unified
 540              		.arm
 541              		.fpu neon
 543              	R_STB_StopModule:
 544              	.LVL60:
 545              	.LFB10:
 495:../generate/drivers/r_stb/src/lld/r_stb_lld_rza2m.c **** /******************************************************************************
 496:../generate/drivers/r_stb/src/lld/r_stb_lld_rza2m.c ****  * End of function R_STB_RequestModuleStart
 497:../generate/drivers/r_stb/src/lld/r_stb_lld_rza2m.c ****  ******************************************************************************/
 498:../generate/drivers/r_stb/src/lld/r_stb_lld_rza2m.c **** 
 499:../generate/drivers/r_stb/src/lld/r_stb_lld_rza2m.c **** /**
 500:../generate/drivers/r_stb/src/lld/r_stb_lld_rza2m.c ****  * @fn         R_STB_StopModule
 501:../generate/drivers/r_stb/src/lld/r_stb_lld_rza2m.c ****  * @brief      Stops the module
 502:../generate/drivers/r_stb/src/lld/r_stb_lld_rza2m.c ****  * @param[in]  module: module number
 503:../generate/drivers/r_stb/src/lld/r_stb_lld_rza2m.c ****  * @retval     STB_SUCCESS           Successful operation.
 504:../generate/drivers/r_stb/src/lld/r_stb_lld_rza2m.c ****  * @retval     STB_INVALID_MODULE    Invalid module number or does not supported
 505:../generate/drivers/r_stb/src/lld/r_stb_lld_rza2m.c ****  */
 506:../generate/drivers/r_stb/src/lld/r_stb_lld_rza2m.c **** e_stb_err_t R_STB_StopModule( e_stb_module_t module )
 507:../generate/drivers/r_stb/src/lld/r_stb_lld_rza2m.c **** {
 546              		.loc 1 507 1 is_stmt 1 view -0
 547              		.cfi_startproc
 548              		@ args = 0, pretend = 0, frame = 0
 549              		@ frame_needed = 0, uses_anonymous_args = 0
 550              		.loc 1 507 1 is_stmt 0 view .LVU161
 551 0000 70402DE9 		push	{r4, r5, r6, lr}
 552              		.cfi_def_cfa_offset 16
 553              		.cfi_offset 4, -16
 554              		.cfi_offset 5, -12
 555              		.cfi_offset 6, -8
 556              		.cfi_offset 14, -4
 557 0004 0050A0E1 		mov	r5, r0
 508:../generate/drivers/r_stb/src/lld/r_stb_lld_rza2m.c ****     e_stb_err_t ret;
 558              		.loc 1 508 5 is_stmt 1 view .LVU162
 509:../generate/drivers/r_stb/src/lld/r_stb_lld_rza2m.c ****     const st_r_prv_reg_info_t * p_stbcr;
 559              		.loc 1 509 5 view .LVU163
 510:../generate/drivers/r_stb/src/lld/r_stb_lld_rza2m.c **** 
 511:../generate/drivers/r_stb/src/lld/r_stb_lld_rza2m.c ****     /* Initialise error state */
 512:../generate/drivers/r_stb/src/lld/r_stb_lld_rza2m.c ****     ret = STB_SUCCESS;
 560              		.loc 1 512 5 view .LVU164
 561              	.LVL61:
 513:../generate/drivers/r_stb/src/lld/r_stb_lld_rza2m.c **** 
 514:../generate/drivers/r_stb/src/lld/r_stb_lld_rza2m.c ****     /* obtain the STBCR information */
 515:../generate/drivers/r_stb/src/lld/r_stb_lld_rza2m.c ****     p_stbcr = get_stbcr_info(module);
 562              		.loc 1 515 5 view .LVU165
 563              		.loc 1 515 15 is_stmt 0 view .LVU166
 564 0008 FEFFFFEB 		bl	get_stbcr_info
 565              	.LVL62:
 516:../generate/drivers/r_stb/src/lld/r_stb_lld_rza2m.c **** 
 517:../generate/drivers/r_stb/src/lld/r_stb_lld_rza2m.c ****     /* check if unsupported module */
 518:../generate/drivers/r_stb/src/lld/r_stb_lld_rza2m.c ****     if ( (NULL == p_stbcr) )
 566              		.loc 1 518 5 is_stmt 1 view .LVU167
 567              		.loc 1 518 8 is_stmt 0 view .LVU168
 568 000c 004050E2 		subs	r4, r0, #0
 569 0010 0E00000A 		beq	.L50
 519:../generate/drivers/r_stb/src/lld/r_stb_lld_rza2m.c ****     {
 520:../generate/drivers/r_stb/src/lld/r_stb_lld_rza2m.c ****         ret = STB_INVALID_MODULE;
 521:../generate/drivers/r_stb/src/lld/r_stb_lld_rza2m.c ****     }
 522:../generate/drivers/r_stb/src/lld/r_stb_lld_rza2m.c **** 
 523:../generate/drivers/r_stb/src/lld/r_stb_lld_rza2m.c ****     if ( STB_SUCCESS == ret )
 570              		.loc 1 523 5 is_stmt 1 view .LVU169
 524:../generate/drivers/r_stb/src/lld/r_stb_lld_rza2m.c ****     {
 525:../generate/drivers/r_stb/src/lld/r_stb_lld_rza2m.c ****         /* set module standby */
 526:../generate/drivers/r_stb/src/lld/r_stb_lld_rza2m.c ****         RZA_IO_RegWrite_8(p_stbcr->reg_address, p_stbcr->mask, IOREG_NONSHIFT_ACCESS, p_stbcr->mask
 571              		.loc 1 526 9 view .LVU170
 572 0014 0810D4E5 		ldrb	r1, [r4, #8]	@ zero_extendqisi2
 573 0018 0130A0E1 		mov	r3, r1
 574 001c 0020A0E3 		mov	r2, #0
 575 0020 040094E5 		ldr	r0, [r4, #4]
 576              	.LVL63:
 577              		.loc 1 526 9 is_stmt 0 view .LVU171
 578 0024 FEFFFFEB 		bl	RZA_IO_RegWrite_8
 579              	.LVL64:
 527:../generate/drivers/r_stb/src/lld/r_stb_lld_rza2m.c **** 
 528:../generate/drivers/r_stb/src/lld/r_stb_lld_rza2m.c ****         /* dummy read */
 529:../generate/drivers/r_stb/src/lld/r_stb_lld_rza2m.c ****         RZA_IO_RegRead_8(p_stbcr->reg_address, IOREG_NONSHIFT_ACCESS, IOREG_NONMASK_ACCESS);
 580              		.loc 1 529 9 is_stmt 1 view .LVU172
 581 0028 0020E0E3 		mvn	r2, #0
 582 002c 0010A0E3 		mov	r1, #0
 583 0030 040094E5 		ldr	r0, [r4, #4]
 584 0034 FEFFFFEB 		bl	RZA_IO_RegRead_8
 585              	.LVL65:
 530:../generate/drivers/r_stb/src/lld/r_stb_lld_rza2m.c **** 
 531:../generate/drivers/r_stb/src/lld/r_stb_lld_rza2m.c ****         g_clk_state[module] = CLK_OFF;
 586              		.loc 1 531 9 view .LVU173
 587              		.loc 1 531 29 is_stmt 0 view .LVU174
 588 0038 003000E3 		movw	r3, #:lower16:.LANCHOR4
 589 003c 003040E3 		movt	r3, #:upper16:.LANCHOR4
 590 0040 0120A0E3 		mov	r2, #1
 591 0044 0520C3E7 		strb	r2, [r3, r5]
 512:../generate/drivers/r_stb/src/lld/r_stb_lld_rza2m.c **** 
 592              		.loc 1 512 9 view .LVU175
 593 0048 0000A0E3 		mov	r0, #0
 594 004c 7080BDE8 		pop	{r4, r5, r6, pc}
 595              	.LVL66:
 596              	.L50:
 520:../generate/drivers/r_stb/src/lld/r_stb_lld_rza2m.c ****     }
 597              		.loc 1 520 13 view .LVU176
 598 0050 0000E0E3 		mvn	r0, #0
 599              	.LVL67:
 532:../generate/drivers/r_stb/src/lld/r_stb_lld_rza2m.c ****     }
 533:../generate/drivers/r_stb/src/lld/r_stb_lld_rza2m.c **** 
 534:../generate/drivers/r_stb/src/lld/r_stb_lld_rza2m.c ****     return ret;
 600              		.loc 1 534 5 is_stmt 1 view .LVU177
 535:../generate/drivers/r_stb/src/lld/r_stb_lld_rza2m.c **** }
 601              		.loc 1 535 1 is_stmt 0 view .LVU178
 602 0054 7080BDE8 		pop	{r4, r5, r6, pc}
 603              		.cfi_endproc
 604              	.LFE10:
 606              		.section	.text.R_STB_StartModule,"ax",%progbits
 607              		.align	2
 608              		.global	R_STB_StartModule
 609              		.syntax unified
 610              		.arm
 611              		.fpu neon
 613              	R_STB_StartModule:
 614              	.LVL68:
 615              	.LFB11:
 536:../generate/drivers/r_stb/src/lld/r_stb_lld_rza2m.c **** /******************************************************************************
 537:../generate/drivers/r_stb/src/lld/r_stb_lld_rza2m.c ****  * End of function R_STB_StopModule
 538:../generate/drivers/r_stb/src/lld/r_stb_lld_rza2m.c ****  ******************************************************************************/
 539:../generate/drivers/r_stb/src/lld/r_stb_lld_rza2m.c **** 
 540:../generate/drivers/r_stb/src/lld/r_stb_lld_rza2m.c **** /**
 541:../generate/drivers/r_stb/src/lld/r_stb_lld_rza2m.c ****  * @fn         R_STB_StartModule
 542:../generate/drivers/r_stb/src/lld/r_stb_lld_rza2m.c ****  * @brief      Starts the module
 543:../generate/drivers/r_stb/src/lld/r_stb_lld_rza2m.c ****  * @param[in]  module: module number
 544:../generate/drivers/r_stb/src/lld/r_stb_lld_rza2m.c ****  * @retval     STB_SUCCESS           Successful operation.
 545:../generate/drivers/r_stb/src/lld/r_stb_lld_rza2m.c ****  * @retval     STB_INVALID_MODULE    Invalid module number or does not supported
 546:../generate/drivers/r_stb/src/lld/r_stb_lld_rza2m.c ****  */
 547:../generate/drivers/r_stb/src/lld/r_stb_lld_rza2m.c **** e_stb_err_t R_STB_StartModule( e_stb_module_t module )
 548:../generate/drivers/r_stb/src/lld/r_stb_lld_rza2m.c **** {
 616              		.loc 1 548 1 is_stmt 1 view -0
 617              		.cfi_startproc
 618              		@ args = 0, pretend = 0, frame = 0
 619              		@ frame_needed = 0, uses_anonymous_args = 0
 620              		.loc 1 548 1 is_stmt 0 view .LVU180
 621 0000 70402DE9 		push	{r4, r5, r6, lr}
 622              		.cfi_def_cfa_offset 16
 623              		.cfi_offset 4, -16
 624              		.cfi_offset 5, -12
 625              		.cfi_offset 6, -8
 626              		.cfi_offset 14, -4
 627 0004 0050A0E1 		mov	r5, r0
 549:../generate/drivers/r_stb/src/lld/r_stb_lld_rza2m.c ****     e_stb_err_t ret;
 628              		.loc 1 549 5 is_stmt 1 view .LVU181
 550:../generate/drivers/r_stb/src/lld/r_stb_lld_rza2m.c ****     const st_r_prv_reg_info_t * p_stbcr;
 629              		.loc 1 550 5 view .LVU182
 551:../generate/drivers/r_stb/src/lld/r_stb_lld_rza2m.c **** 
 552:../generate/drivers/r_stb/src/lld/r_stb_lld_rza2m.c ****     /* Initialise error state */
 553:../generate/drivers/r_stb/src/lld/r_stb_lld_rza2m.c ****     ret = STB_SUCCESS;
 630              		.loc 1 553 5 view .LVU183
 631              	.LVL69:
 554:../generate/drivers/r_stb/src/lld/r_stb_lld_rza2m.c **** 
 555:../generate/drivers/r_stb/src/lld/r_stb_lld_rza2m.c ****     /* obtain the STBCR information */
 556:../generate/drivers/r_stb/src/lld/r_stb_lld_rza2m.c ****     p_stbcr = get_stbcr_info(module);
 632              		.loc 1 556 5 view .LVU184
 633              		.loc 1 556 15 is_stmt 0 view .LVU185
 634 0008 FEFFFFEB 		bl	get_stbcr_info
 635              	.LVL70:
 557:../generate/drivers/r_stb/src/lld/r_stb_lld_rza2m.c **** 
 558:../generate/drivers/r_stb/src/lld/r_stb_lld_rza2m.c ****     /* check if unsupported module */
 559:../generate/drivers/r_stb/src/lld/r_stb_lld_rza2m.c ****     if ( (NULL == p_stbcr) )
 636              		.loc 1 559 5 is_stmt 1 view .LVU186
 637              		.loc 1 559 8 is_stmt 0 view .LVU187
 638 000c 004050E2 		subs	r4, r0, #0
 639 0010 0D00000A 		beq	.L54
 560:../generate/drivers/r_stb/src/lld/r_stb_lld_rza2m.c ****     {
 561:../generate/drivers/r_stb/src/lld/r_stb_lld_rza2m.c ****         ret = STB_INVALID_MODULE;
 562:../generate/drivers/r_stb/src/lld/r_stb_lld_rza2m.c ****     }
 563:../generate/drivers/r_stb/src/lld/r_stb_lld_rza2m.c **** 
 564:../generate/drivers/r_stb/src/lld/r_stb_lld_rza2m.c ****     if ( STB_SUCCESS == ret )
 640              		.loc 1 564 5 is_stmt 1 view .LVU188
 565:../generate/drivers/r_stb/src/lld/r_stb_lld_rza2m.c ****     {
 566:../generate/drivers/r_stb/src/lld/r_stb_lld_rza2m.c ****         /* clear module standby */
 567:../generate/drivers/r_stb/src/lld/r_stb_lld_rza2m.c ****         RZA_IO_RegWrite_8(p_stbcr->reg_address, 0, IOREG_NONSHIFT_ACCESS, p_stbcr->mask);
 641              		.loc 1 567 9 view .LVU189
 642 0014 0830D4E5 		ldrb	r3, [r4, #8]	@ zero_extendqisi2
 643 0018 0020A0E3 		mov	r2, #0
 644 001c 0210A0E1 		mov	r1, r2
 645 0020 040094E5 		ldr	r0, [r4, #4]
 646              	.LVL71:
 647              		.loc 1 567 9 is_stmt 0 view .LVU190
 648 0024 FEFFFFEB 		bl	RZA_IO_RegWrite_8
 649              	.LVL72:
 568:../generate/drivers/r_stb/src/lld/r_stb_lld_rza2m.c **** 
 569:../generate/drivers/r_stb/src/lld/r_stb_lld_rza2m.c ****         /* dummy read */
 570:../generate/drivers/r_stb/src/lld/r_stb_lld_rza2m.c ****         RZA_IO_RegRead_8(p_stbcr->reg_address, IOREG_NONSHIFT_ACCESS, IOREG_NONMASK_ACCESS);
 650              		.loc 1 570 9 is_stmt 1 view .LVU191
 651 0028 0020E0E3 		mvn	r2, #0
 652 002c 0010A0E3 		mov	r1, #0
 653 0030 040094E5 		ldr	r0, [r4, #4]
 654 0034 FEFFFFEB 		bl	RZA_IO_RegRead_8
 655              	.LVL73:
 571:../generate/drivers/r_stb/src/lld/r_stb_lld_rza2m.c **** 
 572:../generate/drivers/r_stb/src/lld/r_stb_lld_rza2m.c ****         g_clk_state[module] = CLK_ON;
 656              		.loc 1 572 9 view .LVU192
 657              		.loc 1 572 29 is_stmt 0 view .LVU193
 658 0038 003000E3 		movw	r3, #:lower16:.LANCHOR4
 659 003c 003040E3 		movt	r3, #:upper16:.LANCHOR4
 660 0040 0000A0E3 		mov	r0, #0
 661 0044 0500C3E7 		strb	r0, [r3, r5]
 662 0048 7080BDE8 		pop	{r4, r5, r6, pc}
 663              	.LVL74:
 664              	.L54:
 561:../generate/drivers/r_stb/src/lld/r_stb_lld_rza2m.c ****     }
 665              		.loc 1 561 13 view .LVU194
 666 004c 0000E0E3 		mvn	r0, #0
 667              	.LVL75:
 573:../generate/drivers/r_stb/src/lld/r_stb_lld_rza2m.c ****     }
 574:../generate/drivers/r_stb/src/lld/r_stb_lld_rza2m.c **** 
 575:../generate/drivers/r_stb/src/lld/r_stb_lld_rza2m.c ****     return ret;
 668              		.loc 1 575 5 is_stmt 1 view .LVU195
 576:../generate/drivers/r_stb/src/lld/r_stb_lld_rza2m.c **** }
 669              		.loc 1 576 1 is_stmt 0 view .LVU196
 670 0050 7080BDE8 		pop	{r4, r5, r6, pc}
 671              		.cfi_endproc
 672              	.LFE11:
 674              		.section	.text.R_STB_SetModuleResetState,"ax",%progbits
 675              		.align	2
 676              		.global	R_STB_SetModuleResetState
 677              		.syntax unified
 678              		.arm
 679              		.fpu neon
 681              	R_STB_SetModuleResetState:
 682              	.LVL76:
 683              	.LFB12:
 577:../generate/drivers/r_stb/src/lld/r_stb_lld_rza2m.c **** /******************************************************************************
 578:../generate/drivers/r_stb/src/lld/r_stb_lld_rza2m.c ****  * End of function R_STB_StartModule
 579:../generate/drivers/r_stb/src/lld/r_stb_lld_rza2m.c ****  ******************************************************************************/
 580:../generate/drivers/r_stb/src/lld/r_stb_lld_rza2m.c **** 
 581:../generate/drivers/r_stb/src/lld/r_stb_lld_rza2m.c **** /**
 582:../generate/drivers/r_stb/src/lld/r_stb_lld_rza2m.c ****  * @fn         R_STB_SetModuleResetState
 583:../generate/drivers/r_stb/src/lld/r_stb_lld_rza2m.c ****  * @brief      Set module reset state
 584:../generate/drivers/r_stb/src/lld/r_stb_lld_rza2m.c ****  * @note       this API also run the process described in the section 52.3.6
 585:../generate/drivers/r_stb/src/lld/r_stb_lld_rza2m.c ****  *             of User's Manual.
 586:../generate/drivers/r_stb/src/lld/r_stb_lld_rza2m.c ****  * @param[in]  module: module number
 587:../generate/drivers/r_stb/src/lld/r_stb_lld_rza2m.c ****  * @param[in]  state: reset state
 588:../generate/drivers/r_stb/src/lld/r_stb_lld_rza2m.c ****  * @retval     STB_SUCCESS           Successful operation.
 589:../generate/drivers/r_stb/src/lld/r_stb_lld_rza2m.c ****  * @retval     STB_INVALID_MODULE    Invalid module number or does not supported
 590:../generate/drivers/r_stb/src/lld/r_stb_lld_rza2m.c ****  * @retval     STB_INVALID_STATE     Invalid state for operation
 591:../generate/drivers/r_stb/src/lld/r_stb_lld_rza2m.c ****  */
 592:../generate/drivers/r_stb/src/lld/r_stb_lld_rza2m.c **** e_stb_err_t R_STB_SetModuleResetState( e_stb_module_t module, e_stb_reset_state_t state )
 593:../generate/drivers/r_stb/src/lld/r_stb_lld_rza2m.c **** {
 684              		.loc 1 593 1 is_stmt 1 view -0
 685              		.cfi_startproc
 686              		@ args = 0, pretend = 0, frame = 0
 687              		@ frame_needed = 0, uses_anonymous_args = 0
 688              		.loc 1 593 1 is_stmt 0 view .LVU198
 689 0000 F0412DE9 		push	{r4, r5, r6, r7, r8, lr}
 690              		.cfi_def_cfa_offset 24
 691              		.cfi_offset 4, -24
 692              		.cfi_offset 5, -20
 693              		.cfi_offset 6, -16
 694              		.cfi_offset 7, -12
 695              		.cfi_offset 8, -8
 696              		.cfi_offset 14, -4
 697 0004 0040A0E1 		mov	r4, r0
 698 0008 0150A0E1 		mov	r5, r1
 594:../generate/drivers/r_stb/src/lld/r_stb_lld_rza2m.c ****     e_stb_err_t ret;
 699              		.loc 1 594 5 is_stmt 1 view .LVU199
 595:../generate/drivers/r_stb/src/lld/r_stb_lld_rza2m.c ****     const st_r_prv_reg_info_t * p_swrstcr;
 700              		.loc 1 595 5 view .LVU200
 596:../generate/drivers/r_stb/src/lld/r_stb_lld_rza2m.c **** 
 597:../generate/drivers/r_stb/src/lld/r_stb_lld_rza2m.c ****     /* Initialise error state */
 598:../generate/drivers/r_stb/src/lld/r_stb_lld_rza2m.c ****     ret = STB_SUCCESS;
 701              		.loc 1 598 5 view .LVU201
 702              	.LVL77:
 599:../generate/drivers/r_stb/src/lld/r_stb_lld_rza2m.c **** 
 600:../generate/drivers/r_stb/src/lld/r_stb_lld_rza2m.c ****     /* obtain the SWRSTCR information */
 601:../generate/drivers/r_stb/src/lld/r_stb_lld_rza2m.c ****     p_swrstcr = get_swrstcr_info(module);
 703              		.loc 1 601 5 view .LVU202
 704              		.loc 1 601 17 is_stmt 0 view .LVU203
 705 000c FEFFFFEB 		bl	get_swrstcr_info
 706              	.LVL78:
 602:../generate/drivers/r_stb/src/lld/r_stb_lld_rza2m.c **** 
 603:../generate/drivers/r_stb/src/lld/r_stb_lld_rza2m.c ****     /* check if unsupported module */
 604:../generate/drivers/r_stb/src/lld/r_stb_lld_rza2m.c ****     if ( (NULL == p_swrstcr) )
 707              		.loc 1 604 5 is_stmt 1 view .LVU204
 708              		.loc 1 604 8 is_stmt 0 view .LVU205
 709 0010 007050E2 		subs	r7, r0, #0
 710 0014 1700000A 		beq	.L63
 605:../generate/drivers/r_stb/src/lld/r_stb_lld_rza2m.c ****     {
 606:../generate/drivers/r_stb/src/lld/r_stb_lld_rza2m.c ****         ret = STB_INVALID_MODULE;
 607:../generate/drivers/r_stb/src/lld/r_stb_lld_rza2m.c ****     }
 608:../generate/drivers/r_stb/src/lld/r_stb_lld_rza2m.c **** 
 609:../generate/drivers/r_stb/src/lld/r_stb_lld_rza2m.c ****     /* check if clock supplied */
 610:../generate/drivers/r_stb/src/lld/r_stb_lld_rza2m.c ****     if ( (STB_SUCCESS == ret) && (!is_clock_supplied(module)) )
 711              		.loc 1 610 5 is_stmt 1 view .LVU206
 712              		.loc 1 610 36 is_stmt 0 view .LVU207
 713 0018 0400A0E1 		mov	r0, r4
 714              	.LVL79:
 715              		.loc 1 610 36 view .LVU208
 716 001c FEFFFFEB 		bl	is_clock_supplied
 717              	.LVL80:
 718              		.loc 1 610 31 view .LVU209
 719 0020 000050E3 		cmp	r0, #0
 720 0024 2700000A 		beq	.L64
 598:../generate/drivers/r_stb/src/lld/r_stb_lld_rza2m.c **** 
 721              		.loc 1 598 9 view .LVU210
 722 0028 0060A0E3 		mov	r6, #0
 723              	.L57:
 724              	.LVL81:
 611:../generate/drivers/r_stb/src/lld/r_stb_lld_rza2m.c ****     {
 612:../generate/drivers/r_stb/src/lld/r_stb_lld_rza2m.c ****         ret = STB_INVALID_STATE;
 613:../generate/drivers/r_stb/src/lld/r_stb_lld_rza2m.c ****     }
 614:../generate/drivers/r_stb/src/lld/r_stb_lld_rza2m.c **** 
 615:../generate/drivers/r_stb/src/lld/r_stb_lld_rza2m.c ****     if ( STB_SUCCESS == ret )
 725              		.loc 1 615 5 is_stmt 1 view .LVU211
 726              		.loc 1 615 8 is_stmt 0 view .LVU212
 727 002c 000056E3 		cmp	r6, #0
 728 0030 0E00001A 		bne	.L58
 616:../generate/drivers/r_stb/src/lld/r_stb_lld_rza2m.c ****     {
 617:../generate/drivers/r_stb/src/lld/r_stb_lld_rza2m.c ****         if ( MODULE_RESET_STATE == state )
 729              		.loc 1 617 9 is_stmt 1 view .LVU213
 730              		.loc 1 617 12 is_stmt 0 view .LVU214
 731 0034 000055E3 		cmp	r5, #0
 732 0038 1600001A 		bne	.L59
 733              	.LVL82:
 734              	.L60:
 618:../generate/drivers/r_stb/src/lld/r_stb_lld_rza2m.c ****         {
 619:../generate/drivers/r_stb/src/lld/r_stb_lld_rza2m.c ****             /* needs module stop request if state wants to be reset */
 620:../generate/drivers/r_stb/src/lld/r_stb_lld_rza2m.c ****             /* wait while returns STB_AGAIN */
 621:../generate/drivers/r_stb/src/lld/r_stb_lld_rza2m.c ****             do
 735              		.loc 1 621 13 is_stmt 1 discriminator 1 view .LVU215
 622:../generate/drivers/r_stb/src/lld/r_stb_lld_rza2m.c ****             {
 623:../generate/drivers/r_stb/src/lld/r_stb_lld_rza2m.c ****                 ret = R_STB_RequestModuleStop(module);
 736              		.loc 1 623 17 discriminator 1 view .LVU216
 737              		.loc 1 623 23 is_stmt 0 discriminator 1 view .LVU217
 738 003c 0400A0E1 		mov	r0, r4
 739 0040 FEFFFFEB 		bl	R_STB_RequestModuleStop
 740              	.LVL83:
 624:../generate/drivers/r_stb/src/lld/r_stb_lld_rza2m.c ****             } while ( STB_AGAIN == ret );
 741              		.loc 1 624 21 is_stmt 1 discriminator 1 view .LVU218
 742              		.loc 1 624 13 is_stmt 0 discriminator 1 view .LVU219
 743 0044 020070E3 		cmn	r0, #2
 744 0048 FBFFFF0A 		beq	.L60
 625:../generate/drivers/r_stb/src/lld/r_stb_lld_rza2m.c **** 
 626:../generate/drivers/r_stb/src/lld/r_stb_lld_rza2m.c ****             /*
 627:../generate/drivers/r_stb/src/lld/r_stb_lld_rza2m.c ****              * check if the module successfully stop or the module does not support module stop */
 628:../generate/drivers/r_stb/src/lld/r_stb_lld_rza2m.c ****             if ( (STB_INVALID_MODULE == ret) || (STB_SUCCESS == ret) )
 745              		.loc 1 628 13 is_stmt 1 view .LVU220
 746              		.loc 1 628 46 is_stmt 0 view .LVU221
 747 004c 013080E2 		add	r3, r0, #1
 748 0050 7330EFE6 		uxtb	r3, r3
 749              		.loc 1 628 16 view .LVU222
 750 0054 010053E3 		cmp	r3, #1
 751 0058 0800009A 		bls	.L67
 623:../generate/drivers/r_stb/src/lld/r_stb_lld_rza2m.c ****             } while ( STB_AGAIN == ret );
 752              		.loc 1 623 23 view .LVU223
 753 005c 0060A0E1 		mov	r6, r0
 754              	.LVL84:
 755              	.L61:
 629:../generate/drivers/r_stb/src/lld/r_stb_lld_rza2m.c ****             {
 630:../generate/drivers/r_stb/src/lld/r_stb_lld_rza2m.c ****                 /* set the module in reset state */
 631:../generate/drivers/r_stb/src/lld/r_stb_lld_rza2m.c ****                 RZA_IO_RegWrite_8(p_swrstcr->reg_address, p_swrstcr->mask, IOREG_NONSHIFT_ACCESS, p
 632:../generate/drivers/r_stb/src/lld/r_stb_lld_rza2m.c **** 
 633:../generate/drivers/r_stb/src/lld/r_stb_lld_rza2m.c ****                 /* overwrite the return code as success */
 634:../generate/drivers/r_stb/src/lld/r_stb_lld_rza2m.c ****                 ret = STB_SUCCESS;
 635:../generate/drivers/r_stb/src/lld/r_stb_lld_rza2m.c ****             }
 636:../generate/drivers/r_stb/src/lld/r_stb_lld_rza2m.c ****         }
 637:../generate/drivers/r_stb/src/lld/r_stb_lld_rza2m.c ****         else
 638:../generate/drivers/r_stb/src/lld/r_stb_lld_rza2m.c ****         {
 639:../generate/drivers/r_stb/src/lld/r_stb_lld_rza2m.c ****             /* turned off reset bit */
 640:../generate/drivers/r_stb/src/lld/r_stb_lld_rza2m.c ****             RZA_IO_RegWrite_8(p_swrstcr->reg_address, 0, IOREG_NONSHIFT_ACCESS, p_swrstcr->mask);
 641:../generate/drivers/r_stb/src/lld/r_stb_lld_rza2m.c **** 
 642:../generate/drivers/r_stb/src/lld/r_stb_lld_rza2m.c ****             /* needs module stop request if state wants to be "not reset" */
 643:../generate/drivers/r_stb/src/lld/r_stb_lld_rza2m.c ****             /* wait while returns STB_AGAIN */
 644:../generate/drivers/r_stb/src/lld/r_stb_lld_rza2m.c ****             do
 645:../generate/drivers/r_stb/src/lld/r_stb_lld_rza2m.c ****             {
 646:../generate/drivers/r_stb/src/lld/r_stb_lld_rza2m.c ****                 ret = R_STB_RequestModuleStart(module);
 647:../generate/drivers/r_stb/src/lld/r_stb_lld_rza2m.c ****             } while ( STB_AGAIN == ret );
 648:../generate/drivers/r_stb/src/lld/r_stb_lld_rza2m.c **** 
 649:../generate/drivers/r_stb/src/lld/r_stb_lld_rza2m.c ****             /*
 650:../generate/drivers/r_stb/src/lld/r_stb_lld_rza2m.c ****              * check if the module does not support module stop */
 651:../generate/drivers/r_stb/src/lld/r_stb_lld_rza2m.c ****             if ( STB_INVALID_MODULE == ret )
 652:../generate/drivers/r_stb/src/lld/r_stb_lld_rza2m.c ****             {
 653:../generate/drivers/r_stb/src/lld/r_stb_lld_rza2m.c ****                 /* overwrite the return code as success */
 654:../generate/drivers/r_stb/src/lld/r_stb_lld_rza2m.c ****                 ret = STB_SUCCESS;
 655:../generate/drivers/r_stb/src/lld/r_stb_lld_rza2m.c ****             }
 656:../generate/drivers/r_stb/src/lld/r_stb_lld_rza2m.c ****         }
 657:../generate/drivers/r_stb/src/lld/r_stb_lld_rza2m.c **** 
 658:../generate/drivers/r_stb/src/lld/r_stb_lld_rza2m.c ****         /* dummy read the SWRSTCR register */
 659:../generate/drivers/r_stb/src/lld/r_stb_lld_rza2m.c ****         RZA_IO_RegRead_8(p_swrstcr->reg_address, IOREG_NONSHIFT_ACCESS, IOREG_NONMASK_ACCESS);
 756              		.loc 1 659 9 is_stmt 1 view .LVU224
 757 0060 0020E0E3 		mvn	r2, #0
 758 0064 0010A0E3 		mov	r1, #0
 759 0068 040097E5 		ldr	r0, [r7, #4]
 760 006c FEFFFFEB 		bl	RZA_IO_RegRead_8
 761              	.LVL85:
 762              	.L58:
 660:../generate/drivers/r_stb/src/lld/r_stb_lld_rza2m.c ****     }
 661:../generate/drivers/r_stb/src/lld/r_stb_lld_rza2m.c **** 
 662:../generate/drivers/r_stb/src/lld/r_stb_lld_rza2m.c ****     return ret;
 763              		.loc 1 662 5 view .LVU225
 663:../generate/drivers/r_stb/src/lld/r_stb_lld_rza2m.c **** }
 764              		.loc 1 663 1 is_stmt 0 view .LVU226
 765 0070 0600A0E1 		mov	r0, r6
 766 0074 F081BDE8 		pop	{r4, r5, r6, r7, r8, pc}
 767              	.LVL86:
 768              	.L63:
 606:../generate/drivers/r_stb/src/lld/r_stb_lld_rza2m.c ****     }
 769              		.loc 1 606 13 view .LVU227
 770 0078 0060E0E3 		mvn	r6, #0
 771 007c EAFFFFEA 		b	.L57
 772              	.LVL87:
 773              	.L67:
 631:../generate/drivers/r_stb/src/lld/r_stb_lld_rza2m.c **** 
 774              		.loc 1 631 17 is_stmt 1 view .LVU228
 775 0080 0810D7E5 		ldrb	r1, [r7, #8]	@ zero_extendqisi2
 776 0084 0130A0E1 		mov	r3, r1
 777 0088 0020A0E3 		mov	r2, #0
 778 008c 040097E5 		ldr	r0, [r7, #4]
 779              	.LVL88:
 631:../generate/drivers/r_stb/src/lld/r_stb_lld_rza2m.c **** 
 780              		.loc 1 631 17 is_stmt 0 view .LVU229
 781 0090 FEFFFFEB 		bl	RZA_IO_RegWrite_8
 782              	.LVL89:
 634:../generate/drivers/r_stb/src/lld/r_stb_lld_rza2m.c ****             }
 783              		.loc 1 634 17 is_stmt 1 view .LVU230
 634:../generate/drivers/r_stb/src/lld/r_stb_lld_rza2m.c ****             }
 784              		.loc 1 634 17 is_stmt 0 view .LVU231
 785 0094 F1FFFFEA 		b	.L61
 786              	.LVL90:
 787              	.L59:
 640:../generate/drivers/r_stb/src/lld/r_stb_lld_rza2m.c **** 
 788              		.loc 1 640 13 is_stmt 1 view .LVU232
 789 0098 0830D7E5 		ldrb	r3, [r7, #8]	@ zero_extendqisi2
 790 009c 0020A0E3 		mov	r2, #0
 791 00a0 0210A0E1 		mov	r1, r2
 792 00a4 040097E5 		ldr	r0, [r7, #4]
 793 00a8 FEFFFFEB 		bl	RZA_IO_RegWrite_8
 794              	.LVL91:
 795              	.L62:
 644:../generate/drivers/r_stb/src/lld/r_stb_lld_rza2m.c ****             {
 796              		.loc 1 644 13 discriminator 1 view .LVU233
 646:../generate/drivers/r_stb/src/lld/r_stb_lld_rza2m.c ****             } while ( STB_AGAIN == ret );
 797              		.loc 1 646 17 discriminator 1 view .LVU234
 646:../generate/drivers/r_stb/src/lld/r_stb_lld_rza2m.c ****             } while ( STB_AGAIN == ret );
 798              		.loc 1 646 23 is_stmt 0 discriminator 1 view .LVU235
 799 00ac 0400A0E1 		mov	r0, r4
 800 00b0 FEFFFFEB 		bl	R_STB_RequestModuleStart
 801              	.LVL92:
 647:../generate/drivers/r_stb/src/lld/r_stb_lld_rza2m.c **** 
 802              		.loc 1 647 21 is_stmt 1 discriminator 1 view .LVU236
 647:../generate/drivers/r_stb/src/lld/r_stb_lld_rza2m.c **** 
 803              		.loc 1 647 13 is_stmt 0 discriminator 1 view .LVU237
 804 00b4 020070E3 		cmn	r0, #2
 805 00b8 FBFFFF0A 		beq	.L62
 651:../generate/drivers/r_stb/src/lld/r_stb_lld_rza2m.c ****             {
 806              		.loc 1 651 13 is_stmt 1 view .LVU238
 651:../generate/drivers/r_stb/src/lld/r_stb_lld_rza2m.c ****             {
 807              		.loc 1 651 16 is_stmt 0 view .LVU239
 808 00bc 010070E3 		cmn	r0, #1
 646:../generate/drivers/r_stb/src/lld/r_stb_lld_rza2m.c ****             } while ( STB_AGAIN == ret );
 809              		.loc 1 646 23 view .LVU240
 810 00c0 0060A011 		movne	r6, r0
 811 00c4 E5FFFFEA 		b	.L61
 812              	.LVL93:
 813              	.L64:
 612:../generate/drivers/r_stb/src/lld/r_stb_lld_rza2m.c ****     }
 814              		.loc 1 612 13 view .LVU241
 815 00c8 0260E0E3 		mvn	r6, #2
 816 00cc E7FFFFEA 		b	.L58
 817              		.cfi_endproc
 818              	.LFE12:
 820              		.section	.text.R_STB_GetModuleResetState,"ax",%progbits
 821              		.align	2
 822              		.global	R_STB_GetModuleResetState
 823              		.syntax unified
 824              		.arm
 825              		.fpu neon
 827              	R_STB_GetModuleResetState:
 828              	.LVL94:
 829              	.LFB13:
 664:../generate/drivers/r_stb/src/lld/r_stb_lld_rza2m.c **** /******************************************************************************
 665:../generate/drivers/r_stb/src/lld/r_stb_lld_rza2m.c ****  * End of function R_STB_SetModuleResetState
 666:../generate/drivers/r_stb/src/lld/r_stb_lld_rza2m.c ****  ******************************************************************************/
 667:../generate/drivers/r_stb/src/lld/r_stb_lld_rza2m.c **** 
 668:../generate/drivers/r_stb/src/lld/r_stb_lld_rza2m.c **** /**
 669:../generate/drivers/r_stb/src/lld/r_stb_lld_rza2m.c ****  * @fn         R_STB_GetModuleResetState
 670:../generate/drivers/r_stb/src/lld/r_stb_lld_rza2m.c ****  * @brief      Get module reset state
 671:../generate/drivers/r_stb/src/lld/r_stb_lld_rza2m.c ****  * @param[in]  module: module number
 672:../generate/drivers/r_stb/src/lld/r_stb_lld_rza2m.c ****  * @param[out] p_state: reset state
 673:../generate/drivers/r_stb/src/lld/r_stb_lld_rza2m.c ****  * @retval     STB_SUCCESS           Successful operation.
 674:../generate/drivers/r_stb/src/lld/r_stb_lld_rza2m.c ****  * @retval     STB_INVALID_MODULE    Invalid module number or does not supported
 675:../generate/drivers/r_stb/src/lld/r_stb_lld_rza2m.c ****  * @retval     STB_INVALID_STATE     Invalid state for operation
 676:../generate/drivers/r_stb/src/lld/r_stb_lld_rza2m.c ****  */
 677:../generate/drivers/r_stb/src/lld/r_stb_lld_rza2m.c **** e_stb_err_t R_STB_GetModuleResetState( e_stb_module_t module, e_stb_reset_state_t * p_state )
 678:../generate/drivers/r_stb/src/lld/r_stb_lld_rza2m.c **** {
 830              		.loc 1 678 1 is_stmt 1 view -0
 831              		.cfi_startproc
 832              		@ args = 0, pretend = 0, frame = 0
 833              		@ frame_needed = 0, uses_anonymous_args = 0
 834              		.loc 1 678 1 is_stmt 0 view .LVU243
 835 0000 70402DE9 		push	{r4, r5, r6, lr}
 836              		.cfi_def_cfa_offset 16
 837              		.cfi_offset 4, -16
 838              		.cfi_offset 5, -12
 839              		.cfi_offset 6, -8
 840              		.cfi_offset 14, -4
 841 0004 0050A0E1 		mov	r5, r0
 842 0008 0160A0E1 		mov	r6, r1
 679:../generate/drivers/r_stb/src/lld/r_stb_lld_rza2m.c ****     e_stb_err_t ret;
 843              		.loc 1 679 5 is_stmt 1 view .LVU244
 680:../generate/drivers/r_stb/src/lld/r_stb_lld_rza2m.c ****     const st_r_prv_reg_info_t * p_swrstcr;
 844              		.loc 1 680 5 view .LVU245
 681:../generate/drivers/r_stb/src/lld/r_stb_lld_rza2m.c ****     uint8_t current_bit;
 845              		.loc 1 681 5 view .LVU246
 682:../generate/drivers/r_stb/src/lld/r_stb_lld_rza2m.c **** 
 683:../generate/drivers/r_stb/src/lld/r_stb_lld_rza2m.c ****     /* Initialise error state */
 684:../generate/drivers/r_stb/src/lld/r_stb_lld_rza2m.c ****     ret = STB_SUCCESS;
 846              		.loc 1 684 5 view .LVU247
 847              	.LVL95:
 685:../generate/drivers/r_stb/src/lld/r_stb_lld_rza2m.c **** 
 686:../generate/drivers/r_stb/src/lld/r_stb_lld_rza2m.c ****     /* obtain the SWRSTCR information */
 687:../generate/drivers/r_stb/src/lld/r_stb_lld_rza2m.c ****     p_swrstcr = get_swrstcr_info(module);
 848              		.loc 1 687 5 view .LVU248
 849              		.loc 1 687 17 is_stmt 0 view .LVU249
 850 000c FEFFFFEB 		bl	get_swrstcr_info
 851              	.LVL96:
 688:../generate/drivers/r_stb/src/lld/r_stb_lld_rza2m.c **** 
 689:../generate/drivers/r_stb/src/lld/r_stb_lld_rza2m.c ****     /* check if unsupported module */
 690:../generate/drivers/r_stb/src/lld/r_stb_lld_rza2m.c ****     if ( (NULL == p_swrstcr) )
 852              		.loc 1 690 5 is_stmt 1 view .LVU250
 853              		.loc 1 690 8 is_stmt 0 view .LVU251
 854 0010 004050E2 		subs	r4, r0, #0
 855 0014 0800000A 		beq	.L72
 691:../generate/drivers/r_stb/src/lld/r_stb_lld_rza2m.c ****     {
 692:../generate/drivers/r_stb/src/lld/r_stb_lld_rza2m.c ****         ret = STB_INVALID_MODULE;
 693:../generate/drivers/r_stb/src/lld/r_stb_lld_rza2m.c ****     }
 694:../generate/drivers/r_stb/src/lld/r_stb_lld_rza2m.c **** 
 695:../generate/drivers/r_stb/src/lld/r_stb_lld_rza2m.c ****     /* check if clock supplied */
 696:../generate/drivers/r_stb/src/lld/r_stb_lld_rza2m.c ****     if ( (STB_SUCCESS == ret) && (!is_clock_supplied(module)) )
 856              		.loc 1 696 5 is_stmt 1 view .LVU252
 857              		.loc 1 696 36 is_stmt 0 view .LVU253
 858 0018 0500A0E1 		mov	r0, r5
 859              	.LVL97:
 860              		.loc 1 696 36 view .LVU254
 861 001c FEFFFFEB 		bl	is_clock_supplied
 862              	.LVL98:
 863              		.loc 1 696 31 view .LVU255
 864 0020 000050E3 		cmp	r0, #0
 865 0024 1100000A 		beq	.L73
 684:../generate/drivers/r_stb/src/lld/r_stb_lld_rza2m.c **** 
 866              		.loc 1 684 9 view .LVU256
 867 0028 0050A0E3 		mov	r5, #0
 868              	.L69:
 869              	.LVL99:
 697:../generate/drivers/r_stb/src/lld/r_stb_lld_rza2m.c ****     {
 698:../generate/drivers/r_stb/src/lld/r_stb_lld_rza2m.c ****         ret = STB_INVALID_STATE;
 699:../generate/drivers/r_stb/src/lld/r_stb_lld_rza2m.c ****     }
 700:../generate/drivers/r_stb/src/lld/r_stb_lld_rza2m.c **** 
 701:../generate/drivers/r_stb/src/lld/r_stb_lld_rza2m.c ****     if ( STB_SUCCESS == ret )
 870              		.loc 1 701 5 is_stmt 1 view .LVU257
 871              		.loc 1 701 8 is_stmt 0 view .LVU258
 872 002c 000055E3 		cmp	r5, #0
 873 0030 0300000A 		beq	.L75
 874              	.LVL100:
 875              	.L70:
 702:../generate/drivers/r_stb/src/lld/r_stb_lld_rza2m.c ****     {
 703:../generate/drivers/r_stb/src/lld/r_stb_lld_rza2m.c ****         /* get current reset state */
 704:../generate/drivers/r_stb/src/lld/r_stb_lld_rza2m.c ****         current_bit = RZA_IO_RegRead_8(p_swrstcr->reg_address, IOREG_NONSHIFT_ACCESS, p_swrstcr->ma
 705:../generate/drivers/r_stb/src/lld/r_stb_lld_rza2m.c **** 
 706:../generate/drivers/r_stb/src/lld/r_stb_lld_rza2m.c ****         /* check if all bit listed in swrstcr_bit is zero */
 707:../generate/drivers/r_stb/src/lld/r_stb_lld_rza2m.c ****         if ( 0 == current_bit )
 708:../generate/drivers/r_stb/src/lld/r_stb_lld_rza2m.c ****         {
 709:../generate/drivers/r_stb/src/lld/r_stb_lld_rza2m.c ****             /* store MODULE_NOT_RESET_STATE to p_state */
 710:../generate/drivers/r_stb/src/lld/r_stb_lld_rza2m.c ****             *p_state = MODULE_NOT_RESET_STATE;
 711:../generate/drivers/r_stb/src/lld/r_stb_lld_rza2m.c ****         }
 712:../generate/drivers/r_stb/src/lld/r_stb_lld_rza2m.c ****         else
 713:../generate/drivers/r_stb/src/lld/r_stb_lld_rza2m.c ****         {
 714:../generate/drivers/r_stb/src/lld/r_stb_lld_rza2m.c ****             /* at least one bit is 1, it is still in the reset state */
 715:../generate/drivers/r_stb/src/lld/r_stb_lld_rza2m.c ****             *p_state = MODULE_RESET_STATE;
 716:../generate/drivers/r_stb/src/lld/r_stb_lld_rza2m.c ****         }
 717:../generate/drivers/r_stb/src/lld/r_stb_lld_rza2m.c ****     }
 718:../generate/drivers/r_stb/src/lld/r_stb_lld_rza2m.c **** 
 719:../generate/drivers/r_stb/src/lld/r_stb_lld_rza2m.c ****     return ret;
 876              		.loc 1 719 5 is_stmt 1 view .LVU259
 720:../generate/drivers/r_stb/src/lld/r_stb_lld_rza2m.c **** }
 877              		.loc 1 720 1 is_stmt 0 view .LVU260
 878 0034 0500A0E1 		mov	r0, r5
 879 0038 7080BDE8 		pop	{r4, r5, r6, pc}
 880              	.LVL101:
 881              	.L72:
 692:../generate/drivers/r_stb/src/lld/r_stb_lld_rza2m.c ****     }
 882              		.loc 1 692 13 view .LVU261
 883 003c 0050E0E3 		mvn	r5, #0
 884 0040 F9FFFFEA 		b	.L69
 885              	.LVL102:
 886              	.L75:
 704:../generate/drivers/r_stb/src/lld/r_stb_lld_rza2m.c **** 
 887              		.loc 1 704 9 is_stmt 1 view .LVU262
 704:../generate/drivers/r_stb/src/lld/r_stb_lld_rza2m.c **** 
 888              		.loc 1 704 23 is_stmt 0 view .LVU263
 889 0044 0820D4E5 		ldrb	r2, [r4, #8]	@ zero_extendqisi2
 890 0048 0010A0E3 		mov	r1, #0
 891 004c 040094E5 		ldr	r0, [r4, #4]
 892 0050 FEFFFFEB 		bl	RZA_IO_RegRead_8
 893              	.LVL103:
 707:../generate/drivers/r_stb/src/lld/r_stb_lld_rza2m.c ****         {
 894              		.loc 1 707 9 is_stmt 1 view .LVU264
 707:../generate/drivers/r_stb/src/lld/r_stb_lld_rza2m.c ****         {
 895              		.loc 1 707 12 is_stmt 0 view .LVU265
 896 0054 000050E3 		cmp	r0, #0
 710:../generate/drivers/r_stb/src/lld/r_stb_lld_rza2m.c ****         }
 897              		.loc 1 710 13 is_stmt 1 view .LVU266
 710:../generate/drivers/r_stb/src/lld/r_stb_lld_rza2m.c ****         }
 898              		.loc 1 710 22 is_stmt 0 view .LVU267
 899 0058 0130A003 		moveq	r3, #1
 900 005c 0030C605 		strbeq	r3, [r6]
 901 0060 F3FFFF0A 		beq	.L70
 902              	.L71:
 715:../generate/drivers/r_stb/src/lld/r_stb_lld_rza2m.c ****         }
 903              		.loc 1 715 13 is_stmt 1 view .LVU268
 715:../generate/drivers/r_stb/src/lld/r_stb_lld_rza2m.c ****         }
 904              		.loc 1 715 22 is_stmt 0 view .LVU269
 905 0064 0030A0E3 		mov	r3, #0
 906 0068 0030C6E5 		strb	r3, [r6]
 907 006c F0FFFFEA 		b	.L70
 908              	.LVL104:
 909              	.L73:
 698:../generate/drivers/r_stb/src/lld/r_stb_lld_rza2m.c ****     }
 910              		.loc 1 698 13 view .LVU270
 911 0070 0250E0E3 		mvn	r5, #2
 912 0074 EEFFFFEA 		b	.L70
 913              		.cfi_endproc
 914              	.LFE13:
 916              		.section	.rodata.R_STB_GetVersion.str1.4,"aMS",%progbits,1
 917              		.align	2
 918              	.LC0:
 919 0000 4C4C4420 		.ascii	"LLD EBK_RZA2M STB\000"
 919      45424B5F 
 919      525A4132 
 919      4D205354 
 919      4200
 920              		.section	.text.R_STB_GetVersion,"ax",%progbits
 921              		.align	2
 922              		.global	R_STB_GetVersion
 923              		.syntax unified
 924              		.arm
 925              		.fpu neon
 927              	R_STB_GetVersion:
 928              	.LVL105:
 929              	.LFB14:
 721:../generate/drivers/r_stb/src/lld/r_stb_lld_rza2m.c **** /******************************************************************************
 722:../generate/drivers/r_stb/src/lld/r_stb_lld_rza2m.c ****  * End of function R_STB_GetModuleResetState
 723:../generate/drivers/r_stb/src/lld/r_stb_lld_rza2m.c ****  ******************************************************************************/
 724:../generate/drivers/r_stb/src/lld/r_stb_lld_rza2m.c **** 
 725:../generate/drivers/r_stb/src/lld/r_stb_lld_rza2m.c **** /**
 726:../generate/drivers/r_stb/src/lld/r_stb_lld_rza2m.c ****  * @fn         R_STB_GetVersion
 727:../generate/drivers/r_stb/src/lld/r_stb_lld_rza2m.c ****  * @brief      Get the Low Layer Driver specific version
 728:../generate/drivers/r_stb/src/lld/r_stb_lld_rza2m.c ****  * @param[in]  p_ver_info: detailed driver information structure
 729:../generate/drivers/r_stb/src/lld/r_stb_lld_rza2m.c ****  * @retval     STB_SUCCESS           Successful operation (always).
 730:../generate/drivers/r_stb/src/lld/r_stb_lld_rza2m.c ****  */
 731:../generate/drivers/r_stb/src/lld/r_stb_lld_rza2m.c **** int_t R_STB_GetVersion(st_ver_info_t *p_ver_info)
 732:../generate/drivers/r_stb/src/lld/r_stb_lld_rza2m.c **** {
 930              		.loc 1 732 1 is_stmt 1 view -0
 931              		.cfi_startproc
 932              		@ args = 0, pretend = 0, frame = 0
 933              		@ frame_needed = 0, uses_anonymous_args = 0
 934              		@ link register save eliminated.
 935              		.loc 1 732 1 is_stmt 0 view .LVU272
 936 0000 0030A0E1 		mov	r3, r0
 733:../generate/drivers/r_stb/src/lld/r_stb_lld_rza2m.c ****     p_ver_info->lld.p_szdriver_name = gs_lld_info.p_szdriver_name;
 937              		.loc 1 733 5 is_stmt 1 view .LVU273
 938              		.loc 1 733 37 is_stmt 0 view .LVU274
 939 0004 002000E3 		movw	r2, #:lower16:.LC0
 940 0008 002040E3 		movt	r2, #:upper16:.LC0
 941 000c 142080E5 		str	r2, [r0, #20]
 734:../generate/drivers/r_stb/src/lld/r_stb_lld_rza2m.c ****     p_ver_info->lld.version.sub.major = gs_lld_info.version.sub.major;
 942              		.loc 1 734 5 is_stmt 1 view .LVU275
 943              		.loc 1 734 39 is_stmt 0 view .LVU276
 944 0010 0120A0E3 		mov	r2, #1
 945 0014 BE20C0E1 		strh	r2, [r0, #14]	@ movhi
 735:../generate/drivers/r_stb/src/lld/r_stb_lld_rza2m.c ****     p_ver_info->lld.version.sub.minor = gs_lld_info.version.sub.minor;
 946              		.loc 1 735 5 is_stmt 1 view .LVU277
 947              		.loc 1 735 39 is_stmt 0 view .LVU278
 948 0018 0420A0E3 		mov	r2, #4
 949 001c BC20C0E1 		strh	r2, [r0, #12]	@ movhi
 736:../generate/drivers/r_stb/src/lld/r_stb_lld_rza2m.c ****     p_ver_info->lld.build = gs_lld_info.build;
 950              		.loc 1 736 5 is_stmt 1 view .LVU279
 951              		.loc 1 736 27 is_stmt 0 view .LVU280
 952 0020 0000A0E3 		mov	r0, #0
 953              	.LVL106:
 954              		.loc 1 736 27 view .LVU281
 955 0024 100083E5 		str	r0, [r3, #16]
 737:../generate/drivers/r_stb/src/lld/r_stb_lld_rza2m.c **** 
 738:../generate/drivers/r_stb/src/lld/r_stb_lld_rza2m.c ****     return DRV_SUCCESS;
 956              		.loc 1 738 5 is_stmt 1 view .LVU282
 739:../generate/drivers/r_stb/src/lld/r_stb_lld_rza2m.c **** }
 957              		.loc 1 739 1 is_stmt 0 view .LVU283
 958 0028 1EFF2FE1 		bx	lr
 959              		.cfi_endproc
 960              	.LFE14:
 962              		.section	.text.R_STB_SetClockInitStatus,"ax",%progbits
 963              		.align	2
 964              		.global	R_STB_SetClockInitStatus
 965              		.syntax unified
 966              		.arm
 967              		.fpu neon
 969              	R_STB_SetClockInitStatus:
 970              	.LVL107:
 971              	.LFB15:
 740:../generate/drivers/r_stb/src/lld/r_stb_lld_rza2m.c **** /******************************************************************************
 741:../generate/drivers/r_stb/src/lld/r_stb_lld_rza2m.c ****  * End of function R_STB_GetVersion
 742:../generate/drivers/r_stb/src/lld/r_stb_lld_rza2m.c ****  ******************************************************************************/
 743:../generate/drivers/r_stb/src/lld/r_stb_lld_rza2m.c **** 
 744:../generate/drivers/r_stb/src/lld/r_stb_lld_rza2m.c **** /**
 745:../generate/drivers/r_stb/src/lld/r_stb_lld_rza2m.c ****  * @fn         R_STB_SetClockInitStatus
 746:../generate/drivers/r_stb/src/lld/r_stb_lld_rza2m.c ****  * @brief      Set the initial status of the clock. 
 747:../generate/drivers/r_stb/src/lld/r_stb_lld_rza2m.c ****  *             Call this function only the timing to set STBCRx register at each module.
 748:../generate/drivers/r_stb/src/lld/r_stb_lld_rza2m.c ****  * @param[in]  module: module number
 749:../generate/drivers/r_stb/src/lld/r_stb_lld_rza2m.c ****  * @param[in]  stat: clock status of the module
 750:../generate/drivers/r_stb/src/lld/r_stb_lld_rza2m.c ****  * @retval     STB_SUCCESS           Successful operation.
 751:../generate/drivers/r_stb/src/lld/r_stb_lld_rza2m.c ****  * @retval     STB_INVALID_MODULE    1st argument is out of range.
 752:../generate/drivers/r_stb/src/lld/r_stb_lld_rza2m.c ****  * @retval     STB_INVALID_STATE     2nd argument is out of range.
 753:../generate/drivers/r_stb/src/lld/r_stb_lld_rza2m.c ****  */
 754:../generate/drivers/r_stb/src/lld/r_stb_lld_rza2m.c **** int_t R_STB_SetClockInitStatus(e_stb_module_t module, e_clk_stat_t stat)
 755:../generate/drivers/r_stb/src/lld/r_stb_lld_rza2m.c **** {
 972              		.loc 1 755 1 is_stmt 1 view -0
 973              		.cfi_startproc
 974              		@ args = 0, pretend = 0, frame = 0
 975              		@ frame_needed = 0, uses_anonymous_args = 0
 976              		.loc 1 755 1 is_stmt 0 view .LVU285
 977 0000 70402DE9 		push	{r4, r5, r6, lr}
 978              		.cfi_def_cfa_offset 16
 979              		.cfi_offset 4, -16
 980              		.cfi_offset 5, -12
 981              		.cfi_offset 6, -8
 982              		.cfi_offset 14, -4
 983 0004 0050A0E1 		mov	r5, r0
 984 0008 0140A0E1 		mov	r4, r1
 756:../generate/drivers/r_stb/src/lld/r_stb_lld_rza2m.c ****     e_stb_err_t ret;
 985              		.loc 1 756 5 is_stmt 1 view .LVU286
 757:../generate/drivers/r_stb/src/lld/r_stb_lld_rza2m.c ****     const st_r_prv_reg_info_t * p_stbcr;
 986              		.loc 1 757 5 view .LVU287
 758:../generate/drivers/r_stb/src/lld/r_stb_lld_rza2m.c **** 
 759:../generate/drivers/r_stb/src/lld/r_stb_lld_rza2m.c ****     /* Initialise error state */
 760:../generate/drivers/r_stb/src/lld/r_stb_lld_rza2m.c ****     ret = STB_SUCCESS;
 987              		.loc 1 760 5 view .LVU288
 988              	.LVL108:
 761:../generate/drivers/r_stb/src/lld/r_stb_lld_rza2m.c **** 
 762:../generate/drivers/r_stb/src/lld/r_stb_lld_rza2m.c ****     /* obtain the STBCR information */
 763:../generate/drivers/r_stb/src/lld/r_stb_lld_rza2m.c ****     p_stbcr = get_stbcr_info(module);
 989              		.loc 1 763 5 view .LVU289
 990              		.loc 1 763 15 is_stmt 0 view .LVU290
 991 000c FEFFFFEB 		bl	get_stbcr_info
 992              	.LVL109:
 764:../generate/drivers/r_stb/src/lld/r_stb_lld_rza2m.c **** 
 765:../generate/drivers/r_stb/src/lld/r_stb_lld_rza2m.c ****     /* check if unsupported module */
 766:../generate/drivers/r_stb/src/lld/r_stb_lld_rza2m.c ****     if ( (NULL == p_stbcr) )
 993              		.loc 1 766 5 is_stmt 1 view .LVU291
 994              		.loc 1 766 8 is_stmt 0 view .LVU292
 995 0010 000050E3 		cmp	r0, #0
 996 0014 0800000A 		beq	.L79
 767:../generate/drivers/r_stb/src/lld/r_stb_lld_rza2m.c ****     {
 768:../generate/drivers/r_stb/src/lld/r_stb_lld_rza2m.c ****         ret = STB_INVALID_MODULE;
 769:../generate/drivers/r_stb/src/lld/r_stb_lld_rza2m.c ****     }
 770:../generate/drivers/r_stb/src/lld/r_stb_lld_rza2m.c ****     else if ((stat == CLK_ON) || (stat == CLK_OFF))
 997              		.loc 1 770 10 is_stmt 1 view .LVU293
 998              		.loc 1 770 13 is_stmt 0 view .LVU294
 999 0018 010054E3 		cmp	r4, #1
 1000 001c 0100009A 		bls	.L82
 771:../generate/drivers/r_stb/src/lld/r_stb_lld_rza2m.c ****     {
 772:../generate/drivers/r_stb/src/lld/r_stb_lld_rza2m.c ****         g_clk_state[module] = stat;
 773:../generate/drivers/r_stb/src/lld/r_stb_lld_rza2m.c ****     }
 774:../generate/drivers/r_stb/src/lld/r_stb_lld_rza2m.c ****     else
 775:../generate/drivers/r_stb/src/lld/r_stb_lld_rza2m.c ****     {
 776:../generate/drivers/r_stb/src/lld/r_stb_lld_rza2m.c ****         ret = STB_INVALID_STATE;
 1001              		.loc 1 776 13 view .LVU295
 1002 0020 0200E0E3 		mvn	r0, #2
 1003              	.LVL110:
 777:../generate/drivers/r_stb/src/lld/r_stb_lld_rza2m.c ****     }
 778:../generate/drivers/r_stb/src/lld/r_stb_lld_rza2m.c **** 
 779:../generate/drivers/r_stb/src/lld/r_stb_lld_rza2m.c ****     return ret;
 1004              		.loc 1 779 5 is_stmt 1 view .LVU296
 780:../generate/drivers/r_stb/src/lld/r_stb_lld_rza2m.c **** }
 1005              		.loc 1 780 1 is_stmt 0 view .LVU297
 1006 0024 7080BDE8 		pop	{r4, r5, r6, pc}
 1007              	.LVL111:
 1008              	.L82:
 772:../generate/drivers/r_stb/src/lld/r_stb_lld_rza2m.c ****     }
 1009              		.loc 1 772 9 is_stmt 1 view .LVU298
 772:../generate/drivers/r_stb/src/lld/r_stb_lld_rza2m.c ****     }
 1010              		.loc 1 772 29 is_stmt 0 view .LVU299
 1011 0028 003000E3 		movw	r3, #:lower16:.LANCHOR4
 1012 002c 003040E3 		movt	r3, #:upper16:.LANCHOR4
 1013 0030 0540C3E7 		strb	r4, [r3, r5]
 760:../generate/drivers/r_stb/src/lld/r_stb_lld_rza2m.c **** 
 1014              		.loc 1 760 9 view .LVU300
 1015 0034 0000A0E3 		mov	r0, #0
 1016              	.LVL112:
 760:../generate/drivers/r_stb/src/lld/r_stb_lld_rza2m.c **** 
 1017              		.loc 1 760 9 view .LVU301
 1018 0038 7080BDE8 		pop	{r4, r5, r6, pc}
 1019              	.LVL113:
 1020              	.L79:
 768:../generate/drivers/r_stb/src/lld/r_stb_lld_rza2m.c ****     }
 1021              		.loc 1 768 13 view .LVU302
 1022 003c 0000E0E3 		mvn	r0, #0
 1023              	.LVL114:
 768:../generate/drivers/r_stb/src/lld/r_stb_lld_rza2m.c ****     }
 1024              		.loc 1 768 13 view .LVU303
 1025 0040 7080BDE8 		pop	{r4, r5, r6, pc}
 1026              		.cfi_endproc
 1027              	.LFE15:
 1029              		.section	.data.g_clk_state,"aw"
 1030              		.align	2
 1031              		.set	.LANCHOR4,. + 0
 1034              	g_clk_state:
 1035 0000 01       		.byte	1
 1036 0001 00       		.byte	0
 1037 0002 01       		.byte	1
 1038 0003 01       		.byte	1
 1039 0004 01       		.byte	1
 1040 0005 01       		.byte	1
 1041 0006 01       		.byte	1
 1042 0007 01       		.byte	1
 1043 0008 01       		.byte	1
 1044 0009 01       		.byte	1
 1045 000a 01       		.byte	1
 1046 000b 01       		.byte	1
 1047 000c 01       		.byte	1
 1048 000d 01       		.byte	1
 1049 000e 01       		.byte	1
 1050 000f 01       		.byte	1
 1051 0010 01       		.byte	1
 1052 0011 01       		.byte	1
 1053 0012 00       		.byte	0
 1054 0013 00       		.byte	0
 1055 0014 01       		.byte	1
 1056 0015 01       		.byte	1
 1057 0016 01       		.byte	1
 1058 0017 01       		.byte	1
 1059 0018 01       		.byte	1
 1060 0019 01       		.byte	1
 1061 001a 01       		.byte	1
 1062 001b 01       		.byte	1
 1063 001c 01       		.byte	1
 1064 001d 01       		.byte	1
 1065 001e 01       		.byte	1
 1066 001f 01       		.byte	1
 1067 0020 01       		.byte	1
 1068 0021 01       		.byte	1
 1069 0022 01       		.byte	1
 1070 0023 01       		.byte	1
 1071 0024 00       		.byte	0
 1072 0025 01       		.byte	1
 1073 0026 01       		.byte	1
 1074 0027 01       		.byte	1
 1075 0028 01       		.byte	1
 1076 0029 01       		.byte	1
 1077 002a 01       		.byte	1
 1078 002b 01       		.byte	1
 1079 002c 01       		.byte	1
 1080 002d 01       		.byte	1
 1081 002e 01       		.byte	1
 1082 002f 01       		.byte	1
 1083 0030 01       		.byte	1
 1084              		.section	.rodata.gs_stback,"a"
 1085              		.align	2
 1086              		.set	.LANCHOR2,. + 0
 1089              	gs_stback:
 1090 0000 01       		.byte	1
 1091 0001 000000   		.space	3
 1092 0004 4000FEFC 		.word	-50462656
 1093 0008 20       		.byte	32
 1094 0009 000000   		.space	3
 1095 000c 11       		.byte	17
 1096 000d 000000   		.space	3
 1097 0010 4000FEFC 		.word	-50462656
 1098 0014 01       		.byte	1
 1099 0015 000000   		.space	3
 1100 0018 14       		.byte	20
 1101 0019 000000   		.space	3
 1102 001c 4000FEFC 		.word	-50462656
 1103 0020 08       		.byte	8
 1104 0021 000000   		.space	3
 1105 0024 15       		.byte	21
 1106 0025 000000   		.space	3
 1107 0028 4400FEFC 		.word	-50462652
 1108 002c 80       		.byte	-128
 1109 002d 000000   		.space	3
 1110 0030 16       		.byte	22
 1111 0031 000000   		.space	3
 1112 0034 4400FEFC 		.word	-50462652
 1113 0038 40       		.byte	64
 1114 0039 000000   		.space	3
 1115 003c 17       		.byte	23
 1116 003d 000000   		.space	3
 1117 0040 4800FEFC 		.word	-50462648
 1118 0044 03       		.byte	3
 1119 0045 000000   		.space	3
 1120 0048 18       		.byte	24
 1121 0049 000000   		.space	3
 1122 004c 4800FEFC 		.word	-50462648
 1123 0050 0C       		.byte	12
 1124 0051 000000   		.space	3
 1125 0054 19       		.byte	25
 1126 0055 000000   		.space	3
 1127 0058 4400FEFC 		.word	-50462652
 1128 005c 08       		.byte	8
 1129 005d 000000   		.space	3
 1130 0060 1A       		.byte	26
 1131 0061 000000   		.space	3
 1132 0064 4400FEFC 		.word	-50462652
 1133 0068 03       		.byte	3
 1134 0069 000000   		.space	3
 1135 006c 25       		.byte	37
 1136 006d 000000   		.space	3
 1137 0070 4400FEFC 		.word	-50462652
 1138 0074 20       		.byte	32
 1139 0075 000000   		.space	3
 1140 0078 2C       		.byte	44
 1141 0079 000000   		.space	3
 1142 007c 4400FEFC 		.word	-50462652
 1143 0080 10       		.byte	16
 1144 0081 000000   		.space	3
 1145 0084 2E       		.byte	46
 1146 0085 000000   		.space	3
 1147 0088 4400FEFC 		.word	-50462652
 1148 008c 04       		.byte	4
 1149 008d 000000   		.space	3
 1150 0090 2F       		.byte	47
 1151 0091 000000   		.space	3
 1152 0094 4000FEFC 		.word	-50462656
 1153 0098 04       		.byte	4
 1154 0099 000000   		.space	3
 1155 009c 30       		.byte	48
 1156 009d 000000   		.space	3
 1157 00a0 4000FEFC 		.word	-50462656
 1158 00a4 02       		.byte	2
 1159 00a5 000000   		.space	3
 1160              		.section	.rodata.gs_stbcr,"a"
 1161              		.align	2
 1162              		.set	.LANCHOR0,. + 0
 1165              	gs_stbcr:
 1166 0000 01       		.byte	1
 1167 0001 000000   		.space	3
 1168 0004 2400FEFC 		.word	-50462684
 1169 0008 01       		.byte	1
 1170 0009 000000   		.space	3
 1171 000c 02       		.byte	2
 1172 000d 000000   		.space	3
 1173 0010 2004FEFC 		.word	-50461664
 1174 0014 40       		.byte	64
 1175 0015 000000   		.space	3
 1176 0018 03       		.byte	3
 1177 0019 000000   		.space	3
 1178 001c 2004FEFC 		.word	-50461664
 1179 0020 20       		.byte	32
 1180 0021 000000   		.space	3
 1181 0024 04       		.byte	4
 1182 0025 000000   		.space	3
 1183 0028 2004FEFC 		.word	-50461664
 1184 002c 10       		.byte	16
 1185 002d 000000   		.space	3
 1186 0030 05       		.byte	5
 1187 0031 000000   		.space	3
 1188 0034 2004FEFC 		.word	-50461664
 1189 0038 08       		.byte	8
 1190 0039 000000   		.space	3
 1191 003c 06       		.byte	6
 1192 003d 000000   		.space	3
 1193 0040 2004FEFC 		.word	-50461664
 1194 0044 04       		.byte	4
 1195 0045 000000   		.space	3
 1196 0048 07       		.byte	7
 1197 0049 000000   		.space	3
 1198 004c 2804FEFC 		.word	-50461656
 1199 0050 80       		.byte	-128
 1200 0051 000000   		.space	3
 1201 0054 08       		.byte	8
 1202 0055 000000   		.space	3
 1203 0058 2004FEFC 		.word	-50461664
 1204 005c 01       		.byte	1
 1205 005d 000000   		.space	3
 1206 0060 09       		.byte	9
 1207 0061 000000   		.space	3
 1208 0064 2404FEFC 		.word	-50461660
 1209 0068 80       		.byte	-128
 1210 0069 000000   		.space	3
 1211 006c 0A       		.byte	10
 1212 006d 000000   		.space	3
 1213 0070 2404FEFC 		.word	-50461660
 1214 0074 40       		.byte	64
 1215 0075 000000   		.space	3
 1216 0078 0B       		.byte	11
 1217 0079 000000   		.space	3
 1218 007c 2404FEFC 		.word	-50461660
 1219 0080 20       		.byte	32
 1220 0081 000000   		.space	3
 1221 0084 0C       		.byte	12
 1222 0085 000000   		.space	3
 1223 0088 2404FEFC 		.word	-50461660
 1224 008c 10       		.byte	16
 1225 008d 000000   		.space	3
 1226 0090 0D       		.byte	13
 1227 0091 000000   		.space	3
 1228 0094 2404FEFC 		.word	-50461660
 1229 0098 08       		.byte	8
 1230 0099 000000   		.space	3
 1231 009c 0E       		.byte	14
 1232 009d 000000   		.space	3
 1233 00a0 2404FEFC 		.word	-50461660
 1234 00a4 04       		.byte	4
 1235 00a5 000000   		.space	3
 1236 00a8 0F       		.byte	15
 1237 00a9 000000   		.space	3
 1238 00ac 2404FEFC 		.word	-50461660
 1239 00b0 02       		.byte	2
 1240 00b1 000000   		.space	3
 1241 00b4 10       		.byte	16
 1242 00b5 000000   		.space	3
 1243 00b8 2404FEFC 		.word	-50461660
 1244 00bc 01       		.byte	1
 1245 00bd 000000   		.space	3
 1246 00c0 11       		.byte	17
 1247 00c1 000000   		.space	3
 1248 00c4 2804FEFC 		.word	-50461656
 1249 00c8 40       		.byte	64
 1250 00c9 000000   		.space	3
 1251 00cc 12       		.byte	18
 1252 00cd 000000   		.space	3
 1253 00d0 2804FEFC 		.word	-50461656
 1254 00d4 08       		.byte	8
 1255 00d5 000000   		.space	3
 1256 00d8 13       		.byte	19
 1257 00d9 000000   		.space	3
 1258 00dc 2804FEFC 		.word	-50461656
 1259 00e0 04       		.byte	4
 1260 00e1 000000   		.space	3
 1261 00e4 14       		.byte	20
 1262 00e5 000000   		.space	3
 1263 00e8 2804FEFC 		.word	-50461656
 1264 00ec 02       		.byte	2
 1265 00ed 000000   		.space	3
 1266 00f0 15       		.byte	21
 1267 00f1 000000   		.space	3
 1268 00f4 2C04FEFC 		.word	-50461652
 1269 00f8 40       		.byte	64
 1270 00f9 000000   		.space	3
 1271 00fc 16       		.byte	22
 1272 00fd 000000   		.space	3
 1273 0100 2C04FEFC 		.word	-50461652
 1274 0104 3C       		.byte	60
 1275 0105 000000   		.space	3
 1276 0108 17       		.byte	23
 1277 0109 000000   		.space	3
 1278 010c 2C04FEFC 		.word	-50461652
 1279 0110 02       		.byte	2
 1280 0111 000000   		.space	3
 1281 0114 18       		.byte	24
 1282 0115 000000   		.space	3
 1283 0118 2C04FEFC 		.word	-50461652
 1284 011c 01       		.byte	1
 1285 011d 000000   		.space	3
 1286 0120 19       		.byte	25
 1287 0121 000000   		.space	3
 1288 0124 3004FEFC 		.word	-50461648
 1289 0128 80       		.byte	-128
 1290 0129 000000   		.space	3
 1291 012c 1A       		.byte	26
 1292 012d 000000   		.space	3
 1293 0130 3004FEFC 		.word	-50461648
 1294 0134 40       		.byte	64
 1295 0135 000000   		.space	3
 1296 0138 1B       		.byte	27
 1297 0139 000000   		.space	3
 1298 013c 3004FEFC 		.word	-50461648
 1299 0140 20       		.byte	32
 1300 0141 000000   		.space	3
 1301 0144 1C       		.byte	28
 1302 0145 000000   		.space	3
 1303 0148 3004FEFC 		.word	-50461648
 1304 014c 08       		.byte	8
 1305 014d 000000   		.space	3
 1306 0150 1D       		.byte	29
 1307 0151 000000   		.space	3
 1308 0154 3004FEFC 		.word	-50461648
 1309 0158 04       		.byte	4
 1310 0159 000000   		.space	3
 1311 015c 1E       		.byte	30
 1312 015d 000000   		.space	3
 1313 0160 3004FEFC 		.word	-50461648
 1314 0164 02       		.byte	2
 1315 0165 000000   		.space	3
 1316 0168 1F       		.byte	31
 1317 0169 000000   		.space	3
 1318 016c 3004FEFC 		.word	-50461648
 1319 0170 01       		.byte	1
 1320 0171 000000   		.space	3
 1321 0174 20       		.byte	32
 1322 0175 000000   		.space	3
 1323 0178 3404FEFC 		.word	-50461644
 1324 017c 80       		.byte	-128
 1325 017d 000000   		.space	3
 1326 0180 21       		.byte	33
 1327 0181 000000   		.space	3
 1328 0184 3404FEFC 		.word	-50461644
 1329 0188 40       		.byte	64
 1330 0189 000000   		.space	3
 1331 018c 22       		.byte	34
 1332 018d 000000   		.space	3
 1333 0190 3404FEFC 		.word	-50461644
 1334 0194 20       		.byte	32
 1335 0195 000000   		.space	3
 1336 0198 23       		.byte	35
 1337 0199 000000   		.space	3
 1338 019c 3404FEFC 		.word	-50461644
 1339 01a0 10       		.byte	16
 1340 01a1 000000   		.space	3
 1341 01a4 24       		.byte	36
 1342 01a5 000000   		.space	3
 1343 01a8 3404FEFC 		.word	-50461644
 1344 01ac 08       		.byte	8
 1345 01ad 000000   		.space	3
 1346 01b0 25       		.byte	37
 1347 01b1 000000   		.space	3
 1348 01b4 3404FEFC 		.word	-50461644
 1349 01b8 02       		.byte	2
 1350 01b9 000000   		.space	3
 1351 01bc 26       		.byte	38
 1352 01bd 000000   		.space	3
 1353 01c0 3804FEFC 		.word	-50461640
 1354 01c4 80       		.byte	-128
 1355 01c5 000000   		.space	3
 1356 01c8 27       		.byte	39
 1357 01c9 000000   		.space	3
 1358 01cc 3804FEFC 		.word	-50461640
 1359 01d0 40       		.byte	64
 1360 01d1 000000   		.space	3
 1361 01d4 28       		.byte	40
 1362 01d5 000000   		.space	3
 1363 01d8 3804FEFC 		.word	-50461640
 1364 01dc 20       		.byte	32
 1365 01dd 000000   		.space	3
 1366 01e0 29       		.byte	41
 1367 01e1 000000   		.space	3
 1368 01e4 3804FEFC 		.word	-50461640
 1369 01e8 08       		.byte	8
 1370 01e9 000000   		.space	3
 1371 01ec 2A       		.byte	42
 1372 01ed 000000   		.space	3
 1373 01f0 3804FEFC 		.word	-50461640
 1374 01f4 04       		.byte	4
 1375 01f5 000000   		.space	3
 1376 01f8 2B       		.byte	43
 1377 01f9 000000   		.space	3
 1378 01fc 3804FEFC 		.word	-50461640
 1379 0200 02       		.byte	2
 1380 0201 000000   		.space	3
 1381 0204 2C       		.byte	44
 1382 0205 000000   		.space	3
 1383 0208 3804FEFC 		.word	-50461640
 1384 020c 01       		.byte	1
 1385 020d 000000   		.space	3
 1386 0210 2D       		.byte	45
 1387 0211 000000   		.space	3
 1388 0214 3C04FEFC 		.word	-50461636
 1389 0218 80       		.byte	-128
 1390 0219 000000   		.space	3
 1391 021c 2E       		.byte	46
 1392 021d 000000   		.space	3
 1393 0220 3C04FEFC 		.word	-50461636
 1394 0224 10       		.byte	16
 1395 0225 000000   		.space	3
 1396 0228 2F       		.byte	47
 1397 0229 000000   		.space	3
 1398 022c 3C04FEFC 		.word	-50461636
 1399 0230 0C       		.byte	12
 1400 0231 000000   		.space	3
 1401 0234 30       		.byte	48
 1402 0235 000000   		.space	3
 1403 0238 3C04FEFC 		.word	-50461636
 1404 023c 03       		.byte	3
 1405 023d 000000   		.space	3
 1406              		.section	.rodata.gs_stbreq,"a"
 1407              		.align	2
 1408              		.set	.LANCHOR1,. + 0
 1411              	gs_stbreq:
 1412 0000 01       		.byte	1
 1413 0001 000000   		.space	3
 1414 0004 3000FEFC 		.word	-50462672
 1415 0008 20       		.byte	32
 1416 0009 000000   		.space	3
 1417 000c 11       		.byte	17
 1418 000d 000000   		.space	3
 1419 0010 3000FEFC 		.word	-50462672
 1420 0014 01       		.byte	1
 1421 0015 000000   		.space	3
 1422 0018 14       		.byte	20
 1423 0019 000000   		.space	3
 1424 001c 3000FEFC 		.word	-50462672
 1425 0020 08       		.byte	8
 1426 0021 000000   		.space	3
 1427 0024 15       		.byte	21
 1428 0025 000000   		.space	3
 1429 0028 3400FEFC 		.word	-50462668
 1430 002c 80       		.byte	-128
 1431 002d 000000   		.space	3
 1432 0030 16       		.byte	22
 1433 0031 000000   		.space	3
 1434 0034 3400FEFC 		.word	-50462668
 1435 0038 40       		.byte	64
 1436 0039 000000   		.space	3
 1437 003c 17       		.byte	23
 1438 003d 000000   		.space	3
 1439 0040 3800FEFC 		.word	-50462664
 1440 0044 03       		.byte	3
 1441 0045 000000   		.space	3
 1442 0048 18       		.byte	24
 1443 0049 000000   		.space	3
 1444 004c 3800FEFC 		.word	-50462664
 1445 0050 0C       		.byte	12
 1446 0051 000000   		.space	3
 1447 0054 19       		.byte	25
 1448 0055 000000   		.space	3
 1449 0058 3400FEFC 		.word	-50462668
 1450 005c 08       		.byte	8
 1451 005d 000000   		.space	3
 1452 0060 1A       		.byte	26
 1453 0061 000000   		.space	3
 1454 0064 3400FEFC 		.word	-50462668
 1455 0068 03       		.byte	3
 1456 0069 000000   		.space	3
 1457 006c 25       		.byte	37
 1458 006d 000000   		.space	3
 1459 0070 3400FEFC 		.word	-50462668
 1460 0074 20       		.byte	32
 1461 0075 000000   		.space	3
 1462 0078 2C       		.byte	44
 1463 0079 000000   		.space	3
 1464 007c 3400FEFC 		.word	-50462668
 1465 0080 10       		.byte	16
 1466 0081 000000   		.space	3
 1467 0084 2E       		.byte	46
 1468 0085 000000   		.space	3
 1469 0088 3400FEFC 		.word	-50462668
 1470 008c 04       		.byte	4
 1471 008d 000000   		.space	3
 1472 0090 2F       		.byte	47
 1473 0091 000000   		.space	3
 1474 0094 3000FEFC 		.word	-50462672
 1475 0098 04       		.byte	4
 1476 0099 000000   		.space	3
 1477 009c 30       		.byte	48
 1478 009d 000000   		.space	3
 1479 00a0 3000FEFC 		.word	-50462672
 1480 00a4 02       		.byte	2
 1481 00a5 000000   		.space	3
 1482              		.section	.rodata.gs_swrstcr,"a"
 1483              		.align	2
 1484              		.set	.LANCHOR3,. + 0
 1487              	gs_swrstcr:
 1488 0000 11       		.byte	17
 1489 0001 000000   		.space	3
 1490 0004 6404FEFC 		.word	-50461596
 1491 0008 02       		.byte	2
 1492 0009 000000   		.space	3
 1493 000c 14       		.byte	20
 1494 000d 000000   		.space	3
 1495 0010 6004FEFC 		.word	-50461600
 1496 0014 02       		.byte	2
 1497 0015 000000   		.space	3
 1498 0018 15       		.byte	21
 1499 0019 000000   		.space	3
 1500 001c 6404FEFC 		.word	-50461596
 1501 0020 20       		.byte	32
 1502 0021 000000   		.space	3
 1503 0024 19       		.byte	25
 1504 0025 000000   		.space	3
 1505 0028 6404FEFC 		.word	-50461596
 1506 002c 10       		.byte	16
 1507 002d 000000   		.space	3
 1508 0030 1A       		.byte	26
 1509 0031 000000   		.space	3
 1510 0034 6404FEFC 		.word	-50461596
 1511 0038 04       		.byte	4
 1512 0039 000000   		.space	3
 1513 003c 1B       		.byte	27
 1514 003d 000000   		.space	3
 1515 0040 6404FEFC 		.word	-50461596
 1516 0044 08       		.byte	8
 1517 0045 000000   		.space	3
 1518 0048 24       		.byte	36
 1519 0049 000000   		.space	3
 1520 004c 6004FEFC 		.word	-50461600
 1521 0050 01       		.byte	1
 1522 0051 000000   		.space	3
 1523 0054 25       		.byte	37
 1524 0055 000000   		.space	3
 1525 0058 6004FEFC 		.word	-50461600
 1526 005c 08       		.byte	8
 1527 005d 000000   		.space	3
 1528 0060 2D       		.byte	45
 1529 0061 000000   		.space	3
 1530 0064 6004FEFC 		.word	-50461600
 1531 0068 04       		.byte	4
 1532 0069 000000   		.space	3
 1533 006c 2E       		.byte	46
 1534 006d 000000   		.space	3
 1535 0070 6404FEFC 		.word	-50461596
 1536 0074 40       		.byte	64
 1537 0075 000000   		.space	3
 1538              		.text
 1539              	.Letext0:
 1540              		.file 2 "c:\\program files (x86)\\gnu arm embedded toolchain\\9 2020-q2-update\\lib\\gcc\\arm-none
 1541              		.file 3 "c:\\program files (x86)\\gnu arm embedded toolchain\\9 2020-q2-update\\arm-none-eabi\\inc
 1542              		.file 4 "c:\\program files (x86)\\gnu arm embedded toolchain\\9 2020-q2-update\\arm-none-eabi\\inc
 1543              		.file 5 "c:\\program files (x86)\\gnu arm embedded toolchain\\9 2020-q2-update\\arm-none-eabi\\inc
 1544              		.file 6 "c:\\program files (x86)\\gnu arm embedded toolchain\\9 2020-q2-update\\arm-none-eabi\\inc
 1545              		.file 7 "c:\\program files (x86)\\gnu arm embedded toolchain\\9 2020-q2-update\\arm-none-eabi\\inc
 1546              		.file 8 "c:\\program files (x86)\\gnu arm embedded toolchain\\9 2020-q2-update\\arm-none-eabi\\inc
 1547              		.file 9 "c:\\program files (x86)\\gnu arm embedded toolchain\\9 2020-q2-update\\arm-none-eabi\\inc
 1548              		.file 10 "C:/Users/ryota/e2_studio/workspace/rza2m_ssif_sample_freertos_gcc/generate/system/inc/r_
 1549              		.file 11 "C:/Users/ryota/e2_studio/workspace/rza2m_ssif_sample_freertos_gcc/generate/system/iodefi
 1550              		.file 12 "C:/Users/ryota/e2_studio/workspace/rza2m_ssif_sample_freertos_gcc/generate/system/inc/dr
 1551              		.file 13 "C:/Users/ryota/e2_studio/workspace/rza2m_ssif_sample_freertos_gcc/generate/drivers/r_stb
 1552              		.file 14 "C:/Users/ryota/e2_studio/workspace/rza2m_ssif_sample_freertos_gcc/generate/os_abstractio
 1553              		.file 15 "C:/Users/ryota/e2_studio/workspace/rza2m_ssif_sample_freertos_gcc/generate/system/inc/rz