   1              		.cpu cortex-a9
   2              		.eabi_attribute 28, 1
   3              		.eabi_attribute 20, 1
   4              		.eabi_attribute 21, 1
   5              		.eabi_attribute 23, 3
   6              		.eabi_attribute 24, 1
   7              		.eabi_attribute 25, 1
   8              		.eabi_attribute 26, 1
   9              		.eabi_attribute 30, 1
  10              		.eabi_attribute 34, 0
  11              		.eabi_attribute 18, 4
  12              		.file	"r_dmac_drv_api.c"
  13              		.text
  14              	.Ltext0:
  15              		.cfi_sections	.debug_frame
  16              		.section	.rodata.dmac_hld_get_version.str1.4,"aMS",%progbits,1
  17              		.align	2
  18              	.LC0:
  19 0000 484C4420 		.ascii	"HLD DMAC\000"
  19      444D4143 
  19      00
  20              		.section	.text.dmac_hld_get_version,"ax",%progbits
  21              		.align	2
  22              		.arch armv7-a
  23              		.arch_extension mp
  24              		.arch_extension sec
  25              		.syntax unified
  26              		.arm
  27              		.fpu neon
  29              	dmac_hld_get_version:
  30              	.LVL0:
  31              	.LFB10:
  32              		.file 1 "../generate/sc_drivers/r_dmac/src/hld/r_dmac_drv_api.c"
   1:../generate/sc_drivers/r_dmac/src/hld/r_dmac_drv_api.c **** /*******************************************************************************
   2:../generate/sc_drivers/r_dmac/src/hld/r_dmac_drv_api.c ****  * DISCLAIMER
   3:../generate/sc_drivers/r_dmac/src/hld/r_dmac_drv_api.c ****  * This software is supplied by Renesas Electronics Corporation and is only
   4:../generate/sc_drivers/r_dmac/src/hld/r_dmac_drv_api.c ****  * intended for use with Renesas products. No other uses are authorized. This
   5:../generate/sc_drivers/r_dmac/src/hld/r_dmac_drv_api.c ****  * software is owned by Renesas Electronics Corporation and is protected under
   6:../generate/sc_drivers/r_dmac/src/hld/r_dmac_drv_api.c ****  * all applicable laws, including copyright laws.
   7:../generate/sc_drivers/r_dmac/src/hld/r_dmac_drv_api.c ****  * THIS SOFTWARE IS PROVIDED "AS IS" AND RENESAS MAKES NO WARRANTIES REGARDING
   8:../generate/sc_drivers/r_dmac/src/hld/r_dmac_drv_api.c ****  * THIS SOFTWARE, WHETHER EXPRESS, IMPLIED OR STATUTORY, INCLUDING BUT NOT
   9:../generate/sc_drivers/r_dmac/src/hld/r_dmac_drv_api.c ****  * LIMITED TO WARRANTIES OF MERCHANTABILITY, FITNESS FOR A PARTICULAR PURPOSE
  10:../generate/sc_drivers/r_dmac/src/hld/r_dmac_drv_api.c ****  * AND NON-INFRINGEMENT. ALL SUCH WARRANTIES ARE EXPRESSLY DISCLAIMED.
  11:../generate/sc_drivers/r_dmac/src/hld/r_dmac_drv_api.c ****  * TO THE MAXIMUM EXTENT PERMITTED NOT PROHIBITED BY LAW, NEITHER RENESAS
  12:../generate/sc_drivers/r_dmac/src/hld/r_dmac_drv_api.c ****  * ELECTRONICS CORPORATION NOR ANY OF ITS AFFILIATED COMPANIES SHALL BE LIABLE
  13:../generate/sc_drivers/r_dmac/src/hld/r_dmac_drv_api.c ****  * FOR ANY DIRECT, INDIRECT, SPECIAL, INCIDENTAL OR CONSEQUENTIAL DAMAGES FOR
  14:../generate/sc_drivers/r_dmac/src/hld/r_dmac_drv_api.c ****  * ANY REASON RELATED TO THIS SOFTWARE, EVEN IF RENESAS OR ITS AFFILIATES HAVE
  15:../generate/sc_drivers/r_dmac/src/hld/r_dmac_drv_api.c ****  * BEEN ADVISED OF THE POSSIBILITY OF SUCH DAMAGES.
  16:../generate/sc_drivers/r_dmac/src/hld/r_dmac_drv_api.c ****  * Renesas reserves the right, without notice, to make changes to this software
  17:../generate/sc_drivers/r_dmac/src/hld/r_dmac_drv_api.c ****  * and to discontinue the availability of this software. By using this software,
  18:../generate/sc_drivers/r_dmac/src/hld/r_dmac_drv_api.c ****  * you agree to the additional terms and conditions found by accessing the
  19:../generate/sc_drivers/r_dmac/src/hld/r_dmac_drv_api.c ****  * following link:
  20:../generate/sc_drivers/r_dmac/src/hld/r_dmac_drv_api.c ****  * http://www.renesas.com/disclaimer
  21:../generate/sc_drivers/r_dmac/src/hld/r_dmac_drv_api.c ****  * Copyright (C) 2018 Renesas Electronics Corporation. All rights reserved.
  22:../generate/sc_drivers/r_dmac/src/hld/r_dmac_drv_api.c ****  ******************************************************************************/
  23:../generate/sc_drivers/r_dmac/src/hld/r_dmac_drv_api.c **** /*******************************************************************************
  24:../generate/sc_drivers/r_dmac/src/hld/r_dmac_drv_api.c ****  * @file         r_dmac_drv_api.c
  25:../generate/sc_drivers/r_dmac/src/hld/r_dmac_drv_api.c ****  * @version      1.0
  26:../generate/sc_drivers/r_dmac/src/hld/r_dmac_drv_api.c ****  * @description  DMAC high layer device driver
  27:../generate/sc_drivers/r_dmac/src/hld/r_dmac_drv_api.c ****  ******************************************************************************
  28:../generate/sc_drivers/r_dmac/src/hld/r_dmac_drv_api.c ****  * History      : DD.MM.YYYY Version Description
  29:../generate/sc_drivers/r_dmac/src/hld/r_dmac_drv_api.c ****  *              : 31.08.2018 1.00    First Release
  30:../generate/sc_drivers/r_dmac/src/hld/r_dmac_drv_api.c ****  ******************************************************************************/
  31:../generate/sc_drivers/r_dmac/src/hld/r_dmac_drv_api.c **** 
  32:../generate/sc_drivers/r_dmac/src/hld/r_dmac_drv_api.c **** /******************************************************************************
  33:../generate/sc_drivers/r_dmac/src/hld/r_dmac_drv_api.c ****  Includes   <System Includes> , "Project Includes"
  34:../generate/sc_drivers/r_dmac/src/hld/r_dmac_drv_api.c ****  ******************************************************************************/
  35:../generate/sc_drivers/r_dmac/src/hld/r_dmac_drv_api.c **** 
  36:../generate/sc_drivers/r_dmac/src/hld/r_dmac_drv_api.c **** #include "compiler_settings.h"
  37:../generate/sc_drivers/r_dmac/src/hld/r_dmac_drv_api.c **** #include "driver.h"
  38:../generate/sc_drivers/r_dmac/src/hld/r_dmac_drv_api.c **** #include "r_dmac_drv_api.h"
  39:../generate/sc_drivers/r_dmac/src/hld/r_dmac_drv_api.c **** #include "r_dmac_drv_link.h"    /* Link include to low layer driver */
  40:../generate/sc_drivers/r_dmac/src/hld/r_dmac_drv_api.c **** #include "r_dmac_hld_prv.h"
  41:../generate/sc_drivers/r_dmac/src/hld/r_dmac_drv_api.c **** 
  42:../generate/sc_drivers/r_dmac/src/hld/r_dmac_drv_api.c **** /******************************************************************************
  43:../generate/sc_drivers/r_dmac/src/hld/r_dmac_drv_api.c ****  Macro definitions
  44:../generate/sc_drivers/r_dmac/src/hld/r_dmac_drv_api.c ****  ******************************************************************************/
  45:../generate/sc_drivers/r_dmac/src/hld/r_dmac_drv_api.c **** 
  46:../generate/sc_drivers/r_dmac/src/hld/r_dmac_drv_api.c **** /* Comment this line out to turn ON module trace in this file */
  47:../generate/sc_drivers/r_dmac/src/hld/r_dmac_drv_api.c **** #undef _TRACE_ON_
  48:../generate/sc_drivers/r_dmac/src/hld/r_dmac_drv_api.c **** 
  49:../generate/sc_drivers/r_dmac/src/hld/r_dmac_drv_api.c **** #ifndef _TRACE_ON_
  50:../generate/sc_drivers/r_dmac/src/hld/r_dmac_drv_api.c ****     #undef TRACE
  51:../generate/sc_drivers/r_dmac/src/hld/r_dmac_drv_api.c ****     #define TRACE(x)
  52:../generate/sc_drivers/r_dmac/src/hld/r_dmac_drv_api.c **** #endif
  53:../generate/sc_drivers/r_dmac/src/hld/r_dmac_drv_api.c **** 
  54:../generate/sc_drivers/r_dmac/src/hld/r_dmac_drv_api.c **** #define NOT_USED(p)                     ((void)(p))
  55:../generate/sc_drivers/r_dmac/src/hld/r_dmac_drv_api.c **** 
  56:../generate/sc_drivers/r_dmac/src/hld/r_dmac_drv_api.c **** /*****************************************************************************
  57:../generate/sc_drivers/r_dmac/src/hld/r_dmac_drv_api.c ****  Function Prototypes
  58:../generate/sc_drivers/r_dmac/src/hld/r_dmac_drv_api.c ****  ******************************************************************************/
  59:../generate/sc_drivers/r_dmac/src/hld/r_dmac_drv_api.c **** 
  60:../generate/sc_drivers/r_dmac/src/hld/r_dmac_drv_api.c **** /**
  61:../generate/sc_drivers/r_dmac/src/hld/r_dmac_drv_api.c ****  * @brief      Open the DMAC device driver
  62:../generate/sc_drivers/r_dmac/src/hld/r_dmac_drv_api.c ****  * @param[in]  p_stream Pointer to the file stream
  63:../generate/sc_drivers/r_dmac/src/hld/r_dmac_drv_api.c ****  * @retval     DRV_SUCCESS: Success
  64:../generate/sc_drivers/r_dmac/src/hld/r_dmac_drv_api.c ****  *             DRV_ERROR: Failure
  65:../generate/sc_drivers/r_dmac/src/hld/r_dmac_drv_api.c ****  */
  66:../generate/sc_drivers/r_dmac/src/hld/r_dmac_drv_api.c **** static int_t dmac_hld_open (st_stream_ptr_t pStream);
  67:../generate/sc_drivers/r_dmac/src/hld/r_dmac_drv_api.c **** 
  68:../generate/sc_drivers/r_dmac/src/hld/r_dmac_drv_api.c **** /**
  69:../generate/sc_drivers/r_dmac/src/hld/r_dmac_drv_api.c ****  * @brief      Close the GPIO device driver
  70:../generate/sc_drivers/r_dmac/src/hld/r_dmac_drv_api.c ****  * @param[in]  p_stream Pointer to the file stream
  71:../generate/sc_drivers/r_dmac/src/hld/r_dmac_drv_api.c ****  * @retval     None
  72:../generate/sc_drivers/r_dmac/src/hld/r_dmac_drv_api.c ****  */
  73:../generate/sc_drivers/r_dmac/src/hld/r_dmac_drv_api.c **** static void dmac_hld_close (st_stream_ptr_t pStream);
  74:../generate/sc_drivers/r_dmac/src/hld/r_dmac_drv_api.c **** 
  75:../generate/sc_drivers/r_dmac/src/hld/r_dmac_drv_api.c **** /**
  76:../generate/sc_drivers/r_dmac/src/hld/r_dmac_drv_api.c ****  * @brief          Handle custom controls for the DMAC device driver
  77:../generate/sc_drivers/r_dmac/src/hld/r_dmac_drv_api.c ****  * @param[in]      p_stream: Pointer to the file stream
  78:../generate/sc_drivers/r_dmac/src/hld/r_dmac_drv_api.c ****  * @param[in]      ctl_code: The custom control code
  79:../generate/sc_drivers/r_dmac/src/hld/r_dmac_drv_api.c ****  * @param[in/out]  p_ctl_struct: Pointer to the custom control structure
  80:../generate/sc_drivers/r_dmac/src/hld/r_dmac_drv_api.c ****  * @retval         DRV_SUCCESS: Success
  81:../generate/sc_drivers/r_dmac/src/hld/r_dmac_drv_api.c ****  *                 DRV_ERROR:   Failure
  82:../generate/sc_drivers/r_dmac/src/hld/r_dmac_drv_api.c ****  */
  83:../generate/sc_drivers/r_dmac/src/hld/r_dmac_drv_api.c **** static int_t dmac_hld_control (st_stream_ptr_t pStream, uint32_t ctlCode, void *pCtlStruct);
  84:../generate/sc_drivers/r_dmac/src/hld/r_dmac_drv_api.c **** 
  85:../generate/sc_drivers/r_dmac/src/hld/r_dmac_drv_api.c **** /**
  86:../generate/sc_drivers/r_dmac/src/hld/r_dmac_drv_api.c ****  * @brief Provides build information even if driver fails to open\n
  87:../generate/sc_drivers/r_dmac/src/hld/r_dmac_drv_api.c ****  *        version information is updated by the developer
  88:../generate/sc_drivers/r_dmac/src/hld/r_dmac_drv_api.c ****  * @param[in]   stream_ptr: Pointer to the file stream
  89:../generate/sc_drivers/r_dmac/src/hld/r_dmac_drv_api.c ****  * @param[out]  p_ver_info: version information
  90:../generate/sc_drivers/r_dmac/src/hld/r_dmac_drv_api.c ****  * @retval      DRV_SUCCESS (never fails)
  91:../generate/sc_drivers/r_dmac/src/hld/r_dmac_drv_api.c ****  */
  92:../generate/sc_drivers/r_dmac/src/hld/r_dmac_drv_api.c **** static int_t dmac_hld_get_version (st_stream_ptr_t stream_ptr, st_ver_info_t *pVerInfo);
  93:../generate/sc_drivers/r_dmac/src/hld/r_dmac_drv_api.c **** 
  94:../generate/sc_drivers/r_dmac/src/hld/r_dmac_drv_api.c **** static int_t dmac_get_channel (st_stream_ptr_t stream_ptr);
  95:../generate/sc_drivers/r_dmac/src/hld/r_dmac_drv_api.c **** 
  96:../generate/sc_drivers/r_dmac/src/hld/r_dmac_drv_api.c **** /*****************************************************************************
  97:../generate/sc_drivers/r_dmac/src/hld/r_dmac_drv_api.c ****  Constant Data
  98:../generate/sc_drivers/r_dmac/src/hld/r_dmac_drv_api.c ****  ******************************************************************************/
  99:../generate/sc_drivers/r_dmac/src/hld/r_dmac_drv_api.c **** 
 100:../generate/sc_drivers/r_dmac/src/hld/r_dmac_drv_api.c **** static const st_drv_info_t s_hld_info =
 101:../generate/sc_drivers/r_dmac/src/hld/r_dmac_drv_api.c **** {
 102:../generate/sc_drivers/r_dmac/src/hld/r_dmac_drv_api.c ****     {
 103:../generate/sc_drivers/r_dmac/src/hld/r_dmac_drv_api.c ****         ((R_DRV_DMAC_HLD_VERSION_MAJOR << 16) + R_DRV_DMAC_HLD_VERSION_MINOR)
 104:../generate/sc_drivers/r_dmac/src/hld/r_dmac_drv_api.c ****     },
 105:../generate/sc_drivers/r_dmac/src/hld/r_dmac_drv_api.c ****     R_DRV_DMAC_HLD_BUILD_NUM,
 106:../generate/sc_drivers/r_dmac/src/hld/r_dmac_drv_api.c ****     R_DRV_DMAC_HLD_DRV_NAME
 107:../generate/sc_drivers/r_dmac/src/hld/r_dmac_drv_api.c **** };
 108:../generate/sc_drivers/r_dmac/src/hld/r_dmac_drv_api.c **** 
 109:../generate/sc_drivers/r_dmac/src/hld/r_dmac_drv_api.c **** /******************************************************************************
 110:../generate/sc_drivers/r_dmac/src/hld/r_dmac_drv_api.c ****  Private variables
 111:../generate/sc_drivers/r_dmac/src/hld/r_dmac_drv_api.c ****  ******************************************************************************/
 112:../generate/sc_drivers/r_dmac/src/hld/r_dmac_drv_api.c **** 
 113:../generate/sc_drivers/r_dmac/src/hld/r_dmac_drv_api.c **** static st_dmac_internal_configuration_t s_dmac_drv_config =
 114:../generate/sc_drivers/r_dmac/src/hld/r_dmac_drv_api.c **** {
 115:../generate/sc_drivers/r_dmac/src/hld/r_dmac_drv_api.c ****     false  // hardware not initialised
 116:../generate/sc_drivers/r_dmac/src/hld/r_dmac_drv_api.c **** };
 117:../generate/sc_drivers/r_dmac/src/hld/r_dmac_drv_api.c **** 
 118:../generate/sc_drivers/r_dmac/src/hld/r_dmac_drv_api.c **** /******************************************************************************
 119:../generate/sc_drivers/r_dmac/src/hld/r_dmac_drv_api.c ****  Global variables
 120:../generate/sc_drivers/r_dmac/src/hld/r_dmac_drv_api.c ****  ******************************************************************************/
 121:../generate/sc_drivers/r_dmac/src/hld/r_dmac_drv_api.c **** 
 122:../generate/sc_drivers/r_dmac/src/hld/r_dmac_drv_api.c **** /* Define the driver function table for this implementation */
 123:../generate/sc_drivers/r_dmac/src/hld/r_dmac_drv_api.c **** const st_r_driver_t g_dmac_driver =
 124:../generate/sc_drivers/r_dmac/src/hld/r_dmac_drv_api.c ****     {"DMAC Device Driver", dmac_hld_open, dmac_hld_close, no_dev_read, no_dev_write, dmac_hld_contr
 125:../generate/sc_drivers/r_dmac/src/hld/r_dmac_drv_api.c ****                 dmac_hld_get_version};
 126:../generate/sc_drivers/r_dmac/src/hld/r_dmac_drv_api.c **** 
 127:../generate/sc_drivers/r_dmac/src/hld/r_dmac_drv_api.c **** /******************************************************************************
 128:../generate/sc_drivers/r_dmac/src/hld/r_dmac_drv_api.c ****  External global variables
 129:../generate/sc_drivers/r_dmac/src/hld/r_dmac_drv_api.c ****  ******************************************************************************/
 130:../generate/sc_drivers/r_dmac/src/hld/r_dmac_drv_api.c **** 
 131:../generate/sc_drivers/r_dmac/src/hld/r_dmac_drv_api.c **** /*****************************************************************************
 132:../generate/sc_drivers/r_dmac/src/hld/r_dmac_drv_api.c ****  Private Functions
 133:../generate/sc_drivers/r_dmac/src/hld/r_dmac_drv_api.c ****  ******************************************************************************/
 134:../generate/sc_drivers/r_dmac/src/hld/r_dmac_drv_api.c **** 
 135:../generate/sc_drivers/r_dmac/src/hld/r_dmac_drv_api.c **** /**
 136:../generate/sc_drivers/r_dmac/src/hld/r_dmac_drv_api.c ****  *             dmac_hld_open
 137:../generate/sc_drivers/r_dmac/src/hld/r_dmac_drv_api.c ****  * @brief      Open the DMAC device driver
 138:../generate/sc_drivers/r_dmac/src/hld/r_dmac_drv_api.c ****  * @param[in]  p_stream Pointer to the file stream
 139:../generate/sc_drivers/r_dmac/src/hld/r_dmac_drv_api.c ****  * @retval     DRV_SUCCESS: Success
 140:../generate/sc_drivers/r_dmac/src/hld/r_dmac_drv_api.c ****  *             DRV_ERROR: Failure
 141:../generate/sc_drivers/r_dmac/src/hld/r_dmac_drv_api.c ****  */
 142:../generate/sc_drivers/r_dmac/src/hld/r_dmac_drv_api.c **** static int_t dmac_hld_open (st_stream_ptr_t p_stream)
 143:../generate/sc_drivers/r_dmac/src/hld/r_dmac_drv_api.c **** {
 144:../generate/sc_drivers/r_dmac/src/hld/r_dmac_drv_api.c ****     int_t channel;
 145:../generate/sc_drivers/r_dmac/src/hld/r_dmac_drv_api.c ****     uint_t sc_config_index;
 146:../generate/sc_drivers/r_dmac/src/hld/r_dmac_drv_api.c **** 
 147:../generate/sc_drivers/r_dmac/src/hld/r_dmac_drv_api.c ****     if (!s_dmac_drv_config.driver_initialised)
 148:../generate/sc_drivers/r_dmac/src/hld/r_dmac_drv_api.c ****     {
 149:../generate/sc_drivers/r_dmac/src/hld/r_dmac_drv_api.c ****         /* initialise LLD, hardware and interrupts */
 150:../generate/sc_drivers/r_dmac/src/hld/r_dmac_drv_api.c ****         r_dmac_hld_prv_dma_init();
 151:../generate/sc_drivers/r_dmac/src/hld/r_dmac_drv_api.c **** 
 152:../generate/sc_drivers/r_dmac/src/hld/r_dmac_drv_api.c ****         /* initialise the open count for each channel */
 153:../generate/sc_drivers/r_dmac/src/hld/r_dmac_drv_api.c ****         for (channel = 0; channel < DMAC_NUMBER_OF_CHANNELS; channel++)
 154:../generate/sc_drivers/r_dmac/src/hld/r_dmac_drv_api.c ****         {
 155:../generate/sc_drivers/r_dmac/src/hld/r_dmac_drv_api.c ****         	s_dmac_drv_config.channel_configuration[channel].open_count = 0;
 156:../generate/sc_drivers/r_dmac/src/hld/r_dmac_drv_api.c ****         }
 157:../generate/sc_drivers/r_dmac/src/hld/r_dmac_drv_api.c **** 
 158:../generate/sc_drivers/r_dmac/src/hld/r_dmac_drv_api.c ****         s_dmac_drv_config.driver_initialised = true;
 159:../generate/sc_drivers/r_dmac/src/hld/r_dmac_drv_api.c ****     }
 160:../generate/sc_drivers/r_dmac/src/hld/r_dmac_drv_api.c **** 
 161:../generate/sc_drivers/r_dmac/src/hld/r_dmac_drv_api.c ****     /* get channel associated with handle */
 162:../generate/sc_drivers/r_dmac/src/hld/r_dmac_drv_api.c ****     channel = dmac_get_channel(p_stream);
 163:../generate/sc_drivers/r_dmac/src/hld/r_dmac_drv_api.c ****     sc_config_index = p_stream->sc_config_index;
 164:../generate/sc_drivers/r_dmac/src/hld/r_dmac_drv_api.c **** 
 165:../generate/sc_drivers/r_dmac/src/hld/r_dmac_drv_api.c ****     if (DRV_ERROR == channel)
 166:../generate/sc_drivers/r_dmac/src/hld/r_dmac_drv_api.c ****     {
 167:../generate/sc_drivers/r_dmac/src/hld/r_dmac_drv_api.c ****         return DRV_ERROR;
 168:../generate/sc_drivers/r_dmac/src/hld/r_dmac_drv_api.c ****     }
 169:../generate/sc_drivers/r_dmac/src/hld/r_dmac_drv_api.c **** 
 170:../generate/sc_drivers/r_dmac/src/hld/r_dmac_drv_api.c ****     /* check that we haven't exceeded the open count for this channel */
 171:../generate/sc_drivers/r_dmac/src/hld/r_dmac_drv_api.c ****     if (s_dmac_drv_config.channel_configuration[channel].open_count >= R_CFG_DMAC_DRV_MAXIMUM_ACCES
 172:../generate/sc_drivers/r_dmac/src/hld/r_dmac_drv_api.c ****     {
 173:../generate/sc_drivers/r_dmac/src/hld/r_dmac_drv_api.c ****         return DRV_ERROR;
 174:../generate/sc_drivers/r_dmac/src/hld/r_dmac_drv_api.c ****     }
 175:../generate/sc_drivers/r_dmac/src/hld/r_dmac_drv_api.c **** 
 176:../generate/sc_drivers/r_dmac/src/hld/r_dmac_drv_api.c ****     /* configure the channel according to Smart Configurator settings */
 177:../generate/sc_drivers/r_dmac/src/hld/r_dmac_drv_api.c ****     if (r_dmac_hld_prv_open(sc_config_index) == DRV_ERROR)
 178:../generate/sc_drivers/r_dmac/src/hld/r_dmac_drv_api.c ****     {
 179:../generate/sc_drivers/r_dmac/src/hld/r_dmac_drv_api.c ****         return DRV_ERROR;
 180:../generate/sc_drivers/r_dmac/src/hld/r_dmac_drv_api.c ****     }
 181:../generate/sc_drivers/r_dmac/src/hld/r_dmac_drv_api.c **** 
 182:../generate/sc_drivers/r_dmac/src/hld/r_dmac_drv_api.c ****     /* increase open count for this channel */
 183:../generate/sc_drivers/r_dmac/src/hld/r_dmac_drv_api.c ****     s_dmac_drv_config.channel_configuration[channel].open_count++;
 184:../generate/sc_drivers/r_dmac/src/hld/r_dmac_drv_api.c **** 
 185:../generate/sc_drivers/r_dmac/src/hld/r_dmac_drv_api.c ****     /* return status */
 186:../generate/sc_drivers/r_dmac/src/hld/r_dmac_drv_api.c ****     return (DRV_SUCCESS);
 187:../generate/sc_drivers/r_dmac/src/hld/r_dmac_drv_api.c **** }
 188:../generate/sc_drivers/r_dmac/src/hld/r_dmac_drv_api.c **** /*******************************************************************************
 189:../generate/sc_drivers/r_dmac/src/hld/r_dmac_drv_api.c ****  End of function dmac_hld_open
 190:../generate/sc_drivers/r_dmac/src/hld/r_dmac_drv_api.c ****  ******************************************************************************/
 191:../generate/sc_drivers/r_dmac/src/hld/r_dmac_drv_api.c **** 
 192:../generate/sc_drivers/r_dmac/src/hld/r_dmac_drv_api.c **** /**
 193:../generate/sc_drivers/r_dmac/src/hld/r_dmac_drv_api.c ****  *        dmac_get_channel
 194:../generate/sc_drivers/r_dmac/src/hld/r_dmac_drv_api.c ****  * @brief Acquires the channel number from a given stream_ptr
 195:../generate/sc_drivers/r_dmac/src/hld/r_dmac_drv_api.c ****  *
 196:../generate/sc_drivers/r_dmac/src/hld/r_dmac_drv_api.c ****  * This function safely returns a channel number (0, 1, 2, ...) if it is
 197:../generate/sc_drivers/r_dmac/src/hld/r_dmac_drv_api.c ****  * supported by the driver, otherwise it returns -1
 198:../generate/sc_drivers/r_dmac/src/hld/r_dmac_drv_api.c ****  *
 199:../generate/sc_drivers/r_dmac/src/hld/r_dmac_drv_api.c ****  * @param stream_ptr Pointer to the file stream
 200:../generate/sc_drivers/r_dmac/src/hld/r_dmac_drv_api.c ****  *
 201:../generate/sc_drivers/r_dmac/src/hld/r_dmac_drv_api.c ****  * @retval  N Where N is the current channel.
 202:../generate/sc_drivers/r_dmac/src/hld/r_dmac_drv_api.c ****  * @retval -1 DRV_ERROR
 203:../generate/sc_drivers/r_dmac/src/hld/r_dmac_drv_api.c ****  */
 204:../generate/sc_drivers/r_dmac/src/hld/r_dmac_drv_api.c **** static int_t dmac_get_channel (st_stream_ptr_t stream_ptr)
 205:../generate/sc_drivers/r_dmac/src/hld/r_dmac_drv_api.c **** {
 206:../generate/sc_drivers/r_dmac/src/hld/r_dmac_drv_api.c ****     int_t ret_value = DRV_ERROR;
 207:../generate/sc_drivers/r_dmac/src/hld/r_dmac_drv_api.c ****     int_t channel_id;
 208:../generate/sc_drivers/r_dmac/src/hld/r_dmac_drv_api.c **** 
 209:../generate/sc_drivers/r_dmac/src/hld/r_dmac_drv_api.c ****     /* if valid stream pointer */
 210:../generate/sc_drivers/r_dmac/src/hld/r_dmac_drv_api.c ****     if (NULL != stream_ptr)
 211:../generate/sc_drivers/r_dmac/src/hld/r_dmac_drv_api.c ****     {
 212:../generate/sc_drivers/r_dmac/src/hld/r_dmac_drv_api.c ****         /* get channel associated with configuration  */
 213:../generate/sc_drivers/r_dmac/src/hld/r_dmac_drv_api.c ****         channel_id = R_DMAC_GetChannel((uint_t) (stream_ptr->sc_config_index));
 214:../generate/sc_drivers/r_dmac/src/hld/r_dmac_drv_api.c **** 
 215:../generate/sc_drivers/r_dmac/src/hld/r_dmac_drv_api.c ****         if (DRV_ERROR != channel_id)
 216:../generate/sc_drivers/r_dmac/src/hld/r_dmac_drv_api.c ****         {
 217:../generate/sc_drivers/r_dmac/src/hld/r_dmac_drv_api.c ****             /* verify that the channel is supported */
 218:../generate/sc_drivers/r_dmac/src/hld/r_dmac_drv_api.c ****             /* look for channel in the array of available channels from low level driver */
 219:../generate/sc_drivers/r_dmac/src/hld/r_dmac_drv_api.c ****             /* (e_channel_id_t). This is a bit field where the power of 2 is the available channel 
 220:../generate/sc_drivers/r_dmac/src/hld/r_dmac_drv_api.c ****             if (((1 << channel_id) <= R_CH15))
 221:../generate/sc_drivers/r_dmac/src/hld/r_dmac_drv_api.c ****             {
 222:../generate/sc_drivers/r_dmac/src/hld/r_dmac_drv_api.c ****                 /* set channel as bit field where value is 2 << channel */
 223:../generate/sc_drivers/r_dmac/src/hld/r_dmac_drv_api.c ****                 uint_t channel_bit_value = (1u << channel_id);
 224:../generate/sc_drivers/r_dmac/src/hld/r_dmac_drv_api.c **** 
 225:../generate/sc_drivers/r_dmac/src/hld/r_dmac_drv_api.c ****                 /* get bit field of supported channels */
 226:../generate/sc_drivers/r_dmac/src/hld/r_dmac_drv_api.c ****                 uint_t supported_channels = DMAC_CFG_LLD_SUPPORTED_CHANNELS;
 227:../generate/sc_drivers/r_dmac/src/hld/r_dmac_drv_api.c **** 
 228:../generate/sc_drivers/r_dmac/src/hld/r_dmac_drv_api.c ****                 if (0 != (channel_bit_value & supported_channels))
 229:../generate/sc_drivers/r_dmac/src/hld/r_dmac_drv_api.c ****                 {
 230:../generate/sc_drivers/r_dmac/src/hld/r_dmac_drv_api.c ****                     /* channel is supported */
 231:../generate/sc_drivers/r_dmac/src/hld/r_dmac_drv_api.c ****                     ret_value = channel_id;
 232:../generate/sc_drivers/r_dmac/src/hld/r_dmac_drv_api.c ****                 }
 233:../generate/sc_drivers/r_dmac/src/hld/r_dmac_drv_api.c ****                 else
 234:../generate/sc_drivers/r_dmac/src/hld/r_dmac_drv_api.c ****                 {
 235:../generate/sc_drivers/r_dmac/src/hld/r_dmac_drv_api.c ****                     /* channel is not supported */
 236:../generate/sc_drivers/r_dmac/src/hld/r_dmac_drv_api.c ****                     ret_value = DRV_ERROR;
 237:../generate/sc_drivers/r_dmac/src/hld/r_dmac_drv_api.c ****                 }
 238:../generate/sc_drivers/r_dmac/src/hld/r_dmac_drv_api.c ****             }
 239:../generate/sc_drivers/r_dmac/src/hld/r_dmac_drv_api.c ****         }
 240:../generate/sc_drivers/r_dmac/src/hld/r_dmac_drv_api.c ****     }
 241:../generate/sc_drivers/r_dmac/src/hld/r_dmac_drv_api.c **** 
 242:../generate/sc_drivers/r_dmac/src/hld/r_dmac_drv_api.c ****     /* return status as error or channel number  */
 243:../generate/sc_drivers/r_dmac/src/hld/r_dmac_drv_api.c ****     return (ret_value);
 244:../generate/sc_drivers/r_dmac/src/hld/r_dmac_drv_api.c **** }
 245:../generate/sc_drivers/r_dmac/src/hld/r_dmac_drv_api.c **** /******************************************************************************
 246:../generate/sc_drivers/r_dmac/src/hld/r_dmac_drv_api.c ****  * End of Function dmac_get_channel
 247:../generate/sc_drivers/r_dmac/src/hld/r_dmac_drv_api.c ****  ******************************************************************************/
 248:../generate/sc_drivers/r_dmac/src/hld/r_dmac_drv_api.c **** 
 249:../generate/sc_drivers/r_dmac/src/hld/r_dmac_drv_api.c **** /**
 250:../generate/sc_drivers/r_dmac/src/hld/r_dmac_drv_api.c ****  *             dmac_hld_close
 251:../generate/sc_drivers/r_dmac/src/hld/r_dmac_drv_api.c ****  * @brief      Close the DMAC device driver
 252:../generate/sc_drivers/r_dmac/src/hld/r_dmac_drv_api.c ****  * @param[in]  p_stream Pointer to the file stream
 253:../generate/sc_drivers/r_dmac/src/hld/r_dmac_drv_api.c ****  * @retval     None
 254:../generate/sc_drivers/r_dmac/src/hld/r_dmac_drv_api.c ****  */
 255:../generate/sc_drivers/r_dmac/src/hld/r_dmac_drv_api.c **** static void dmac_hld_close (st_stream_ptr_t p_stream)
 256:../generate/sc_drivers/r_dmac/src/hld/r_dmac_drv_api.c **** {
 257:../generate/sc_drivers/r_dmac/src/hld/r_dmac_drv_api.c ****     int_t channel;
 258:../generate/sc_drivers/r_dmac/src/hld/r_dmac_drv_api.c ****     uint_t sc_config_index;
 259:../generate/sc_drivers/r_dmac/src/hld/r_dmac_drv_api.c **** 
 260:../generate/sc_drivers/r_dmac/src/hld/r_dmac_drv_api.c ****     sc_config_index = p_stream->sc_config_index;
 261:../generate/sc_drivers/r_dmac/src/hld/r_dmac_drv_api.c **** 
 262:../generate/sc_drivers/r_dmac/src/hld/r_dmac_drv_api.c ****     /* get channel associated with handle */
 263:../generate/sc_drivers/r_dmac/src/hld/r_dmac_drv_api.c ****     channel = dmac_get_channel(p_stream);
 264:../generate/sc_drivers/r_dmac/src/hld/r_dmac_drv_api.c **** 
 265:../generate/sc_drivers/r_dmac/src/hld/r_dmac_drv_api.c ****     if (s_dmac_drv_config.channel_configuration[channel].open_count > 0)
 266:../generate/sc_drivers/r_dmac/src/hld/r_dmac_drv_api.c ****     {
 267:../generate/sc_drivers/r_dmac/src/hld/r_dmac_drv_api.c ****     	s_dmac_drv_config.channel_configuration[channel].open_count--;
 268:../generate/sc_drivers/r_dmac/src/hld/r_dmac_drv_api.c ****     }
 269:../generate/sc_drivers/r_dmac/src/hld/r_dmac_drv_api.c **** 
 270:../generate/sc_drivers/r_dmac/src/hld/r_dmac_drv_api.c ****     if (0 == s_dmac_drv_config.channel_configuration[channel].open_count)
 271:../generate/sc_drivers/r_dmac/src/hld/r_dmac_drv_api.c ****     {
 272:../generate/sc_drivers/r_dmac/src/hld/r_dmac_drv_api.c ****         R_DMAC_CloseChannel(sc_config_index);
 273:../generate/sc_drivers/r_dmac/src/hld/r_dmac_drv_api.c ****     }
 274:../generate/sc_drivers/r_dmac/src/hld/r_dmac_drv_api.c **** 
 275:../generate/sc_drivers/r_dmac/src/hld/r_dmac_drv_api.c ****     /* un-initialise the hardware if all channels closed? */
 276:../generate/sc_drivers/r_dmac/src/hld/r_dmac_drv_api.c ****     /* R_DMAC_HWUninitialise(); */
 277:../generate/sc_drivers/r_dmac/src/hld/r_dmac_drv_api.c **** }
 278:../generate/sc_drivers/r_dmac/src/hld/r_dmac_drv_api.c **** /**************************************************************************************************
 279:../generate/sc_drivers/r_dmac/src/hld/r_dmac_drv_api.c ****  End of function dmac_hld_close
 280:../generate/sc_drivers/r_dmac/src/hld/r_dmac_drv_api.c ****  **************************************************************************************************
 281:../generate/sc_drivers/r_dmac/src/hld/r_dmac_drv_api.c **** 
 282:../generate/sc_drivers/r_dmac/src/hld/r_dmac_drv_api.c **** /**
 283:../generate/sc_drivers/r_dmac/src/hld/r_dmac_drv_api.c ****  *                 dmac_hld_control
 284:../generate/sc_drivers/r_dmac/src/hld/r_dmac_drv_api.c ****  * @brief          Handle custom controls for the DMAC device driver
 285:../generate/sc_drivers/r_dmac/src/hld/r_dmac_drv_api.c ****  * @param[in]      p_stream: Pointer to the file stream
 286:../generate/sc_drivers/r_dmac/src/hld/r_dmac_drv_api.c ****  * @param[in]      ctl_code: The custom control code
 287:../generate/sc_drivers/r_dmac/src/hld/r_dmac_drv_api.c ****  * @param[in/out]  p_ctl_struct: Pointer to the custom control structure
 288:../generate/sc_drivers/r_dmac/src/hld/r_dmac_drv_api.c ****  * @retval         DRV_SUCCESS: Success
 289:../generate/sc_drivers/r_dmac/src/hld/r_dmac_drv_api.c ****  *                 DRV_ERROR:   Failure
 290:../generate/sc_drivers/r_dmac/src/hld/r_dmac_drv_api.c ****  */
 291:../generate/sc_drivers/r_dmac/src/hld/r_dmac_drv_api.c **** static int_t dmac_hld_control (st_stream_ptr_t p_stream, uint32_t ctl_code, void *p_ctl_struct)
 292:../generate/sc_drivers/r_dmac/src/hld/r_dmac_drv_api.c **** {
 293:../generate/sc_drivers/r_dmac/src/hld/r_dmac_drv_api.c ****     int_t ret_value = DRV_ERROR;
 294:../generate/sc_drivers/r_dmac/src/hld/r_dmac_drv_api.c ****     e_r_drv_dmac_err_t dmac_err;
 295:../generate/sc_drivers/r_dmac/src/hld/r_dmac_drv_api.c ****     st_r_drv_dmac_config_t *p_configuration;
 296:../generate/sc_drivers/r_dmac/src/hld/r_dmac_drv_api.c ****     st_r_drv_dmac_next_transfer_t *p_next_transfer;
 297:../generate/sc_drivers/r_dmac/src/hld/r_dmac_drv_api.c ****     int_t channel;
 298:../generate/sc_drivers/r_dmac/src/hld/r_dmac_drv_api.c ****     uint_t sc_config_index;
 299:../generate/sc_drivers/r_dmac/src/hld/r_dmac_drv_api.c **** 
 300:../generate/sc_drivers/r_dmac/src/hld/r_dmac_drv_api.c ****     sc_config_index = p_stream->sc_config_index;
 301:../generate/sc_drivers/r_dmac/src/hld/r_dmac_drv_api.c **** 
 302:../generate/sc_drivers/r_dmac/src/hld/r_dmac_drv_api.c ****     /* get channel associated with handle */
 303:../generate/sc_drivers/r_dmac/src/hld/r_dmac_drv_api.c ****     channel = dmac_get_channel(p_stream);
 304:../generate/sc_drivers/r_dmac/src/hld/r_dmac_drv_api.c **** 
 305:../generate/sc_drivers/r_dmac/src/hld/r_dmac_drv_api.c ****     if (channel < 0)
 306:../generate/sc_drivers/r_dmac/src/hld/r_dmac_drv_api.c ****     {
 307:../generate/sc_drivers/r_dmac/src/hld/r_dmac_drv_api.c ****         return DRV_ERROR;
 308:../generate/sc_drivers/r_dmac/src/hld/r_dmac_drv_api.c ****     }
 309:../generate/sc_drivers/r_dmac/src/hld/r_dmac_drv_api.c **** 
 310:../generate/sc_drivers/r_dmac/src/hld/r_dmac_drv_api.c ****     /* fail if the channel is not open */
 311:../generate/sc_drivers/r_dmac/src/hld/r_dmac_drv_api.c ****     if (0 == s_dmac_drv_config.channel_configuration[channel].open_count)
 312:../generate/sc_drivers/r_dmac/src/hld/r_dmac_drv_api.c ****     {
 313:../generate/sc_drivers/r_dmac/src/hld/r_dmac_drv_api.c ****         return DRV_ERROR;
 314:../generate/sc_drivers/r_dmac/src/hld/r_dmac_drv_api.c ****     }
 315:../generate/sc_drivers/r_dmac/src/hld/r_dmac_drv_api.c **** 
 316:../generate/sc_drivers/r_dmac/src/hld/r_dmac_drv_api.c ****     switch ((e_ctrl_code_dmac_t) ctl_code)
 317:../generate/sc_drivers/r_dmac/src/hld/r_dmac_drv_api.c ****     {
 318:../generate/sc_drivers/r_dmac/src/hld/r_dmac_drv_api.c ****         /* start a DMA transfer */
 319:../generate/sc_drivers/r_dmac/src/hld/r_dmac_drv_api.c ****         case CTL_DMAC_SOFTWARE_TRIGGER:
 320:../generate/sc_drivers/r_dmac/src/hld/r_dmac_drv_api.c ****         {
 321:../generate/sc_drivers/r_dmac/src/hld/r_dmac_drv_api.c ****             if (R_DMAC_SoftwareTrigger(sc_config_index) == DMAC_SUCCESS)
 322:../generate/sc_drivers/r_dmac/src/hld/r_dmac_drv_api.c ****             {
 323:../generate/sc_drivers/r_dmac/src/hld/r_dmac_drv_api.c ****                 ret_value = DRV_SUCCESS;
 324:../generate/sc_drivers/r_dmac/src/hld/r_dmac_drv_api.c ****             }
 325:../generate/sc_drivers/r_dmac/src/hld/r_dmac_drv_api.c ****             else
 326:../generate/sc_drivers/r_dmac/src/hld/r_dmac_drv_api.c ****             {
 327:../generate/sc_drivers/r_dmac/src/hld/r_dmac_drv_api.c ****                 ret_value = DRV_ERROR;
 328:../generate/sc_drivers/r_dmac/src/hld/r_dmac_drv_api.c ****             }
 329:../generate/sc_drivers/r_dmac/src/hld/r_dmac_drv_api.c ****             break;
 330:../generate/sc_drivers/r_dmac/src/hld/r_dmac_drv_api.c ****         }
 331:../generate/sc_drivers/r_dmac/src/hld/r_dmac_drv_api.c **** 
 332:../generate/sc_drivers/r_dmac/src/hld/r_dmac_drv_api.c ****         case CTL_DMAC_SET_CONFIGURATION:
 333:../generate/sc_drivers/r_dmac/src/hld/r_dmac_drv_api.c ****         {
 334:../generate/sc_drivers/r_dmac/src/hld/r_dmac_drv_api.c ****             if (NULL != p_ctl_struct)
 335:../generate/sc_drivers/r_dmac/src/hld/r_dmac_drv_api.c ****             {
 336:../generate/sc_drivers/r_dmac/src/hld/r_dmac_drv_api.c ****                 /* assign new pointer for readability */
 337:../generate/sc_drivers/r_dmac/src/hld/r_dmac_drv_api.c ****                 p_configuration = (st_r_drv_dmac_config_t *) p_ctl_struct;
 338:../generate/sc_drivers/r_dmac/src/hld/r_dmac_drv_api.c **** 
 339:../generate/sc_drivers/r_dmac/src/hld/r_dmac_drv_api.c ****                 R_DMAC_SetDmaCompleteCallback(sc_config_index, p_configuration->config.p_dmaComplet
 340:../generate/sc_drivers/r_dmac/src/hld/r_dmac_drv_api.c ****                 R_DMAC_SetDmaErrorCallback(sc_config_index, p_configuration->config.p_dmaError);
 341:../generate/sc_drivers/r_dmac/src/hld/r_dmac_drv_api.c **** 
 342:../generate/sc_drivers/r_dmac/src/hld/r_dmac_drv_api.c ****                 dmac_err = R_DMAC_ConfigureChannel(sc_config_index, &p_configuration->config, 0);
 343:../generate/sc_drivers/r_dmac/src/hld/r_dmac_drv_api.c ****                 p_configuration->err = dmac_err;
 344:../generate/sc_drivers/r_dmac/src/hld/r_dmac_drv_api.c **** 
 345:../generate/sc_drivers/r_dmac/src/hld/r_dmac_drv_api.c ****                 if (DMAC_SUCCESS == dmac_err)
 346:../generate/sc_drivers/r_dmac/src/hld/r_dmac_drv_api.c ****                 {
 347:../generate/sc_drivers/r_dmac/src/hld/r_dmac_drv_api.c ****                     ret_value = DRV_SUCCESS;
 348:../generate/sc_drivers/r_dmac/src/hld/r_dmac_drv_api.c ****                 }
 349:../generate/sc_drivers/r_dmac/src/hld/r_dmac_drv_api.c ****                 else
 350:../generate/sc_drivers/r_dmac/src/hld/r_dmac_drv_api.c ****                 {
 351:../generate/sc_drivers/r_dmac/src/hld/r_dmac_drv_api.c ****                     ret_value = DRV_ERROR;
 352:../generate/sc_drivers/r_dmac/src/hld/r_dmac_drv_api.c ****                 }
 353:../generate/sc_drivers/r_dmac/src/hld/r_dmac_drv_api.c ****             }
 354:../generate/sc_drivers/r_dmac/src/hld/r_dmac_drv_api.c ****             break;
 355:../generate/sc_drivers/r_dmac/src/hld/r_dmac_drv_api.c ****         }
 356:../generate/sc_drivers/r_dmac/src/hld/r_dmac_drv_api.c **** 
 357:../generate/sc_drivers/r_dmac/src/hld/r_dmac_drv_api.c ****         case CTL_DMAC_GET_CONFIGURATION:
 358:../generate/sc_drivers/r_dmac/src/hld/r_dmac_drv_api.c ****         {
 359:../generate/sc_drivers/r_dmac/src/hld/r_dmac_drv_api.c ****             if (NULL != p_ctl_struct)
 360:../generate/sc_drivers/r_dmac/src/hld/r_dmac_drv_api.c ****             {
 361:../generate/sc_drivers/r_dmac/src/hld/r_dmac_drv_api.c ****                 /* assign new pointer for readability */
 362:../generate/sc_drivers/r_dmac/src/hld/r_dmac_drv_api.c ****                 p_configuration = (st_r_drv_dmac_config_t *) p_ctl_struct;
 363:../generate/sc_drivers/r_dmac/src/hld/r_dmac_drv_api.c **** 
 364:../generate/sc_drivers/r_dmac/src/hld/r_dmac_drv_api.c ****                 R_DMAC_GetDmaCompleteCallback(sc_config_index, &(p_configuration->config.p_dmaCompl
 365:../generate/sc_drivers/r_dmac/src/hld/r_dmac_drv_api.c ****                 R_DMAC_GetDmaErrorCallback(sc_config_index, &(p_configuration->config.p_dmaError));
 366:../generate/sc_drivers/r_dmac/src/hld/r_dmac_drv_api.c **** 
 367:../generate/sc_drivers/r_dmac/src/hld/r_dmac_drv_api.c ****                 dmac_err = R_DMAC_GetChannelConfiguration(sc_config_index, &p_configuration->config
 368:../generate/sc_drivers/r_dmac/src/hld/r_dmac_drv_api.c ****                 p_configuration->err = dmac_err;
 369:../generate/sc_drivers/r_dmac/src/hld/r_dmac_drv_api.c **** 
 370:../generate/sc_drivers/r_dmac/src/hld/r_dmac_drv_api.c ****                 if (DMAC_SUCCESS == dmac_err)
 371:../generate/sc_drivers/r_dmac/src/hld/r_dmac_drv_api.c ****                 {
 372:../generate/sc_drivers/r_dmac/src/hld/r_dmac_drv_api.c ****                     ret_value = DRV_SUCCESS;
 373:../generate/sc_drivers/r_dmac/src/hld/r_dmac_drv_api.c ****                 }
 374:../generate/sc_drivers/r_dmac/src/hld/r_dmac_drv_api.c ****                 else
 375:../generate/sc_drivers/r_dmac/src/hld/r_dmac_drv_api.c ****                 {
 376:../generate/sc_drivers/r_dmac/src/hld/r_dmac_drv_api.c ****                     ret_value = DRV_ERROR;
 377:../generate/sc_drivers/r_dmac/src/hld/r_dmac_drv_api.c ****                 }
 378:../generate/sc_drivers/r_dmac/src/hld/r_dmac_drv_api.c ****             }
 379:../generate/sc_drivers/r_dmac/src/hld/r_dmac_drv_api.c ****             break;
 380:../generate/sc_drivers/r_dmac/src/hld/r_dmac_drv_api.c ****         }
 381:../generate/sc_drivers/r_dmac/src/hld/r_dmac_drv_api.c **** 
 382:../generate/sc_drivers/r_dmac/src/hld/r_dmac_drv_api.c ****         case CTL_DMAC_ENABLE:
 383:../generate/sc_drivers/r_dmac/src/hld/r_dmac_drv_api.c ****         {
 384:../generate/sc_drivers/r_dmac/src/hld/r_dmac_drv_api.c ****             if (r_dmac_hld_prv_dma_enable(sc_config_index) == DMAC_SUCCESS)
 385:../generate/sc_drivers/r_dmac/src/hld/r_dmac_drv_api.c ****             {
 386:../generate/sc_drivers/r_dmac/src/hld/r_dmac_drv_api.c ****                 ret_value = DRV_SUCCESS;
 387:../generate/sc_drivers/r_dmac/src/hld/r_dmac_drv_api.c ****             }
 388:../generate/sc_drivers/r_dmac/src/hld/r_dmac_drv_api.c ****             else
 389:../generate/sc_drivers/r_dmac/src/hld/r_dmac_drv_api.c ****             {
 390:../generate/sc_drivers/r_dmac/src/hld/r_dmac_drv_api.c ****                 ret_value = DRV_ERROR;
 391:../generate/sc_drivers/r_dmac/src/hld/r_dmac_drv_api.c ****             }
 392:../generate/sc_drivers/r_dmac/src/hld/r_dmac_drv_api.c ****             break;
 393:../generate/sc_drivers/r_dmac/src/hld/r_dmac_drv_api.c ****         }
 394:../generate/sc_drivers/r_dmac/src/hld/r_dmac_drv_api.c **** 
 395:../generate/sc_drivers/r_dmac/src/hld/r_dmac_drv_api.c ****         case CTL_DMAC_DISABLE:
 396:../generate/sc_drivers/r_dmac/src/hld/r_dmac_drv_api.c ****         {
 397:../generate/sc_drivers/r_dmac/src/hld/r_dmac_drv_api.c ****             if (NULL != p_ctl_struct)
 398:../generate/sc_drivers/r_dmac/src/hld/r_dmac_drv_api.c ****             {
 399:../generate/sc_drivers/r_dmac/src/hld/r_dmac_drv_api.c ****                 if (r_dmac_hld_prv_dma_disable(sc_config_index, (uint32_t *) p_ctl_struct) == DMAC_
 400:../generate/sc_drivers/r_dmac/src/hld/r_dmac_drv_api.c ****                 {
 401:../generate/sc_drivers/r_dmac/src/hld/r_dmac_drv_api.c ****                     ret_value = DRV_SUCCESS;
 402:../generate/sc_drivers/r_dmac/src/hld/r_dmac_drv_api.c ****                 }
 403:../generate/sc_drivers/r_dmac/src/hld/r_dmac_drv_api.c ****                 else
 404:../generate/sc_drivers/r_dmac/src/hld/r_dmac_drv_api.c ****                 {
 405:../generate/sc_drivers/r_dmac/src/hld/r_dmac_drv_api.c ****                     ret_value = DRV_ERROR;
 406:../generate/sc_drivers/r_dmac/src/hld/r_dmac_drv_api.c ****                 }
 407:../generate/sc_drivers/r_dmac/src/hld/r_dmac_drv_api.c ****             }
 408:../generate/sc_drivers/r_dmac/src/hld/r_dmac_drv_api.c ****             break;
 409:../generate/sc_drivers/r_dmac/src/hld/r_dmac_drv_api.c ****         }
 410:../generate/sc_drivers/r_dmac/src/hld/r_dmac_drv_api.c **** 
 411:../generate/sc_drivers/r_dmac/src/hld/r_dmac_drv_api.c ****         case CTL_DMAC_NEXT_TRANSFER:
 412:../generate/sc_drivers/r_dmac/src/hld/r_dmac_drv_api.c ****         {
 413:../generate/sc_drivers/r_dmac/src/hld/r_dmac_drv_api.c ****             if (NULL != p_ctl_struct)
 414:../generate/sc_drivers/r_dmac/src/hld/r_dmac_drv_api.c ****             {
 415:../generate/sc_drivers/r_dmac/src/hld/r_dmac_drv_api.c ****                 /* assign new pointer for readability */
 416:../generate/sc_drivers/r_dmac/src/hld/r_dmac_drv_api.c ****                 p_next_transfer = (st_r_drv_dmac_next_transfer_t *) p_ctl_struct;
 417:../generate/sc_drivers/r_dmac/src/hld/r_dmac_drv_api.c **** 
 418:../generate/sc_drivers/r_dmac/src/hld/r_dmac_drv_api.c ****                 dmac_err = R_DMAC_SetNextTransfer(sc_config_index, p_next_transfer->source_address,
 419:../generate/sc_drivers/r_dmac/src/hld/r_dmac_drv_api.c ****                         p_next_transfer->destination_address, p_next_transfer->count);
 420:../generate/sc_drivers/r_dmac/src/hld/r_dmac_drv_api.c **** 
 421:../generate/sc_drivers/r_dmac/src/hld/r_dmac_drv_api.c ****                 if (DMAC_SUCCESS == dmac_err)
 422:../generate/sc_drivers/r_dmac/src/hld/r_dmac_drv_api.c ****                 {
 423:../generate/sc_drivers/r_dmac/src/hld/r_dmac_drv_api.c ****                     ret_value = DRV_SUCCESS;
 424:../generate/sc_drivers/r_dmac/src/hld/r_dmac_drv_api.c ****                 }
 425:../generate/sc_drivers/r_dmac/src/hld/r_dmac_drv_api.c ****                 else
 426:../generate/sc_drivers/r_dmac/src/hld/r_dmac_drv_api.c ****                 {
 427:../generate/sc_drivers/r_dmac/src/hld/r_dmac_drv_api.c ****                     ret_value = DRV_ERROR;
 428:../generate/sc_drivers/r_dmac/src/hld/r_dmac_drv_api.c ****                 }
 429:../generate/sc_drivers/r_dmac/src/hld/r_dmac_drv_api.c ****             }
 430:../generate/sc_drivers/r_dmac/src/hld/r_dmac_drv_api.c ****             break;
 431:../generate/sc_drivers/r_dmac/src/hld/r_dmac_drv_api.c ****         }
 432:../generate/sc_drivers/r_dmac/src/hld/r_dmac_drv_api.c **** 
 433:../generate/sc_drivers/r_dmac/src/hld/r_dmac_drv_api.c ****         case CTL_DMAC_GET_TRANSFER_BYTE_COUNT:
 434:../generate/sc_drivers/r_dmac/src/hld/r_dmac_drv_api.c ****         {
 435:../generate/sc_drivers/r_dmac/src/hld/r_dmac_drv_api.c ****             if (NULL != p_ctl_struct)
 436:../generate/sc_drivers/r_dmac/src/hld/r_dmac_drv_api.c ****             {
 437:../generate/sc_drivers/r_dmac/src/hld/r_dmac_drv_api.c ****                 /* assign new pointer for readability */
 438:../generate/sc_drivers/r_dmac/src/hld/r_dmac_drv_api.c ****                 uint32_t * p_crtb_value = (uint32_t *) p_ctl_struct;
 439:../generate/sc_drivers/r_dmac/src/hld/r_dmac_drv_api.c **** 
 440:../generate/sc_drivers/r_dmac/src/hld/r_dmac_drv_api.c ****                 dmac_err = R_DMAC_GetCrtbRegisterValue(sc_config_index, p_crtb_value);
 441:../generate/sc_drivers/r_dmac/src/hld/r_dmac_drv_api.c **** 
 442:../generate/sc_drivers/r_dmac/src/hld/r_dmac_drv_api.c ****                 if (DMAC_SUCCESS == dmac_err)
 443:../generate/sc_drivers/r_dmac/src/hld/r_dmac_drv_api.c ****                 {
 444:../generate/sc_drivers/r_dmac/src/hld/r_dmac_drv_api.c ****                     ret_value = DRV_SUCCESS;
 445:../generate/sc_drivers/r_dmac/src/hld/r_dmac_drv_api.c ****                 }
 446:../generate/sc_drivers/r_dmac/src/hld/r_dmac_drv_api.c ****                 else
 447:../generate/sc_drivers/r_dmac/src/hld/r_dmac_drv_api.c ****                 {
 448:../generate/sc_drivers/r_dmac/src/hld/r_dmac_drv_api.c ****                     ret_value = DRV_ERROR;
 449:../generate/sc_drivers/r_dmac/src/hld/r_dmac_drv_api.c ****                 }
 450:../generate/sc_drivers/r_dmac/src/hld/r_dmac_drv_api.c ****             }
 451:../generate/sc_drivers/r_dmac/src/hld/r_dmac_drv_api.c ****             break;
 452:../generate/sc_drivers/r_dmac/src/hld/r_dmac_drv_api.c ****         }
 453:../generate/sc_drivers/r_dmac/src/hld/r_dmac_drv_api.c **** 
 454:../generate/sc_drivers/r_dmac/src/hld/r_dmac_drv_api.c ****         default:
 455:../generate/sc_drivers/r_dmac/src/hld/r_dmac_drv_api.c ****         {
 456:../generate/sc_drivers/r_dmac/src/hld/r_dmac_drv_api.c ****             TRACE(("DMAC Driver: Unknown control code\r\n"));
 457:../generate/sc_drivers/r_dmac/src/hld/r_dmac_drv_api.c ****             break;
 458:../generate/sc_drivers/r_dmac/src/hld/r_dmac_drv_api.c ****         }
 459:../generate/sc_drivers/r_dmac/src/hld/r_dmac_drv_api.c ****     }
 460:../generate/sc_drivers/r_dmac/src/hld/r_dmac_drv_api.c **** 
 461:../generate/sc_drivers/r_dmac/src/hld/r_dmac_drv_api.c ****     return (ret_value);
 462:../generate/sc_drivers/r_dmac/src/hld/r_dmac_drv_api.c **** }
 463:../generate/sc_drivers/r_dmac/src/hld/r_dmac_drv_api.c **** /**************************************************************************************************
 464:../generate/sc_drivers/r_dmac/src/hld/r_dmac_drv_api.c ****  End of function dmac_hld_control
 465:../generate/sc_drivers/r_dmac/src/hld/r_dmac_drv_api.c ****  **************************************************************************************************
 466:../generate/sc_drivers/r_dmac/src/hld/r_dmac_drv_api.c **** 
 467:../generate/sc_drivers/r_dmac/src/hld/r_dmac_drv_api.c **** /**
 468:../generate/sc_drivers/r_dmac/src/hld/r_dmac_drv_api.c ****  *              dmac_hld_get_version
 469:../generate/sc_drivers/r_dmac/src/hld/r_dmac_drv_api.c ****  * @brief       Provides build information even if driver fails to open\n
 470:../generate/sc_drivers/r_dmac/src/hld/r_dmac_drv_api.c ****  *              version information is updated by the developer
 471:../generate/sc_drivers/r_dmac/src/hld/r_dmac_drv_api.c ****  * @param[in]   stream_ptr: Pointer to the file stream
 472:../generate/sc_drivers/r_dmac/src/hld/r_dmac_drv_api.c ****  * @param[out]  p_ver_info: version information
 473:../generate/sc_drivers/r_dmac/src/hld/r_dmac_drv_api.c ****  * @retval      DRV_SUCCESS (never fails)
 474:../generate/sc_drivers/r_dmac/src/hld/r_dmac_drv_api.c ****  */
 475:../generate/sc_drivers/r_dmac/src/hld/r_dmac_drv_api.c **** static int_t dmac_hld_get_version (st_stream_ptr_t stream_ptr, st_ver_info_t *p_ver_info)
 476:../generate/sc_drivers/r_dmac/src/hld/r_dmac_drv_api.c **** {
  33              		.loc 1 476 1 view -0
  34              		.cfi_startproc
  35              		@ args = 0, pretend = 0, frame = 0
  36              		@ frame_needed = 0, uses_anonymous_args = 0
  37              		.loc 1 476 1 is_stmt 0 view .LVU1
  38 0000 10402DE9 		push	{r4, lr}
  39              		.cfi_def_cfa_offset 8
  40              		.cfi_offset 4, -8
  41              		.cfi_offset 14, -4
 477:../generate/sc_drivers/r_dmac/src/hld/r_dmac_drv_api.c ****     /* get driver version */
 478:../generate/sc_drivers/r_dmac/src/hld/r_dmac_drv_api.c ****     NOT_USED(stream_ptr);
  42              		.loc 1 478 5 is_stmt 1 view .LVU2
 479:../generate/sc_drivers/r_dmac/src/hld/r_dmac_drv_api.c **** 
 480:../generate/sc_drivers/r_dmac/src/hld/r_dmac_drv_api.c ****     p_ver_info->hld.version.sub.major = s_hld_info.version.sub.major;
  43              		.loc 1 480 5 view .LVU3
  44              		.loc 1 480 39 is_stmt 0 view .LVU4
  45 0004 0230A0E3 		mov	r3, #2
  46 0008 B230C1E1 		strh	r3, [r1, #2]	@ movhi
 481:../generate/sc_drivers/r_dmac/src/hld/r_dmac_drv_api.c ****     p_ver_info->hld.version.sub.minor = s_hld_info.version.sub.minor;
  47              		.loc 1 481 5 is_stmt 1 view .LVU5
  48              		.loc 1 481 39 is_stmt 0 view .LVU6
  49 000c 0130A0E3 		mov	r3, #1
  50 0010 B030C1E1 		strh	r3, [r1]	@ movhi
 482:../generate/sc_drivers/r_dmac/src/hld/r_dmac_drv_api.c ****     p_ver_info->hld.build = s_hld_info.build;
  51              		.loc 1 482 5 is_stmt 1 view .LVU7
  52              		.loc 1 482 27 is_stmt 0 view .LVU8
  53 0014 0040A0E3 		mov	r4, #0
  54 0018 044081E5 		str	r4, [r1, #4]
 483:../generate/sc_drivers/r_dmac/src/hld/r_dmac_drv_api.c ****     p_ver_info->hld.p_szdriver_name = s_hld_info.p_szdriver_name;
  55              		.loc 1 483 5 is_stmt 1 view .LVU9
  56              		.loc 1 483 37 is_stmt 0 view .LVU10
  57 001c 003000E3 		movw	r3, #:lower16:.LC0
  58 0020 003040E3 		movt	r3, #:upper16:.LC0
  59 0024 083081E5 		str	r3, [r1, #8]
 484:../generate/sc_drivers/r_dmac/src/hld/r_dmac_drv_api.c **** 
 485:../generate/sc_drivers/r_dmac/src/hld/r_dmac_drv_api.c ****     /* Obtain version information from Low layer Driver */
 486:../generate/sc_drivers/r_dmac/src/hld/r_dmac_drv_api.c ****     R_DMAC_GetVersion( &p_ver_info->lld);
  60              		.loc 1 486 5 is_stmt 1 view .LVU11
  61 0028 0C0081E2 		add	r0, r1, #12
  62              	.LVL1:
  63              		.loc 1 486 5 is_stmt 0 view .LVU12
  64 002c FEFFFFEB 		bl	R_DMAC_GetVersion
  65              	.LVL2:
 487:../generate/sc_drivers/r_dmac/src/hld/r_dmac_drv_api.c **** 
 488:../generate/sc_drivers/r_dmac/src/hld/r_dmac_drv_api.c ****     return (DRV_SUCCESS);
  66              		.loc 1 488 5 is_stmt 1 view .LVU13
 489:../generate/sc_drivers/r_dmac/src/hld/r_dmac_drv_api.c **** }
  67              		.loc 1 489 1 is_stmt 0 view .LVU14
  68 0030 0400A0E1 		mov	r0, r4
  69 0034 1080BDE8 		pop	{r4, pc}
  70              		.cfi_endproc
  71              	.LFE10:
  73              		.section	.text.dmac_get_channel,"ax",%progbits
  74              		.align	2
  75              		.syntax unified
  76              		.arm
  77              		.fpu neon
  79              	dmac_get_channel:
  80              	.LVL3:
  81              	.LFB7:
 205:../generate/sc_drivers/r_dmac/src/hld/r_dmac_drv_api.c ****     int_t ret_value = DRV_ERROR;
  82              		.loc 1 205 1 is_stmt 1 view -0
  83              		.cfi_startproc
  84              		@ args = 0, pretend = 0, frame = 0
  85              		@ frame_needed = 0, uses_anonymous_args = 0
 206:../generate/sc_drivers/r_dmac/src/hld/r_dmac_drv_api.c ****     int_t channel_id;
  86              		.loc 1 206 5 view .LVU16
 207:../generate/sc_drivers/r_dmac/src/hld/r_dmac_drv_api.c **** 
  87              		.loc 1 207 5 view .LVU17
 210:../generate/sc_drivers/r_dmac/src/hld/r_dmac_drv_api.c ****     {
  88              		.loc 1 210 5 view .LVU18
 210:../generate/sc_drivers/r_dmac/src/hld/r_dmac_drv_api.c ****     {
  89              		.loc 1 210 8 is_stmt 0 view .LVU19
  90 0000 000050E3 		cmp	r0, #0
 210:../generate/sc_drivers/r_dmac/src/hld/r_dmac_drv_api.c ****     {
  91              		.loc 1 210 8 view .LVU20
  92 0004 0F00000A 		beq	.L5
 205:../generate/sc_drivers/r_dmac/src/hld/r_dmac_drv_api.c ****     int_t ret_value = DRV_ERROR;
  93              		.loc 1 205 1 view .LVU21
  94 0008 10402DE9 		push	{r4, lr}
  95              		.cfi_def_cfa_offset 8
  96              		.cfi_offset 4, -8
  97              		.cfi_offset 14, -4
 213:../generate/sc_drivers/r_dmac/src/hld/r_dmac_drv_api.c **** 
  98              		.loc 1 213 9 is_stmt 1 view .LVU22
 213:../generate/sc_drivers/r_dmac/src/hld/r_dmac_drv_api.c **** 
  99              		.loc 1 213 22 is_stmt 0 view .LVU23
 100 000c 1C00D0E5 		ldrb	r0, [r0, #28]	@ zero_extendqisi2
 101              	.LVL4:
 213:../generate/sc_drivers/r_dmac/src/hld/r_dmac_drv_api.c **** 
 102              		.loc 1 213 22 view .LVU24
 103 0010 FEFFFFEB 		bl	R_DMAC_GetChannel
 104              	.LVL5:
 215:../generate/sc_drivers/r_dmac/src/hld/r_dmac_drv_api.c ****         {
 105              		.loc 1 215 9 is_stmt 1 view .LVU25
 215:../generate/sc_drivers/r_dmac/src/hld/r_dmac_drv_api.c ****         {
 106              		.loc 1 215 12 is_stmt 0 view .LVU26
 107 0014 010070E3 		cmn	r0, #1
 108 0018 1080BD08 		popeq	{r4, pc}
 220:../generate/sc_drivers/r_dmac/src/hld/r_dmac_drv_api.c ****             {
 109              		.loc 1 220 13 is_stmt 1 view .LVU27
 220:../generate/sc_drivers/r_dmac/src/hld/r_dmac_drv_api.c ****             {
 110              		.loc 1 220 21 is_stmt 0 view .LVU28
 111 001c 0130A0E3 		mov	r3, #1
 112 0020 1330A0E1 		lsl	r3, r3, r0
 220:../generate/sc_drivers/r_dmac/src/hld/r_dmac_drv_api.c ****             {
 113              		.loc 1 220 16 view .LVU29
 114 0024 020953E3 		cmp	r3, #32768
 115 0028 080000CA 		bgt	.L6
 116              	.LBB2:
 223:../generate/sc_drivers/r_dmac/src/hld/r_dmac_drv_api.c **** 
 117              		.loc 1 223 17 is_stmt 1 view .LVU30
 223:../generate/sc_drivers/r_dmac/src/hld/r_dmac_drv_api.c **** 
 118              		.loc 1 223 24 is_stmt 0 view .LVU31
 119 002c 0130A0E3 		mov	r3, #1
 120 0030 1330A0E1 		lsl	r3, r3, r0
 121              	.LVL6:
 226:../generate/sc_drivers/r_dmac/src/hld/r_dmac_drv_api.c **** 
 122              		.loc 1 226 17 is_stmt 1 view .LVU32
 228:../generate/sc_drivers/r_dmac/src/hld/r_dmac_drv_api.c ****                 {
 123              		.loc 1 228 17 view .LVU33
 228:../generate/sc_drivers/r_dmac/src/hld/r_dmac_drv_api.c ****                 {
 124              		.loc 1 228 45 is_stmt 0 view .LVU34
 125 0034 7330FFE6 		uxth	r3, r3
 126              	.LVL7:
 228:../generate/sc_drivers/r_dmac/src/hld/r_dmac_drv_api.c ****                 {
 127              		.loc 1 228 20 view .LVU35
 128 0038 000053E3 		cmp	r3, #0
 129 003c 1080BD18 		popne	{r4, pc}
 236:../generate/sc_drivers/r_dmac/src/hld/r_dmac_drv_api.c ****                 }
 130              		.loc 1 236 31 view .LVU36
 131 0040 0000E0E3 		mvn	r0, #0
 132              	.LVL8:
 236:../generate/sc_drivers/r_dmac/src/hld/r_dmac_drv_api.c ****                 }
 133              		.loc 1 236 31 view .LVU37
 134              	.LBE2:
 243:../generate/sc_drivers/r_dmac/src/hld/r_dmac_drv_api.c **** }
 135              		.loc 1 243 5 is_stmt 1 view .LVU38
 244:../generate/sc_drivers/r_dmac/src/hld/r_dmac_drv_api.c **** /******************************************************************************
 136              		.loc 1 244 1 is_stmt 0 view .LVU39
 137 0044 1080BDE8 		pop	{r4, pc}
 138              	.LVL9:
 139              	.L5:
 140              		.cfi_def_cfa_offset 0
 141              		.cfi_restore 4
 142              		.cfi_restore 14
 206:../generate/sc_drivers/r_dmac/src/hld/r_dmac_drv_api.c ****     int_t channel_id;
 143              		.loc 1 206 11 view .LVU40
 144 0048 0000E0E3 		mvn	r0, #0
 145              	.LVL10:
 244:../generate/sc_drivers/r_dmac/src/hld/r_dmac_drv_api.c **** /******************************************************************************
 146              		.loc 1 244 1 view .LVU41
 147 004c 1EFF2FE1 		bx	lr
 148              	.LVL11:
 149              	.L6:
 150              		.cfi_def_cfa_offset 8
 151              		.cfi_offset 4, -8
 152              		.cfi_offset 14, -4
 206:../generate/sc_drivers/r_dmac/src/hld/r_dmac_drv_api.c ****     int_t channel_id;
 153              		.loc 1 206 11 view .LVU42
 154 0050 0000E0E3 		mvn	r0, #0
 155              	.LVL12:
 206:../generate/sc_drivers/r_dmac/src/hld/r_dmac_drv_api.c ****     int_t channel_id;
 156              		.loc 1 206 11 view .LVU43
 157 0054 1080BDE8 		pop	{r4, pc}
 158              		.cfi_endproc
 159              	.LFE7:
 161              		.section	.text.dmac_hld_control,"ax",%progbits
 162              		.align	2
 163              		.syntax unified
 164              		.arm
 165              		.fpu neon
 167              	dmac_hld_control:
 168              	.LVL13:
 169              	.LFB9:
 292:../generate/sc_drivers/r_dmac/src/hld/r_dmac_drv_api.c ****     int_t ret_value = DRV_ERROR;
 170              		.loc 1 292 1 is_stmt 1 view -0
 171              		.cfi_startproc
 172              		@ args = 0, pretend = 0, frame = 0
 173              		@ frame_needed = 0, uses_anonymous_args = 0
 292:../generate/sc_drivers/r_dmac/src/hld/r_dmac_drv_api.c ****     int_t ret_value = DRV_ERROR;
 174              		.loc 1 292 1 is_stmt 0 view .LVU45
 175 0000 70402DE9 		push	{r4, r5, r6, lr}
 176              		.cfi_def_cfa_offset 16
 177              		.cfi_offset 4, -16
 178              		.cfi_offset 5, -12
 179              		.cfi_offset 6, -8
 180              		.cfi_offset 14, -4
 181 0004 0140A0E1 		mov	r4, r1
 182 0008 0250A0E1 		mov	r5, r2
 293:../generate/sc_drivers/r_dmac/src/hld/r_dmac_drv_api.c ****     e_r_drv_dmac_err_t dmac_err;
 183              		.loc 1 293 5 is_stmt 1 view .LVU46
 184              	.LVL14:
 294:../generate/sc_drivers/r_dmac/src/hld/r_dmac_drv_api.c ****     st_r_drv_dmac_config_t *p_configuration;
 185              		.loc 1 294 5 view .LVU47
 295:../generate/sc_drivers/r_dmac/src/hld/r_dmac_drv_api.c ****     st_r_drv_dmac_next_transfer_t *p_next_transfer;
 186              		.loc 1 295 5 view .LVU48
 296:../generate/sc_drivers/r_dmac/src/hld/r_dmac_drv_api.c ****     int_t channel;
 187              		.loc 1 296 5 view .LVU49
 297:../generate/sc_drivers/r_dmac/src/hld/r_dmac_drv_api.c ****     uint_t sc_config_index;
 188              		.loc 1 297 5 view .LVU50
 298:../generate/sc_drivers/r_dmac/src/hld/r_dmac_drv_api.c **** 
 189              		.loc 1 298 5 view .LVU51
 300:../generate/sc_drivers/r_dmac/src/hld/r_dmac_drv_api.c **** 
 190              		.loc 1 300 5 view .LVU52
 300:../generate/sc_drivers/r_dmac/src/hld/r_dmac_drv_api.c **** 
 191              		.loc 1 300 31 is_stmt 0 view .LVU53
 192 000c 1C60D0E5 		ldrb	r6, [r0, #28]	@ zero_extendqisi2
 193              	.LVL15:
 303:../generate/sc_drivers/r_dmac/src/hld/r_dmac_drv_api.c **** 
 194              		.loc 1 303 5 is_stmt 1 view .LVU54
 303:../generate/sc_drivers/r_dmac/src/hld/r_dmac_drv_api.c **** 
 195              		.loc 1 303 15 is_stmt 0 view .LVU55
 196 0010 FEFFFFEB 		bl	dmac_get_channel
 197              	.LVL16:
 305:../generate/sc_drivers/r_dmac/src/hld/r_dmac_drv_api.c ****     {
 198              		.loc 1 305 5 is_stmt 1 view .LVU56
 305:../generate/sc_drivers/r_dmac/src/hld/r_dmac_drv_api.c ****     {
 199              		.loc 1 305 8 is_stmt 0 view .LVU57
 200 0014 000050E3 		cmp	r0, #0
 305:../generate/sc_drivers/r_dmac/src/hld/r_dmac_drv_api.c ****     {
 201              		.loc 1 305 8 view .LVU58
 202 0018 5A0000BA 		blt	.L22
 311:../generate/sc_drivers/r_dmac/src/hld/r_dmac_drv_api.c ****     {
 203              		.loc 1 311 5 is_stmt 1 view .LVU59
 311:../generate/sc_drivers/r_dmac/src/hld/r_dmac_drv_api.c ****     {
 204              		.loc 1 311 62 is_stmt 0 view .LVU60
 205 001c 003000E3 		movw	r3, #:lower16:.LANCHOR0
 206 0020 003040E3 		movt	r3, #:upper16:.LANCHOR0
 207 0024 003183E0 		add	r3, r3, r0, lsl #2
 208 0028 043093E5 		ldr	r3, [r3, #4]
 311:../generate/sc_drivers/r_dmac/src/hld/r_dmac_drv_api.c ****     {
 209              		.loc 1 311 8 view .LVU61
 210 002c 000053E3 		cmp	r3, #0
 211 0030 5600000A 		beq	.L23
 316:../generate/sc_drivers/r_dmac/src/hld/r_dmac_drv_api.c ****     {
 212              		.loc 1 316 5 is_stmt 1 view .LVU62
 213 0034 3B1844E2 		sub	r1, r4, #3866624
 214 0038 060051E3 		cmp	r1, #6
 215 003c 01F19F97 		ldrls	pc, [pc, r1, asl #2]
 216 0040 540000EA 		b	.L24
 217              	.L15:
 218 0044 60000000 		.word	.L21
 219 0048 78000000 		.word	.L20
 220 004c BC000000 		.word	.L19
 221 0050 FC000000 		.word	.L18
 222 0054 14010000 		.word	.L17
 223 0058 38010000 		.word	.L16
 224 005c 64010000 		.word	.L14
 225              	.L21:
 321:../generate/sc_drivers/r_dmac/src/hld/r_dmac_drv_api.c ****             {
 226              		.loc 1 321 13 view .LVU63
 321:../generate/sc_drivers/r_dmac/src/hld/r_dmac_drv_api.c ****             {
 227              		.loc 1 321 17 is_stmt 0 view .LVU64
 228 0060 0600A0E1 		mov	r0, r6
 229              	.LVL17:
 321:../generate/sc_drivers/r_dmac/src/hld/r_dmac_drv_api.c ****             {
 230              		.loc 1 321 17 view .LVU65
 231 0064 FEFFFFEB 		bl	R_DMAC_SoftwareTrigger
 232              	.LVL18:
 321:../generate/sc_drivers/r_dmac/src/hld/r_dmac_drv_api.c ****             {
 233              		.loc 1 321 16 view .LVU66
 234 0068 000050E3 		cmp	r0, #0
 235 006c 7080BD08 		popeq	{r4, r5, r6, pc}
 327:../generate/sc_drivers/r_dmac/src/hld/r_dmac_drv_api.c ****             }
 236              		.loc 1 327 27 view .LVU67
 237 0070 0000E0E3 		mvn	r0, #0
 238 0074 7080BDE8 		pop	{r4, r5, r6, pc}
 239              	.LVL19:
 240              	.L20:
 334:../generate/sc_drivers/r_dmac/src/hld/r_dmac_drv_api.c ****             {
 241              		.loc 1 334 13 is_stmt 1 view .LVU68
 334:../generate/sc_drivers/r_dmac/src/hld/r_dmac_drv_api.c ****             {
 242              		.loc 1 334 16 is_stmt 0 view .LVU69
 243 0078 000055E3 		cmp	r5, #0
 244 007c 4700000A 		beq	.L26
 337:../generate/sc_drivers/r_dmac/src/hld/r_dmac_drv_api.c **** 
 245              		.loc 1 337 17 is_stmt 1 view .LVU70
 246              	.LVL20:
 339:../generate/sc_drivers/r_dmac/src/hld/r_dmac_drv_api.c ****                 R_DMAC_SetDmaErrorCallback(sc_config_index, p_configuration->config.p_dmaError);
 247              		.loc 1 339 17 view .LVU71
 248 0080 0C1095E5 		ldr	r1, [r5, #12]
 249 0084 0600A0E1 		mov	r0, r6
 250              	.LVL21:
 339:../generate/sc_drivers/r_dmac/src/hld/r_dmac_drv_api.c ****                 R_DMAC_SetDmaErrorCallback(sc_config_index, p_configuration->config.p_dmaError);
 251              		.loc 1 339 17 is_stmt 0 view .LVU72
 252 0088 FEFFFFEB 		bl	R_DMAC_SetDmaCompleteCallback
 253              	.LVL22:
 340:../generate/sc_drivers/r_dmac/src/hld/r_dmac_drv_api.c **** 
 254              		.loc 1 340 17 is_stmt 1 view .LVU73
 255 008c 101095E5 		ldr	r1, [r5, #16]
 256 0090 0600A0E1 		mov	r0, r6
 257 0094 FEFFFFEB 		bl	R_DMAC_SetDmaErrorCallback
 258              	.LVL23:
 342:../generate/sc_drivers/r_dmac/src/hld/r_dmac_drv_api.c ****                 p_configuration->err = dmac_err;
 259              		.loc 1 342 17 view .LVU74
 342:../generate/sc_drivers/r_dmac/src/hld/r_dmac_drv_api.c ****                 p_configuration->err = dmac_err;
 260              		.loc 1 342 28 is_stmt 0 view .LVU75
 261 0098 0020A0E3 		mov	r2, #0
 262 009c 0510A0E1 		mov	r1, r5
 263 00a0 0600A0E1 		mov	r0, r6
 264 00a4 FEFFFFEB 		bl	R_DMAC_ConfigureChannel
 265              	.LVL24:
 343:../generate/sc_drivers/r_dmac/src/hld/r_dmac_drv_api.c **** 
 266              		.loc 1 343 17 is_stmt 1 view .LVU76
 343:../generate/sc_drivers/r_dmac/src/hld/r_dmac_drv_api.c **** 
 267              		.loc 1 343 38 is_stmt 0 view .LVU77
 268 00a8 2000C5E5 		strb	r0, [r5, #32]
 345:../generate/sc_drivers/r_dmac/src/hld/r_dmac_drv_api.c ****                 {
 269              		.loc 1 345 17 is_stmt 1 view .LVU78
 345:../generate/sc_drivers/r_dmac/src/hld/r_dmac_drv_api.c ****                 {
 270              		.loc 1 345 20 is_stmt 0 view .LVU79
 271 00ac 000050E3 		cmp	r0, #0
 272 00b0 7080BD08 		popeq	{r4, r5, r6, pc}
 351:../generate/sc_drivers/r_dmac/src/hld/r_dmac_drv_api.c ****                 }
 273              		.loc 1 351 31 view .LVU80
 274 00b4 0000E0E3 		mvn	r0, #0
 275              	.LVL25:
 351:../generate/sc_drivers/r_dmac/src/hld/r_dmac_drv_api.c ****                 }
 276              		.loc 1 351 31 view .LVU81
 277 00b8 7080BDE8 		pop	{r4, r5, r6, pc}
 278              	.LVL26:
 279              	.L19:
 359:../generate/sc_drivers/r_dmac/src/hld/r_dmac_drv_api.c ****             {
 280              		.loc 1 359 13 is_stmt 1 view .LVU82
 359:../generate/sc_drivers/r_dmac/src/hld/r_dmac_drv_api.c ****             {
 281              		.loc 1 359 16 is_stmt 0 view .LVU83
 282 00bc 000055E3 		cmp	r5, #0
 283 00c0 3800000A 		beq	.L28
 362:../generate/sc_drivers/r_dmac/src/hld/r_dmac_drv_api.c **** 
 284              		.loc 1 362 17 is_stmt 1 view .LVU84
 285              	.LVL27:
 364:../generate/sc_drivers/r_dmac/src/hld/r_dmac_drv_api.c ****                 R_DMAC_GetDmaErrorCallback(sc_config_index, &(p_configuration->config.p_dmaError));
 286              		.loc 1 364 17 view .LVU85
 287 00c4 0C1085E2 		add	r1, r5, #12
 288 00c8 0600A0E1 		mov	r0, r6
 289              	.LVL28:
 364:../generate/sc_drivers/r_dmac/src/hld/r_dmac_drv_api.c ****                 R_DMAC_GetDmaErrorCallback(sc_config_index, &(p_configuration->config.p_dmaError));
 290              		.loc 1 364 17 is_stmt 0 view .LVU86
 291 00cc FEFFFFEB 		bl	R_DMAC_GetDmaCompleteCallback
 292              	.LVL29:
 365:../generate/sc_drivers/r_dmac/src/hld/r_dmac_drv_api.c **** 
 293              		.loc 1 365 17 is_stmt 1 view .LVU87
 294 00d0 101085E2 		add	r1, r5, #16
 295 00d4 0600A0E1 		mov	r0, r6
 296 00d8 FEFFFFEB 		bl	R_DMAC_GetDmaErrorCallback
 297              	.LVL30:
 367:../generate/sc_drivers/r_dmac/src/hld/r_dmac_drv_api.c ****                 p_configuration->err = dmac_err;
 298              		.loc 1 367 17 view .LVU88
 367:../generate/sc_drivers/r_dmac/src/hld/r_dmac_drv_api.c ****                 p_configuration->err = dmac_err;
 299              		.loc 1 367 28 is_stmt 0 view .LVU89
 300 00dc 0510A0E1 		mov	r1, r5
 301 00e0 0600A0E1 		mov	r0, r6
 302 00e4 FEFFFFEB 		bl	R_DMAC_GetChannelConfiguration
 303              	.LVL31:
 368:../generate/sc_drivers/r_dmac/src/hld/r_dmac_drv_api.c **** 
 304              		.loc 1 368 17 is_stmt 1 view .LVU90
 368:../generate/sc_drivers/r_dmac/src/hld/r_dmac_drv_api.c **** 
 305              		.loc 1 368 38 is_stmt 0 view .LVU91
 306 00e8 2000C5E5 		strb	r0, [r5, #32]
 370:../generate/sc_drivers/r_dmac/src/hld/r_dmac_drv_api.c ****                 {
 307              		.loc 1 370 17 is_stmt 1 view .LVU92
 370:../generate/sc_drivers/r_dmac/src/hld/r_dmac_drv_api.c ****                 {
 308              		.loc 1 370 20 is_stmt 0 view .LVU93
 309 00ec 000050E3 		cmp	r0, #0
 310 00f0 7080BD08 		popeq	{r4, r5, r6, pc}
 376:../generate/sc_drivers/r_dmac/src/hld/r_dmac_drv_api.c ****                 }
 311              		.loc 1 376 31 view .LVU94
 312 00f4 0000E0E3 		mvn	r0, #0
 313              	.LVL32:
 376:../generate/sc_drivers/r_dmac/src/hld/r_dmac_drv_api.c ****                 }
 314              		.loc 1 376 31 view .LVU95
 315 00f8 7080BDE8 		pop	{r4, r5, r6, pc}
 316              	.LVL33:
 317              	.L18:
 384:../generate/sc_drivers/r_dmac/src/hld/r_dmac_drv_api.c ****             {
 318              		.loc 1 384 13 is_stmt 1 view .LVU96
 384:../generate/sc_drivers/r_dmac/src/hld/r_dmac_drv_api.c ****             {
 319              		.loc 1 384 17 is_stmt 0 view .LVU97
 320 00fc 0600A0E1 		mov	r0, r6
 321              	.LVL34:
 384:../generate/sc_drivers/r_dmac/src/hld/r_dmac_drv_api.c ****             {
 322              		.loc 1 384 17 view .LVU98
 323 0100 FEFFFFEB 		bl	r_dmac_hld_prv_dma_enable
 324              	.LVL35:
 384:../generate/sc_drivers/r_dmac/src/hld/r_dmac_drv_api.c ****             {
 325              		.loc 1 384 16 view .LVU99
 326 0104 000050E3 		cmp	r0, #0
 327 0108 7080BD08 		popeq	{r4, r5, r6, pc}
 390:../generate/sc_drivers/r_dmac/src/hld/r_dmac_drv_api.c ****             }
 328              		.loc 1 390 27 view .LVU100
 329 010c 0000E0E3 		mvn	r0, #0
 330 0110 7080BDE8 		pop	{r4, r5, r6, pc}
 331              	.LVL36:
 332              	.L17:
 397:../generate/sc_drivers/r_dmac/src/hld/r_dmac_drv_api.c ****             {
 333              		.loc 1 397 13 is_stmt 1 view .LVU101
 397:../generate/sc_drivers/r_dmac/src/hld/r_dmac_drv_api.c ****             {
 334              		.loc 1 397 16 is_stmt 0 view .LVU102
 335 0114 000055E3 		cmp	r5, #0
 336 0118 2400000A 		beq	.L31
 399:../generate/sc_drivers/r_dmac/src/hld/r_dmac_drv_api.c ****                 {
 337              		.loc 1 399 17 is_stmt 1 view .LVU103
 399:../generate/sc_drivers/r_dmac/src/hld/r_dmac_drv_api.c ****                 {
 338              		.loc 1 399 21 is_stmt 0 view .LVU104
 339 011c 0510A0E1 		mov	r1, r5
 340 0120 0600A0E1 		mov	r0, r6
 341              	.LVL37:
 399:../generate/sc_drivers/r_dmac/src/hld/r_dmac_drv_api.c ****                 {
 342              		.loc 1 399 21 view .LVU105
 343 0124 FEFFFFEB 		bl	r_dmac_hld_prv_dma_disable
 344              	.LVL38:
 399:../generate/sc_drivers/r_dmac/src/hld/r_dmac_drv_api.c ****                 {
 345              		.loc 1 399 20 view .LVU106
 346 0128 000050E3 		cmp	r0, #0
 347 012c 7080BD08 		popeq	{r4, r5, r6, pc}
 405:../generate/sc_drivers/r_dmac/src/hld/r_dmac_drv_api.c ****                 }
 348              		.loc 1 405 31 view .LVU107
 349 0130 0000E0E3 		mvn	r0, #0
 350 0134 7080BDE8 		pop	{r4, r5, r6, pc}
 351              	.LVL39:
 352              	.L16:
 413:../generate/sc_drivers/r_dmac/src/hld/r_dmac_drv_api.c ****             {
 353              		.loc 1 413 13 is_stmt 1 view .LVU108
 413:../generate/sc_drivers/r_dmac/src/hld/r_dmac_drv_api.c ****             {
 354              		.loc 1 413 16 is_stmt 0 view .LVU109
 355 0138 000055E3 		cmp	r5, #0
 356 013c 1D00000A 		beq	.L33
 416:../generate/sc_drivers/r_dmac/src/hld/r_dmac_drv_api.c **** 
 357              		.loc 1 416 17 is_stmt 1 view .LVU110
 358              	.LVL40:
 418:../generate/sc_drivers/r_dmac/src/hld/r_dmac_drv_api.c ****                         p_next_transfer->destination_address, p_next_transfer->count);
 359              		.loc 1 418 17 view .LVU111
 418:../generate/sc_drivers/r_dmac/src/hld/r_dmac_drv_api.c ****                         p_next_transfer->destination_address, p_next_transfer->count);
 360              		.loc 1 418 28 is_stmt 0 view .LVU112
 361 0140 083095E5 		ldr	r3, [r5, #8]
 362 0144 042095E5 		ldr	r2, [r5, #4]
 363 0148 001095E5 		ldr	r1, [r5]
 364 014c 0600A0E1 		mov	r0, r6
 365              	.LVL41:
 418:../generate/sc_drivers/r_dmac/src/hld/r_dmac_drv_api.c ****                         p_next_transfer->destination_address, p_next_transfer->count);
 366              		.loc 1 418 28 view .LVU113
 367 0150 FEFFFFEB 		bl	R_DMAC_SetNextTransfer
 368              	.LVL42:
 421:../generate/sc_drivers/r_dmac/src/hld/r_dmac_drv_api.c ****                 {
 369              		.loc 1 421 17 is_stmt 1 view .LVU114
 421:../generate/sc_drivers/r_dmac/src/hld/r_dmac_drv_api.c ****                 {
 370              		.loc 1 421 20 is_stmt 0 view .LVU115
 371 0154 000050E3 		cmp	r0, #0
 372 0158 7080BD08 		popeq	{r4, r5, r6, pc}
 427:../generate/sc_drivers/r_dmac/src/hld/r_dmac_drv_api.c ****                 }
 373              		.loc 1 427 31 view .LVU116
 374 015c 0000E0E3 		mvn	r0, #0
 375              	.LVL43:
 427:../generate/sc_drivers/r_dmac/src/hld/r_dmac_drv_api.c ****                 }
 376              		.loc 1 427 31 view .LVU117
 377 0160 7080BDE8 		pop	{r4, r5, r6, pc}
 378              	.LVL44:
 379              	.L14:
 435:../generate/sc_drivers/r_dmac/src/hld/r_dmac_drv_api.c ****             {
 380              		.loc 1 435 13 is_stmt 1 view .LVU118
 435:../generate/sc_drivers/r_dmac/src/hld/r_dmac_drv_api.c ****             {
 381              		.loc 1 435 16 is_stmt 0 view .LVU119
 382 0164 000055E3 		cmp	r5, #0
 383 0168 1400000A 		beq	.L35
 384              	.LBB3:
 438:../generate/sc_drivers/r_dmac/src/hld/r_dmac_drv_api.c **** 
 385              		.loc 1 438 17 is_stmt 1 view .LVU120
 386              	.LVL45:
 440:../generate/sc_drivers/r_dmac/src/hld/r_dmac_drv_api.c **** 
 387              		.loc 1 440 17 view .LVU121
 440:../generate/sc_drivers/r_dmac/src/hld/r_dmac_drv_api.c **** 
 388              		.loc 1 440 28 is_stmt 0 view .LVU122
 389 016c 0510A0E1 		mov	r1, r5
 390 0170 0600A0E1 		mov	r0, r6
 391              	.LVL46:
 440:../generate/sc_drivers/r_dmac/src/hld/r_dmac_drv_api.c **** 
 392              		.loc 1 440 28 view .LVU123
 393 0174 FEFFFFEB 		bl	R_DMAC_GetCrtbRegisterValue
 394              	.LVL47:
 442:../generate/sc_drivers/r_dmac/src/hld/r_dmac_drv_api.c ****                 {
 395              		.loc 1 442 17 is_stmt 1 view .LVU124
 442:../generate/sc_drivers/r_dmac/src/hld/r_dmac_drv_api.c ****                 {
 396              		.loc 1 442 20 is_stmt 0 view .LVU125
 397 0178 000050E3 		cmp	r0, #0
 398 017c 7080BD08 		popeq	{r4, r5, r6, pc}
 448:../generate/sc_drivers/r_dmac/src/hld/r_dmac_drv_api.c ****                 }
 399              		.loc 1 448 31 view .LVU126
 400 0180 0000E0E3 		mvn	r0, #0
 401              	.LVL48:
 448:../generate/sc_drivers/r_dmac/src/hld/r_dmac_drv_api.c ****                 }
 402              		.loc 1 448 31 view .LVU127
 403              	.LBE3:
 462:../generate/sc_drivers/r_dmac/src/hld/r_dmac_drv_api.c **** /**************************************************************************************************
 404              		.loc 1 462 1 view .LVU128
 405 0184 7080BDE8 		pop	{r4, r5, r6, pc}
 406              	.LVL49:
 407              	.L22:
 307:../generate/sc_drivers/r_dmac/src/hld/r_dmac_drv_api.c ****     }
 408              		.loc 1 307 16 view .LVU129
 409 0188 0000E0E3 		mvn	r0, #0
 410              	.LVL50:
 307:../generate/sc_drivers/r_dmac/src/hld/r_dmac_drv_api.c ****     }
 411              		.loc 1 307 16 view .LVU130
 412 018c 7080BDE8 		pop	{r4, r5, r6, pc}
 413              	.LVL51:
 414              	.L23:
 313:../generate/sc_drivers/r_dmac/src/hld/r_dmac_drv_api.c ****     }
 415              		.loc 1 313 16 view .LVU131
 416 0190 0000E0E3 		mvn	r0, #0
 417              	.LVL52:
 313:../generate/sc_drivers/r_dmac/src/hld/r_dmac_drv_api.c ****     }
 418              		.loc 1 313 16 view .LVU132
 419 0194 7080BDE8 		pop	{r4, r5, r6, pc}
 420              	.LVL53:
 421              	.L24:
 311:../generate/sc_drivers/r_dmac/src/hld/r_dmac_drv_api.c ****     {
 422              		.loc 1 311 8 view .LVU133
 423 0198 0000E0E3 		mvn	r0, #0
 424              	.LVL54:
 311:../generate/sc_drivers/r_dmac/src/hld/r_dmac_drv_api.c ****     {
 425              		.loc 1 311 8 view .LVU134
 426 019c 7080BDE8 		pop	{r4, r5, r6, pc}
 427              	.LVL55:
 428              	.L26:
 293:../generate/sc_drivers/r_dmac/src/hld/r_dmac_drv_api.c ****     e_r_drv_dmac_err_t dmac_err;
 429              		.loc 1 293 11 view .LVU135
 430 01a0 0000E0E3 		mvn	r0, #0
 431              	.LVL56:
 293:../generate/sc_drivers/r_dmac/src/hld/r_dmac_drv_api.c ****     e_r_drv_dmac_err_t dmac_err;
 432              		.loc 1 293 11 view .LVU136
 433 01a4 7080BDE8 		pop	{r4, r5, r6, pc}
 434              	.LVL57:
 435              	.L28:
 293:../generate/sc_drivers/r_dmac/src/hld/r_dmac_drv_api.c ****     e_r_drv_dmac_err_t dmac_err;
 436              		.loc 1 293 11 view .LVU137
 437 01a8 0000E0E3 		mvn	r0, #0
 438              	.LVL58:
 293:../generate/sc_drivers/r_dmac/src/hld/r_dmac_drv_api.c ****     e_r_drv_dmac_err_t dmac_err;
 439              		.loc 1 293 11 view .LVU138
 440 01ac 7080BDE8 		pop	{r4, r5, r6, pc}
 441              	.LVL59:
 442              	.L31:
 293:../generate/sc_drivers/r_dmac/src/hld/r_dmac_drv_api.c ****     e_r_drv_dmac_err_t dmac_err;
 443              		.loc 1 293 11 view .LVU139
 444 01b0 0000E0E3 		mvn	r0, #0
 445              	.LVL60:
 293:../generate/sc_drivers/r_dmac/src/hld/r_dmac_drv_api.c ****     e_r_drv_dmac_err_t dmac_err;
 446              		.loc 1 293 11 view .LVU140
 447 01b4 7080BDE8 		pop	{r4, r5, r6, pc}
 448              	.LVL61:
 449              	.L33:
 293:../generate/sc_drivers/r_dmac/src/hld/r_dmac_drv_api.c ****     e_r_drv_dmac_err_t dmac_err;
 450              		.loc 1 293 11 view .LVU141
 451 01b8 0000E0E3 		mvn	r0, #0
 452              	.LVL62:
 293:../generate/sc_drivers/r_dmac/src/hld/r_dmac_drv_api.c ****     e_r_drv_dmac_err_t dmac_err;
 453              		.loc 1 293 11 view .LVU142
 454 01bc 7080BDE8 		pop	{r4, r5, r6, pc}
 455              	.LVL63:
 456              	.L35:
 293:../generate/sc_drivers/r_dmac/src/hld/r_dmac_drv_api.c ****     e_r_drv_dmac_err_t dmac_err;
 457              		.loc 1 293 11 view .LVU143
 458 01c0 0000E0E3 		mvn	r0, #0
 459              	.LVL64:
 293:../generate/sc_drivers/r_dmac/src/hld/r_dmac_drv_api.c ****     e_r_drv_dmac_err_t dmac_err;
 460              		.loc 1 293 11 view .LVU144
 461 01c4 7080BDE8 		pop	{r4, r5, r6, pc}
 462              		.cfi_endproc
 463              	.LFE9:
 465              		.section	.text.dmac_hld_close,"ax",%progbits
 466              		.align	2
 467              		.syntax unified
 468              		.arm
 469              		.fpu neon
 471              	dmac_hld_close:
 472              	.LVL65:
 473              	.LFB8:
 256:../generate/sc_drivers/r_dmac/src/hld/r_dmac_drv_api.c ****     int_t channel;
 474              		.loc 1 256 1 is_stmt 1 view -0
 475              		.cfi_startproc
 476              		@ args = 0, pretend = 0, frame = 0
 477              		@ frame_needed = 0, uses_anonymous_args = 0
 256:../generate/sc_drivers/r_dmac/src/hld/r_dmac_drv_api.c ****     int_t channel;
 478              		.loc 1 256 1 is_stmt 0 view .LVU146
 479 0000 10402DE9 		push	{r4, lr}
 480              		.cfi_def_cfa_offset 8
 481              		.cfi_offset 4, -8
 482              		.cfi_offset 14, -4
 257:../generate/sc_drivers/r_dmac/src/hld/r_dmac_drv_api.c ****     uint_t sc_config_index;
 483              		.loc 1 257 5 is_stmt 1 view .LVU147
 258:../generate/sc_drivers/r_dmac/src/hld/r_dmac_drv_api.c **** 
 484              		.loc 1 258 5 view .LVU148
 260:../generate/sc_drivers/r_dmac/src/hld/r_dmac_drv_api.c **** 
 485              		.loc 1 260 5 view .LVU149
 260:../generate/sc_drivers/r_dmac/src/hld/r_dmac_drv_api.c **** 
 486              		.loc 1 260 31 is_stmt 0 view .LVU150
 487 0004 1C40D0E5 		ldrb	r4, [r0, #28]	@ zero_extendqisi2
 488              	.LVL66:
 263:../generate/sc_drivers/r_dmac/src/hld/r_dmac_drv_api.c **** 
 489              		.loc 1 263 5 is_stmt 1 view .LVU151
 263:../generate/sc_drivers/r_dmac/src/hld/r_dmac_drv_api.c **** 
 490              		.loc 1 263 15 is_stmt 0 view .LVU152
 491 0008 FEFFFFEB 		bl	dmac_get_channel
 492              	.LVL67:
 265:../generate/sc_drivers/r_dmac/src/hld/r_dmac_drv_api.c ****     {
 493              		.loc 1 265 5 is_stmt 1 view .LVU153
 265:../generate/sc_drivers/r_dmac/src/hld/r_dmac_drv_api.c ****     {
 494              		.loc 1 265 57 is_stmt 0 view .LVU154
 495 000c 002000E3 		movw	r2, #:lower16:.LANCHOR0
 496 0010 002040E3 		movt	r2, #:upper16:.LANCHOR0
 497 0014 002182E0 		add	r2, r2, r0, lsl #2
 498 0018 043092E5 		ldr	r3, [r2, #4]
 265:../generate/sc_drivers/r_dmac/src/hld/r_dmac_drv_api.c ****     {
 499              		.loc 1 265 8 view .LVU155
 500 001c 000053E3 		cmp	r3, #0
 501 0020 0400000A 		beq	.L46
 267:../generate/sc_drivers/r_dmac/src/hld/r_dmac_drv_api.c ****     }
 502              		.loc 1 267 6 is_stmt 1 view .LVU156
 267:../generate/sc_drivers/r_dmac/src/hld/r_dmac_drv_api.c ****     }
 503              		.loc 1 267 65 is_stmt 0 view .LVU157
 504 0024 002000E3 		movw	r2, #:lower16:.LANCHOR0
 505 0028 002040E3 		movt	r2, #:upper16:.LANCHOR0
 506 002c 002182E0 		add	r2, r2, r0, lsl #2
 507 0030 013043E2 		sub	r3, r3, #1
 508 0034 043082E5 		str	r3, [r2, #4]
 509              	.L46:
 270:../generate/sc_drivers/r_dmac/src/hld/r_dmac_drv_api.c ****     {
 510              		.loc 1 270 5 is_stmt 1 view .LVU158
 270:../generate/sc_drivers/r_dmac/src/hld/r_dmac_drv_api.c ****     {
 511              		.loc 1 270 62 is_stmt 0 view .LVU159
 512 0038 003000E3 		movw	r3, #:lower16:.LANCHOR0
 513 003c 003040E3 		movt	r3, #:upper16:.LANCHOR0
 514 0040 003183E0 		add	r3, r3, r0, lsl #2
 515 0044 043093E5 		ldr	r3, [r3, #4]
 270:../generate/sc_drivers/r_dmac/src/hld/r_dmac_drv_api.c ****     {
 516              		.loc 1 270 8 view .LVU160
 517 0048 000053E3 		cmp	r3, #0
 518 004c 1080BD18 		popne	{r4, pc}
 272:../generate/sc_drivers/r_dmac/src/hld/r_dmac_drv_api.c ****     }
 519              		.loc 1 272 9 is_stmt 1 view .LVU161
 520 0050 0400A0E1 		mov	r0, r4
 521              	.LVL68:
 272:../generate/sc_drivers/r_dmac/src/hld/r_dmac_drv_api.c ****     }
 522              		.loc 1 272 9 is_stmt 0 view .LVU162
 523 0054 FEFFFFEB 		bl	R_DMAC_CloseChannel
 524              	.LVL69:
 277:../generate/sc_drivers/r_dmac/src/hld/r_dmac_drv_api.c **** /**************************************************************************************************
 525              		.loc 1 277 1 view .LVU163
 526 0058 1080BDE8 		pop	{r4, pc}
 527              		.cfi_endproc
 528              	.LFE8:
 530              		.section	.text.dmac_hld_open,"ax",%progbits
 531              		.align	2
 532              		.syntax unified
 533              		.arm
 534              		.fpu neon
 536              	dmac_hld_open:
 537              	.LVL70:
 538              	.LFB6:
 143:../generate/sc_drivers/r_dmac/src/hld/r_dmac_drv_api.c ****     int_t channel;
 539              		.loc 1 143 1 is_stmt 1 view -0
 540              		.cfi_startproc
 541              		@ args = 0, pretend = 0, frame = 0
 542              		@ frame_needed = 0, uses_anonymous_args = 0
 143:../generate/sc_drivers/r_dmac/src/hld/r_dmac_drv_api.c ****     int_t channel;
 543              		.loc 1 143 1 is_stmt 0 view .LVU165
 544 0000 70402DE9 		push	{r4, r5, r6, lr}
 545              		.cfi_def_cfa_offset 16
 546              		.cfi_offset 4, -16
 547              		.cfi_offset 5, -12
 548              		.cfi_offset 6, -8
 549              		.cfi_offset 14, -4
 550 0004 0050A0E1 		mov	r5, r0
 144:../generate/sc_drivers/r_dmac/src/hld/r_dmac_drv_api.c ****     uint_t sc_config_index;
 551              		.loc 1 144 5 is_stmt 1 view .LVU166
 145:../generate/sc_drivers/r_dmac/src/hld/r_dmac_drv_api.c **** 
 552              		.loc 1 145 5 view .LVU167
 147:../generate/sc_drivers/r_dmac/src/hld/r_dmac_drv_api.c ****     {
 553              		.loc 1 147 5 view .LVU168
 147:../generate/sc_drivers/r_dmac/src/hld/r_dmac_drv_api.c ****     {
 554              		.loc 1 147 27 is_stmt 0 view .LVU169
 555 0008 003000E3 		movw	r3, #:lower16:.LANCHOR0
 556 000c 003040E3 		movt	r3, #:upper16:.LANCHOR0
 557 0010 003093E5 		ldr	r3, [r3]
 147:../generate/sc_drivers/r_dmac/src/hld/r_dmac_drv_api.c ****     {
 558              		.loc 1 147 8 view .LVU170
 559 0014 000053E3 		cmp	r3, #0
 560 0018 1700000A 		beq	.L57
 561              	.LVL71:
 562              	.L50:
 162:../generate/sc_drivers/r_dmac/src/hld/r_dmac_drv_api.c ****     sc_config_index = p_stream->sc_config_index;
 563              		.loc 1 162 5 is_stmt 1 view .LVU171
 162:../generate/sc_drivers/r_dmac/src/hld/r_dmac_drv_api.c ****     sc_config_index = p_stream->sc_config_index;
 564              		.loc 1 162 15 is_stmt 0 view .LVU172
 565 001c 0500A0E1 		mov	r0, r5
 566 0020 FEFFFFEB 		bl	dmac_get_channel
 567              	.LVL72:
 568 0024 0040A0E1 		mov	r4, r0
 569              	.LVL73:
 163:../generate/sc_drivers/r_dmac/src/hld/r_dmac_drv_api.c **** 
 570              		.loc 1 163 5 is_stmt 1 view .LVU173
 163:../generate/sc_drivers/r_dmac/src/hld/r_dmac_drv_api.c **** 
 571              		.loc 1 163 31 is_stmt 0 view .LVU174
 572 0028 1C00D5E5 		ldrb	r0, [r5, #28]	@ zero_extendqisi2
 573              	.LVL74:
 165:../generate/sc_drivers/r_dmac/src/hld/r_dmac_drv_api.c ****     {
 574              		.loc 1 165 5 is_stmt 1 view .LVU175
 165:../generate/sc_drivers/r_dmac/src/hld/r_dmac_drv_api.c ****     {
 575              		.loc 1 165 8 is_stmt 0 view .LVU176
 576 002c 010074E3 		cmn	r4, #1
 577 0030 0F00000A 		beq	.L49
 171:../generate/sc_drivers/r_dmac/src/hld/r_dmac_drv_api.c ****     {
 578              		.loc 1 171 5 is_stmt 1 view .LVU177
 171:../generate/sc_drivers/r_dmac/src/hld/r_dmac_drv_api.c ****     {
 579              		.loc 1 171 57 is_stmt 0 view .LVU178
 580 0034 003000E3 		movw	r3, #:lower16:.LANCHOR0
 581 0038 003040E3 		movt	r3, #:upper16:.LANCHOR0
 582 003c 043183E0 		add	r3, r3, r4, lsl #2
 583 0040 043093E5 		ldr	r3, [r3, #4]
 171:../generate/sc_drivers/r_dmac/src/hld/r_dmac_drv_api.c ****     {
 584              		.loc 1 171 8 view .LVU179
 585 0044 000053E3 		cmp	r3, #0
 586 0048 1B00001A 		bne	.L54
 177:../generate/sc_drivers/r_dmac/src/hld/r_dmac_drv_api.c ****     {
 587              		.loc 1 177 5 is_stmt 1 view .LVU180
 177:../generate/sc_drivers/r_dmac/src/hld/r_dmac_drv_api.c ****     {
 588              		.loc 1 177 9 is_stmt 0 view .LVU181
 589 004c FEFFFFEB 		bl	r_dmac_hld_prv_open
 590              	.LVL75:
 177:../generate/sc_drivers/r_dmac/src/hld/r_dmac_drv_api.c ****     {
 591              		.loc 1 177 8 view .LVU182
 592 0050 010070E3 		cmn	r0, #1
 593 0054 1A00000A 		beq	.L55
 183:../generate/sc_drivers/r_dmac/src/hld/r_dmac_drv_api.c **** 
 594              		.loc 1 183 5 is_stmt 1 view .LVU183
 183:../generate/sc_drivers/r_dmac/src/hld/r_dmac_drv_api.c **** 
 595              		.loc 1 183 53 is_stmt 0 view .LVU184
 596 0058 000000E3 		movw	r0, #:lower16:.LANCHOR0
 597 005c 000040E3 		movt	r0, #:upper16:.LANCHOR0
 598 0060 040180E0 		add	r0, r0, r4, lsl #2
 599 0064 043090E5 		ldr	r3, [r0, #4]
 183:../generate/sc_drivers/r_dmac/src/hld/r_dmac_drv_api.c **** 
 600              		.loc 1 183 64 view .LVU185
 601 0068 013083E2 		add	r3, r3, #1
 602 006c 043080E5 		str	r3, [r0, #4]
 186:../generate/sc_drivers/r_dmac/src/hld/r_dmac_drv_api.c **** }
 603              		.loc 1 186 5 is_stmt 1 view .LVU186
 186:../generate/sc_drivers/r_dmac/src/hld/r_dmac_drv_api.c **** }
 604              		.loc 1 186 12 is_stmt 0 view .LVU187
 605 0070 0040A0E3 		mov	r4, #0
 606              	.LVL76:
 607              	.L49:
 187:../generate/sc_drivers/r_dmac/src/hld/r_dmac_drv_api.c **** /*******************************************************************************
 608              		.loc 1 187 1 view .LVU188
 609 0074 0400A0E1 		mov	r0, r4
 610 0078 7080BDE8 		pop	{r4, r5, r6, pc}
 611              	.LVL77:
 612              	.L57:
 150:../generate/sc_drivers/r_dmac/src/hld/r_dmac_drv_api.c **** 
 613              		.loc 1 150 9 is_stmt 1 view .LVU189
 614 007c FEFFFFEB 		bl	r_dmac_hld_prv_dma_init
 615              	.LVL78:
 153:../generate/sc_drivers/r_dmac/src/hld/r_dmac_drv_api.c ****         {
 616              		.loc 1 153 9 view .LVU190
 153:../generate/sc_drivers/r_dmac/src/hld/r_dmac_drv_api.c ****         {
 617              		.loc 1 153 22 is_stmt 0 view .LVU191
 618 0080 0020A0E3 		mov	r2, #0
 619              	.LVL79:
 620              	.L51:
 153:../generate/sc_drivers/r_dmac/src/hld/r_dmac_drv_api.c ****         {
 621              		.loc 1 153 27 is_stmt 1 discriminator 1 view .LVU192
 153:../generate/sc_drivers/r_dmac/src/hld/r_dmac_drv_api.c ****         {
 622              		.loc 1 153 9 is_stmt 0 discriminator 1 view .LVU193
 623 0084 0F0052E3 		cmp	r2, #15
 624 0088 060000CA 		bgt	.L58
 155:../generate/sc_drivers/r_dmac/src/hld/r_dmac_drv_api.c ****         }
 625              		.loc 1 155 10 is_stmt 1 discriminator 3 view .LVU194
 155:../generate/sc_drivers/r_dmac/src/hld/r_dmac_drv_api.c ****         }
 626              		.loc 1 155 70 is_stmt 0 discriminator 3 view .LVU195
 627 008c 003000E3 		movw	r3, #:lower16:.LANCHOR0
 628 0090 003040E3 		movt	r3, #:upper16:.LANCHOR0
 629 0094 023183E0 		add	r3, r3, r2, lsl #2
 630 0098 0010A0E3 		mov	r1, #0
 631 009c 041083E5 		str	r1, [r3, #4]
 153:../generate/sc_drivers/r_dmac/src/hld/r_dmac_drv_api.c ****         {
 632              		.loc 1 153 62 is_stmt 1 discriminator 3 view .LVU196
 153:../generate/sc_drivers/r_dmac/src/hld/r_dmac_drv_api.c ****         {
 633              		.loc 1 153 69 is_stmt 0 discriminator 3 view .LVU197
 634 00a0 012082E2 		add	r2, r2, #1
 635              	.LVL80:
 153:../generate/sc_drivers/r_dmac/src/hld/r_dmac_drv_api.c ****         {
 636              		.loc 1 153 69 discriminator 3 view .LVU198
 637 00a4 F6FFFFEA 		b	.L51
 638              	.L58:
 158:../generate/sc_drivers/r_dmac/src/hld/r_dmac_drv_api.c ****     }
 639              		.loc 1 158 9 is_stmt 1 view .LVU199
 158:../generate/sc_drivers/r_dmac/src/hld/r_dmac_drv_api.c ****     }
 640              		.loc 1 158 46 is_stmt 0 view .LVU200
 641 00a8 003000E3 		movw	r3, #:lower16:.LANCHOR0
 642 00ac 003040E3 		movt	r3, #:upper16:.LANCHOR0
 643 00b0 0120A0E3 		mov	r2, #1
 644              	.LVL81:
 158:../generate/sc_drivers/r_dmac/src/hld/r_dmac_drv_api.c ****     }
 645              		.loc 1 158 46 view .LVU201
 646 00b4 002083E5 		str	r2, [r3]
 647 00b8 D7FFFFEA 		b	.L50
 648              	.LVL82:
 649              	.L54:
 173:../generate/sc_drivers/r_dmac/src/hld/r_dmac_drv_api.c ****     }
 650              		.loc 1 173 16 view .LVU202
 651 00bc 0040E0E3 		mvn	r4, #0
 652              	.LVL83:
 173:../generate/sc_drivers/r_dmac/src/hld/r_dmac_drv_api.c ****     }
 653              		.loc 1 173 16 view .LVU203
 654 00c0 EBFFFFEA 		b	.L49
 655              	.LVL84:
 656              	.L55:
 179:../generate/sc_drivers/r_dmac/src/hld/r_dmac_drv_api.c ****     }
 657              		.loc 1 179 16 view .LVU204
 658 00c4 0040A0E1 		mov	r4, r0
 659              	.LVL85:
 179:../generate/sc_drivers/r_dmac/src/hld/r_dmac_drv_api.c ****     }
 660              		.loc 1 179 16 view .LVU205
 661 00c8 E9FFFFEA 		b	.L49
 662              		.cfi_endproc
 663              	.LFE6:
 665              		.global	g_dmac_driver
 666              		.section	.rodata.str1.4,"aMS",%progbits,1
 667              		.align	2
 668              	.LC1:
 669 0000 444D4143 		.ascii	"DMAC Device Driver\000"
 669      20446576 
 669      69636520 
 669      44726976 
 669      657200
 670              		.section	.bss.s_dmac_drv_config,"aw",%nobits
 671              		.align	2
 672              		.set	.LANCHOR0,. + 0
 675              	s_dmac_drv_config:
 676 0000 00000000 		.space	68
 676      00000000 
 676      00000000 
 676      00000000 
 676      00000000 
 677              		.section	.rodata.g_dmac_driver,"a"
 678              		.align	2
 681              	g_dmac_driver:
 682 0000 00000000 		.word	.LC1
 683 0004 00000000 		.word	dmac_hld_open
 684 0008 00000000 		.word	dmac_hld_close
 685 000c 00000000 		.word	no_dev_read
 686 0010 00000000 		.word	no_dev_write
 687 0014 00000000 		.word	dmac_hld_control
 688 0018 00000000 		.word	dmac_hld_get_version
 689              		.text
 690              	.Letext0:
 691              		.file 2 "c:\\program files (x86)\\gnu arm embedded toolchain\\9 2020-q2-update\\arm-none-eabi\\inc
 692              		.file 3 "c:\\program files (x86)\\gnu arm embedded toolchain\\9 2020-q2-update\\arm-none-eabi\\inc
 693              		.file 4 "c:\\program files (x86)\\gnu arm embedded toolchain\\9 2020-q2-update\\lib\\gcc\\arm-none
 694              		.file 5 "c:\\program files (x86)\\gnu arm embedded toolchain\\9 2020-q2-update\\arm-none-eabi\\inc
 695              		.file 6 "c:\\program files (x86)\\gnu arm embedded toolchain\\9 2020-q2-update\\arm-none-eabi\\inc
 696              		.file 7 "c:\\program files (x86)\\gnu arm embedded toolchain\\9 2020-q2-update\\arm-none-eabi\\inc
 697              		.file 8 "c:\\program files (x86)\\gnu arm embedded toolchain\\9 2020-q2-update\\arm-none-eabi\\inc
 698              		.file 9 "C:/Users/ryota/e2_studio/workspace/rza2m_ssif_sample_freertos_gcc/generate/system/inc/r_t
 699              		.file 10 "C:/Users/ryota/e2_studio/workspace/rza2m_ssif_sample_freertos_gcc/generate/system/inc/dr
 700              		.file 11 "C:/Users/ryota/e2_studio/workspace/rza2m_ssif_sample_freertos_gcc/generate/os_abstractio
 701              		.file 12 "c:\\program files (x86)\\gnu arm embedded toolchain\\9 2020-q2-update\\arm-none-eabi\\in
 702              		.file 13 "c:\\program files (x86)\\gnu arm embedded toolchain\\9 2020-q2-update\\arm-none-eabi\\in
 703              		.file 14 "C:\\Users\\ryota\\e2_studio\\workspace\\rza2m_ssif_sample_freertos_gcc\\generate\\sc_dri
 704              		.file 15 "C:\\Users\\ryota\\e2_studio\\workspace\\rza2m_ssif_sample_freertos_gcc\\generate\\sc_dri
 705              		.file 16 "C:/Users/ryota/e2_studio/workspace/rza2m_ssif_sample_freertos_gcc/generate/drivers/r_int
 706              		.file 17 "C:\\Users\\ryota\\e2_studio\\workspace\\rza2m_ssif_sample_freertos_gcc\\generate\\sc_dri
 707              		.file 18 "C:\\Users\\ryota\\e2_studio\\workspace\\rza2m_ssif_sample_freertos_gcc\\generate\\sc_dri
 708              		.file 19 "C:\\Users\\ryota\\e2_studio\\workspace\\rza2m_ssif_sample_freertos_gcc\\generate\\sc_dri