   1              		.cpu cortex-a9
   2              		.eabi_attribute 28, 1
   3              		.eabi_attribute 20, 1
   4              		.eabi_attribute 21, 1
   5              		.eabi_attribute 23, 3
   6              		.eabi_attribute 24, 1
   7              		.eabi_attribute 25, 1
   8              		.eabi_attribute 26, 1
   9              		.eabi_attribute 30, 1
  10              		.eabi_attribute 34, 0
  11              		.eabi_attribute 18, 4
  12              		.file	"r_dmac_hld_prv.c"
  13              		.text
  14              	.Ltext0:
  15              		.cfi_sections	.debug_frame
  16              		.section	.text.r_dmac_hld_prv_dma_init,"ax",%progbits
  17              		.align	2
  18              		.global	r_dmac_hld_prv_dma_init
  19              		.arch armv7-a
  20              		.arch_extension mp
  21              		.arch_extension sec
  22              		.syntax unified
  23              		.arm
  24              		.fpu neon
  26              	r_dmac_hld_prv_dma_init:
  27              	.LFB6:
  28              		.file 1 "../generate/sc_drivers/r_dmac/src/hld/r_dmac_hld_prv.c"
   1:../generate/sc_drivers/r_dmac/src/hld/r_dmac_hld_prv.c **** /*******************************************************************************
   2:../generate/sc_drivers/r_dmac/src/hld/r_dmac_hld_prv.c ****  * DISCLAIMER
   3:../generate/sc_drivers/r_dmac/src/hld/r_dmac_hld_prv.c ****  * This software is supplied by Renesas Electronics Corporation and is only
   4:../generate/sc_drivers/r_dmac/src/hld/r_dmac_hld_prv.c ****  * intended for use with Renesas products. No other uses are authorized. This
   5:../generate/sc_drivers/r_dmac/src/hld/r_dmac_hld_prv.c ****  * software is owned by Renesas Electronics Corporation and is protected under
   6:../generate/sc_drivers/r_dmac/src/hld/r_dmac_hld_prv.c ****  * all applicable laws, including copyright laws.
   7:../generate/sc_drivers/r_dmac/src/hld/r_dmac_hld_prv.c ****  * THIS SOFTWARE IS PROVIDED "AS IS" AND RENESAS MAKES NO WARRANTIES REGARDING
   8:../generate/sc_drivers/r_dmac/src/hld/r_dmac_hld_prv.c ****  * THIS SOFTWARE, WHETHER EXPRESS, IMPLIED OR STATUTORY, INCLUDING BUT NOT
   9:../generate/sc_drivers/r_dmac/src/hld/r_dmac_hld_prv.c ****  * LIMITED TO WARRANTIES OF MERCHANTABILITY, FITNESS FOR A PARTICULAR PURPOSE
  10:../generate/sc_drivers/r_dmac/src/hld/r_dmac_hld_prv.c ****  * AND NON-INFRINGEMENT. ALL SUCH WARRANTIES ARE EXPRESSLY DISCLAIMED.
  11:../generate/sc_drivers/r_dmac/src/hld/r_dmac_hld_prv.c ****  * TO THE MAXIMUM EXTENT PERMITTED NOT PROHIBITED BY LAW, NEITHER RENESAS
  12:../generate/sc_drivers/r_dmac/src/hld/r_dmac_hld_prv.c ****  * ELECTRONICS CORPORATION NOR ANY OF ITS AFFILIATED COMPANIES SHALL BE LIABLE
  13:../generate/sc_drivers/r_dmac/src/hld/r_dmac_hld_prv.c ****  * FOR ANY DIRECT, INDIRECT, SPECIAL, INCIDENTAL OR CONSEQUENTIAL DAMAGES FOR
  14:../generate/sc_drivers/r_dmac/src/hld/r_dmac_hld_prv.c ****  * ANY REASON RELATED TO THIS SOFTWARE, EVEN IF RENESAS OR ITS AFFILIATES HAVE
  15:../generate/sc_drivers/r_dmac/src/hld/r_dmac_hld_prv.c ****  * BEEN ADVISED OF THE POSSIBILITY OF SUCH DAMAGES.
  16:../generate/sc_drivers/r_dmac/src/hld/r_dmac_hld_prv.c ****  * Renesas reserves the right, without notice, to make changes to this software
  17:../generate/sc_drivers/r_dmac/src/hld/r_dmac_hld_prv.c ****  * and to discontinue the availability of this software. By using this software,
  18:../generate/sc_drivers/r_dmac/src/hld/r_dmac_hld_prv.c ****  * you agree to the additional terms and conditions found by accessing the
  19:../generate/sc_drivers/r_dmac/src/hld/r_dmac_hld_prv.c ****  * following link:
  20:../generate/sc_drivers/r_dmac/src/hld/r_dmac_hld_prv.c ****  * http://www.renesas.com/disclaimer
  21:../generate/sc_drivers/r_dmac/src/hld/r_dmac_hld_prv.c ****  * Copyright (C) 2018 Renesas Electronics Corporation. All rights reserved.
  22:../generate/sc_drivers/r_dmac/src/hld/r_dmac_hld_prv.c ****  ******************************************************************************/
  23:../generate/sc_drivers/r_dmac/src/hld/r_dmac_hld_prv.c **** /*******************************************************************************
  24:../generate/sc_drivers/r_dmac/src/hld/r_dmac_hld_prv.c ****  * @file         r_dmac_hld_prv.c
  25:../generate/sc_drivers/r_dmac/src/hld/r_dmac_hld_prv.c ****  * @version      1.0
  26:../generate/sc_drivers/r_dmac/src/hld/r_dmac_hld_prv.c ****  * @description  DMAC high layer device driver private functions
  27:../generate/sc_drivers/r_dmac/src/hld/r_dmac_hld_prv.c ****  ******************************************************************************
  28:../generate/sc_drivers/r_dmac/src/hld/r_dmac_hld_prv.c ****  * History      : DD.MM.YYYY Version Description
  29:../generate/sc_drivers/r_dmac/src/hld/r_dmac_hld_prv.c ****  *              : 03.09.2018 1.00    First Release
  30:../generate/sc_drivers/r_dmac/src/hld/r_dmac_hld_prv.c ****  ******************************************************************************/
  31:../generate/sc_drivers/r_dmac/src/hld/r_dmac_hld_prv.c **** 
  32:../generate/sc_drivers/r_dmac/src/hld/r_dmac_hld_prv.c **** /******************************************************************************
  33:../generate/sc_drivers/r_dmac/src/hld/r_dmac_hld_prv.c ****  Includes   <System Includes> , "Project Includes"
  34:../generate/sc_drivers/r_dmac/src/hld/r_dmac_hld_prv.c ****  ******************************************************************************/
  35:../generate/sc_drivers/r_dmac/src/hld/r_dmac_hld_prv.c **** 
  36:../generate/sc_drivers/r_dmac/src/hld/r_dmac_hld_prv.c **** #include "r_dmac_drv_api.h"
  37:../generate/sc_drivers/r_dmac/src/hld/r_dmac_hld_prv.c **** #include "r_dmac_drv_link.h"    /* Link include to low layer driver */
  38:../generate/sc_drivers/r_dmac/src/hld/r_dmac_hld_prv.c **** 
  39:../generate/sc_drivers/r_dmac/src/hld/r_dmac_hld_prv.c **** #include "r_dmac_hld_prv.h"
  40:../generate/sc_drivers/r_dmac/src/hld/r_dmac_hld_prv.c **** 
  41:../generate/sc_drivers/r_dmac/src/hld/r_dmac_hld_prv.c **** /*****************************************************************************
  42:../generate/sc_drivers/r_dmac/src/hld/r_dmac_hld_prv.c ****  Constant Data
  43:../generate/sc_drivers/r_dmac/src/hld/r_dmac_hld_prv.c ****  ******************************************************************************/
  44:../generate/sc_drivers/r_dmac/src/hld/r_dmac_hld_prv.c **** 
  45:../generate/sc_drivers/r_dmac/src/hld/r_dmac_hld_prv.c **** /******************************************************************************
  46:../generate/sc_drivers/r_dmac/src/hld/r_dmac_hld_prv.c ****  External global variables
  47:../generate/sc_drivers/r_dmac/src/hld/r_dmac_hld_prv.c ****  ******************************************************************************/
  48:../generate/sc_drivers/r_dmac/src/hld/r_dmac_hld_prv.c **** 
  49:../generate/sc_drivers/r_dmac/src/hld/r_dmac_hld_prv.c **** /**
  50:../generate/sc_drivers/r_dmac/src/hld/r_dmac_hld_prv.c ****  *                 r_dmac_hld_prv_dma_init
  51:../generate/sc_drivers/r_dmac/src/hld/r_dmac_hld_prv.c ****  * @brief          Initialise the DMAC driver
  52:../generate/sc_drivers/r_dmac/src/hld/r_dmac_hld_prv.c ****  * @retval         None
  53:../generate/sc_drivers/r_dmac/src/hld/r_dmac_hld_prv.c ****  */
  54:../generate/sc_drivers/r_dmac/src/hld/r_dmac_hld_prv.c **** void r_dmac_hld_prv_dma_init (void)
  55:../generate/sc_drivers/r_dmac/src/hld/r_dmac_hld_prv.c **** {
  29              		.loc 1 55 1 view -0
  30              		.cfi_startproc
  31              		@ args = 0, pretend = 0, frame = 0
  32              		@ frame_needed = 0, uses_anonymous_args = 0
  33 0000 10402DE9 		push	{r4, lr}
  34              		.cfi_def_cfa_offset 8
  35              		.cfi_offset 4, -8
  36              		.cfi_offset 14, -4
  56:../generate/sc_drivers/r_dmac/src/hld/r_dmac_hld_prv.c ****     /* initialise data used by the Low Layer Driver */
  57:../generate/sc_drivers/r_dmac/src/hld/r_dmac_hld_prv.c ****     R_DMAC_InitialiseData();
  37              		.loc 1 57 5 view .LVU1
  38 0004 FEFFFFEB 		bl	R_DMAC_InitialiseData
  39              	.LVL0:
  58:../generate/sc_drivers/r_dmac/src/hld/r_dmac_hld_prv.c **** 
  59:../generate/sc_drivers/r_dmac/src/hld/r_dmac_hld_prv.c ****     /* initialise the hardware */
  60:../generate/sc_drivers/r_dmac/src/hld/r_dmac_hld_prv.c ****     R_DMAC_HWInitialise();
  40              		.loc 1 60 5 view .LVU2
  41 0008 FEFFFFEB 		bl	R_DMAC_HWInitialise
  42              	.LVL1:
  61:../generate/sc_drivers/r_dmac/src/hld/r_dmac_hld_prv.c **** 
  62:../generate/sc_drivers/r_dmac/src/hld/r_dmac_hld_prv.c ****     /* initialise interrupts */
  63:../generate/sc_drivers/r_dmac/src/hld/r_dmac_hld_prv.c ****     R_DMAC_InitialiseInterrupts();
  43              		.loc 1 63 5 view .LVU3
  44 000c FEFFFFEB 		bl	R_DMAC_InitialiseInterrupts
  45              	.LVL2:
  64:../generate/sc_drivers/r_dmac/src/hld/r_dmac_hld_prv.c **** }
  46              		.loc 1 64 1 is_stmt 0 view .LVU4
  47 0010 1080BDE8 		pop	{r4, pc}
  48              		.cfi_endproc
  49              	.LFE6:
  51              		.section	.text.r_dmac_hld_prv_dma_uninit,"ax",%progbits
  52              		.align	2
  53              		.global	r_dmac_hld_prv_dma_uninit
  54              		.syntax unified
  55              		.arm
  56              		.fpu neon
  58              	r_dmac_hld_prv_dma_uninit:
  59              	.LFB7:
  65:../generate/sc_drivers/r_dmac/src/hld/r_dmac_hld_prv.c **** /**************************************************************************************************
  66:../generate/sc_drivers/r_dmac/src/hld/r_dmac_hld_prv.c ****  End of function r_dmac_hld_prv_dma_init
  67:../generate/sc_drivers/r_dmac/src/hld/r_dmac_hld_prv.c ****  **************************************************************************************************
  68:../generate/sc_drivers/r_dmac/src/hld/r_dmac_hld_prv.c **** 
  69:../generate/sc_drivers/r_dmac/src/hld/r_dmac_hld_prv.c **** /**
  70:../generate/sc_drivers/r_dmac/src/hld/r_dmac_hld_prv.c ****  *                 r_dmac_hld_prv_dma_uninit
  71:../generate/sc_drivers/r_dmac/src/hld/r_dmac_hld_prv.c ****  * @brief          Uninitialise the DMAC driver
  72:../generate/sc_drivers/r_dmac/src/hld/r_dmac_hld_prv.c ****  * @retval         None
  73:../generate/sc_drivers/r_dmac/src/hld/r_dmac_hld_prv.c ****  */
  74:../generate/sc_drivers/r_dmac/src/hld/r_dmac_hld_prv.c **** void r_dmac_hld_prv_dma_uninit (void)
  75:../generate/sc_drivers/r_dmac/src/hld/r_dmac_hld_prv.c **** {
  60              		.loc 1 75 1 is_stmt 1 view -0
  61              		.cfi_startproc
  62              		@ args = 0, pretend = 0, frame = 0
  63              		@ frame_needed = 0, uses_anonymous_args = 0
  64 0000 10402DE9 		push	{r4, lr}
  65              		.cfi_def_cfa_offset 8
  66              		.cfi_offset 4, -8
  67              		.cfi_offset 14, -4
  76:../generate/sc_drivers/r_dmac/src/hld/r_dmac_hld_prv.c ****     R_DMAC_UnInitialiseInterrupts();
  68              		.loc 1 76 5 view .LVU6
  69 0004 FEFFFFEB 		bl	R_DMAC_UnInitialiseInterrupts
  70              	.LVL3:
  77:../generate/sc_drivers/r_dmac/src/hld/r_dmac_hld_prv.c **** 
  78:../generate/sc_drivers/r_dmac/src/hld/r_dmac_hld_prv.c ****     R_DMAC_HWUninitialise();
  71              		.loc 1 78 5 view .LVU7
  72 0008 FEFFFFEB 		bl	R_DMAC_HWUninitialise
  73              	.LVL4:
  79:../generate/sc_drivers/r_dmac/src/hld/r_dmac_hld_prv.c **** }
  74              		.loc 1 79 1 is_stmt 0 view .LVU8
  75 000c 1080BDE8 		pop	{r4, pc}
  76              		.cfi_endproc
  77              	.LFE7:
  79              		.section	.text.r_dmac_hld_prv_dma_enable,"ax",%progbits
  80              		.align	2
  81              		.global	r_dmac_hld_prv_dma_enable
  82              		.syntax unified
  83              		.arm
  84              		.fpu neon
  86              	r_dmac_hld_prv_dma_enable:
  87              	.LVL5:
  88              	.LFB8:
  80:../generate/sc_drivers/r_dmac/src/hld/r_dmac_hld_prv.c **** /**************************************************************************************************
  81:../generate/sc_drivers/r_dmac/src/hld/r_dmac_hld_prv.c ****  End of function r_dmac_hld_prv_dma_uninit
  82:../generate/sc_drivers/r_dmac/src/hld/r_dmac_hld_prv.c ****  **************************************************************************************************
  83:../generate/sc_drivers/r_dmac/src/hld/r_dmac_hld_prv.c **** 
  84:../generate/sc_drivers/r_dmac/src/hld/r_dmac_hld_prv.c **** /**
  85:../generate/sc_drivers/r_dmac/src/hld/r_dmac_hld_prv.c ****  *                 r_dmac_hld_prv_dma_enable
  86:../generate/sc_drivers/r_dmac/src/hld/r_dmac_hld_prv.c ****  * @brief          Enable a DMA transfer
  87:../generate/sc_drivers/r_dmac/src/hld/r_dmac_hld_prv.c ****  * @param[in]      sc_config_index: the SC config index
  88:../generate/sc_drivers/r_dmac/src/hld/r_dmac_hld_prv.c ****  * @retval         DRV_SUCCESS: Success
  89:../generate/sc_drivers/r_dmac/src/hld/r_dmac_hld_prv.c ****  *                 DRV_ERROR:   Failure
  90:../generate/sc_drivers/r_dmac/src/hld/r_dmac_hld_prv.c ****  */
  91:../generate/sc_drivers/r_dmac/src/hld/r_dmac_hld_prv.c **** e_r_drv_dmac_err_t r_dmac_hld_prv_dma_enable (uint_t sc_config_index)
  92:../generate/sc_drivers/r_dmac/src/hld/r_dmac_hld_prv.c **** {
  89              		.loc 1 92 1 is_stmt 1 view -0
  90              		.cfi_startproc
  91              		@ args = 0, pretend = 0, frame = 0
  92              		@ frame_needed = 0, uses_anonymous_args = 0
  93              		.loc 1 92 1 is_stmt 0 view .LVU10
  94 0000 10402DE9 		push	{r4, lr}
  95              		.cfi_def_cfa_offset 8
  96              		.cfi_offset 4, -8
  97              		.cfi_offset 14, -4
  98 0004 0040A0E1 		mov	r4, r0
  93:../generate/sc_drivers/r_dmac/src/hld/r_dmac_hld_prv.c ****     R_DMAC_EnableChannelInterrupt(sc_config_index);
  99              		.loc 1 93 5 is_stmt 1 view .LVU11
 100 0008 FEFFFFEB 		bl	R_DMAC_EnableChannelInterrupt
 101              	.LVL6:
  94:../generate/sc_drivers/r_dmac/src/hld/r_dmac_hld_prv.c **** 
  95:../generate/sc_drivers/r_dmac/src/hld/r_dmac_hld_prv.c ****     return R_DMAC_Enable(sc_config_index, false);
 102              		.loc 1 95 5 view .LVU12
 103              		.loc 1 95 12 is_stmt 0 view .LVU13
 104 000c 0010A0E3 		mov	r1, #0
 105 0010 0400A0E1 		mov	r0, r4
 106 0014 FEFFFFEB 		bl	R_DMAC_Enable
 107              	.LVL7:
  96:../generate/sc_drivers/r_dmac/src/hld/r_dmac_hld_prv.c **** }
 108              		.loc 1 96 1 view .LVU14
 109 0018 1080BDE8 		pop	{r4, pc}
 110              		.cfi_endproc
 111              	.LFE8:
 113              		.section	.text.r_dmac_hld_prv_dma_disable,"ax",%progbits
 114              		.align	2
 115              		.global	r_dmac_hld_prv_dma_disable
 116              		.syntax unified
 117              		.arm
 118              		.fpu neon
 120              	r_dmac_hld_prv_dma_disable:
 121              	.LVL8:
 122              	.LFB9:
  97:../generate/sc_drivers/r_dmac/src/hld/r_dmac_hld_prv.c **** /**************************************************************************************************
  98:../generate/sc_drivers/r_dmac/src/hld/r_dmac_hld_prv.c ****  End of function r_dmac_hld_prv_dma_enable
  99:../generate/sc_drivers/r_dmac/src/hld/r_dmac_hld_prv.c ****  **************************************************************************************************
 100:../generate/sc_drivers/r_dmac/src/hld/r_dmac_hld_prv.c **** 
 101:../generate/sc_drivers/r_dmac/src/hld/r_dmac_hld_prv.c **** /**
 102:../generate/sc_drivers/r_dmac/src/hld/r_dmac_hld_prv.c ****  *                 r_dmac_hld_prv_dma_disable
 103:../generate/sc_drivers/r_dmac/src/hld/r_dmac_hld_prv.c ****  * @brief          Disable a DMA transfer
 104:../generate/sc_drivers/r_dmac/src/hld/r_dmac_hld_prv.c ****  * @param[in]      sc_config_index: the SC config index
 105:../generate/sc_drivers/r_dmac/src/hld/r_dmac_hld_prv.c ****  * @retval         DRV_SUCCESS: Success
 106:../generate/sc_drivers/r_dmac/src/hld/r_dmac_hld_prv.c ****  *                 DRV_ERROR:   Failure
 107:../generate/sc_drivers/r_dmac/src/hld/r_dmac_hld_prv.c ****  */
 108:../generate/sc_drivers/r_dmac/src/hld/r_dmac_hld_prv.c **** e_r_drv_dmac_err_t r_dmac_hld_prv_dma_disable (uint_t sc_config_index, uint32_t *remaining_data_len
 109:../generate/sc_drivers/r_dmac/src/hld/r_dmac_hld_prv.c **** {
 123              		.loc 1 109 1 is_stmt 1 view -0
 124              		.cfi_startproc
 125              		@ args = 0, pretend = 0, frame = 0
 126              		@ frame_needed = 0, uses_anonymous_args = 0
 127              		.loc 1 109 1 is_stmt 0 view .LVU16
 128 0000 70402DE9 		push	{r4, r5, r6, lr}
 129              		.cfi_def_cfa_offset 16
 130              		.cfi_offset 4, -16
 131              		.cfi_offset 5, -12
 132              		.cfi_offset 6, -8
 133              		.cfi_offset 14, -4
 134 0004 0040A0E1 		mov	r4, r0
 135 0008 0150A0E1 		mov	r5, r1
 110:../generate/sc_drivers/r_dmac/src/hld/r_dmac_hld_prv.c ****     R_DMAC_DisableChannelInterrupt(sc_config_index);
 136              		.loc 1 110 5 is_stmt 1 view .LVU17
 137 000c FEFFFFEB 		bl	R_DMAC_DisableChannelInterrupt
 138              	.LVL9:
 111:../generate/sc_drivers/r_dmac/src/hld/r_dmac_hld_prv.c **** 
 112:../generate/sc_drivers/r_dmac/src/hld/r_dmac_hld_prv.c ****     return R_DMAC_Disable(sc_config_index, remaining_data_length);
 139              		.loc 1 112 5 view .LVU18
 140              		.loc 1 112 12 is_stmt 0 view .LVU19
 141 0010 0510A0E1 		mov	r1, r5
 142 0014 0400A0E1 		mov	r0, r4
 143 0018 FEFFFFEB 		bl	R_DMAC_Disable
 144              	.LVL10:
 113:../generate/sc_drivers/r_dmac/src/hld/r_dmac_hld_prv.c **** }
 145              		.loc 1 113 1 view .LVU20
 146 001c 7080BDE8 		pop	{r4, r5, r6, pc}
 147              		.cfi_endproc
 148              	.LFE9:
 150              		.section	.text.r_dmac_hld_prv_open,"ax",%progbits
 151              		.align	2
 152              		.global	r_dmac_hld_prv_open
 153              		.syntax unified
 154              		.arm
 155              		.fpu neon
 157              	r_dmac_hld_prv_open:
 158              	.LVL11:
 159              	.LFB10:
 114:../generate/sc_drivers/r_dmac/src/hld/r_dmac_hld_prv.c **** /**************************************************************************************************
 115:../generate/sc_drivers/r_dmac/src/hld/r_dmac_hld_prv.c ****  End of function r_dmac_hld_prv_dma_disable
 116:../generate/sc_drivers/r_dmac/src/hld/r_dmac_hld_prv.c ****  **************************************************************************************************
 117:../generate/sc_drivers/r_dmac/src/hld/r_dmac_hld_prv.c **** 
 118:../generate/sc_drivers/r_dmac/src/hld/r_dmac_hld_prv.c **** /**
 119:../generate/sc_drivers/r_dmac/src/hld/r_dmac_hld_prv.c ****  *                 r_dmac_hld_prv_open
 120:../generate/sc_drivers/r_dmac/src/hld/r_dmac_hld_prv.c ****  * @brief          Configures a DMA channel according to the Smart Configurator
 121:../generate/sc_drivers/r_dmac/src/hld/r_dmac_hld_prv.c ****  * @param[in]      sc_config_index: the SC config index to open
 122:../generate/sc_drivers/r_dmac/src/hld/r_dmac_hld_prv.c ****  * @retval         DRV_SUCCESS: Success
 123:../generate/sc_drivers/r_dmac/src/hld/r_dmac_hld_prv.c ****  *                 DRV_ERROR:   Failure
 124:../generate/sc_drivers/r_dmac/src/hld/r_dmac_hld_prv.c ****  */
 125:../generate/sc_drivers/r_dmac/src/hld/r_dmac_hld_prv.c **** int_t r_dmac_hld_prv_open (uint_t sc_config_index)
 126:../generate/sc_drivers/r_dmac/src/hld/r_dmac_hld_prv.c **** {
 160              		.loc 1 126 1 is_stmt 1 view -0
 161              		.cfi_startproc
 162              		@ args = 0, pretend = 0, frame = 0
 163              		@ frame_needed = 0, uses_anonymous_args = 0
 164              		.loc 1 126 1 is_stmt 0 view .LVU22
 165 0000 10402DE9 		push	{r4, lr}
 166              		.cfi_def_cfa_offset 8
 167              		.cfi_offset 4, -8
 168              		.cfi_offset 14, -4
 127:../generate/sc_drivers/r_dmac/src/hld/r_dmac_hld_prv.c ****     int_t return_value = DRV_ERROR;
 169              		.loc 1 127 5 is_stmt 1 view .LVU23
 170              	.LVL12:
 128:../generate/sc_drivers/r_dmac/src/hld/r_dmac_hld_prv.c **** 
 129:../generate/sc_drivers/r_dmac/src/hld/r_dmac_hld_prv.c ****     if (R_DMAC_OpenChannel(sc_config_index) == DMAC_SUCCESS)
 171              		.loc 1 129 5 view .LVU24
 172              		.loc 1 129 9 is_stmt 0 view .LVU25
 173 0004 FEFFFFEB 		bl	R_DMAC_OpenChannel
 174              	.LVL13:
 175              		.loc 1 129 8 view .LVU26
 176 0008 000050E3 		cmp	r0, #0
 177 000c 0100001A 		bne	.L13
 130:../generate/sc_drivers/r_dmac/src/hld/r_dmac_hld_prv.c ****     {
 131:../generate/sc_drivers/r_dmac/src/hld/r_dmac_hld_prv.c ****         return_value = DRV_SUCCESS;
 178              		.loc 1 131 22 view .LVU27
 179 0010 0000A0E3 		mov	r0, #0
 180              	.LVL14:
 132:../generate/sc_drivers/r_dmac/src/hld/r_dmac_hld_prv.c ****     }
 133:../generate/sc_drivers/r_dmac/src/hld/r_dmac_hld_prv.c **** 
 134:../generate/sc_drivers/r_dmac/src/hld/r_dmac_hld_prv.c ****     return return_value;
 181              		.loc 1 134 5 is_stmt 1 view .LVU28
 135:../generate/sc_drivers/r_dmac/src/hld/r_dmac_hld_prv.c **** }
 182              		.loc 1 135 1 is_stmt 0 view .LVU29
 183 0014 1080BDE8 		pop	{r4, pc}
 184              	.LVL15:
 185              	.L13:
 127:../generate/sc_drivers/r_dmac/src/hld/r_dmac_hld_prv.c **** 
 186              		.loc 1 127 11 view .LVU30
 187 0018 0000E0E3 		mvn	r0, #0
 188 001c 1080BDE8 		pop	{r4, pc}
 189              		.cfi_endproc
 190              	.LFE10:
 192              		.text
 193              	.Letext0:
 194              		.file 2 "c:\\program files (x86)\\gnu arm embedded toolchain\\9 2020-q2-update\\arm-none-eabi\\inc
 195              		.file 3 "c:\\program files (x86)\\gnu arm embedded toolchain\\9 2020-q2-update\\arm-none-eabi\\inc
 196              		.file 4 "c:\\program files (x86)\\gnu arm embedded toolchain\\9 2020-q2-update\\lib\\gcc\\arm-none
 197              		.file 5 "c:\\program files (x86)\\gnu arm embedded toolchain\\9 2020-q2-update\\arm-none-eabi\\inc
 198              		.file 6 "c:\\program files (x86)\\gnu arm embedded toolchain\\9 2020-q2-update\\arm-none-eabi\\inc
 199              		.file 7 "c:\\program files (x86)\\gnu arm embedded toolchain\\9 2020-q2-update\\arm-none-eabi\\inc
 200              		.file 8 "c:\\program files (x86)\\gnu arm embedded toolchain\\9 2020-q2-update\\arm-none-eabi\\inc
 201              		.file 9 "C:/Users/ryota/e2_studio/workspace/rza2m_ssif_sample_freertos_gcc/generate/system/inc/r_t
 202              		.file 10 "c:\\program files (x86)\\gnu arm embedded toolchain\\9 2020-q2-update\\arm-none-eabi\\in
 203              		.file 11 "c:\\program files (x86)\\gnu arm embedded toolchain\\9 2020-q2-update\\arm-none-eabi\\in
 204              		.file 12 "C:/Users/ryota/e2_studio/workspace/rza2m_ssif_sample_freertos_gcc/generate/system/inc/dr
 205              		.file 13 "C:\\Users\\ryota\\e2_studio\\workspace\\rza2m_ssif_sample_freertos_gcc\\generate\\sc_dri
 206              		.file 14 "C:\\Users\\ryota\\e2_studio\\workspace\\rza2m_ssif_sample_freertos_gcc\\generate\\sc_dri
 207              		.file 15 "C:/Users/ryota/e2_studio/workspace/rza2m_ssif_sample_freertos_gcc/generate/os_abstractio
 208              		.file 16 "C:/Users/ryota/e2_studio/workspace/rza2m_ssif_sample_freertos_gcc/generate/drivers/r_int
 209              		.file 17 "C:\\Users\\ryota\\e2_studio\\workspace\\rza2m_ssif_sample_freertos_gcc\\generate\\sc_dri
 210              		.file 18 "C:\\Users\\ryota\\e2_studio\\workspace\\rza2m_ssif_sample_freertos_gcc\\generate\\sc_dri