   1              		.cpu cortex-a9
   2              		.eabi_attribute 28, 1
   3              		.eabi_attribute 20, 1
   4              		.eabi_attribute 21, 1
   5              		.eabi_attribute 23, 3
   6              		.eabi_attribute 24, 1
   7              		.eabi_attribute 25, 1
   8              		.eabi_attribute 26, 1
   9              		.eabi_attribute 30, 1
  10              		.eabi_attribute 34, 0
  11              		.eabi_attribute 18, 4
  12              		.file	"r_ssif_lld_dma.c"
  13              		.text
  14              	.Ltext0:
  15              		.cfi_sections	.debug_frame
  16              		.section	.text.SSIF_DMA_RxEndCallback,"ax",%progbits
  17              		.align	2
  18              		.arch armv7-a
  19              		.arch_extension mp
  20              		.arch_extension sec
  21              		.syntax unified
  22              		.arm
  23              		.fpu neon
  25              	SSIF_DMA_RxEndCallback:
  26              	.LFB13:
  27              		.file 1 "../generate/sc_drivers/r_ssif/src/lld/r_ssif_lld_dma.c"
   1:../generate/sc_drivers/r_ssif/src/lld/r_ssif_lld_dma.c **** /******************************************************************************
   2:../generate/sc_drivers/r_ssif/src/lld/r_ssif_lld_dma.c ****  * DISCLAIMER
   3:../generate/sc_drivers/r_ssif/src/lld/r_ssif_lld_dma.c ****  * This software is supplied by Renesas Electronics Corporation and is only
   4:../generate/sc_drivers/r_ssif/src/lld/r_ssif_lld_dma.c ****  * intended for use with Renesas products. No other uses are authorized. This
   5:../generate/sc_drivers/r_ssif/src/lld/r_ssif_lld_dma.c ****  * software is owned by Renesas Electronics Corporation and is protected under
   6:../generate/sc_drivers/r_ssif/src/lld/r_ssif_lld_dma.c ****  * all applicable laws, including copyright laws.
   7:../generate/sc_drivers/r_ssif/src/lld/r_ssif_lld_dma.c ****  * THIS SOFTWARE IS PROVIDED "AS IS" AND RENESAS MAKES NO WARRANTIES REGARDING
   8:../generate/sc_drivers/r_ssif/src/lld/r_ssif_lld_dma.c ****  * THIS SOFTWARE, WHETHER EXPRESS, IMPLIED OR STATUTORY, INCLUDING BUT NOT
   9:../generate/sc_drivers/r_ssif/src/lld/r_ssif_lld_dma.c ****  * LIMITED TO WARRANTIES OF MERCHANTABILITY, FITNESS FOR A PARTICULAR PURPOSE
  10:../generate/sc_drivers/r_ssif/src/lld/r_ssif_lld_dma.c ****  * AND NON-INFRINGEMENT. ALL SUCH WARRANTIES ARE EXPRESSLY DISCLAIMED.
  11:../generate/sc_drivers/r_ssif/src/lld/r_ssif_lld_dma.c ****  * TO THE MAXIMUM EXTENT PERMITTED NOT PROHIBITED BY LAW, NEITHER RENESAS
  12:../generate/sc_drivers/r_ssif/src/lld/r_ssif_lld_dma.c ****  * ELECTRONICS CORPORATION NOR ANY OF ITS AFFILIATED COMPANIES SHALL BE LIABLE
  13:../generate/sc_drivers/r_ssif/src/lld/r_ssif_lld_dma.c ****  * FOR ANY DIRECT, INDIRECT, SPECIAL, INCIDENTAL OR CONSEQUENTIAL DAMAGES FOR
  14:../generate/sc_drivers/r_ssif/src/lld/r_ssif_lld_dma.c ****  * ANY REASON RELATED TO THIS SOFTWARE, EVEN IF RENESAS OR ITS AFFILIATES HAVE
  15:../generate/sc_drivers/r_ssif/src/lld/r_ssif_lld_dma.c ****  * BEEN ADVISED OF THE POSSIBILITY OF SUCH DAMAGES.
  16:../generate/sc_drivers/r_ssif/src/lld/r_ssif_lld_dma.c ****  * Renesas reserves the right, without notice, to make changes to this software
  17:../generate/sc_drivers/r_ssif/src/lld/r_ssif_lld_dma.c ****  * and to discontinue the availability of this software. By using this
  18:../generate/sc_drivers/r_ssif/src/lld/r_ssif_lld_dma.c ****  * software, you agree to the additional terms and conditions found by
  19:../generate/sc_drivers/r_ssif/src/lld/r_ssif_lld_dma.c ****  * accessing the following link:
  20:../generate/sc_drivers/r_ssif/src/lld/r_ssif_lld_dma.c ****  * http://www.renesas.com/disclaimer
  21:../generate/sc_drivers/r_ssif/src/lld/r_ssif_lld_dma.c ****  * Copyright (C) 2013-2017 Renesas Electronics Corporation.
  22:../generate/sc_drivers/r_ssif/src/lld/r_ssif_lld_dma.c ****  * All rights reserved.
  23:../generate/sc_drivers/r_ssif/src/lld/r_ssif_lld_dma.c ****  *****************************************************************************/
  24:../generate/sc_drivers/r_ssif/src/lld/r_ssif_lld_dma.c **** 
  25:../generate/sc_drivers/r_ssif/src/lld/r_ssif_lld_dma.c **** /******************************************************************************
  26:../generate/sc_drivers/r_ssif/src/lld/r_ssif_lld_dma.c ****  * File Name   : ssif_dma.c
  27:../generate/sc_drivers/r_ssif/src/lld/r_ssif_lld_dma.c ****  * Description : SSIF driver DMA functions
  28:../generate/sc_drivers/r_ssif/src/lld/r_ssif_lld_dma.c ****  *****************************************************************************/
  29:../generate/sc_drivers/r_ssif/src/lld/r_ssif_lld_dma.c **** 
  30:../generate/sc_drivers/r_ssif/src/lld/r_ssif_lld_dma.c **** /******************************************************************************
  31:../generate/sc_drivers/r_ssif/src/lld/r_ssif_lld_dma.c ****  Includes <System Includes>, "Project Includes"
  32:../generate/sc_drivers/r_ssif/src/lld/r_ssif_lld_dma.c ****  *****************************************************************************/
  33:../generate/sc_drivers/r_ssif/src/lld/r_ssif_lld_dma.c **** #include "iodefine.h"
  34:../generate/sc_drivers/r_ssif/src/lld/r_ssif_lld_dma.c **** #include "iobitmask.h"
  35:../generate/sc_drivers/r_ssif/src/lld/r_ssif_lld_dma.c **** #include "r_rza2_ssif_lld.h"
  36:../generate/sc_drivers/r_ssif/src/lld/r_ssif_lld_dma.c **** #include "r_ssif_hld_cfg.h"
  37:../generate/sc_drivers/r_ssif/src/lld/r_ssif_lld_dma.c **** #include "r_ssif_lld_int.h"
  38:../generate/sc_drivers/r_ssif/src/lld/r_ssif_lld_dma.c **** #include "fcntl.h"
  39:../generate/sc_drivers/r_ssif/src/lld/r_ssif_lld_dma.c **** #include "r_dmac_drv_api.h"
  40:../generate/sc_drivers/r_ssif/src/lld/r_ssif_lld_dma.c **** #include "r_dmac_lld_cfg_rza2m.h"
  41:../generate/sc_drivers/r_ssif/src/lld/r_ssif_lld_dma.c **** #include "rza_io_regrw.h"
  42:../generate/sc_drivers/r_ssif/src/lld/r_ssif_lld_dma.c **** 
  43:../generate/sc_drivers/r_ssif/src/lld/r_ssif_lld_dma.c **** /******************************************************************************
  44:../generate/sc_drivers/r_ssif/src/lld/r_ssif_lld_dma.c ****  Macro definitions
  45:../generate/sc_drivers/r_ssif/src/lld/r_ssif_lld_dma.c ****  *****************************************************************************/
  46:../generate/sc_drivers/r_ssif/src/lld/r_ssif_lld_dma.c **** #define SSIF_DUMMY_DMA_BUF_SIZE_PRV_        (4096u)
  47:../generate/sc_drivers/r_ssif/src/lld/r_ssif_lld_dma.c **** 
  48:../generate/sc_drivers/r_ssif/src/lld/r_ssif_lld_dma.c **** /*
  49:../generate/sc_drivers/r_ssif/src/lld/r_ssif_lld_dma.c ****  * The common multiple of 2, 4, 6, 8, 12, 24 and 32
  50:../generate/sc_drivers/r_ssif/src/lld/r_ssif_lld_dma.c ****  * which are all sampling sizes
  51:../generate/sc_drivers/r_ssif/src/lld/r_ssif_lld_dma.c ****  */
  52:../generate/sc_drivers/r_ssif/src/lld/r_ssif_lld_dma.c **** #define SSIF_DUMMY_DMA_TRN_SIZE_PRV_        (4032u)
  53:../generate/sc_drivers/r_ssif/src/lld/r_ssif_lld_dma.c **** 
  54:../generate/sc_drivers/r_ssif/src/lld/r_ssif_lld_dma.c **** /******************************************************************************
  55:../generate/sc_drivers/r_ssif/src/lld/r_ssif_lld_dma.c ****  Typedef definitions
  56:../generate/sc_drivers/r_ssif/src/lld/r_ssif_lld_dma.c ****  *****************************************************************************/
  57:../generate/sc_drivers/r_ssif/src/lld/r_ssif_lld_dma.c **** 
  58:../generate/sc_drivers/r_ssif/src/lld/r_ssif_lld_dma.c **** /******************************************************************************
  59:../generate/sc_drivers/r_ssif/src/lld/r_ssif_lld_dma.c ****  Exported global variables (to be accessed by other files)
  60:../generate/sc_drivers/r_ssif/src/lld/r_ssif_lld_dma.c ****  *****************************************************************************/
  61:../generate/sc_drivers/r_ssif/src/lld/r_ssif_lld_dma.c **** 
  62:../generate/sc_drivers/r_ssif/src/lld/r_ssif_lld_dma.c **** /******************************************************************************
  63:../generate/sc_drivers/r_ssif/src/lld/r_ssif_lld_dma.c ****  Private global variables and functions
  64:../generate/sc_drivers/r_ssif/src/lld/r_ssif_lld_dma.c ****  *****************************************************************************/
  65:../generate/sc_drivers/r_ssif/src/lld/r_ssif_lld_dma.c **** 
  66:../generate/sc_drivers/r_ssif/src/lld/r_ssif_lld_dma.c **** static int_t enable_ssif_transfer(ssif_info_ch_t * const p_info_ch);
  67:../generate/sc_drivers/r_ssif/src/lld/r_ssif_lld_dma.c **** static int_t open_dma_driver(ssif_info_ch_t * const p_info_ch);
  68:../generate/sc_drivers/r_ssif/src/lld/r_ssif_lld_dma.c **** static void SSIF_DMA_TxEndCallback(void);
  69:../generate/sc_drivers/r_ssif/src/lld/r_ssif_lld_dma.c **** static void SSIF_DMA_RxEndCallback(void);
  70:../generate/sc_drivers/r_ssif/src/lld/r_ssif_lld_dma.c **** 
  71:../generate/sc_drivers/r_ssif/src/lld/r_ssif_lld_dma.c **** static const e_r_drv_dmac_xfer_resource_t
  72:../generate/sc_drivers/r_ssif/src/lld/r_ssif_lld_dma.c ****         s_ssif_dma_tx_resource[SSIF_NUM_CHANS] =
  73:../generate/sc_drivers/r_ssif/src/lld/r_ssif_lld_dma.c **** {
  74:../generate/sc_drivers/r_ssif/src/lld/r_ssif_lld_dma.c ****     DMA_RS_INT_SSIF_DMA_TX_0,
  75:../generate/sc_drivers/r_ssif/src/lld/r_ssif_lld_dma.c ****     DMA_RS_INT_SSIF_DMA_TX_1,
  76:../generate/sc_drivers/r_ssif/src/lld/r_ssif_lld_dma.c ****     DMA_RS_INT_SSIF_DMA_TX_2,
  77:../generate/sc_drivers/r_ssif/src/lld/r_ssif_lld_dma.c ****     DMA_RS_INT_SSIF_DMA_TX_3
  78:../generate/sc_drivers/r_ssif/src/lld/r_ssif_lld_dma.c **** };
  79:../generate/sc_drivers/r_ssif/src/lld/r_ssif_lld_dma.c **** 
  80:../generate/sc_drivers/r_ssif/src/lld/r_ssif_lld_dma.c **** static const e_r_drv_dmac_xfer_resource_t
  81:../generate/sc_drivers/r_ssif/src/lld/r_ssif_lld_dma.c ****         s_ssif_dma_rx_resource[SSIF_NUM_CHANS] =
  82:../generate/sc_drivers/r_ssif/src/lld/r_ssif_lld_dma.c **** {
  83:../generate/sc_drivers/r_ssif/src/lld/r_ssif_lld_dma.c ****     DMA_RS_INT_SSIF_DMA_RX_0,
  84:../generate/sc_drivers/r_ssif/src/lld/r_ssif_lld_dma.c ****     DMA_RS_INT_SSIF_DMA_RX_1,
  85:../generate/sc_drivers/r_ssif/src/lld/r_ssif_lld_dma.c ****     DMA_RS_INT_SSIF_DMA_RX_2,
  86:../generate/sc_drivers/r_ssif/src/lld/r_ssif_lld_dma.c ****     DMA_RS_INT_SSIF_DMA_RX_3
  87:../generate/sc_drivers/r_ssif/src/lld/r_ssif_lld_dma.c **** };
  88:../generate/sc_drivers/r_ssif/src/lld/r_ssif_lld_dma.c **** 
  89:../generate/sc_drivers/r_ssif/src/lld/r_ssif_lld_dma.c **** static AIOCB s_ssif_dma_tx_end_aiocb[SSIF_NUM_CHANS];
  90:../generate/sc_drivers/r_ssif/src/lld/r_ssif_lld_dma.c **** static AIOCB s_ssif_dma_rx_end_aiocb[SSIF_NUM_CHANS];
  91:../generate/sc_drivers/r_ssif/src/lld/r_ssif_lld_dma.c **** 
  92:../generate/sc_drivers/r_ssif/src/lld/r_ssif_lld_dma.c **** static st_r_drv_dmac_next_transfer_t s_ssif_txdma_dummy_trparam[SSIF_NUM_CHANS];
  93:../generate/sc_drivers/r_ssif/src/lld/r_ssif_lld_dma.c **** static st_r_drv_dmac_next_transfer_t s_ssif_rxdma_dummy_trparam[SSIF_NUM_CHANS];
  94:../generate/sc_drivers/r_ssif/src/lld/r_ssif_lld_dma.c **** 
  95:../generate/sc_drivers/r_ssif/src/lld/r_ssif_lld_dma.c **** static uint32_t s_ssif_tx_dummy_buf[SSIF_DUMMY_DMA_BUF_SIZE_PRV_ / sizeof(uint32_t)];
  96:../generate/sc_drivers/r_ssif/src/lld/r_ssif_lld_dma.c **** static uint32_t s_ssif_rx_dummy_buf[SSIF_DUMMY_DMA_BUF_SIZE_PRV_ / sizeof(uint32_t)];
  97:../generate/sc_drivers/r_ssif/src/lld/r_ssif_lld_dma.c **** 
  98:../generate/sc_drivers/r_ssif/src/lld/r_ssif_lld_dma.c **** static int_t s_dma_driver_write_handle = (-1);
  99:../generate/sc_drivers/r_ssif/src/lld/r_ssif_lld_dma.c **** static int_t s_dma_driver_read_handle = (-1);
 100:../generate/sc_drivers/r_ssif/src/lld/r_ssif_lld_dma.c **** 
 101:../generate/sc_drivers/r_ssif/src/lld/r_ssif_lld_dma.c **** static ssif_info_ch_t * sp_info_ch;
 102:../generate/sc_drivers/r_ssif/src/lld/r_ssif_lld_dma.c **** 
 103:../generate/sc_drivers/r_ssif/src/lld/r_ssif_lld_dma.c **** /******************************************************************************
 104:../generate/sc_drivers/r_ssif/src/lld/r_ssif_lld_dma.c ****  * Function Name: R_SSIF_InitDMA
 105:../generate/sc_drivers/r_ssif/src/lld/r_ssif_lld_dma.c ****  * @brief         Allocate and Setup DMA_CH for specified SSIF channel
 106:../generate/sc_drivers/r_ssif/src/lld/r_ssif_lld_dma.c ****  * @param[in,out] p_info_ch: channel object
 107:../generate/sc_drivers/r_ssif/src/lld/r_ssif_lld_dma.c ****  * @retval        IOIF_ESUCCESS: Success
 108:../generate/sc_drivers/r_ssif/src/lld/r_ssif_lld_dma.c ****  * @retval        error code: Failure
 109:../generate/sc_drivers/r_ssif/src/lld/r_ssif_lld_dma.c ****  *****************************************************************************/
 110:../generate/sc_drivers/r_ssif/src/lld/r_ssif_lld_dma.c **** int_t R_SSIF_InitDMA(ssif_info_ch_t * const p_info_ch)
 111:../generate/sc_drivers/r_ssif/src/lld/r_ssif_lld_dma.c **** {
 112:../generate/sc_drivers/r_ssif/src/lld/r_ssif_lld_dma.c ****     int_t ercd = IOIF_ESUCCESS;
 113:../generate/sc_drivers/r_ssif/src/lld/r_ssif_lld_dma.c ****     int_t dma_ret = 0;
 114:../generate/sc_drivers/r_ssif/src/lld/r_ssif_lld_dma.c ****     uint32_t ssif_ch;
 115:../generate/sc_drivers/r_ssif/src/lld/r_ssif_lld_dma.c ****     st_r_drv_dmac_config_t dma_config;
 116:../generate/sc_drivers/r_ssif/src/lld/r_ssif_lld_dma.c ****     st_r_drv_dmac_config_t *ptdma_config;
 117:../generate/sc_drivers/r_ssif/src/lld/r_ssif_lld_dma.c ****     int_t result;
 118:../generate/sc_drivers/r_ssif/src/lld/r_ssif_lld_dma.c ****     st_r_drv_dmac_next_transfer_t next_transfer;
 119:../generate/sc_drivers/r_ssif/src/lld/r_ssif_lld_dma.c **** 
 120:../generate/sc_drivers/r_ssif/src/lld/r_ssif_lld_dma.c ****     if (NULL == p_info_ch)
 121:../generate/sc_drivers/r_ssif/src/lld/r_ssif_lld_dma.c ****     {
 122:../generate/sc_drivers/r_ssif/src/lld/r_ssif_lld_dma.c ****         return (IOIF_EFAULT);
 123:../generate/sc_drivers/r_ssif/src/lld/r_ssif_lld_dma.c ****     }
 124:../generate/sc_drivers/r_ssif/src/lld/r_ssif_lld_dma.c **** 
 125:../generate/sc_drivers/r_ssif/src/lld/r_ssif_lld_dma.c ****     if (open_dma_driver(p_info_ch) != IOIF_ESUCCESS)
 126:../generate/sc_drivers/r_ssif/src/lld/r_ssif_lld_dma.c ****     {
 127:../generate/sc_drivers/r_ssif/src/lld/r_ssif_lld_dma.c ****         return (IOIF_EFAULT);
 128:../generate/sc_drivers/r_ssif/src/lld/r_ssif_lld_dma.c ****     }
 129:../generate/sc_drivers/r_ssif/src/lld/r_ssif_lld_dma.c **** 
 130:../generate/sc_drivers/r_ssif/src/lld/r_ssif_lld_dma.c ****     sp_info_ch = p_info_ch;
 131:../generate/sc_drivers/r_ssif/src/lld/r_ssif_lld_dma.c ****     ssif_ch = p_info_ch->channel;
 132:../generate/sc_drivers/r_ssif/src/lld/r_ssif_lld_dma.c **** 
 133:../generate/sc_drivers/r_ssif/src/lld/r_ssif_lld_dma.c ****     /* setup DMA channel for write (if necessary) */
 134:../generate/sc_drivers/r_ssif/src/lld/r_ssif_lld_dma.c ****     if (O_RDONLY != p_info_ch->openflag)
 135:../generate/sc_drivers/r_ssif/src/lld/r_ssif_lld_dma.c ****     {
 136:../generate/sc_drivers/r_ssif/src/lld/r_ssif_lld_dma.c ****         AIOCB * const p_tx_aio = &s_ssif_dma_tx_end_aiocb[ssif_ch];
 137:../generate/sc_drivers/r_ssif/src/lld/r_ssif_lld_dma.c **** 
 138:../generate/sc_drivers/r_ssif/src/lld/r_ssif_lld_dma.c ****         p_tx_aio->aio_sigevent.sigev_notify = 0;
 139:../generate/sc_drivers/r_ssif/src/lld/r_ssif_lld_dma.c ****         p_tx_aio->aio_sigevent.sigev_notify = SIGEV_THREAD;
 140:../generate/sc_drivers/r_ssif/src/lld/r_ssif_lld_dma.c ****         p_tx_aio->aio_sigevent.sigev_value.sival_ptr = (void *) p_info_ch;
 141:../generate/sc_drivers/r_ssif/src/lld/r_ssif_lld_dma.c ****     }
 142:../generate/sc_drivers/r_ssif/src/lld/r_ssif_lld_dma.c **** 
 143:../generate/sc_drivers/r_ssif/src/lld/r_ssif_lld_dma.c ****     /* setup DMA channel for read (if necessary) */
 144:../generate/sc_drivers/r_ssif/src/lld/r_ssif_lld_dma.c ****     if (O_WRONLY != p_info_ch->openflag)
 145:../generate/sc_drivers/r_ssif/src/lld/r_ssif_lld_dma.c ****     {
 146:../generate/sc_drivers/r_ssif/src/lld/r_ssif_lld_dma.c ****         AIOCB * const p_rx_aio = &s_ssif_dma_rx_end_aiocb[ssif_ch];
 147:../generate/sc_drivers/r_ssif/src/lld/r_ssif_lld_dma.c **** 
 148:../generate/sc_drivers/r_ssif/src/lld/r_ssif_lld_dma.c ****         p_rx_aio->aio_sigevent.sigev_notify = SIGEV_THREAD;
 149:../generate/sc_drivers/r_ssif/src/lld/r_ssif_lld_dma.c ****         p_rx_aio->aio_sigevent.sigev_value.sival_ptr = (void *) p_info_ch;
 150:../generate/sc_drivers/r_ssif/src/lld/r_ssif_lld_dma.c ****     }
 151:../generate/sc_drivers/r_ssif/src/lld/r_ssif_lld_dma.c **** 
 152:../generate/sc_drivers/r_ssif/src/lld/r_ssif_lld_dma.c ****     /* start DMA dummy transfer for write (if necessary) */
 153:../generate/sc_drivers/r_ssif/src/lld/r_ssif_lld_dma.c ****     if (O_RDONLY != p_info_ch->openflag)
 154:../generate/sc_drivers/r_ssif/src/lld/r_ssif_lld_dma.c ****     {
 155:../generate/sc_drivers/r_ssif/src/lld/r_ssif_lld_dma.c ****         /* setup short dummy transfer */
 156:../generate/sc_drivers/r_ssif/src/lld/r_ssif_lld_dma.c ****         s_ssif_txdma_dummy_trparam[ssif_ch].source_address = (void *) &s_ssif_tx_dummy_buf[0];
 157:../generate/sc_drivers/r_ssif/src/lld/r_ssif_lld_dma.c ****         s_ssif_txdma_dummy_trparam[ssif_ch].destination_address = (uint32_t *) &g_ssireg[ssif_ch]->
 158:../generate/sc_drivers/r_ssif/src/lld/r_ssif_lld_dma.c ****         s_ssif_txdma_dummy_trparam[ssif_ch].count = SSIF_DUMMY_DMA_TRN_SIZE_PRV_;
 159:../generate/sc_drivers/r_ssif/src/lld/r_ssif_lld_dma.c ****         dma_config.config.resource = s_ssif_dma_tx_resource[ssif_ch];                              
 160:../generate/sc_drivers/r_ssif/src/lld/r_ssif_lld_dma.c ****         dma_config.config.source_width = DMA_DATA_SIZE_2;                                          
 161:../generate/sc_drivers/r_ssif/src/lld/r_ssif_lld_dma.c ****         dma_config.config.destination_width = DMA_DATA_SIZE_2;                                     
 162:../generate/sc_drivers/r_ssif/src/lld/r_ssif_lld_dma.c ****         dma_config.config.source_address_type = DMA_ADDRESS_INCREMENT;                             
 163:../generate/sc_drivers/r_ssif/src/lld/r_ssif_lld_dma.c ****         dma_config.config.destination_address_type = DMA_ADDRESS_FIX;                              
 164:../generate/sc_drivers/r_ssif/src/lld/r_ssif_lld_dma.c ****         dma_config.config.direction = DMA_REQUEST_DESTINATION;                                     
 165:../generate/sc_drivers/r_ssif/src/lld/r_ssif_lld_dma.c ****         dma_config.config.source_address = s_ssif_txdma_dummy_trparam[ssif_ch].source_address;     
 166:../generate/sc_drivers/r_ssif/src/lld/r_ssif_lld_dma.c ****         dma_config.config.destination_address = s_ssif_txdma_dummy_trparam[ssif_ch].destination_add
 167:../generate/sc_drivers/r_ssif/src/lld/r_ssif_lld_dma.c ****         dma_config.config.count = s_ssif_txdma_dummy_trparam[ssif_ch].count;                       
 168:../generate/sc_drivers/r_ssif/src/lld/r_ssif_lld_dma.c ****         dma_config.config.p_dmaComplete = SSIF_DMA_TxEndCallback;                                  
 169:../generate/sc_drivers/r_ssif/src/lld/r_ssif_lld_dma.c ****         result = control(s_dma_driver_write_handle, CTL_DMAC_SET_CONFIGURATION, (void *) &dma_confi
 170:../generate/sc_drivers/r_ssif/src/lld/r_ssif_lld_dma.c ****         if (DRV_SUCCESS == result)
 171:../generate/sc_drivers/r_ssif/src/lld/r_ssif_lld_dma.c ****         {
 172:../generate/sc_drivers/r_ssif/src/lld/r_ssif_lld_dma.c ****             result = control(s_dma_driver_write_handle, CTL_DMAC_ENABLE, NULL);
 173:../generate/sc_drivers/r_ssif/src/lld/r_ssif_lld_dma.c ****         }
 174:../generate/sc_drivers/r_ssif/src/lld/r_ssif_lld_dma.c **** 
 175:../generate/sc_drivers/r_ssif/src/lld/r_ssif_lld_dma.c ****         if (DRV_SUCCESS == result)
 176:../generate/sc_drivers/r_ssif/src/lld/r_ssif_lld_dma.c ****         {
 177:../generate/sc_drivers/r_ssif/src/lld/r_ssif_lld_dma.c ****             next_transfer.source_address      = (void *) &s_ssif_tx_dummy_buf[0];
 178:../generate/sc_drivers/r_ssif/src/lld/r_ssif_lld_dma.c ****             next_transfer.destination_address = (uint32_t *) &g_ssireg[ssif_ch]->SSIFTDR.LONG;
 179:../generate/sc_drivers/r_ssif/src/lld/r_ssif_lld_dma.c ****             next_transfer.count               = SSIF_DUMMY_DMA_TRN_SIZE_PRV_;
 180:../generate/sc_drivers/r_ssif/src/lld/r_ssif_lld_dma.c ****             result = control(s_dma_driver_write_handle, CTL_DMAC_NEXT_TRANSFER, &next_transfer);
 181:../generate/sc_drivers/r_ssif/src/lld/r_ssif_lld_dma.c ****         }
 182:../generate/sc_drivers/r_ssif/src/lld/r_ssif_lld_dma.c **** 
 183:../generate/sc_drivers/r_ssif/src/lld/r_ssif_lld_dma.c ****         dma_ret = (DRV_SUCCESS == result) ? IOIF_ESUCCESS : IOIF_EERROR;
 184:../generate/sc_drivers/r_ssif/src/lld/r_ssif_lld_dma.c **** 
 185:../generate/sc_drivers/r_ssif/src/lld/r_ssif_lld_dma.c ****         if (IOIF_EERROR == dma_ret)
 186:../generate/sc_drivers/r_ssif/src/lld/r_ssif_lld_dma.c ****         {
 187:../generate/sc_drivers/r_ssif/src/lld/r_ssif_lld_dma.c ****             ercd = IOIF_EFAULT;
 188:../generate/sc_drivers/r_ssif/src/lld/r_ssif_lld_dma.c ****         }
 189:../generate/sc_drivers/r_ssif/src/lld/r_ssif_lld_dma.c ****     }
 190:../generate/sc_drivers/r_ssif/src/lld/r_ssif_lld_dma.c **** 
 191:../generate/sc_drivers/r_ssif/src/lld/r_ssif_lld_dma.c ****     /* start DMA dummy transfer for read (if necessary) */
 192:../generate/sc_drivers/r_ssif/src/lld/r_ssif_lld_dma.c ****     if (IOIF_ESUCCESS == ercd)
 193:../generate/sc_drivers/r_ssif/src/lld/r_ssif_lld_dma.c ****     {
 194:../generate/sc_drivers/r_ssif/src/lld/r_ssif_lld_dma.c ****         if (O_WRONLY != p_info_ch->openflag)
 195:../generate/sc_drivers/r_ssif/src/lld/r_ssif_lld_dma.c ****         {
 196:../generate/sc_drivers/r_ssif/src/lld/r_ssif_lld_dma.c ****             /* setup short dummy transfer */
 197:../generate/sc_drivers/r_ssif/src/lld/r_ssif_lld_dma.c ****             s_ssif_rxdma_dummy_trparam[ssif_ch].source_address = &g_ssireg[ssif_ch]->SSIFRDR.LONG;
 198:../generate/sc_drivers/r_ssif/src/lld/r_ssif_lld_dma.c ****             s_ssif_rxdma_dummy_trparam[ssif_ch].destination_address = (void *) &s_ssif_rx_dummy_buf
 199:../generate/sc_drivers/r_ssif/src/lld/r_ssif_lld_dma.c ****             s_ssif_rxdma_dummy_trparam[ssif_ch].count = SSIF_DUMMY_DMA_TRN_SIZE_PRV_;
 200:../generate/sc_drivers/r_ssif/src/lld/r_ssif_lld_dma.c **** 
 201:../generate/sc_drivers/r_ssif/src/lld/r_ssif_lld_dma.c ****             st_r_drv_dmac_next_transfer_t next_data;
 202:../generate/sc_drivers/r_ssif/src/lld/r_ssif_lld_dma.c **** 
 203:../generate/sc_drivers/r_ssif/src/lld/r_ssif_lld_dma.c ****             next_data.source_address      = s_ssif_rxdma_dummy_trparam[ssif_ch].source_address;
 204:../generate/sc_drivers/r_ssif/src/lld/r_ssif_lld_dma.c ****             next_data.destination_address = s_ssif_rxdma_dummy_trparam[ssif_ch].destination_address
 205:../generate/sc_drivers/r_ssif/src/lld/r_ssif_lld_dma.c ****             next_data.count               = s_ssif_rxdma_dummy_trparam[ssif_ch].count;
 206:../generate/sc_drivers/r_ssif/src/lld/r_ssif_lld_dma.c **** 
 207:../generate/sc_drivers/r_ssif/src/lld/r_ssif_lld_dma.c ****             result = control(s_dma_driver_read_handle, CTL_DMAC_NEXT_TRANSFER, &next_data);
 208:../generate/sc_drivers/r_ssif/src/lld/r_ssif_lld_dma.c **** 
 209:../generate/sc_drivers/r_ssif/src/lld/r_ssif_lld_dma.c ****             dma_ret = (DRV_SUCCESS == result) ? IOIF_ESUCCESS : IOIF_EERROR;
 210:../generate/sc_drivers/r_ssif/src/lld/r_ssif_lld_dma.c **** 
 211:../generate/sc_drivers/r_ssif/src/lld/r_ssif_lld_dma.c ****             if (IOIF_EERROR == dma_ret)
 212:../generate/sc_drivers/r_ssif/src/lld/r_ssif_lld_dma.c ****             {
 213:../generate/sc_drivers/r_ssif/src/lld/r_ssif_lld_dma.c ****                 ercd = IOIF_EFAULT;
 214:../generate/sc_drivers/r_ssif/src/lld/r_ssif_lld_dma.c ****             }
 215:../generate/sc_drivers/r_ssif/src/lld/r_ssif_lld_dma.c ****             else
 216:../generate/sc_drivers/r_ssif/src/lld/r_ssif_lld_dma.c ****             {
 217:../generate/sc_drivers/r_ssif/src/lld/r_ssif_lld_dma.c ****                 dma_config.config.resource = s_ssif_dma_rx_resource[ssif_ch];                      
 218:../generate/sc_drivers/r_ssif/src/lld/r_ssif_lld_dma.c ****                 dma_config.config.source_width = DMA_DATA_SIZE_2;                                  
 219:../generate/sc_drivers/r_ssif/src/lld/r_ssif_lld_dma.c ****                 dma_config.config.destination_width = DMA_DATA_SIZE_2;                             
 220:../generate/sc_drivers/r_ssif/src/lld/r_ssif_lld_dma.c ****                 dma_config.config.source_address_type = DMA_ADDRESS_FIX;                           
 221:../generate/sc_drivers/r_ssif/src/lld/r_ssif_lld_dma.c ****                 dma_config.config.destination_address_type = DMA_ADDRESS_INCREMENT;                
 222:../generate/sc_drivers/r_ssif/src/lld/r_ssif_lld_dma.c ****                 dma_config.config.direction = DMA_REQUEST_SOURCE;                                  
 223:../generate/sc_drivers/r_ssif/src/lld/r_ssif_lld_dma.c ****                 dma_config.config.source_address = s_ssif_rxdma_dummy_trparam[ssif_ch].source_addre
 224:../generate/sc_drivers/r_ssif/src/lld/r_ssif_lld_dma.c ****                 dma_config.config.destination_address = s_ssif_rxdma_dummy_trparam[ssif_ch].destina
 225:../generate/sc_drivers/r_ssif/src/lld/r_ssif_lld_dma.c ****                 dma_config.config.count = s_ssif_rxdma_dummy_trparam[ssif_ch].count;               
 226:../generate/sc_drivers/r_ssif/src/lld/r_ssif_lld_dma.c ****                 dma_config.config.p_dmaComplete = SSIF_DMA_RxEndCallback;                          
 227:../generate/sc_drivers/r_ssif/src/lld/r_ssif_lld_dma.c **** 
 228:../generate/sc_drivers/r_ssif/src/lld/r_ssif_lld_dma.c ****                 result = control(s_dma_driver_read_handle, CTL_DMAC_SET_CONFIGURATION, (void *) &dm
 229:../generate/sc_drivers/r_ssif/src/lld/r_ssif_lld_dma.c **** 
 230:../generate/sc_drivers/r_ssif/src/lld/r_ssif_lld_dma.c ****                 if (DRV_SUCCESS == result)
 231:../generate/sc_drivers/r_ssif/src/lld/r_ssif_lld_dma.c ****                 {
 232:../generate/sc_drivers/r_ssif/src/lld/r_ssif_lld_dma.c ****                     result = control(s_dma_driver_read_handle, CTL_DMAC_ENABLE, NULL);
 233:../generate/sc_drivers/r_ssif/src/lld/r_ssif_lld_dma.c ****                 }
 234:../generate/sc_drivers/r_ssif/src/lld/r_ssif_lld_dma.c **** 
 235:../generate/sc_drivers/r_ssif/src/lld/r_ssif_lld_dma.c ****                 if (DRV_SUCCESS == result)
 236:../generate/sc_drivers/r_ssif/src/lld/r_ssif_lld_dma.c ****                 {
 237:../generate/sc_drivers/r_ssif/src/lld/r_ssif_lld_dma.c ****                     next_transfer.source_address = (uint32_t *) &g_ssireg[ssif_ch]->SSIFRDR.LONG;
 238:../generate/sc_drivers/r_ssif/src/lld/r_ssif_lld_dma.c ****                     next_transfer.destination_address = (void *) &s_ssif_rx_dummy_buf[0];
 239:../generate/sc_drivers/r_ssif/src/lld/r_ssif_lld_dma.c ****                     next_transfer.count               = SSIF_DUMMY_DMA_TRN_SIZE_PRV_;
 240:../generate/sc_drivers/r_ssif/src/lld/r_ssif_lld_dma.c **** 
 241:../generate/sc_drivers/r_ssif/src/lld/r_ssif_lld_dma.c ****                     result = control(s_dma_driver_read_handle, CTL_DMAC_NEXT_TRANSFER, &next_transf
 242:../generate/sc_drivers/r_ssif/src/lld/r_ssif_lld_dma.c ****                 }
 243:../generate/sc_drivers/r_ssif/src/lld/r_ssif_lld_dma.c **** 
 244:../generate/sc_drivers/r_ssif/src/lld/r_ssif_lld_dma.c ****                 dma_ret = (DRV_SUCCESS == result) ? IOIF_ESUCCESS : IOIF_EERROR;
 245:../generate/sc_drivers/r_ssif/src/lld/r_ssif_lld_dma.c **** 
 246:../generate/sc_drivers/r_ssif/src/lld/r_ssif_lld_dma.c ****                 if (IOIF_EERROR == dma_ret)
 247:../generate/sc_drivers/r_ssif/src/lld/r_ssif_lld_dma.c ****                 {
 248:../generate/sc_drivers/r_ssif/src/lld/r_ssif_lld_dma.c ****                     ercd = IOIF_EFAULT;
 249:../generate/sc_drivers/r_ssif/src/lld/r_ssif_lld_dma.c ****                 }
 250:../generate/sc_drivers/r_ssif/src/lld/r_ssif_lld_dma.c ****             }
 251:../generate/sc_drivers/r_ssif/src/lld/r_ssif_lld_dma.c ****         }
 252:../generate/sc_drivers/r_ssif/src/lld/r_ssif_lld_dma.c ****     }
 253:../generate/sc_drivers/r_ssif/src/lld/r_ssif_lld_dma.c **** 
 254:../generate/sc_drivers/r_ssif/src/lld/r_ssif_lld_dma.c ****     /* enable SSIF transfer */
 255:../generate/sc_drivers/r_ssif/src/lld/r_ssif_lld_dma.c ****     if (IOIF_ESUCCESS == ercd)
 256:../generate/sc_drivers/r_ssif/src/lld/r_ssif_lld_dma.c ****     {
 257:../generate/sc_drivers/r_ssif/src/lld/r_ssif_lld_dma.c ****         ercd = enable_ssif_transfer(p_info_ch);
 258:../generate/sc_drivers/r_ssif/src/lld/r_ssif_lld_dma.c ****     }
 259:../generate/sc_drivers/r_ssif/src/lld/r_ssif_lld_dma.c **** 
 260:../generate/sc_drivers/r_ssif/src/lld/r_ssif_lld_dma.c ****     /* cleanup DMA resources when error occurred */
 261:../generate/sc_drivers/r_ssif/src/lld/r_ssif_lld_dma.c ****     if (IOIF_ESUCCESS != ercd)
 262:../generate/sc_drivers/r_ssif/src/lld/r_ssif_lld_dma.c ****     {
 263:../generate/sc_drivers/r_ssif/src/lld/r_ssif_lld_dma.c ****         R_SSIF_CancelDMA(p_info_ch);
 264:../generate/sc_drivers/r_ssif/src/lld/r_ssif_lld_dma.c ****     }
 265:../generate/sc_drivers/r_ssif/src/lld/r_ssif_lld_dma.c **** 
 266:../generate/sc_drivers/r_ssif/src/lld/r_ssif_lld_dma.c ****     return (ercd);
 267:../generate/sc_drivers/r_ssif/src/lld/r_ssif_lld_dma.c **** }
 268:../generate/sc_drivers/r_ssif/src/lld/r_ssif_lld_dma.c **** /******************************************************************************
 269:../generate/sc_drivers/r_ssif/src/lld/r_ssif_lld_dma.c ****  End of function R_SSIF_InitDMA
 270:../generate/sc_drivers/r_ssif/src/lld/r_ssif_lld_dma.c ****  *****************************************************************************/
 271:../generate/sc_drivers/r_ssif/src/lld/r_ssif_lld_dma.c **** 
 272:../generate/sc_drivers/r_ssif/src/lld/r_ssif_lld_dma.c **** /******************************************************************************
 273:../generate/sc_drivers/r_ssif/src/lld/r_ssif_lld_dma.c ****  * Function Name: R_SSIF_UnInitDMA
 274:../generate/sc_drivers/r_ssif/src/lld/r_ssif_lld_dma.c ****  * @brief         Free DMA_CH for specified SSIF channel
 275:../generate/sc_drivers/r_ssif/src/lld/r_ssif_lld_dma.c ****  * @param[in,out] p_info_ch: channel object
 276:../generate/sc_drivers/r_ssif/src/lld/r_ssif_lld_dma.c ****  * @retval        none
 277:../generate/sc_drivers/r_ssif/src/lld/r_ssif_lld_dma.c ****  *****************************************************************************/
 278:../generate/sc_drivers/r_ssif/src/lld/r_ssif_lld_dma.c **** void R_SSIF_UnInitDMA(ssif_info_ch_t * const p_info_ch)
 279:../generate/sc_drivers/r_ssif/src/lld/r_ssif_lld_dma.c **** {
 280:../generate/sc_drivers/r_ssif/src/lld/r_ssif_lld_dma.c ****     uint32_t remain;
 281:../generate/sc_drivers/r_ssif/src/lld/r_ssif_lld_dma.c **** 
 282:../generate/sc_drivers/r_ssif/src/lld/r_ssif_lld_dma.c ****     if (NULL == p_info_ch)
 283:../generate/sc_drivers/r_ssif/src/lld/r_ssif_lld_dma.c ****     {
 284:../generate/sc_drivers/r_ssif/src/lld/r_ssif_lld_dma.c ****         return;
 285:../generate/sc_drivers/r_ssif/src/lld/r_ssif_lld_dma.c ****     }
 286:../generate/sc_drivers/r_ssif/src/lld/r_ssif_lld_dma.c **** 
 287:../generate/sc_drivers/r_ssif/src/lld/r_ssif_lld_dma.c ****     if (s_dma_driver_write_handle >= 0)
 288:../generate/sc_drivers/r_ssif/src/lld/r_ssif_lld_dma.c ****     {
 289:../generate/sc_drivers/r_ssif/src/lld/r_ssif_lld_dma.c ****         control(s_dma_driver_write_handle, CTL_DMAC_DISABLE, &remain);
 290:../generate/sc_drivers/r_ssif/src/lld/r_ssif_lld_dma.c ****     }
 291:../generate/sc_drivers/r_ssif/src/lld/r_ssif_lld_dma.c **** 
 292:../generate/sc_drivers/r_ssif/src/lld/r_ssif_lld_dma.c ****     if (s_dma_driver_read_handle >= 0)
 293:../generate/sc_drivers/r_ssif/src/lld/r_ssif_lld_dma.c ****     {
 294:../generate/sc_drivers/r_ssif/src/lld/r_ssif_lld_dma.c ****         control(s_dma_driver_read_handle, CTL_DMAC_DISABLE, &remain);
 295:../generate/sc_drivers/r_ssif/src/lld/r_ssif_lld_dma.c ****     }
 296:../generate/sc_drivers/r_ssif/src/lld/r_ssif_lld_dma.c **** }
 297:../generate/sc_drivers/r_ssif/src/lld/r_ssif_lld_dma.c **** /******************************************************************************
 298:../generate/sc_drivers/r_ssif/src/lld/r_ssif_lld_dma.c ****  End of function R_SSIF_UnInitDMA
 299:../generate/sc_drivers/r_ssif/src/lld/r_ssif_lld_dma.c ****  *****************************************************************************/
 300:../generate/sc_drivers/r_ssif/src/lld/r_ssif_lld_dma.c **** 
 301:../generate/sc_drivers/r_ssif/src/lld/r_ssif_lld_dma.c **** /******************************************************************************
 302:../generate/sc_drivers/r_ssif/src/lld/r_ssif_lld_dma.c ****  * Function Name: R_SSIF_RestartDMA
 303:../generate/sc_drivers/r_ssif/src/lld/r_ssif_lld_dma.c ****  * @brief         Setup DMA_CH for specified SSIF channel (without allocate)
 304:../generate/sc_drivers/r_ssif/src/lld/r_ssif_lld_dma.c ****  * @param[in,out] p_info_ch: channel object
 305:../generate/sc_drivers/r_ssif/src/lld/r_ssif_lld_dma.c ****  * @retval        IOIF_ESUCCESS: Success
 306:../generate/sc_drivers/r_ssif/src/lld/r_ssif_lld_dma.c ****  * @retval        error code: Failure
 307:../generate/sc_drivers/r_ssif/src/lld/r_ssif_lld_dma.c ****  *****************************************************************************/
 308:../generate/sc_drivers/r_ssif/src/lld/r_ssif_lld_dma.c **** int_t R_SSIF_RestartDMA(ssif_info_ch_t* const p_info_ch)
 309:../generate/sc_drivers/r_ssif/src/lld/r_ssif_lld_dma.c **** {
 310:../generate/sc_drivers/r_ssif/src/lld/r_ssif_lld_dma.c ****     int_t ercd = IOIF_ESUCCESS;
 311:../generate/sc_drivers/r_ssif/src/lld/r_ssif_lld_dma.c ****     int_t dma_ret;
 312:../generate/sc_drivers/r_ssif/src/lld/r_ssif_lld_dma.c ****     uint32_t ssif_ch;
 313:../generate/sc_drivers/r_ssif/src/lld/r_ssif_lld_dma.c ****     st_r_drv_dmac_config_t dma_config;
 314:../generate/sc_drivers/r_ssif/src/lld/r_ssif_lld_dma.c ****     int_t result;
 315:../generate/sc_drivers/r_ssif/src/lld/r_ssif_lld_dma.c ****     st_r_drv_dmac_next_transfer_t next_transfer;
 316:../generate/sc_drivers/r_ssif/src/lld/r_ssif_lld_dma.c **** 
 317:../generate/sc_drivers/r_ssif/src/lld/r_ssif_lld_dma.c ****     if (NULL == p_info_ch)
 318:../generate/sc_drivers/r_ssif/src/lld/r_ssif_lld_dma.c ****     {
 319:../generate/sc_drivers/r_ssif/src/lld/r_ssif_lld_dma.c ****         return (IOIF_EFAULT);
 320:../generate/sc_drivers/r_ssif/src/lld/r_ssif_lld_dma.c ****     }
 321:../generate/sc_drivers/r_ssif/src/lld/r_ssif_lld_dma.c **** 
 322:../generate/sc_drivers/r_ssif/src/lld/r_ssif_lld_dma.c ****     ssif_ch = p_info_ch->channel;
 323:../generate/sc_drivers/r_ssif/src/lld/r_ssif_lld_dma.c **** 
 324:../generate/sc_drivers/r_ssif/src/lld/r_ssif_lld_dma.c ****     /* setup DMA channel for write (if necessary) */
 325:../generate/sc_drivers/r_ssif/src/lld/r_ssif_lld_dma.c ****     if (O_RDONLY != p_info_ch->openflag)
 326:../generate/sc_drivers/r_ssif/src/lld/r_ssif_lld_dma.c ****     {
 327:../generate/sc_drivers/r_ssif/src/lld/r_ssif_lld_dma.c ****         AIOCB * const p_tx_aio = &s_ssif_dma_tx_end_aiocb[ssif_ch];
 328:../generate/sc_drivers/r_ssif/src/lld/r_ssif_lld_dma.c ****         p_tx_aio->aio_sigevent.sigev_notify = SIGEV_THREAD;
 329:../generate/sc_drivers/r_ssif/src/lld/r_ssif_lld_dma.c ****         p_tx_aio->aio_sigevent.sigev_value.sival_ptr = (void *) p_info_ch;
 330:../generate/sc_drivers/r_ssif/src/lld/r_ssif_lld_dma.c ****     }
 331:../generate/sc_drivers/r_ssif/src/lld/r_ssif_lld_dma.c **** 
 332:../generate/sc_drivers/r_ssif/src/lld/r_ssif_lld_dma.c ****     /* setup DMA channel for read (if necessary) */
 333:../generate/sc_drivers/r_ssif/src/lld/r_ssif_lld_dma.c ****     if (O_WRONLY != p_info_ch->openflag)
 334:../generate/sc_drivers/r_ssif/src/lld/r_ssif_lld_dma.c ****     {
 335:../generate/sc_drivers/r_ssif/src/lld/r_ssif_lld_dma.c ****         AIOCB * const p_rx_aio = &s_ssif_dma_rx_end_aiocb[ssif_ch];
 336:../generate/sc_drivers/r_ssif/src/lld/r_ssif_lld_dma.c ****         p_rx_aio->aio_sigevent.sigev_notify = SIGEV_THREAD;
 337:../generate/sc_drivers/r_ssif/src/lld/r_ssif_lld_dma.c ****         p_rx_aio->aio_sigevent.sigev_value.sival_ptr = (void *) p_info_ch;
 338:../generate/sc_drivers/r_ssif/src/lld/r_ssif_lld_dma.c ****     }
 339:../generate/sc_drivers/r_ssif/src/lld/r_ssif_lld_dma.c **** 
 340:../generate/sc_drivers/r_ssif/src/lld/r_ssif_lld_dma.c ****     /* start DMA dummy transfer for write (if necessary) */
 341:../generate/sc_drivers/r_ssif/src/lld/r_ssif_lld_dma.c ****     if (O_RDONLY != p_info_ch->openflag)
 342:../generate/sc_drivers/r_ssif/src/lld/r_ssif_lld_dma.c ****     {
 343:../generate/sc_drivers/r_ssif/src/lld/r_ssif_lld_dma.c ****         /* setup short dummy transfer */
 344:../generate/sc_drivers/r_ssif/src/lld/r_ssif_lld_dma.c ****         s_ssif_txdma_dummy_trparam[ssif_ch].source_address = (void *) &s_ssif_tx_dummy_buf[0];
 345:../generate/sc_drivers/r_ssif/src/lld/r_ssif_lld_dma.c ****         s_ssif_txdma_dummy_trparam[ssif_ch].destination_address = (uint32_t *) &g_ssireg[ssif_ch]->
 346:../generate/sc_drivers/r_ssif/src/lld/r_ssif_lld_dma.c ****         s_ssif_txdma_dummy_trparam[ssif_ch].count = SSIF_DUMMY_DMA_TRN_SIZE_PRV_;
 347:../generate/sc_drivers/r_ssif/src/lld/r_ssif_lld_dma.c **** 
 348:../generate/sc_drivers/r_ssif/src/lld/r_ssif_lld_dma.c ****         dma_config.config.resource = s_ssif_dma_tx_resource[ssif_ch];                              
 349:../generate/sc_drivers/r_ssif/src/lld/r_ssif_lld_dma.c ****         dma_config.config.source_width = DMA_DATA_SIZE_2;                                          
 350:../generate/sc_drivers/r_ssif/src/lld/r_ssif_lld_dma.c ****         dma_config.config.destination_width = DMA_DATA_SIZE_2;                                     
 351:../generate/sc_drivers/r_ssif/src/lld/r_ssif_lld_dma.c ****         dma_config.config.source_address_type = DMA_ADDRESS_INCREMENT;                             
 352:../generate/sc_drivers/r_ssif/src/lld/r_ssif_lld_dma.c ****         dma_config.config.destination_address_type = DMA_ADDRESS_FIX;                              
 353:../generate/sc_drivers/r_ssif/src/lld/r_ssif_lld_dma.c ****         dma_config.config.direction = DMA_REQUEST_DESTINATION;                                     
 354:../generate/sc_drivers/r_ssif/src/lld/r_ssif_lld_dma.c ****         dma_config.config.source_address = s_ssif_txdma_dummy_trparam[ssif_ch].source_address;     
 355:../generate/sc_drivers/r_ssif/src/lld/r_ssif_lld_dma.c ****         dma_config.config.destination_address = s_ssif_txdma_dummy_trparam[ssif_ch].destination_add
 356:../generate/sc_drivers/r_ssif/src/lld/r_ssif_lld_dma.c ****         dma_config.config.count = s_ssif_txdma_dummy_trparam[ssif_ch].count;                       
 357:../generate/sc_drivers/r_ssif/src/lld/r_ssif_lld_dma.c ****         dma_config.config.p_dmaComplete = SSIF_DMA_TxEndCallback;                                  
 358:../generate/sc_drivers/r_ssif/src/lld/r_ssif_lld_dma.c **** 
 359:../generate/sc_drivers/r_ssif/src/lld/r_ssif_lld_dma.c ****         result = control(s_dma_driver_write_handle, CTL_DMAC_SET_CONFIGURATION, (void *) &dma_confi
 360:../generate/sc_drivers/r_ssif/src/lld/r_ssif_lld_dma.c **** 
 361:../generate/sc_drivers/r_ssif/src/lld/r_ssif_lld_dma.c ****         if (DRV_SUCCESS == result)
 362:../generate/sc_drivers/r_ssif/src/lld/r_ssif_lld_dma.c ****         {
 363:../generate/sc_drivers/r_ssif/src/lld/r_ssif_lld_dma.c ****             result = control(s_dma_driver_write_handle, CTL_DMAC_ENABLE, NULL);
 364:../generate/sc_drivers/r_ssif/src/lld/r_ssif_lld_dma.c ****         }
 365:../generate/sc_drivers/r_ssif/src/lld/r_ssif_lld_dma.c **** 
 366:../generate/sc_drivers/r_ssif/src/lld/r_ssif_lld_dma.c ****         if (DRV_SUCCESS == result)
 367:../generate/sc_drivers/r_ssif/src/lld/r_ssif_lld_dma.c ****         {
 368:../generate/sc_drivers/r_ssif/src/lld/r_ssif_lld_dma.c ****             next_transfer.source_address      = (void *) &s_ssif_tx_dummy_buf[0];
 369:../generate/sc_drivers/r_ssif/src/lld/r_ssif_lld_dma.c ****             next_transfer.destination_address = (uint32_t *) &g_ssireg[ssif_ch]->SSIFTDR.LONG;
 370:../generate/sc_drivers/r_ssif/src/lld/r_ssif_lld_dma.c ****             next_transfer.count               = SSIF_DUMMY_DMA_TRN_SIZE_PRV_;
 371:../generate/sc_drivers/r_ssif/src/lld/r_ssif_lld_dma.c **** 
 372:../generate/sc_drivers/r_ssif/src/lld/r_ssif_lld_dma.c ****             result = control(s_dma_driver_write_handle, CTL_DMAC_NEXT_TRANSFER, &next_transfer);
 373:../generate/sc_drivers/r_ssif/src/lld/r_ssif_lld_dma.c ****         }
 374:../generate/sc_drivers/r_ssif/src/lld/r_ssif_lld_dma.c **** 
 375:../generate/sc_drivers/r_ssif/src/lld/r_ssif_lld_dma.c ****         dma_ret = (DRV_SUCCESS == result) ? IOIF_ESUCCESS : IOIF_EERROR;
 376:../generate/sc_drivers/r_ssif/src/lld/r_ssif_lld_dma.c **** 
 377:../generate/sc_drivers/r_ssif/src/lld/r_ssif_lld_dma.c ****         if (IOIF_EERROR == dma_ret)
 378:../generate/sc_drivers/r_ssif/src/lld/r_ssif_lld_dma.c ****         {
 379:../generate/sc_drivers/r_ssif/src/lld/r_ssif_lld_dma.c ****             ercd = IOIF_EFAULT;
 380:../generate/sc_drivers/r_ssif/src/lld/r_ssif_lld_dma.c ****         }
 381:../generate/sc_drivers/r_ssif/src/lld/r_ssif_lld_dma.c ****     }
 382:../generate/sc_drivers/r_ssif/src/lld/r_ssif_lld_dma.c **** 
 383:../generate/sc_drivers/r_ssif/src/lld/r_ssif_lld_dma.c ****     /* start DMA dummy transfer for read (if necessary) */
 384:../generate/sc_drivers/r_ssif/src/lld/r_ssif_lld_dma.c ****     if (IOIF_ESUCCESS == ercd)
 385:../generate/sc_drivers/r_ssif/src/lld/r_ssif_lld_dma.c ****     {
 386:../generate/sc_drivers/r_ssif/src/lld/r_ssif_lld_dma.c ****         if (O_WRONLY != p_info_ch->openflag)
 387:../generate/sc_drivers/r_ssif/src/lld/r_ssif_lld_dma.c ****         {
 388:../generate/sc_drivers/r_ssif/src/lld/r_ssif_lld_dma.c ****             /* setup short dummy transfer */
 389:../generate/sc_drivers/r_ssif/src/lld/r_ssif_lld_dma.c ****             s_ssif_rxdma_dummy_trparam[ssif_ch].source_address = (uint32_t *) &g_ssireg[ssif_ch]->S
 390:../generate/sc_drivers/r_ssif/src/lld/r_ssif_lld_dma.c ****             s_ssif_rxdma_dummy_trparam[ssif_ch].destination_address = (void *) &s_ssif_rx_dummy_buf
 391:../generate/sc_drivers/r_ssif/src/lld/r_ssif_lld_dma.c ****             s_ssif_rxdma_dummy_trparam[ssif_ch].count = SSIF_DUMMY_DMA_TRN_SIZE_PRV_;
 392:../generate/sc_drivers/r_ssif/src/lld/r_ssif_lld_dma.c **** 
 393:../generate/sc_drivers/r_ssif/src/lld/r_ssif_lld_dma.c ****             dma_config.config.resource = s_ssif_dma_rx_resource[ssif_ch];                          
 394:../generate/sc_drivers/r_ssif/src/lld/r_ssif_lld_dma.c ****             dma_config.config.source_width = DMA_DATA_SIZE_2;                                      
 395:../generate/sc_drivers/r_ssif/src/lld/r_ssif_lld_dma.c ****             dma_config.config.destination_width = DMA_DATA_SIZE_2;                                 
 396:../generate/sc_drivers/r_ssif/src/lld/r_ssif_lld_dma.c ****             dma_config.config.source_address_type = DMA_ADDRESS_FIX;                               
 397:../generate/sc_drivers/r_ssif/src/lld/r_ssif_lld_dma.c ****             dma_config.config.destination_address_type = DMA_ADDRESS_INCREMENT;                    
 398:../generate/sc_drivers/r_ssif/src/lld/r_ssif_lld_dma.c ****             dma_config.config.direction = DMA_REQUEST_SOURCE;                                      
 399:../generate/sc_drivers/r_ssif/src/lld/r_ssif_lld_dma.c ****             dma_config.config.source_address = s_ssif_rxdma_dummy_trparam[ssif_ch].source_address; 
 400:../generate/sc_drivers/r_ssif/src/lld/r_ssif_lld_dma.c ****             dma_config.config.destination_address = s_ssif_rxdma_dummy_trparam[ssif_ch].destination
 401:../generate/sc_drivers/r_ssif/src/lld/r_ssif_lld_dma.c ****             dma_config.config.count = s_ssif_rxdma_dummy_trparam[ssif_ch].count;                   
 402:../generate/sc_drivers/r_ssif/src/lld/r_ssif_lld_dma.c ****             dma_config.config.p_dmaComplete = SSIF_DMA_RxEndCallback;                              
 403:../generate/sc_drivers/r_ssif/src/lld/r_ssif_lld_dma.c **** 
 404:../generate/sc_drivers/r_ssif/src/lld/r_ssif_lld_dma.c ****             result = control(s_dma_driver_read_handle, CTL_DMAC_SET_CONFIGURATION, (void *) &dma_co
 405:../generate/sc_drivers/r_ssif/src/lld/r_ssif_lld_dma.c **** 
 406:../generate/sc_drivers/r_ssif/src/lld/r_ssif_lld_dma.c ****             if (DRV_SUCCESS == result)
 407:../generate/sc_drivers/r_ssif/src/lld/r_ssif_lld_dma.c ****             {
 408:../generate/sc_drivers/r_ssif/src/lld/r_ssif_lld_dma.c ****                 result = control(s_dma_driver_read_handle, CTL_DMAC_ENABLE, NULL);
 409:../generate/sc_drivers/r_ssif/src/lld/r_ssif_lld_dma.c ****             }
 410:../generate/sc_drivers/r_ssif/src/lld/r_ssif_lld_dma.c **** 
 411:../generate/sc_drivers/r_ssif/src/lld/r_ssif_lld_dma.c ****             if (DRV_SUCCESS == result)
 412:../generate/sc_drivers/r_ssif/src/lld/r_ssif_lld_dma.c ****             {
 413:../generate/sc_drivers/r_ssif/src/lld/r_ssif_lld_dma.c ****                 next_transfer.source_address      = (uint32_t *) &g_ssireg[ssif_ch]->SSIFRDR.LONG;
 414:../generate/sc_drivers/r_ssif/src/lld/r_ssif_lld_dma.c ****                 next_transfer.destination_address = (void *) &s_ssif_rx_dummy_buf[0];
 415:../generate/sc_drivers/r_ssif/src/lld/r_ssif_lld_dma.c ****                 next_transfer.count               = SSIF_DUMMY_DMA_TRN_SIZE_PRV_;
 416:../generate/sc_drivers/r_ssif/src/lld/r_ssif_lld_dma.c **** 
 417:../generate/sc_drivers/r_ssif/src/lld/r_ssif_lld_dma.c ****                 result = control(s_dma_driver_read_handle, CTL_DMAC_NEXT_TRANSFER, &next_transfer);
 418:../generate/sc_drivers/r_ssif/src/lld/r_ssif_lld_dma.c ****             }
 419:../generate/sc_drivers/r_ssif/src/lld/r_ssif_lld_dma.c **** 
 420:../generate/sc_drivers/r_ssif/src/lld/r_ssif_lld_dma.c ****             dma_ret = (DRV_SUCCESS == result) ? IOIF_ESUCCESS : IOIF_EERROR;
 421:../generate/sc_drivers/r_ssif/src/lld/r_ssif_lld_dma.c **** 
 422:../generate/sc_drivers/r_ssif/src/lld/r_ssif_lld_dma.c ****             if (IOIF_EERROR == dma_ret)
 423:../generate/sc_drivers/r_ssif/src/lld/r_ssif_lld_dma.c ****             {
 424:../generate/sc_drivers/r_ssif/src/lld/r_ssif_lld_dma.c ****                 ercd = IOIF_EFAULT;
 425:../generate/sc_drivers/r_ssif/src/lld/r_ssif_lld_dma.c ****             }
 426:../generate/sc_drivers/r_ssif/src/lld/r_ssif_lld_dma.c ****         }
 427:../generate/sc_drivers/r_ssif/src/lld/r_ssif_lld_dma.c ****     }
 428:../generate/sc_drivers/r_ssif/src/lld/r_ssif_lld_dma.c **** 
 429:../generate/sc_drivers/r_ssif/src/lld/r_ssif_lld_dma.c ****     /* enable SSIF transfer */
 430:../generate/sc_drivers/r_ssif/src/lld/r_ssif_lld_dma.c ****     if (IOIF_ESUCCESS == ercd)
 431:../generate/sc_drivers/r_ssif/src/lld/r_ssif_lld_dma.c ****     {
 432:../generate/sc_drivers/r_ssif/src/lld/r_ssif_lld_dma.c ****         ercd = enable_ssif_transfer(p_info_ch);
 433:../generate/sc_drivers/r_ssif/src/lld/r_ssif_lld_dma.c ****     }
 434:../generate/sc_drivers/r_ssif/src/lld/r_ssif_lld_dma.c **** 
 435:../generate/sc_drivers/r_ssif/src/lld/r_ssif_lld_dma.c ****     return (ercd);
 436:../generate/sc_drivers/r_ssif/src/lld/r_ssif_lld_dma.c **** }
 437:../generate/sc_drivers/r_ssif/src/lld/r_ssif_lld_dma.c **** /******************************************************************************
 438:../generate/sc_drivers/r_ssif/src/lld/r_ssif_lld_dma.c ****  End of function R_SSIF_RestartDMA
 439:../generate/sc_drivers/r_ssif/src/lld/r_ssif_lld_dma.c ****  *****************************************************************************/
 440:../generate/sc_drivers/r_ssif/src/lld/r_ssif_lld_dma.c **** 
 441:../generate/sc_drivers/r_ssif/src/lld/r_ssif_lld_dma.c **** /******************************************************************************
 442:../generate/sc_drivers/r_ssif/src/lld/r_ssif_lld_dma.c ****  * Function Name: R_SSIF_CancelDMA
 443:../generate/sc_drivers/r_ssif/src/lld/r_ssif_lld_dma.c ****  * @brief         Pause DMA transfer for specified SSIF channel
 444:../generate/sc_drivers/r_ssif/src/lld/r_ssif_lld_dma.c ****  * @param[in,out] p_info_ch: channel object
 445:../generate/sc_drivers/r_ssif/src/lld/r_ssif_lld_dma.c ****  * @retval        none
 446:../generate/sc_drivers/r_ssif/src/lld/r_ssif_lld_dma.c ****  *****************************************************************************/
 447:../generate/sc_drivers/r_ssif/src/lld/r_ssif_lld_dma.c **** void R_SSIF_CancelDMA(const ssif_info_ch_t * const p_info_ch)
 448:../generate/sc_drivers/r_ssif/src/lld/r_ssif_lld_dma.c **** {
 449:../generate/sc_drivers/r_ssif/src/lld/r_ssif_lld_dma.c ****     uint32_t remain;
 450:../generate/sc_drivers/r_ssif/src/lld/r_ssif_lld_dma.c **** 
 451:../generate/sc_drivers/r_ssif/src/lld/r_ssif_lld_dma.c ****     if (NULL == p_info_ch)
 452:../generate/sc_drivers/r_ssif/src/lld/r_ssif_lld_dma.c ****     {
 453:../generate/sc_drivers/r_ssif/src/lld/r_ssif_lld_dma.c ****         return;
 454:../generate/sc_drivers/r_ssif/src/lld/r_ssif_lld_dma.c ****     }
 455:../generate/sc_drivers/r_ssif/src/lld/r_ssif_lld_dma.c **** 
 456:../generate/sc_drivers/r_ssif/src/lld/r_ssif_lld_dma.c ****     if (s_dma_driver_write_handle >= 0)
 457:../generate/sc_drivers/r_ssif/src/lld/r_ssif_lld_dma.c ****     {
 458:../generate/sc_drivers/r_ssif/src/lld/r_ssif_lld_dma.c ****         control(s_dma_driver_write_handle, CTL_DMAC_DISABLE, &remain);
 459:../generate/sc_drivers/r_ssif/src/lld/r_ssif_lld_dma.c ****     }
 460:../generate/sc_drivers/r_ssif/src/lld/r_ssif_lld_dma.c **** 
 461:../generate/sc_drivers/r_ssif/src/lld/r_ssif_lld_dma.c ****     if (s_dma_driver_read_handle >= 0)
 462:../generate/sc_drivers/r_ssif/src/lld/r_ssif_lld_dma.c ****     {
 463:../generate/sc_drivers/r_ssif/src/lld/r_ssif_lld_dma.c ****         control(s_dma_driver_read_handle, CTL_DMAC_DISABLE, &remain);
 464:../generate/sc_drivers/r_ssif/src/lld/r_ssif_lld_dma.c ****     }
 465:../generate/sc_drivers/r_ssif/src/lld/r_ssif_lld_dma.c **** }
 466:../generate/sc_drivers/r_ssif/src/lld/r_ssif_lld_dma.c **** /******************************************************************************
 467:../generate/sc_drivers/r_ssif/src/lld/r_ssif_lld_dma.c ****  End of function R_SSIF_CancelDMA
 468:../generate/sc_drivers/r_ssif/src/lld/r_ssif_lld_dma.c ****  *****************************************************************************/
 469:../generate/sc_drivers/r_ssif/src/lld/r_ssif_lld_dma.c **** 
 470:../generate/sc_drivers/r_ssif/src/lld/r_ssif_lld_dma.c **** /******************************************************************************
 471:../generate/sc_drivers/r_ssif/src/lld/r_ssif_lld_dma.c ****  Private functions
 472:../generate/sc_drivers/r_ssif/src/lld/r_ssif_lld_dma.c ****  *****************************************************************************/
 473:../generate/sc_drivers/r_ssif/src/lld/r_ssif_lld_dma.c **** 
 474:../generate/sc_drivers/r_ssif/src/lld/r_ssif_lld_dma.c **** /******************************************************************************
 475:../generate/sc_drivers/r_ssif/src/lld/r_ssif_lld_dma.c ****  * Function Name: enable_ssif_transfer
 476:../generate/sc_drivers/r_ssif/src/lld/r_ssif_lld_dma.c ****  * @brief         Start the SSIF DMA transfer for read and / or write
 477:../generate/sc_drivers/r_ssif/src/lld/r_ssif_lld_dma.c ****  * @param[in,out] p_info_ch: channel object
 478:../generate/sc_drivers/r_ssif/src/lld/r_ssif_lld_dma.c ****  * @retval        IOIF_ESUCCESS: Success
 479:../generate/sc_drivers/r_ssif/src/lld/r_ssif_lld_dma.c ****  * @retval        error code: Failure
 480:../generate/sc_drivers/r_ssif/src/lld/r_ssif_lld_dma.c ****  *****************************************************************************/
 481:../generate/sc_drivers/r_ssif/src/lld/r_ssif_lld_dma.c **** static int_t enable_ssif_transfer(ssif_info_ch_t * const p_info_ch)
 482:../generate/sc_drivers/r_ssif/src/lld/r_ssif_lld_dma.c **** {
 483:../generate/sc_drivers/r_ssif/src/lld/r_ssif_lld_dma.c ****     /* clear status and enable error interrupt */
 484:../generate/sc_drivers/r_ssif/src/lld/r_ssif_lld_dma.c ****     SSIF_EnableErrorInterrupt(p_info_ch->channel);
 485:../generate/sc_drivers/r_ssif/src/lld/r_ssif_lld_dma.c **** 
 486:../generate/sc_drivers/r_ssif/src/lld/r_ssif_lld_dma.c ****     /* enable end interrupt */
 487:../generate/sc_drivers/r_ssif/src/lld/r_ssif_lld_dma.c ****     RZA_IO_RegWrite_32((volatile uint32_t *) &g_ssireg[p_info_ch->channel]->SSIFCR.LONG, (uint32_t)
 488:../generate/sc_drivers/r_ssif/src/lld/r_ssif_lld_dma.c ****     SSIF_SSIFCR_TIE);
 489:../generate/sc_drivers/r_ssif/src/lld/r_ssif_lld_dma.c ****     RZA_IO_RegWrite_32((volatile uint32_t *) &g_ssireg[p_info_ch->channel]->SSIFCR.LONG, (uint32_t)
 490:../generate/sc_drivers/r_ssif/src/lld/r_ssif_lld_dma.c ****     SSIF_SSIFCR_RIE);
 491:../generate/sc_drivers/r_ssif/src/lld/r_ssif_lld_dma.c **** 
 492:../generate/sc_drivers/r_ssif/src/lld/r_ssif_lld_dma.c ****     if (O_RDWR == p_info_ch->openflag)
 493:../generate/sc_drivers/r_ssif/src/lld/r_ssif_lld_dma.c ****     {
 494:../generate/sc_drivers/r_ssif/src/lld/r_ssif_lld_dma.c ****         /* start write and read DMA at the same time */
 495:../generate/sc_drivers/r_ssif/src/lld/r_ssif_lld_dma.c ****         RZA_IO_RegWrite_32((volatile uint32_t *) &g_ssireg[p_info_ch->channel]->SSICR.LONG,
 496:../generate/sc_drivers/r_ssif/src/lld/r_ssif_lld_dma.c ****         (uint32_t) (1 <<SSIF_SSICR_TEN_SHIFT) | (1 <<SSIF_SSICR_REN_SHIFT),
 497:../generate/sc_drivers/r_ssif/src/lld/r_ssif_lld_dma.c ****         SSIF_SSICR_REN_SHIFT,
 498:../generate/sc_drivers/r_ssif/src/lld/r_ssif_lld_dma.c ****         (uint32_t) (1 <<SSIF_SSICR_TEN_SHIFT) | (1 <<SSIF_SSICR_REN_SHIFT));
 499:../generate/sc_drivers/r_ssif/src/lld/r_ssif_lld_dma.c ****     }
 500:../generate/sc_drivers/r_ssif/src/lld/r_ssif_lld_dma.c ****     else if (O_WRONLY == p_info_ch->openflag)
 501:../generate/sc_drivers/r_ssif/src/lld/r_ssif_lld_dma.c ****     {
 502:../generate/sc_drivers/r_ssif/src/lld/r_ssif_lld_dma.c ****         /* start write DMA only */
 503:../generate/sc_drivers/r_ssif/src/lld/r_ssif_lld_dma.c ****         RZA_IO_RegWrite_32((volatile uint32_t *) &g_ssireg[p_info_ch->channel]->SSICR.LONG, (uint32
 504:../generate/sc_drivers/r_ssif/src/lld/r_ssif_lld_dma.c ****         SSIF_SSICR_TEN);
 505:../generate/sc_drivers/r_ssif/src/lld/r_ssif_lld_dma.c ****     }
 506:../generate/sc_drivers/r_ssif/src/lld/r_ssif_lld_dma.c ****     else if (O_RDONLY == p_info_ch->openflag)
 507:../generate/sc_drivers/r_ssif/src/lld/r_ssif_lld_dma.c ****     {
 508:../generate/sc_drivers/r_ssif/src/lld/r_ssif_lld_dma.c ****         /* start read DMA only */
 509:../generate/sc_drivers/r_ssif/src/lld/r_ssif_lld_dma.c ****         RZA_IO_RegWrite_32((volatile uint32_t *) &g_ssireg[p_info_ch->channel]->SSICR.LONG, (uint32
 510:../generate/sc_drivers/r_ssif/src/lld/r_ssif_lld_dma.c ****         SSIF_SSICR_REN);
 511:../generate/sc_drivers/r_ssif/src/lld/r_ssif_lld_dma.c ****     }
 512:../generate/sc_drivers/r_ssif/src/lld/r_ssif_lld_dma.c ****     else
 513:../generate/sc_drivers/r_ssif/src/lld/r_ssif_lld_dma.c ****     {
 514:../generate/sc_drivers/r_ssif/src/lld/r_ssif_lld_dma.c ****         return (IOIF_EINVAL);
 515:../generate/sc_drivers/r_ssif/src/lld/r_ssif_lld_dma.c ****     }
 516:../generate/sc_drivers/r_ssif/src/lld/r_ssif_lld_dma.c **** 
 517:../generate/sc_drivers/r_ssif/src/lld/r_ssif_lld_dma.c ****     return (IOIF_ESUCCESS);
 518:../generate/sc_drivers/r_ssif/src/lld/r_ssif_lld_dma.c **** }
 519:../generate/sc_drivers/r_ssif/src/lld/r_ssif_lld_dma.c **** /******************************************************************************
 520:../generate/sc_drivers/r_ssif/src/lld/r_ssif_lld_dma.c ****  End of function enable_ssif_transfer
 521:../generate/sc_drivers/r_ssif/src/lld/r_ssif_lld_dma.c ****  *****************************************************************************/
 522:../generate/sc_drivers/r_ssif/src/lld/r_ssif_lld_dma.c **** 
 523:../generate/sc_drivers/r_ssif/src/lld/r_ssif_lld_dma.c **** /******************************************************************************
 524:../generate/sc_drivers/r_ssif/src/lld/r_ssif_lld_dma.c ****  * Function Name: open_dma_driver
 525:../generate/sc_drivers/r_ssif/src/lld/r_ssif_lld_dma.c ****  * @brief         Open the DMA driver for read and / or write
 526:../generate/sc_drivers/r_ssif/src/lld/r_ssif_lld_dma.c ****  * @param[in,out] p_info_ch: channel object
 527:../generate/sc_drivers/r_ssif/src/lld/r_ssif_lld_dma.c ****  * @retval        IOIF_ESUCCESS: Success
 528:../generate/sc_drivers/r_ssif/src/lld/r_ssif_lld_dma.c ****  * @retval        error code: Failure
 529:../generate/sc_drivers/r_ssif/src/lld/r_ssif_lld_dma.c ****  *****************************************************************************/
 530:../generate/sc_drivers/r_ssif/src/lld/r_ssif_lld_dma.c **** static int_t open_dma_driver(ssif_info_ch_t * const p_info_ch)
 531:../generate/sc_drivers/r_ssif/src/lld/r_ssif_lld_dma.c **** {
 532:../generate/sc_drivers/r_ssif/src/lld/r_ssif_lld_dma.c ****     /* open DMA driver for write (if necessary) */
 533:../generate/sc_drivers/r_ssif/src/lld/r_ssif_lld_dma.c ****     if (O_RDONLY == p_info_ch->openflag)
 534:../generate/sc_drivers/r_ssif/src/lld/r_ssif_lld_dma.c ****     {
 535:../generate/sc_drivers/r_ssif/src/lld/r_ssif_lld_dma.c ****         p_info_ch->dma_tx_ch = -1;
 536:../generate/sc_drivers/r_ssif/src/lld/r_ssif_lld_dma.c ****     }
 537:../generate/sc_drivers/r_ssif/src/lld/r_ssif_lld_dma.c ****     else
 538:../generate/sc_drivers/r_ssif/src/lld/r_ssif_lld_dma.c ****     {
 539:../generate/sc_drivers/r_ssif/src/lld/r_ssif_lld_dma.c ****         /* close the driver handle if already open */
 540:../generate/sc_drivers/r_ssif/src/lld/r_ssif_lld_dma.c ****         if ((-1) != s_dma_driver_write_handle)
 541:../generate/sc_drivers/r_ssif/src/lld/r_ssif_lld_dma.c ****         {
 542:../generate/sc_drivers/r_ssif/src/lld/r_ssif_lld_dma.c ****             close(s_dma_driver_write_handle);
 543:../generate/sc_drivers/r_ssif/src/lld/r_ssif_lld_dma.c ****         }
 544:../generate/sc_drivers/r_ssif/src/lld/r_ssif_lld_dma.c **** 
 545:../generate/sc_drivers/r_ssif/src/lld/r_ssif_lld_dma.c ****         s_dma_driver_write_handle = open(DEVICE_INDENTIFIER "dma_ssif_wr", O_WRONLY);
 546:../generate/sc_drivers/r_ssif/src/lld/r_ssif_lld_dma.c **** 
 547:../generate/sc_drivers/r_ssif/src/lld/r_ssif_lld_dma.c ****         /* we failed to open the DMA driver */
 548:../generate/sc_drivers/r_ssif/src/lld/r_ssif_lld_dma.c ****         if (s_dma_driver_write_handle < 0)
 549:../generate/sc_drivers/r_ssif/src/lld/r_ssif_lld_dma.c ****         {
 550:../generate/sc_drivers/r_ssif/src/lld/r_ssif_lld_dma.c ****             return (IOIF_EFAULT);
 551:../generate/sc_drivers/r_ssif/src/lld/r_ssif_lld_dma.c ****         }
 552:../generate/sc_drivers/r_ssif/src/lld/r_ssif_lld_dma.c ****     }
 553:../generate/sc_drivers/r_ssif/src/lld/r_ssif_lld_dma.c **** 
 554:../generate/sc_drivers/r_ssif/src/lld/r_ssif_lld_dma.c ****     /* open DMA driver for read (if necessary) */
 555:../generate/sc_drivers/r_ssif/src/lld/r_ssif_lld_dma.c ****     if (O_WRONLY == p_info_ch->openflag)
 556:../generate/sc_drivers/r_ssif/src/lld/r_ssif_lld_dma.c ****     {
 557:../generate/sc_drivers/r_ssif/src/lld/r_ssif_lld_dma.c ****         p_info_ch->dma_rx_ch = -1;
 558:../generate/sc_drivers/r_ssif/src/lld/r_ssif_lld_dma.c ****     }
 559:../generate/sc_drivers/r_ssif/src/lld/r_ssif_lld_dma.c ****     else
 560:../generate/sc_drivers/r_ssif/src/lld/r_ssif_lld_dma.c ****     {
 561:../generate/sc_drivers/r_ssif/src/lld/r_ssif_lld_dma.c ****         /* close the driver handle if already open */
 562:../generate/sc_drivers/r_ssif/src/lld/r_ssif_lld_dma.c ****         if ((-1) != s_dma_driver_read_handle)
 563:../generate/sc_drivers/r_ssif/src/lld/r_ssif_lld_dma.c ****         {
 564:../generate/sc_drivers/r_ssif/src/lld/r_ssif_lld_dma.c ****             close(s_dma_driver_read_handle);
 565:../generate/sc_drivers/r_ssif/src/lld/r_ssif_lld_dma.c ****         }
 566:../generate/sc_drivers/r_ssif/src/lld/r_ssif_lld_dma.c **** 
 567:../generate/sc_drivers/r_ssif/src/lld/r_ssif_lld_dma.c ****         s_dma_driver_read_handle = open(DEVICE_INDENTIFIER "dma_ssif_rd", O_RDONLY);
 568:../generate/sc_drivers/r_ssif/src/lld/r_ssif_lld_dma.c **** 
 569:../generate/sc_drivers/r_ssif/src/lld/r_ssif_lld_dma.c ****         /* we failed to open the DMA driver */
 570:../generate/sc_drivers/r_ssif/src/lld/r_ssif_lld_dma.c ****         if (s_dma_driver_read_handle < 0)
 571:../generate/sc_drivers/r_ssif/src/lld/r_ssif_lld_dma.c ****         {
 572:../generate/sc_drivers/r_ssif/src/lld/r_ssif_lld_dma.c ****             return (IOIF_EFAULT);
 573:../generate/sc_drivers/r_ssif/src/lld/r_ssif_lld_dma.c ****         }
 574:../generate/sc_drivers/r_ssif/src/lld/r_ssif_lld_dma.c ****     }
 575:../generate/sc_drivers/r_ssif/src/lld/r_ssif_lld_dma.c ****     return (IOIF_ESUCCESS);
 576:../generate/sc_drivers/r_ssif/src/lld/r_ssif_lld_dma.c **** }
 577:../generate/sc_drivers/r_ssif/src/lld/r_ssif_lld_dma.c **** /******************************************************************************
 578:../generate/sc_drivers/r_ssif/src/lld/r_ssif_lld_dma.c ****  End of function open_dma_driver
 579:../generate/sc_drivers/r_ssif/src/lld/r_ssif_lld_dma.c ****  *****************************************************************************/
 580:../generate/sc_drivers/r_ssif/src/lld/r_ssif_lld_dma.c **** 
 581:../generate/sc_drivers/r_ssif/src/lld/r_ssif_lld_dma.c **** /******************************************************************************
 582:../generate/sc_drivers/r_ssif/src/lld/r_ssif_lld_dma.c ****  * Function Name: SSIF_DMA_TxEndCallback
 583:../generate/sc_drivers/r_ssif/src/lld/r_ssif_lld_dma.c ****  * @brief         DMA callback function
 584:../generate/sc_drivers/r_ssif/src/lld/r_ssif_lld_dma.c ****  * @retval        none
 585:../generate/sc_drivers/r_ssif/src/lld/r_ssif_lld_dma.c ****  *****************************************************************************/
 586:../generate/sc_drivers/r_ssif/src/lld/r_ssif_lld_dma.c **** static void SSIF_DMA_TxEndCallback(void)
 587:../generate/sc_drivers/r_ssif/src/lld/r_ssif_lld_dma.c **** {
 588:../generate/sc_drivers/r_ssif/src/lld/r_ssif_lld_dma.c ****     ssif_info_ch_t * const p_info_ch = sp_info_ch;
 589:../generate/sc_drivers/r_ssif/src/lld/r_ssif_lld_dma.c ****     uint32_t ssif_ch;
 590:../generate/sc_drivers/r_ssif/src/lld/r_ssif_lld_dma.c ****     st_r_drv_dmac_next_transfer_t next_transfer;
 591:../generate/sc_drivers/r_ssif/src/lld/r_ssif_lld_dma.c **** 
 592:../generate/sc_drivers/r_ssif/src/lld/r_ssif_lld_dma.c **** 
 593:../generate/sc_drivers/r_ssif/src/lld/r_ssif_lld_dma.c ****     if (NULL == p_info_ch)
 594:../generate/sc_drivers/r_ssif/src/lld/r_ssif_lld_dma.c ****     {
 595:../generate/sc_drivers/r_ssif/src/lld/r_ssif_lld_dma.c ****         return;
 596:../generate/sc_drivers/r_ssif/src/lld/r_ssif_lld_dma.c ****     }
 597:../generate/sc_drivers/r_ssif/src/lld/r_ssif_lld_dma.c **** 
 598:../generate/sc_drivers/r_ssif/src/lld/r_ssif_lld_dma.c ****     ssif_ch = p_info_ch->channel;
 599:../generate/sc_drivers/r_ssif/src/lld/r_ssif_lld_dma.c **** 
 600:../generate/sc_drivers/r_ssif/src/lld/r_ssif_lld_dma.c ****     if (NULL != p_info_ch->p_aio_tx_curr)
 601:../generate/sc_drivers/r_ssif/src/lld/r_ssif_lld_dma.c ****     {
 602:../generate/sc_drivers/r_ssif/src/lld/r_ssif_lld_dma.c ****         /* now complete user request transfer, Signal to application */
 603:../generate/sc_drivers/r_ssif/src/lld/r_ssif_lld_dma.c **** 
 604:../generate/sc_drivers/r_ssif/src/lld/r_ssif_lld_dma.c ****         /* return aio complete */
 605:../generate/sc_drivers/r_ssif/src/lld/r_ssif_lld_dma.c ****         p_info_ch->p_aio_tx_curr->aio_return = (ssize_t) p_info_ch->p_aio_tx_curr->aio_nbytes;
 606:../generate/sc_drivers/r_ssif/src/lld/r_ssif_lld_dma.c ****         ahf_complete(&p_info_ch->tx_que, p_info_ch->p_aio_tx_curr);
 607:../generate/sc_drivers/r_ssif/src/lld/r_ssif_lld_dma.c ****     }
 608:../generate/sc_drivers/r_ssif/src/lld/r_ssif_lld_dma.c **** 
 609:../generate/sc_drivers/r_ssif/src/lld/r_ssif_lld_dma.c ****     /* copy next to curr (even if it's NULL) */
 610:../generate/sc_drivers/r_ssif/src/lld/r_ssif_lld_dma.c ****     p_info_ch->p_aio_tx_curr = p_info_ch->p_aio_tx_next;
 611:../generate/sc_drivers/r_ssif/src/lld/r_ssif_lld_dma.c **** 
 612:../generate/sc_drivers/r_ssif/src/lld/r_ssif_lld_dma.c ****     /* get next request (it could be NULL) */
 613:../generate/sc_drivers/r_ssif/src/lld/r_ssif_lld_dma.c ****     p_info_ch->p_aio_tx_next = ahf_removehead(&p_info_ch->tx_que);
 614:../generate/sc_drivers/r_ssif/src/lld/r_ssif_lld_dma.c **** 
 615:../generate/sc_drivers/r_ssif/src/lld/r_ssif_lld_dma.c ****     if (NULL != p_info_ch->p_aio_tx_next)
 616:../generate/sc_drivers/r_ssif/src/lld/r_ssif_lld_dma.c ****     {
 617:../generate/sc_drivers/r_ssif/src/lld/r_ssif_lld_dma.c ****         next_transfer.source_address      = (void *) p_info_ch->p_aio_tx_next->aio_buf;
 618:../generate/sc_drivers/r_ssif/src/lld/r_ssif_lld_dma.c ****         next_transfer.destination_address = (uint32_t *) &g_ssireg[ssif_ch]->SSIFTDR.LONG;
 619:../generate/sc_drivers/r_ssif/src/lld/r_ssif_lld_dma.c ****         next_transfer.count               = (uint32_t) p_info_ch->p_aio_tx_next->aio_nbytes;
 620:../generate/sc_drivers/r_ssif/src/lld/r_ssif_lld_dma.c ****     }
 621:../generate/sc_drivers/r_ssif/src/lld/r_ssif_lld_dma.c ****     else
 622:../generate/sc_drivers/r_ssif/src/lld/r_ssif_lld_dma.c ****     {
 623:../generate/sc_drivers/r_ssif/src/lld/r_ssif_lld_dma.c ****         next_transfer.source_address      = (void *) s_ssif_txdma_dummy_trparam[ssif_ch].source_add
 624:../generate/sc_drivers/r_ssif/src/lld/r_ssif_lld_dma.c ****         next_transfer.destination_address = (void *) s_ssif_txdma_dummy_trparam[ssif_ch].destinatio
 625:../generate/sc_drivers/r_ssif/src/lld/r_ssif_lld_dma.c ****         next_transfer.count               = (uint32_t) s_ssif_txdma_dummy_trparam[ssif_ch].count;
 626:../generate/sc_drivers/r_ssif/src/lld/r_ssif_lld_dma.c ****     }
 627:../generate/sc_drivers/r_ssif/src/lld/r_ssif_lld_dma.c **** 
 628:../generate/sc_drivers/r_ssif/src/lld/r_ssif_lld_dma.c ****     control(s_dma_driver_write_handle, CTL_DMAC_NEXT_TRANSFER, &next_transfer);
 629:../generate/sc_drivers/r_ssif/src/lld/r_ssif_lld_dma.c **** }
 630:../generate/sc_drivers/r_ssif/src/lld/r_ssif_lld_dma.c **** /******************************************************************************
 631:../generate/sc_drivers/r_ssif/src/lld/r_ssif_lld_dma.c ****  End of function SSIF_DMA_TxEndCallback
 632:../generate/sc_drivers/r_ssif/src/lld/r_ssif_lld_dma.c ****  *****************************************************************************/
 633:../generate/sc_drivers/r_ssif/src/lld/r_ssif_lld_dma.c **** 
 634:../generate/sc_drivers/r_ssif/src/lld/r_ssif_lld_dma.c **** /******************************************************************************
 635:../generate/sc_drivers/r_ssif/src/lld/r_ssif_lld_dma.c ****  * Function Name: SSIF_DMA_RxEndCallback
 636:../generate/sc_drivers/r_ssif/src/lld/r_ssif_lld_dma.c ****  * @brief         DMA callback function
 637:../generate/sc_drivers/r_ssif/src/lld/r_ssif_lld_dma.c ****  * @retval        none
 638:../generate/sc_drivers/r_ssif/src/lld/r_ssif_lld_dma.c ****  *****************************************************************************/
 639:../generate/sc_drivers/r_ssif/src/lld/r_ssif_lld_dma.c **** static void SSIF_DMA_RxEndCallback(void)
 640:../generate/sc_drivers/r_ssif/src/lld/r_ssif_lld_dma.c **** {
  28              		.loc 1 640 1 view -0
  29              		.cfi_startproc
  30              		@ args = 0, pretend = 0, frame = 16
  31              		@ frame_needed = 0, uses_anonymous_args = 0
  32 0000 30402DE9 		push	{r4, r5, lr}
  33              		.cfi_def_cfa_offset 12
  34              		.cfi_offset 4, -12
  35              		.cfi_offset 5, -8
  36              		.cfi_offset 14, -4
  37 0004 14D04DE2 		sub	sp, sp, #20
  38              		.cfi_def_cfa_offset 32
 641:../generate/sc_drivers/r_ssif/src/lld/r_ssif_lld_dma.c ****     ssif_info_ch_t * const p_info_ch = sp_info_ch;
  39              		.loc 1 641 5 view .LVU1
  40              		.loc 1 641 28 is_stmt 0 view .LVU2
  41 0008 003000E3 		movw	r3, #:lower16:.LANCHOR0
  42 000c 003040E3 		movt	r3, #:upper16:.LANCHOR0
  43 0010 004093E5 		ldr	r4, [r3]
  44              	.LVL0:
 642:../generate/sc_drivers/r_ssif/src/lld/r_ssif_lld_dma.c ****     uint32_t ssif_ch;
  45              		.loc 1 642 5 is_stmt 1 view .LVU3
 643:../generate/sc_drivers/r_ssif/src/lld/r_ssif_lld_dma.c ****     st_r_drv_dmac_next_transfer_t next_transfer;
  46              		.loc 1 643 5 view .LVU4
 644:../generate/sc_drivers/r_ssif/src/lld/r_ssif_lld_dma.c **** 
 645:../generate/sc_drivers/r_ssif/src/lld/r_ssif_lld_dma.c ****     if (NULL == p_info_ch)
  47              		.loc 1 645 5 view .LVU5
  48              		.loc 1 645 8 is_stmt 0 view .LVU6
  49 0014 000054E3 		cmp	r4, #0
  50 0018 1F00000A 		beq	.L1
 646:../generate/sc_drivers/r_ssif/src/lld/r_ssif_lld_dma.c ****     {
 647:../generate/sc_drivers/r_ssif/src/lld/r_ssif_lld_dma.c ****         return;
 648:../generate/sc_drivers/r_ssif/src/lld/r_ssif_lld_dma.c ****     }
 649:../generate/sc_drivers/r_ssif/src/lld/r_ssif_lld_dma.c **** 
 650:../generate/sc_drivers/r_ssif/src/lld/r_ssif_lld_dma.c ****     ssif_ch = p_info_ch->channel;
  51              		.loc 1 650 5 is_stmt 1 view .LVU7
  52              		.loc 1 650 13 is_stmt 0 view .LVU8
  53 001c 005094E5 		ldr	r5, [r4]
  54              	.LVL1:
 651:../generate/sc_drivers/r_ssif/src/lld/r_ssif_lld_dma.c **** 
 652:../generate/sc_drivers/r_ssif/src/lld/r_ssif_lld_dma.c ****     if (NULL != p_info_ch->p_aio_rx_curr)
  55              		.loc 1 652 5 is_stmt 1 view .LVU9
  56              		.loc 1 652 26 is_stmt 0 view .LVU10
  57 0020 643094E5 		ldr	r3, [r4, #100]
  58              		.loc 1 652 8 view .LVU11
  59 0024 000053E3 		cmp	r3, #0
  60 0028 0400000A 		beq	.L4
 653:../generate/sc_drivers/r_ssif/src/lld/r_ssif_lld_dma.c ****     {
 654:../generate/sc_drivers/r_ssif/src/lld/r_ssif_lld_dma.c ****         /* now complete user request transfer, Signal to application */
 655:../generate/sc_drivers/r_ssif/src/lld/r_ssif_lld_dma.c **** 
 656:../generate/sc_drivers/r_ssif/src/lld/r_ssif_lld_dma.c ****         /* return aio complete */
 657:../generate/sc_drivers/r_ssif/src/lld/r_ssif_lld_dma.c ****         p_info_ch->p_aio_rx_curr->aio_return = (ssize_t) p_info_ch->p_aio_rx_curr->aio_nbytes;
  61              		.loc 1 657 9 is_stmt 1 view .LVU12
  62              		.loc 1 657 82 is_stmt 0 view .LVU13
  63 002c 182093E5 		ldr	r2, [r3, #24]
  64              		.loc 1 657 46 view .LVU14
  65 0030 082083E5 		str	r2, [r3, #8]
 658:../generate/sc_drivers/r_ssif/src/lld/r_ssif_lld_dma.c ****         ahf_complete(&p_info_ch->rx_que, p_info_ch->p_aio_rx_curr);
  66              		.loc 1 658 9 is_stmt 1 view .LVU15
  67 0034 641094E5 		ldr	r1, [r4, #100]
  68 0038 340084E2 		add	r0, r4, #52
  69 003c FEFFFFEB 		bl	ahf_complete
  70              	.LVL2:
  71              	.L4:
 659:../generate/sc_drivers/r_ssif/src/lld/r_ssif_lld_dma.c ****     }
 660:../generate/sc_drivers/r_ssif/src/lld/r_ssif_lld_dma.c **** 
 661:../generate/sc_drivers/r_ssif/src/lld/r_ssif_lld_dma.c ****     /* copy next to curr (even if it's NULL) */
 662:../generate/sc_drivers/r_ssif/src/lld/r_ssif_lld_dma.c ****     p_info_ch->p_aio_rx_curr = p_info_ch->p_aio_rx_next;
  72              		.loc 1 662 5 view .LVU16
  73              		.loc 1 662 41 is_stmt 0 view .LVU17
  74 0040 683094E5 		ldr	r3, [r4, #104]
  75              		.loc 1 662 30 view .LVU18
  76 0044 643084E5 		str	r3, [r4, #100]
 663:../generate/sc_drivers/r_ssif/src/lld/r_ssif_lld_dma.c **** 
 664:../generate/sc_drivers/r_ssif/src/lld/r_ssif_lld_dma.c ****     /* get next request (it could be NULL) */
 665:../generate/sc_drivers/r_ssif/src/lld/r_ssif_lld_dma.c ****     p_info_ch->p_aio_rx_next = ahf_removehead(&p_info_ch->rx_que);
  77              		.loc 1 665 5 is_stmt 1 view .LVU19
  78              		.loc 1 665 32 is_stmt 0 view .LVU20
  79 0048 340084E2 		add	r0, r4, #52
  80 004c FEFFFFEB 		bl	ahf_removehead
  81              	.LVL3:
  82              		.loc 1 665 30 view .LVU21
  83 0050 680084E5 		str	r0, [r4, #104]
 666:../generate/sc_drivers/r_ssif/src/lld/r_ssif_lld_dma.c **** 
 667:../generate/sc_drivers/r_ssif/src/lld/r_ssif_lld_dma.c ****     if (NULL != p_info_ch->p_aio_rx_next)
  84              		.loc 1 667 5 is_stmt 1 view .LVU22
  85              		.loc 1 667 8 is_stmt 0 view .LVU23
  86 0054 000050E3 		cmp	r0, #0
  87 0058 1100000A 		beq	.L5
 668:../generate/sc_drivers/r_ssif/src/lld/r_ssif_lld_dma.c ****     {
 669:../generate/sc_drivers/r_ssif/src/lld/r_ssif_lld_dma.c ****         next_transfer.source_address      = (uint32_t *) &g_ssireg[ssif_ch]->SSIFRDR.LONG;
  88              		.loc 1 669 9 is_stmt 1 view .LVU24
  89              		.loc 1 669 67 is_stmt 0 view .LVU25
  90 005c 003000E3 		movw	r3, #:lower16:g_ssireg
  91 0060 003040E3 		movt	r3, #:upper16:g_ssireg
  92 0064 053193E7 		ldr	r3, [r3, r5, lsl #2]
  93              		.loc 1 669 58 view .LVU26
  94 0068 1C3083E2 		add	r3, r3, #28
  95              		.loc 1 669 43 view .LVU27
  96 006c 04308DE5 		str	r3, [sp, #4]
 670:../generate/sc_drivers/r_ssif/src/lld/r_ssif_lld_dma.c ****         next_transfer.destination_address = (void *) p_info_ch->p_aio_rx_next->aio_buf;
  97              		.loc 1 670 9 is_stmt 1 view .LVU28
  98              		.loc 1 670 78 is_stmt 0 view .LVU29
  99 0070 143090E5 		ldr	r3, [r0, #20]
 100              		.loc 1 670 43 view .LVU30
 101 0074 08308DE5 		str	r3, [sp, #8]
 671:../generate/sc_drivers/r_ssif/src/lld/r_ssif_lld_dma.c ****         next_transfer.count               = (uint32_t) p_info_ch->p_aio_rx_next->aio_nbytes;
 102              		.loc 1 671 9 is_stmt 1 view .LVU31
 103              		.loc 1 671 80 is_stmt 0 view .LVU32
 104 0078 183090E5 		ldr	r3, [r0, #24]
 105              		.loc 1 671 43 view .LVU33
 106 007c 0C308DE5 		str	r3, [sp, #12]
 107              	.L6:
 672:../generate/sc_drivers/r_ssif/src/lld/r_ssif_lld_dma.c ****     }
 673:../generate/sc_drivers/r_ssif/src/lld/r_ssif_lld_dma.c ****     else
 674:../generate/sc_drivers/r_ssif/src/lld/r_ssif_lld_dma.c ****     {
 675:../generate/sc_drivers/r_ssif/src/lld/r_ssif_lld_dma.c ****         next_transfer.source_address      = (void *) s_ssif_rxdma_dummy_trparam[ssif_ch].source_add
 676:../generate/sc_drivers/r_ssif/src/lld/r_ssif_lld_dma.c ****         next_transfer.destination_address = (void *) s_ssif_rxdma_dummy_trparam[ssif_ch].destinatio
 677:../generate/sc_drivers/r_ssif/src/lld/r_ssif_lld_dma.c ****         next_transfer.count               = (uint32_t) s_ssif_rxdma_dummy_trparam[ssif_ch].count;
 678:../generate/sc_drivers/r_ssif/src/lld/r_ssif_lld_dma.c ****     }
 679:../generate/sc_drivers/r_ssif/src/lld/r_ssif_lld_dma.c **** 
 680:../generate/sc_drivers/r_ssif/src/lld/r_ssif_lld_dma.c ****     control(s_dma_driver_read_handle, CTL_DMAC_NEXT_TRANSFER, &next_transfer);
 108              		.loc 1 680 5 is_stmt 1 view .LVU34
 109 0080 003000E3 		movw	r3, #:lower16:.LANCHOR2
 110 0084 003040E3 		movt	r3, #:upper16:.LANCHOR2
 111 0088 04208DE2 		add	r2, sp, #4
 112 008c 0510A0E3 		mov	r1, #5
 113 0090 3B1040E3 		movt	r1, 59
 114 0094 000093E5 		ldr	r0, [r3]
 115 0098 FEFFFFEB 		bl	control
 116              	.LVL4:
 117              	.L1:
 681:../generate/sc_drivers/r_ssif/src/lld/r_ssif_lld_dma.c **** }
 118              		.loc 1 681 1 is_stmt 0 view .LVU35
 119 009c 14D08DE2 		add	sp, sp, #20
 120              		.cfi_remember_state
 121              		.cfi_def_cfa_offset 12
 122              		@ sp needed
 123 00a0 3080BDE8 		pop	{r4, r5, pc}
 124              	.LVL5:
 125              	.L5:
 126              		.cfi_restore_state
 675:../generate/sc_drivers/r_ssif/src/lld/r_ssif_lld_dma.c ****         next_transfer.destination_address = (void *) s_ssif_rxdma_dummy_trparam[ssif_ch].destinatio
 127              		.loc 1 675 9 is_stmt 1 view .LVU36
 675:../generate/sc_drivers/r_ssif/src/lld/r_ssif_lld_dma.c ****         next_transfer.destination_address = (void *) s_ssif_rxdma_dummy_trparam[ssif_ch].destinatio
 128              		.loc 1 675 45 is_stmt 0 view .LVU37
 129 00a4 003000E3 		movw	r3, #:lower16:.LANCHOR1
 130 00a8 003040E3 		movt	r3, #:upper16:.LANCHOR1
 131 00ac 8520A0E1 		lsl	r2, r5, #1
 132 00b0 051082E0 		add	r1, r2, r5
 133 00b4 0111A0E1 		lsl	r1, r1, #2
 134 00b8 010083E0 		add	r0, r3, r1
 135 00bc 011093E7 		ldr	r1, [r3, r1]
 675:../generate/sc_drivers/r_ssif/src/lld/r_ssif_lld_dma.c ****         next_transfer.destination_address = (void *) s_ssif_rxdma_dummy_trparam[ssif_ch].destinatio
 136              		.loc 1 675 43 view .LVU38
 137 00c0 04108DE5 		str	r1, [sp, #4]
 676:../generate/sc_drivers/r_ssif/src/lld/r_ssif_lld_dma.c ****         next_transfer.count               = (uint32_t) s_ssif_rxdma_dummy_trparam[ssif_ch].count;
 138              		.loc 1 676 9 is_stmt 1 view .LVU39
 676:../generate/sc_drivers/r_ssif/src/lld/r_ssif_lld_dma.c ****         next_transfer.count               = (uint32_t) s_ssif_rxdma_dummy_trparam[ssif_ch].count;
 139              		.loc 1 676 45 is_stmt 0 view .LVU40
 140 00c4 041090E5 		ldr	r1, [r0, #4]
 676:../generate/sc_drivers/r_ssif/src/lld/r_ssif_lld_dma.c ****         next_transfer.count               = (uint32_t) s_ssif_rxdma_dummy_trparam[ssif_ch].count;
 141              		.loc 1 676 43 view .LVU41
 142 00c8 08108DE5 		str	r1, [sp, #8]
 677:../generate/sc_drivers/r_ssif/src/lld/r_ssif_lld_dma.c ****     }
 143              		.loc 1 677 9 is_stmt 1 view .LVU42
 677:../generate/sc_drivers/r_ssif/src/lld/r_ssif_lld_dma.c ****     }
 144              		.loc 1 677 91 is_stmt 0 view .LVU43
 145 00cc 083090E5 		ldr	r3, [r0, #8]
 677:../generate/sc_drivers/r_ssif/src/lld/r_ssif_lld_dma.c ****     }
 146              		.loc 1 677 43 view .LVU44
 147 00d0 0C308DE5 		str	r3, [sp, #12]
 148 00d4 E9FFFFEA 		b	.L6
 149              		.cfi_endproc
 150              	.LFE13:
 152              		.section	.text.SSIF_DMA_TxEndCallback,"ax",%progbits
 153              		.align	2
 154              		.syntax unified
 155              		.arm
 156              		.fpu neon
 158              	SSIF_DMA_TxEndCallback:
 159              	.LFB12:
 587:../generate/sc_drivers/r_ssif/src/lld/r_ssif_lld_dma.c ****     ssif_info_ch_t * const p_info_ch = sp_info_ch;
 160              		.loc 1 587 1 is_stmt 1 view -0
 161              		.cfi_startproc
 162              		@ args = 0, pretend = 0, frame = 16
 163              		@ frame_needed = 0, uses_anonymous_args = 0
 164 0000 30402DE9 		push	{r4, r5, lr}
 165              		.cfi_def_cfa_offset 12
 166              		.cfi_offset 4, -12
 167              		.cfi_offset 5, -8
 168              		.cfi_offset 14, -4
 169 0004 14D04DE2 		sub	sp, sp, #20
 170              		.cfi_def_cfa_offset 32
 588:../generate/sc_drivers/r_ssif/src/lld/r_ssif_lld_dma.c ****     uint32_t ssif_ch;
 171              		.loc 1 588 5 view .LVU46
 588:../generate/sc_drivers/r_ssif/src/lld/r_ssif_lld_dma.c ****     uint32_t ssif_ch;
 172              		.loc 1 588 28 is_stmt 0 view .LVU47
 173 0008 003000E3 		movw	r3, #:lower16:.LANCHOR0
 174 000c 003040E3 		movt	r3, #:upper16:.LANCHOR0
 175 0010 004093E5 		ldr	r4, [r3]
 176              	.LVL6:
 589:../generate/sc_drivers/r_ssif/src/lld/r_ssif_lld_dma.c ****     st_r_drv_dmac_next_transfer_t next_transfer;
 177              		.loc 1 589 5 is_stmt 1 view .LVU48
 590:../generate/sc_drivers/r_ssif/src/lld/r_ssif_lld_dma.c **** 
 178              		.loc 1 590 5 view .LVU49
 593:../generate/sc_drivers/r_ssif/src/lld/r_ssif_lld_dma.c ****     {
 179              		.loc 1 593 5 view .LVU50
 593:../generate/sc_drivers/r_ssif/src/lld/r_ssif_lld_dma.c ****     {
 180              		.loc 1 593 8 is_stmt 0 view .LVU51
 181 0014 000054E3 		cmp	r4, #0
 182 0018 1F00000A 		beq	.L8
 598:../generate/sc_drivers/r_ssif/src/lld/r_ssif_lld_dma.c **** 
 183              		.loc 1 598 5 is_stmt 1 view .LVU52
 598:../generate/sc_drivers/r_ssif/src/lld/r_ssif_lld_dma.c **** 
 184              		.loc 1 598 13 is_stmt 0 view .LVU53
 185 001c 005094E5 		ldr	r5, [r4]
 186              	.LVL7:
 600:../generate/sc_drivers/r_ssif/src/lld/r_ssif_lld_dma.c ****     {
 187              		.loc 1 600 5 is_stmt 1 view .LVU54
 600:../generate/sc_drivers/r_ssif/src/lld/r_ssif_lld_dma.c ****     {
 188              		.loc 1 600 26 is_stmt 0 view .LVU55
 189 0020 5C3094E5 		ldr	r3, [r4, #92]
 600:../generate/sc_drivers/r_ssif/src/lld/r_ssif_lld_dma.c ****     {
 190              		.loc 1 600 8 view .LVU56
 191 0024 000053E3 		cmp	r3, #0
 192 0028 0400000A 		beq	.L11
 605:../generate/sc_drivers/r_ssif/src/lld/r_ssif_lld_dma.c ****         ahf_complete(&p_info_ch->tx_que, p_info_ch->p_aio_tx_curr);
 193              		.loc 1 605 9 is_stmt 1 view .LVU57
 605:../generate/sc_drivers/r_ssif/src/lld/r_ssif_lld_dma.c ****         ahf_complete(&p_info_ch->tx_que, p_info_ch->p_aio_tx_curr);
 194              		.loc 1 605 82 is_stmt 0 view .LVU58
 195 002c 182093E5 		ldr	r2, [r3, #24]
 605:../generate/sc_drivers/r_ssif/src/lld/r_ssif_lld_dma.c ****         ahf_complete(&p_info_ch->tx_que, p_info_ch->p_aio_tx_curr);
 196              		.loc 1 605 46 view .LVU59
 197 0030 082083E5 		str	r2, [r3, #8]
 606:../generate/sc_drivers/r_ssif/src/lld/r_ssif_lld_dma.c ****     }
 198              		.loc 1 606 9 is_stmt 1 view .LVU60
 199 0034 5C1094E5 		ldr	r1, [r4, #92]
 200 0038 1C0084E2 		add	r0, r4, #28
 201 003c FEFFFFEB 		bl	ahf_complete
 202              	.LVL8:
 203              	.L11:
 610:../generate/sc_drivers/r_ssif/src/lld/r_ssif_lld_dma.c **** 
 204              		.loc 1 610 5 view .LVU61
 610:../generate/sc_drivers/r_ssif/src/lld/r_ssif_lld_dma.c **** 
 205              		.loc 1 610 41 is_stmt 0 view .LVU62
 206 0040 603094E5 		ldr	r3, [r4, #96]
 610:../generate/sc_drivers/r_ssif/src/lld/r_ssif_lld_dma.c **** 
 207              		.loc 1 610 30 view .LVU63
 208 0044 5C3084E5 		str	r3, [r4, #92]
 613:../generate/sc_drivers/r_ssif/src/lld/r_ssif_lld_dma.c **** 
 209              		.loc 1 613 5 is_stmt 1 view .LVU64
 613:../generate/sc_drivers/r_ssif/src/lld/r_ssif_lld_dma.c **** 
 210              		.loc 1 613 32 is_stmt 0 view .LVU65
 211 0048 1C0084E2 		add	r0, r4, #28
 212 004c FEFFFFEB 		bl	ahf_removehead
 213              	.LVL9:
 613:../generate/sc_drivers/r_ssif/src/lld/r_ssif_lld_dma.c **** 
 214              		.loc 1 613 30 view .LVU66
 215 0050 600084E5 		str	r0, [r4, #96]
 615:../generate/sc_drivers/r_ssif/src/lld/r_ssif_lld_dma.c ****     {
 216              		.loc 1 615 5 is_stmt 1 view .LVU67
 615:../generate/sc_drivers/r_ssif/src/lld/r_ssif_lld_dma.c ****     {
 217              		.loc 1 615 8 is_stmt 0 view .LVU68
 218 0054 000050E3 		cmp	r0, #0
 219 0058 1100000A 		beq	.L12
 617:../generate/sc_drivers/r_ssif/src/lld/r_ssif_lld_dma.c ****         next_transfer.destination_address = (uint32_t *) &g_ssireg[ssif_ch]->SSIFTDR.LONG;
 220              		.loc 1 617 9 is_stmt 1 view .LVU69
 617:../generate/sc_drivers/r_ssif/src/lld/r_ssif_lld_dma.c ****         next_transfer.destination_address = (uint32_t *) &g_ssireg[ssif_ch]->SSIFTDR.LONG;
 221              		.loc 1 617 78 is_stmt 0 view .LVU70
 222 005c 143090E5 		ldr	r3, [r0, #20]
 617:../generate/sc_drivers/r_ssif/src/lld/r_ssif_lld_dma.c ****         next_transfer.destination_address = (uint32_t *) &g_ssireg[ssif_ch]->SSIFTDR.LONG;
 223              		.loc 1 617 43 view .LVU71
 224 0060 04308DE5 		str	r3, [sp, #4]
 618:../generate/sc_drivers/r_ssif/src/lld/r_ssif_lld_dma.c ****         next_transfer.count               = (uint32_t) p_info_ch->p_aio_tx_next->aio_nbytes;
 225              		.loc 1 618 9 is_stmt 1 view .LVU72
 618:../generate/sc_drivers/r_ssif/src/lld/r_ssif_lld_dma.c ****         next_transfer.count               = (uint32_t) p_info_ch->p_aio_tx_next->aio_nbytes;
 226              		.loc 1 618 67 is_stmt 0 view .LVU73
 227 0064 003000E3 		movw	r3, #:lower16:g_ssireg
 228 0068 003040E3 		movt	r3, #:upper16:g_ssireg
 229 006c 053193E7 		ldr	r3, [r3, r5, lsl #2]
 618:../generate/sc_drivers/r_ssif/src/lld/r_ssif_lld_dma.c ****         next_transfer.count               = (uint32_t) p_info_ch->p_aio_tx_next->aio_nbytes;
 230              		.loc 1 618 58 view .LVU74
 231 0070 183083E2 		add	r3, r3, #24
 618:../generate/sc_drivers/r_ssif/src/lld/r_ssif_lld_dma.c ****         next_transfer.count               = (uint32_t) p_info_ch->p_aio_tx_next->aio_nbytes;
 232              		.loc 1 618 43 view .LVU75
 233 0074 08308DE5 		str	r3, [sp, #8]
 619:../generate/sc_drivers/r_ssif/src/lld/r_ssif_lld_dma.c ****     }
 234              		.loc 1 619 9 is_stmt 1 view .LVU76
 619:../generate/sc_drivers/r_ssif/src/lld/r_ssif_lld_dma.c ****     }
 235              		.loc 1 619 80 is_stmt 0 view .LVU77
 236 0078 183090E5 		ldr	r3, [r0, #24]
 619:../generate/sc_drivers/r_ssif/src/lld/r_ssif_lld_dma.c ****     }
 237              		.loc 1 619 43 view .LVU78
 238 007c 0C308DE5 		str	r3, [sp, #12]
 239              	.L13:
 628:../generate/sc_drivers/r_ssif/src/lld/r_ssif_lld_dma.c **** }
 240              		.loc 1 628 5 is_stmt 1 view .LVU79
 241 0080 003000E3 		movw	r3, #:lower16:.LANCHOR4
 242 0084 003040E3 		movt	r3, #:upper16:.LANCHOR4
 243 0088 04208DE2 		add	r2, sp, #4
 244 008c 0510A0E3 		mov	r1, #5
 245 0090 3B1040E3 		movt	r1, 59
 246 0094 000093E5 		ldr	r0, [r3]
 247 0098 FEFFFFEB 		bl	control
 248              	.LVL10:
 249              	.L8:
 629:../generate/sc_drivers/r_ssif/src/lld/r_ssif_lld_dma.c **** /******************************************************************************
 250              		.loc 1 629 1 is_stmt 0 view .LVU80
 251 009c 14D08DE2 		add	sp, sp, #20
 252              		.cfi_remember_state
 253              		.cfi_def_cfa_offset 12
 254              		@ sp needed
 255 00a0 3080BDE8 		pop	{r4, r5, pc}
 256              	.LVL11:
 257              	.L12:
 258              		.cfi_restore_state
 623:../generate/sc_drivers/r_ssif/src/lld/r_ssif_lld_dma.c ****         next_transfer.destination_address = (void *) s_ssif_txdma_dummy_trparam[ssif_ch].destinatio
 259              		.loc 1 623 9 is_stmt 1 view .LVU81
 623:../generate/sc_drivers/r_ssif/src/lld/r_ssif_lld_dma.c ****         next_transfer.destination_address = (void *) s_ssif_txdma_dummy_trparam[ssif_ch].destinatio
 260              		.loc 1 623 45 is_stmt 0 view .LVU82
 261 00a4 003000E3 		movw	r3, #:lower16:.LANCHOR3
 262 00a8 003040E3 		movt	r3, #:upper16:.LANCHOR3
 263 00ac 8520A0E1 		lsl	r2, r5, #1
 264 00b0 051082E0 		add	r1, r2, r5
 265 00b4 0111A0E1 		lsl	r1, r1, #2
 266 00b8 010083E0 		add	r0, r3, r1
 267 00bc 011093E7 		ldr	r1, [r3, r1]
 623:../generate/sc_drivers/r_ssif/src/lld/r_ssif_lld_dma.c ****         next_transfer.destination_address = (void *) s_ssif_txdma_dummy_trparam[ssif_ch].destinatio
 268              		.loc 1 623 43 view .LVU83
 269 00c0 04108DE5 		str	r1, [sp, #4]
 624:../generate/sc_drivers/r_ssif/src/lld/r_ssif_lld_dma.c ****         next_transfer.count               = (uint32_t) s_ssif_txdma_dummy_trparam[ssif_ch].count;
 270              		.loc 1 624 9 is_stmt 1 view .LVU84
 624:../generate/sc_drivers/r_ssif/src/lld/r_ssif_lld_dma.c ****         next_transfer.count               = (uint32_t) s_ssif_txdma_dummy_trparam[ssif_ch].count;
 271              		.loc 1 624 45 is_stmt 0 view .LVU85
 272 00c4 041090E5 		ldr	r1, [r0, #4]
 624:../generate/sc_drivers/r_ssif/src/lld/r_ssif_lld_dma.c ****         next_transfer.count               = (uint32_t) s_ssif_txdma_dummy_trparam[ssif_ch].count;
 273              		.loc 1 624 43 view .LVU86
 274 00c8 08108DE5 		str	r1, [sp, #8]
 625:../generate/sc_drivers/r_ssif/src/lld/r_ssif_lld_dma.c ****     }
 275              		.loc 1 625 9 is_stmt 1 view .LVU87
 625:../generate/sc_drivers/r_ssif/src/lld/r_ssif_lld_dma.c ****     }
 276              		.loc 1 625 91 is_stmt 0 view .LVU88
 277 00cc 083090E5 		ldr	r3, [r0, #8]
 625:../generate/sc_drivers/r_ssif/src/lld/r_ssif_lld_dma.c ****     }
 278              		.loc 1 625 43 view .LVU89
 279 00d0 0C308DE5 		str	r3, [sp, #12]
 280 00d4 E9FFFFEA 		b	.L13
 281              		.cfi_endproc
 282              	.LFE12:
 284              		.section	.rodata.open_dma_driver.str1.4,"aMS",%progbits,1
 285              		.align	2
 286              	.LC0:
 287 0000 5C5C2E5C 		.ascii	"\\\\.\\dma_ssif_wr\000"
 287      646D615F 
 287      73736966 
 287      5F777200 
 288              		.align	2
 289              	.LC1:
 290 0010 5C5C2E5C 		.ascii	"\\\\.\\dma_ssif_rd\000"
 290      646D615F 
 290      73736966 
 290      5F726400 
 291              		.section	.text.open_dma_driver,"ax",%progbits
 292              		.align	2
 293              		.syntax unified
 294              		.arm
 295              		.fpu neon
 297              	open_dma_driver:
 298              	.LVL12:
 299              	.LFB11:
 531:../generate/sc_drivers/r_ssif/src/lld/r_ssif_lld_dma.c ****     /* open DMA driver for write (if necessary) */
 300              		.loc 1 531 1 is_stmt 1 view -0
 301              		.cfi_startproc
 302              		@ args = 0, pretend = 0, frame = 0
 303              		@ frame_needed = 0, uses_anonymous_args = 0
 531:../generate/sc_drivers/r_ssif/src/lld/r_ssif_lld_dma.c ****     /* open DMA driver for write (if necessary) */
 304              		.loc 1 531 1 is_stmt 0 view .LVU91
 305 0000 10402DE9 		push	{r4, lr}
 306              		.cfi_def_cfa_offset 8
 307              		.cfi_offset 4, -8
 308              		.cfi_offset 14, -4
 309 0004 0040A0E1 		mov	r4, r0
 533:../generate/sc_drivers/r_ssif/src/lld/r_ssif_lld_dma.c ****     {
 310              		.loc 1 533 5 is_stmt 1 view .LVU92
 533:../generate/sc_drivers/r_ssif/src/lld/r_ssif_lld_dma.c ****     {
 311              		.loc 1 533 30 is_stmt 0 view .LVU93
 312 0008 583090E5 		ldr	r3, [r0, #88]
 533:../generate/sc_drivers/r_ssif/src/lld/r_ssif_lld_dma.c ****     {
 313              		.loc 1 533 8 view .LVU94
 314 000c 000053E3 		cmp	r3, #0
 315 0010 1400001A 		bne	.L16
 535:../generate/sc_drivers/r_ssif/src/lld/r_ssif_lld_dma.c ****     }
 316              		.loc 1 535 9 is_stmt 1 view .LVU95
 535:../generate/sc_drivers/r_ssif/src/lld/r_ssif_lld_dma.c ****     }
 317              		.loc 1 535 30 is_stmt 0 view .LVU96
 318 0014 0030E0E3 		mvn	r3, #0
 319 0018 503080E5 		str	r3, [r0, #80]
 320              	.LVL13:
 321              	.L17:
 555:../generate/sc_drivers/r_ssif/src/lld/r_ssif_lld_dma.c ****     {
 322              		.loc 1 555 5 is_stmt 1 view .LVU97
 555:../generate/sc_drivers/r_ssif/src/lld/r_ssif_lld_dma.c ****     {
 323              		.loc 1 555 30 is_stmt 0 view .LVU98
 324 001c 583094E5 		ldr	r3, [r4, #88]
 555:../generate/sc_drivers/r_ssif/src/lld/r_ssif_lld_dma.c ****     {
 325              		.loc 1 555 8 view .LVU99
 326 0020 010053E3 		cmp	r3, #1
 327 0024 2100000A 		beq	.L25
 562:../generate/sc_drivers/r_ssif/src/lld/r_ssif_lld_dma.c ****         {
 328              		.loc 1 562 9 is_stmt 1 view .LVU100
 562:../generate/sc_drivers/r_ssif/src/lld/r_ssif_lld_dma.c ****         {
 329              		.loc 1 562 18 is_stmt 0 view .LVU101
 330 0028 003000E3 		movw	r3, #:lower16:.LANCHOR2
 331 002c 003040E3 		movt	r3, #:upper16:.LANCHOR2
 332 0030 000093E5 		ldr	r0, [r3]
 562:../generate/sc_drivers/r_ssif/src/lld/r_ssif_lld_dma.c ****         {
 333              		.loc 1 562 12 view .LVU102
 334 0034 010070E3 		cmn	r0, #1
 335 0038 2000001A 		bne	.L26
 336              	.L21:
 567:../generate/sc_drivers/r_ssif/src/lld/r_ssif_lld_dma.c **** 
 337              		.loc 1 567 9 is_stmt 1 view .LVU103
 567:../generate/sc_drivers/r_ssif/src/lld/r_ssif_lld_dma.c **** 
 338              		.loc 1 567 36 is_stmt 0 view .LVU104
 339 003c 0010A0E3 		mov	r1, #0
 340 0040 000000E3 		movw	r0, #:lower16:.LC1
 341 0044 000040E3 		movt	r0, #:upper16:.LC1
 342 0048 FEFFFFEB 		bl	open
 343              	.LVL14:
 567:../generate/sc_drivers/r_ssif/src/lld/r_ssif_lld_dma.c **** 
 344              		.loc 1 567 34 view .LVU105
 345 004c 003000E3 		movw	r3, #:lower16:.LANCHOR2
 346 0050 003040E3 		movt	r3, #:upper16:.LANCHOR2
 347 0054 000083E5 		str	r0, [r3]
 570:../generate/sc_drivers/r_ssif/src/lld/r_ssif_lld_dma.c ****         {
 348              		.loc 1 570 9 is_stmt 1 view .LVU106
 570:../generate/sc_drivers/r_ssif/src/lld/r_ssif_lld_dma.c ****         {
 349              		.loc 1 570 12 is_stmt 0 view .LVU107
 350 0058 000050E3 		cmp	r0, #0
 351 005c 190000BA 		blt	.L23
 575:../generate/sc_drivers/r_ssif/src/lld/r_ssif_lld_dma.c **** }
 352              		.loc 1 575 12 view .LVU108
 353 0060 0000A0E3 		mov	r0, #0
 354 0064 1080BDE8 		pop	{r4, pc}
 355              	.LVL15:
 356              	.L16:
 540:../generate/sc_drivers/r_ssif/src/lld/r_ssif_lld_dma.c ****         {
 357              		.loc 1 540 9 is_stmt 1 view .LVU109
 540:../generate/sc_drivers/r_ssif/src/lld/r_ssif_lld_dma.c ****         {
 358              		.loc 1 540 18 is_stmt 0 view .LVU110
 359 0068 003000E3 		movw	r3, #:lower16:.LANCHOR4
 360 006c 003040E3 		movt	r3, #:upper16:.LANCHOR4
 361 0070 000093E5 		ldr	r0, [r3]
 362              	.LVL16:
 540:../generate/sc_drivers/r_ssif/src/lld/r_ssif_lld_dma.c ****         {
 363              		.loc 1 540 12 view .LVU111
 364 0074 010070E3 		cmn	r0, #1
 365 0078 0A00001A 		bne	.L27
 366              	.L18:
 545:../generate/sc_drivers/r_ssif/src/lld/r_ssif_lld_dma.c **** 
 367              		.loc 1 545 9 is_stmt 1 view .LVU112
 545:../generate/sc_drivers/r_ssif/src/lld/r_ssif_lld_dma.c **** 
 368              		.loc 1 545 37 is_stmt 0 view .LVU113
 369 007c 0110A0E3 		mov	r1, #1
 370 0080 000000E3 		movw	r0, #:lower16:.LC0
 371 0084 000040E3 		movt	r0, #:upper16:.LC0
 372 0088 FEFFFFEB 		bl	open
 373              	.LVL17:
 545:../generate/sc_drivers/r_ssif/src/lld/r_ssif_lld_dma.c **** 
 374              		.loc 1 545 35 view .LVU114
 375 008c 003000E3 		movw	r3, #:lower16:.LANCHOR4
 376 0090 003040E3 		movt	r3, #:upper16:.LANCHOR4
 377 0094 000083E5 		str	r0, [r3]
 548:../generate/sc_drivers/r_ssif/src/lld/r_ssif_lld_dma.c ****         {
 378              		.loc 1 548 9 is_stmt 1 view .LVU115
 548:../generate/sc_drivers/r_ssif/src/lld/r_ssif_lld_dma.c ****         {
 379              		.loc 1 548 12 is_stmt 0 view .LVU116
 380 0098 000050E3 		cmp	r0, #0
 381 009c DEFFFFAA 		bge	.L17
 550:../generate/sc_drivers/r_ssif/src/lld/r_ssif_lld_dma.c ****         }
 382              		.loc 1 550 20 view .LVU117
 383 00a0 6000E0E3 		mvn	r0, #96
 384 00a4 1080BDE8 		pop	{r4, pc}
 385              	.L27:
 386              	.LBB2:
 542:../generate/sc_drivers/r_ssif/src/lld/r_ssif_lld_dma.c ****         }
 387              		.loc 1 542 13 is_stmt 1 view .LVU118
 388 00a8 FEFFFFEB 		bl	close
 389              	.LVL18:
 390 00ac F2FFFFEA 		b	.L18
 391              	.L25:
 542:../generate/sc_drivers/r_ssif/src/lld/r_ssif_lld_dma.c ****         }
 392              		.loc 1 542 13 is_stmt 0 view .LVU119
 393              	.LBE2:
 557:../generate/sc_drivers/r_ssif/src/lld/r_ssif_lld_dma.c ****     }
 394              		.loc 1 557 9 is_stmt 1 view .LVU120
 557:../generate/sc_drivers/r_ssif/src/lld/r_ssif_lld_dma.c ****     }
 395              		.loc 1 557 30 is_stmt 0 view .LVU121
 396 00b0 0030E0E3 		mvn	r3, #0
 397 00b4 4C3084E5 		str	r3, [r4, #76]
 575:../generate/sc_drivers/r_ssif/src/lld/r_ssif_lld_dma.c **** }
 398              		.loc 1 575 12 view .LVU122
 399 00b8 0000A0E3 		mov	r0, #0
 400 00bc 1080BDE8 		pop	{r4, pc}
 401              	.L26:
 402              	.LBB3:
 564:../generate/sc_drivers/r_ssif/src/lld/r_ssif_lld_dma.c ****         }
 403              		.loc 1 564 13 is_stmt 1 view .LVU123
 404 00c0 FEFFFFEB 		bl	close
 405              	.LVL19:
 406 00c4 DCFFFFEA 		b	.L21
 407              	.L23:
 408              	.LBE3:
 572:../generate/sc_drivers/r_ssif/src/lld/r_ssif_lld_dma.c ****         }
 409              		.loc 1 572 20 is_stmt 0 view .LVU124
 410 00c8 6000E0E3 		mvn	r0, #96
 576:../generate/sc_drivers/r_ssif/src/lld/r_ssif_lld_dma.c **** /******************************************************************************
 411              		.loc 1 576 1 view .LVU125
 412 00cc 1080BDE8 		pop	{r4, pc}
 413              		.cfi_endproc
 414              	.LFE11:
 416              		.section	.text.enable_ssif_transfer,"ax",%progbits
 417              		.align	2
 418              		.syntax unified
 419              		.arm
 420              		.fpu neon
 422              	enable_ssif_transfer:
 423              	.LVL20:
 424              	.LFB10:
 482:../generate/sc_drivers/r_ssif/src/lld/r_ssif_lld_dma.c ****     /* clear status and enable error interrupt */
 425              		.loc 1 482 1 is_stmt 1 view -0
 426              		.cfi_startproc
 427              		@ args = 0, pretend = 0, frame = 0
 428              		@ frame_needed = 0, uses_anonymous_args = 0
 482:../generate/sc_drivers/r_ssif/src/lld/r_ssif_lld_dma.c ****     /* clear status and enable error interrupt */
 429              		.loc 1 482 1 is_stmt 0 view .LVU127
 430 0000 70402DE9 		push	{r4, r5, r6, lr}
 431              		.cfi_def_cfa_offset 16
 432              		.cfi_offset 4, -16
 433              		.cfi_offset 5, -12
 434              		.cfi_offset 6, -8
 435              		.cfi_offset 14, -4
 436 0004 0040A0E1 		mov	r4, r0
 484:../generate/sc_drivers/r_ssif/src/lld/r_ssif_lld_dma.c **** 
 437              		.loc 1 484 5 is_stmt 1 view .LVU128
 438 0008 000090E5 		ldr	r0, [r0]
 439              	.LVL21:
 484:../generate/sc_drivers/r_ssif/src/lld/r_ssif_lld_dma.c **** 
 440              		.loc 1 484 5 is_stmt 0 view .LVU129
 441 000c FEFFFFEB 		bl	SSIF_EnableErrorInterrupt
 442              	.LVL22:
 487:../generate/sc_drivers/r_ssif/src/lld/r_ssif_lld_dma.c ****     SSIF_SSIFCR_TIE);
 443              		.loc 1 487 5 is_stmt 1 view .LVU130
 487:../generate/sc_drivers/r_ssif/src/lld/r_ssif_lld_dma.c ****     SSIF_SSIFCR_TIE);
 444              		.loc 1 487 65 is_stmt 0 view .LVU131
 445 0010 003094E5 		ldr	r3, [r4]
 487:../generate/sc_drivers/r_ssif/src/lld/r_ssif_lld_dma.c ****     SSIF_SSIFCR_TIE);
 446              		.loc 1 487 55 view .LVU132
 447 0014 005000E3 		movw	r5, #:lower16:g_ssireg
 448 0018 005040E3 		movt	r5, #:upper16:g_ssireg
 449 001c 030195E7 		ldr	r0, [r5, r3, lsl #2]
 487:../generate/sc_drivers/r_ssif/src/lld/r_ssif_lld_dma.c ****     SSIF_SSIFCR_TIE);
 450              		.loc 1 487 5 view .LVU133
 451 0020 0830A0E3 		mov	r3, #8
 452 0024 0320A0E3 		mov	r2, #3
 453 0028 0110A0E3 		mov	r1, #1
 454 002c 100080E2 		add	r0, r0, #16
 455 0030 FEFFFFEB 		bl	RZA_IO_RegWrite_32
 456              	.LVL23:
 489:../generate/sc_drivers/r_ssif/src/lld/r_ssif_lld_dma.c ****     SSIF_SSIFCR_RIE);
 457              		.loc 1 489 5 is_stmt 1 view .LVU134
 489:../generate/sc_drivers/r_ssif/src/lld/r_ssif_lld_dma.c ****     SSIF_SSIFCR_RIE);
 458              		.loc 1 489 65 is_stmt 0 view .LVU135
 459 0034 003094E5 		ldr	r3, [r4]
 489:../generate/sc_drivers/r_ssif/src/lld/r_ssif_lld_dma.c ****     SSIF_SSIFCR_RIE);
 460              		.loc 1 489 55 view .LVU136
 461 0038 030195E7 		ldr	r0, [r5, r3, lsl #2]
 489:../generate/sc_drivers/r_ssif/src/lld/r_ssif_lld_dma.c ****     SSIF_SSIFCR_RIE);
 462              		.loc 1 489 5 view .LVU137
 463 003c 0430A0E3 		mov	r3, #4
 464 0040 0220A0E3 		mov	r2, #2
 465 0044 0110A0E3 		mov	r1, #1
 466 0048 100080E2 		add	r0, r0, #16
 467 004c FEFFFFEB 		bl	RZA_IO_RegWrite_32
 468              	.LVL24:
 492:../generate/sc_drivers/r_ssif/src/lld/r_ssif_lld_dma.c ****     {
 469              		.loc 1 492 5 is_stmt 1 view .LVU138
 492:../generate/sc_drivers/r_ssif/src/lld/r_ssif_lld_dma.c ****     {
 470              		.loc 1 492 28 is_stmt 0 view .LVU139
 471 0050 585094E5 		ldr	r5, [r4, #88]
 492:../generate/sc_drivers/r_ssif/src/lld/r_ssif_lld_dma.c ****     {
 472              		.loc 1 492 8 view .LVU140
 473 0054 020055E3 		cmp	r5, #2
 474 0058 0D00000A 		beq	.L34
 500:../generate/sc_drivers/r_ssif/src/lld/r_ssif_lld_dma.c ****     {
 475              		.loc 1 500 10 is_stmt 1 view .LVU141
 500:../generate/sc_drivers/r_ssif/src/lld/r_ssif_lld_dma.c ****     {
 476              		.loc 1 500 13 is_stmt 0 view .LVU142
 477 005c 010055E3 		cmp	r5, #1
 478 0060 1500000A 		beq	.L35
 506:../generate/sc_drivers/r_ssif/src/lld/r_ssif_lld_dma.c ****     {
 479              		.loc 1 506 10 is_stmt 1 view .LVU143
 506:../generate/sc_drivers/r_ssif/src/lld/r_ssif_lld_dma.c ****     {
 480              		.loc 1 506 13 is_stmt 0 view .LVU144
 481 0064 000055E3 		cmp	r5, #0
 482 0068 1D00001A 		bne	.L32
 509:../generate/sc_drivers/r_ssif/src/lld/r_ssif_lld_dma.c ****         SSIF_SSICR_REN);
 483              		.loc 1 509 9 is_stmt 1 view .LVU145
 509:../generate/sc_drivers/r_ssif/src/lld/r_ssif_lld_dma.c ****         SSIF_SSICR_REN);
 484              		.loc 1 509 69 is_stmt 0 view .LVU146
 485 006c 00C094E5 		ldr	ip, [r4]
 509:../generate/sc_drivers/r_ssif/src/lld/r_ssif_lld_dma.c ****         SSIF_SSICR_REN);
 486              		.loc 1 509 59 view .LVU147
 487 0070 000000E3 		movw	r0, #:lower16:g_ssireg
 488 0074 000040E3 		movt	r0, #:upper16:g_ssireg
 509:../generate/sc_drivers/r_ssif/src/lld/r_ssif_lld_dma.c ****         SSIF_SSICR_REN);
 489              		.loc 1 509 9 view .LVU148
 490 0078 0130A0E3 		mov	r3, #1
 491 007c 0020A0E3 		mov	r2, #0
 492 0080 0310A0E1 		mov	r1, r3
 493 0084 0C0190E7 		ldr	r0, [r0, ip, lsl #2]
 494 0088 FEFFFFEB 		bl	RZA_IO_RegWrite_32
 495              	.LVL25:
 496              	.L28:
 518:../generate/sc_drivers/r_ssif/src/lld/r_ssif_lld_dma.c **** /******************************************************************************
 497              		.loc 1 518 1 view .LVU149
 498 008c 0500A0E1 		mov	r0, r5
 499 0090 7080BDE8 		pop	{r4, r5, r6, pc}
 500              	.L34:
 495:../generate/sc_drivers/r_ssif/src/lld/r_ssif_lld_dma.c ****         (uint32_t) (1 <<SSIF_SSICR_TEN_SHIFT) | (1 <<SSIF_SSICR_REN_SHIFT),
 501              		.loc 1 495 9 is_stmt 1 view .LVU150
 495:../generate/sc_drivers/r_ssif/src/lld/r_ssif_lld_dma.c ****         (uint32_t) (1 <<SSIF_SSICR_TEN_SHIFT) | (1 <<SSIF_SSICR_REN_SHIFT),
 502              		.loc 1 495 69 is_stmt 0 view .LVU151
 503 0094 00C094E5 		ldr	ip, [r4]
 495:../generate/sc_drivers/r_ssif/src/lld/r_ssif_lld_dma.c ****         (uint32_t) (1 <<SSIF_SSICR_TEN_SHIFT) | (1 <<SSIF_SSICR_REN_SHIFT),
 504              		.loc 1 495 59 view .LVU152
 505 0098 000000E3 		movw	r0, #:lower16:g_ssireg
 506 009c 000040E3 		movt	r0, #:upper16:g_ssireg
 495:../generate/sc_drivers/r_ssif/src/lld/r_ssif_lld_dma.c ****         (uint32_t) (1 <<SSIF_SSICR_TEN_SHIFT) | (1 <<SSIF_SSICR_REN_SHIFT),
 507              		.loc 1 495 9 view .LVU153
 508 00a0 0330A0E3 		mov	r3, #3
 509 00a4 0020A0E3 		mov	r2, #0
 510 00a8 0310A0E1 		mov	r1, r3
 511 00ac 0C0190E7 		ldr	r0, [r0, ip, lsl #2]
 512 00b0 FEFFFFEB 		bl	RZA_IO_RegWrite_32
 513              	.LVL26:
 517:../generate/sc_drivers/r_ssif/src/lld/r_ssif_lld_dma.c **** }
 514              		.loc 1 517 12 view .LVU154
 515 00b4 0050A0E3 		mov	r5, #0
 516 00b8 F3FFFFEA 		b	.L28
 517              	.L35:
 503:../generate/sc_drivers/r_ssif/src/lld/r_ssif_lld_dma.c ****         SSIF_SSICR_TEN);
 518              		.loc 1 503 9 is_stmt 1 view .LVU155
 503:../generate/sc_drivers/r_ssif/src/lld/r_ssif_lld_dma.c ****         SSIF_SSICR_TEN);
 519              		.loc 1 503 69 is_stmt 0 view .LVU156
 520 00bc 00C094E5 		ldr	ip, [r4]
 503:../generate/sc_drivers/r_ssif/src/lld/r_ssif_lld_dma.c ****         SSIF_SSICR_TEN);
 521              		.loc 1 503 59 view .LVU157
 522 00c0 000000E3 		movw	r0, #:lower16:g_ssireg
 523 00c4 000040E3 		movt	r0, #:upper16:g_ssireg
 503:../generate/sc_drivers/r_ssif/src/lld/r_ssif_lld_dma.c ****         SSIF_SSICR_TEN);
 524              		.loc 1 503 9 view .LVU158
 525 00c8 0230A0E3 		mov	r3, #2
 526 00cc 0120A0E3 		mov	r2, #1
 527 00d0 0210A0E1 		mov	r1, r2
 528 00d4 0C0190E7 		ldr	r0, [r0, ip, lsl #2]
 529 00d8 FEFFFFEB 		bl	RZA_IO_RegWrite_32
 530              	.LVL27:
 517:../generate/sc_drivers/r_ssif/src/lld/r_ssif_lld_dma.c **** }
 531              		.loc 1 517 12 view .LVU159
 532 00dc 0050A0E3 		mov	r5, #0
 533 00e0 E9FFFFEA 		b	.L28
 534              	.L32:
 514:../generate/sc_drivers/r_ssif/src/lld/r_ssif_lld_dma.c ****     }
 535              		.loc 1 514 16 view .LVU160
 536 00e4 1B50E0E3 		mvn	r5, #27
 537 00e8 E7FFFFEA 		b	.L28
 538              		.cfi_endproc
 539              	.LFE10:
 541              		.section	.text.R_SSIF_UnInitDMA,"ax",%progbits
 542              		.align	2
 543              		.global	R_SSIF_UnInitDMA
 544              		.syntax unified
 545              		.arm
 546              		.fpu neon
 548              	R_SSIF_UnInitDMA:
 549              	.LVL28:
 550              	.LFB7:
 279:../generate/sc_drivers/r_ssif/src/lld/r_ssif_lld_dma.c ****     uint32_t remain;
 551              		.loc 1 279 1 is_stmt 1 view -0
 552              		.cfi_startproc
 553              		@ args = 0, pretend = 0, frame = 8
 554              		@ frame_needed = 0, uses_anonymous_args = 0
 280:../generate/sc_drivers/r_ssif/src/lld/r_ssif_lld_dma.c **** 
 555              		.loc 1 280 5 view .LVU162
 282:../generate/sc_drivers/r_ssif/src/lld/r_ssif_lld_dma.c ****     {
 556              		.loc 1 282 5 view .LVU163
 282:../generate/sc_drivers/r_ssif/src/lld/r_ssif_lld_dma.c ****     {
 557              		.loc 1 282 8 is_stmt 0 view .LVU164
 558 0000 000050E3 		cmp	r0, #0
 559 0004 1EFF2F01 		bxeq	lr
 279:../generate/sc_drivers/r_ssif/src/lld/r_ssif_lld_dma.c ****     uint32_t remain;
 560              		.loc 1 279 1 view .LVU165
 561 0008 04E02DE5 		str	lr, [sp, #-4]!
 562              		.cfi_def_cfa_offset 4
 563              		.cfi_offset 14, -4
 564 000c 0CD04DE2 		sub	sp, sp, #12
 565              		.cfi_def_cfa_offset 16
 287:../generate/sc_drivers/r_ssif/src/lld/r_ssif_lld_dma.c ****     {
 566              		.loc 1 287 5 is_stmt 1 view .LVU166
 287:../generate/sc_drivers/r_ssif/src/lld/r_ssif_lld_dma.c ****     {
 567              		.loc 1 287 35 is_stmt 0 view .LVU167
 568 0010 003000E3 		movw	r3, #:lower16:.LANCHOR4
 569 0014 003040E3 		movt	r3, #:upper16:.LANCHOR4
 570 0018 000093E5 		ldr	r0, [r3]
 571              	.LVL29:
 287:../generate/sc_drivers/r_ssif/src/lld/r_ssif_lld_dma.c ****     {
 572              		.loc 1 287 8 view .LVU168
 573 001c 000050E3 		cmp	r0, #0
 574 0020 060000AA 		bge	.L45
 575              	.L39:
 292:../generate/sc_drivers/r_ssif/src/lld/r_ssif_lld_dma.c ****     {
 576              		.loc 1 292 5 is_stmt 1 view .LVU169
 292:../generate/sc_drivers/r_ssif/src/lld/r_ssif_lld_dma.c ****     {
 577              		.loc 1 292 34 is_stmt 0 view .LVU170
 578 0024 003000E3 		movw	r3, #:lower16:.LANCHOR2
 579 0028 003040E3 		movt	r3, #:upper16:.LANCHOR2
 580 002c 000093E5 		ldr	r0, [r3]
 292:../generate/sc_drivers/r_ssif/src/lld/r_ssif_lld_dma.c ****     {
 581              		.loc 1 292 8 view .LVU171
 582 0030 000050E3 		cmp	r0, #0
 583 0034 060000AA 		bge	.L46
 584              	.L36:
 296:../generate/sc_drivers/r_ssif/src/lld/r_ssif_lld_dma.c **** /******************************************************************************
 585              		.loc 1 296 1 view .LVU172
 586 0038 0CD08DE2 		add	sp, sp, #12
 587              		.cfi_remember_state
 588              		.cfi_def_cfa_offset 4
 589              		@ sp needed
 590 003c 04F09DE4 		ldr	pc, [sp], #4
 591              	.L45:
 592              		.cfi_restore_state
 289:../generate/sc_drivers/r_ssif/src/lld/r_ssif_lld_dma.c ****     }
 593              		.loc 1 289 9 is_stmt 1 view .LVU173
 594 0040 04208DE2 		add	r2, sp, #4
 595 0044 0410A0E3 		mov	r1, #4
 596 0048 3B1040E3 		movt	r1, 59
 597 004c FEFFFFEB 		bl	control
 598              	.LVL30:
 599 0050 F3FFFFEA 		b	.L39
 600              	.L46:
 294:../generate/sc_drivers/r_ssif/src/lld/r_ssif_lld_dma.c ****     }
 601              		.loc 1 294 9 view .LVU174
 602 0054 04208DE2 		add	r2, sp, #4
 603 0058 0410A0E3 		mov	r1, #4
 604 005c 3B1040E3 		movt	r1, 59
 605 0060 FEFFFFEB 		bl	control
 606              	.LVL31:
 607 0064 F3FFFFEA 		b	.L36
 608              		.cfi_endproc
 609              	.LFE7:
 611              		.section	.text.R_SSIF_RestartDMA,"ax",%progbits
 612              		.align	2
 613              		.global	R_SSIF_RestartDMA
 614              		.syntax unified
 615              		.arm
 616              		.fpu neon
 618              	R_SSIF_RestartDMA:
 619              	.LVL32:
 620              	.LFB8:
 309:../generate/sc_drivers/r_ssif/src/lld/r_ssif_lld_dma.c ****     int_t ercd = IOIF_ESUCCESS;
 621              		.loc 1 309 1 view -0
 622              		.cfi_startproc
 623              		@ args = 0, pretend = 0, frame = 48
 624              		@ frame_needed = 0, uses_anonymous_args = 0
 309:../generate/sc_drivers/r_ssif/src/lld/r_ssif_lld_dma.c ****     int_t ercd = IOIF_ESUCCESS;
 625              		.loc 1 309 1 is_stmt 0 view .LVU176
 626 0000 70402DE9 		push	{r4, r5, r6, lr}
 627              		.cfi_def_cfa_offset 16
 628              		.cfi_offset 4, -16
 629              		.cfi_offset 5, -12
 630              		.cfi_offset 6, -8
 631              		.cfi_offset 14, -4
 632 0004 30D04DE2 		sub	sp, sp, #48
 633              		.cfi_def_cfa_offset 64
 310:../generate/sc_drivers/r_ssif/src/lld/r_ssif_lld_dma.c ****     int_t dma_ret;
 634              		.loc 1 310 5 is_stmt 1 view .LVU177
 635              	.LVL33:
 311:../generate/sc_drivers/r_ssif/src/lld/r_ssif_lld_dma.c ****     uint32_t ssif_ch;
 636              		.loc 1 311 5 view .LVU178
 312:../generate/sc_drivers/r_ssif/src/lld/r_ssif_lld_dma.c ****     st_r_drv_dmac_config_t dma_config;
 637              		.loc 1 312 5 view .LVU179
 313:../generate/sc_drivers/r_ssif/src/lld/r_ssif_lld_dma.c ****     int_t result;
 638              		.loc 1 313 5 view .LVU180
 314:../generate/sc_drivers/r_ssif/src/lld/r_ssif_lld_dma.c ****     st_r_drv_dmac_next_transfer_t next_transfer;
 639              		.loc 1 314 5 view .LVU181
 315:../generate/sc_drivers/r_ssif/src/lld/r_ssif_lld_dma.c **** 
 640              		.loc 1 315 5 view .LVU182
 317:../generate/sc_drivers/r_ssif/src/lld/r_ssif_lld_dma.c ****     {
 641              		.loc 1 317 5 view .LVU183
 317:../generate/sc_drivers/r_ssif/src/lld/r_ssif_lld_dma.c ****     {
 642              		.loc 1 317 8 is_stmt 0 view .LVU184
 643 0008 004050E2 		subs	r4, r0, #0
 644 000c 9A00000A 		beq	.L55
 322:../generate/sc_drivers/r_ssif/src/lld/r_ssif_lld_dma.c **** 
 645              		.loc 1 322 5 is_stmt 1 view .LVU185
 322:../generate/sc_drivers/r_ssif/src/lld/r_ssif_lld_dma.c **** 
 646              		.loc 1 322 13 is_stmt 0 view .LVU186
 647 0010 005094E5 		ldr	r5, [r4]
 648              	.LVL34:
 325:../generate/sc_drivers/r_ssif/src/lld/r_ssif_lld_dma.c ****     {
 649              		.loc 1 325 5 is_stmt 1 view .LVU187
 333:../generate/sc_drivers/r_ssif/src/lld/r_ssif_lld_dma.c ****     {
 650              		.loc 1 333 5 view .LVU188
 341:../generate/sc_drivers/r_ssif/src/lld/r_ssif_lld_dma.c ****     {
 651              		.loc 1 341 5 view .LVU189
 341:../generate/sc_drivers/r_ssif/src/lld/r_ssif_lld_dma.c ****     {
 652              		.loc 1 341 30 is_stmt 0 view .LVU190
 653 0014 583094E5 		ldr	r3, [r4, #88]
 341:../generate/sc_drivers/r_ssif/src/lld/r_ssif_lld_dma.c ****     {
 654              		.loc 1 341 8 view .LVU191
 655 0018 000053E3 		cmp	r3, #0
 656 001c 0700001A 		bne	.L60
 657              	.LVL35:
 658              	.L49:
 386:../generate/sc_drivers/r_ssif/src/lld/r_ssif_lld_dma.c ****         {
 659              		.loc 1 386 9 is_stmt 1 view .LVU192
 386:../generate/sc_drivers/r_ssif/src/lld/r_ssif_lld_dma.c ****         {
 660              		.loc 1 386 34 is_stmt 0 view .LVU193
 661 0020 583094E5 		ldr	r3, [r4, #88]
 386:../generate/sc_drivers/r_ssif/src/lld/r_ssif_lld_dma.c ****         {
 662              		.loc 1 386 12 view .LVU194
 663 0024 010053E3 		cmp	r3, #1
 664 0028 4A00001A 		bne	.L61
 665 002c 0000A0E3 		mov	r0, #0
 666              	.L52:
 667              	.LVL36:
 430:../generate/sc_drivers/r_ssif/src/lld/r_ssif_lld_dma.c ****     {
 668              		.loc 1 430 5 is_stmt 1 view .LVU195
 430:../generate/sc_drivers/r_ssif/src/lld/r_ssif_lld_dma.c ****     {
 669              		.loc 1 430 8 is_stmt 0 view .LVU196
 670 0030 000050E3 		cmp	r0, #0
 671 0034 8D00000A 		beq	.L62
 672              	.LVL37:
 673              	.L47:
 436:../generate/sc_drivers/r_ssif/src/lld/r_ssif_lld_dma.c **** /******************************************************************************
 674              		.loc 1 436 1 view .LVU197
 675 0038 30D08DE2 		add	sp, sp, #48
 676              		.cfi_remember_state
 677              		.cfi_def_cfa_offset 16
 678              		@ sp needed
 679 003c 7080BDE8 		pop	{r4, r5, r6, pc}
 680              	.LVL38:
 681              	.L60:
 682              		.cfi_restore_state
 344:../generate/sc_drivers/r_ssif/src/lld/r_ssif_lld_dma.c ****         s_ssif_txdma_dummy_trparam[ssif_ch].destination_address = (uint32_t *) &g_ssireg[ssif_ch]->
 683              		.loc 1 344 9 is_stmt 1 view .LVU198
 344:../generate/sc_drivers/r_ssif/src/lld/r_ssif_lld_dma.c ****         s_ssif_txdma_dummy_trparam[ssif_ch].destination_address = (uint32_t *) &g_ssireg[ssif_ch]->
 684              		.loc 1 344 60 is_stmt 0 view .LVU199
 685 0040 001000E3 		movw	r1, #:lower16:.LANCHOR3
 686 0044 001040E3 		movt	r1, #:upper16:.LANCHOR3
 687 0048 852085E0 		add	r2, r5, r5, lsl #1
 688 004c 0221A0E1 		lsl	r2, r2, #2
 689 0050 020081E0 		add	r0, r1, r2
 690              	.LVL39:
 344:../generate/sc_drivers/r_ssif/src/lld/r_ssif_lld_dma.c ****         s_ssif_txdma_dummy_trparam[ssif_ch].destination_address = (uint32_t *) &g_ssireg[ssif_ch]->
 691              		.loc 1 344 60 view .LVU200
 692 0054 003000E3 		movw	r3, #:lower16:s_ssif_tx_dummy_buf
 693 0058 003040E3 		movt	r3, #:upper16:s_ssif_tx_dummy_buf
 694 005c 023081E7 		str	r3, [r1, r2]
 345:../generate/sc_drivers/r_ssif/src/lld/r_ssif_lld_dma.c ****         s_ssif_txdma_dummy_trparam[ssif_ch].count = SSIF_DUMMY_DMA_TRN_SIZE_PRV_;
 695              		.loc 1 345 9 is_stmt 1 view .LVU201
 345:../generate/sc_drivers/r_ssif/src/lld/r_ssif_lld_dma.c ****         s_ssif_txdma_dummy_trparam[ssif_ch].count = SSIF_DUMMY_DMA_TRN_SIZE_PRV_;
 696              		.loc 1 345 89 is_stmt 0 view .LVU202
 697 0060 002000E3 		movw	r2, #:lower16:g_ssireg
 698 0064 002040E3 		movt	r2, #:upper16:g_ssireg
 699 0068 056192E7 		ldr	r6, [r2, r5, lsl #2]
 345:../generate/sc_drivers/r_ssif/src/lld/r_ssif_lld_dma.c ****         s_ssif_txdma_dummy_trparam[ssif_ch].count = SSIF_DUMMY_DMA_TRN_SIZE_PRV_;
 700              		.loc 1 345 80 view .LVU203
 701 006c 186086E2 		add	r6, r6, #24
 345:../generate/sc_drivers/r_ssif/src/lld/r_ssif_lld_dma.c ****         s_ssif_txdma_dummy_trparam[ssif_ch].count = SSIF_DUMMY_DMA_TRN_SIZE_PRV_;
 702              		.loc 1 345 65 view .LVU204
 703 0070 046080E5 		str	r6, [r0, #4]
 346:../generate/sc_drivers/r_ssif/src/lld/r_ssif_lld_dma.c **** 
 704              		.loc 1 346 9 is_stmt 1 view .LVU205
 346:../generate/sc_drivers/r_ssif/src/lld/r_ssif_lld_dma.c **** 
 705              		.loc 1 346 51 is_stmt 0 view .LVU206
 706 0074 3F1DA0E3 		mov	r1, #4032
 707 0078 081080E5 		str	r1, [r0, #8]
 348:../generate/sc_drivers/r_ssif/src/lld/r_ssif_lld_dma.c ****         dma_config.config.source_width = DMA_DATA_SIZE_2;                                          
 708              		.loc 1 348 9 is_stmt 1 view .LVU207
 348:../generate/sc_drivers/r_ssif/src/lld/r_ssif_lld_dma.c ****         dma_config.config.source_width = DMA_DATA_SIZE_2;                                          
 709              		.loc 1 348 60 is_stmt 0 view .LVU208
 710 007c 002000E3 		movw	r2, #:lower16:.LANCHOR5
 711 0080 002040E3 		movt	r2, #:upper16:.LANCHOR5
 712 0084 052192E7 		ldr	r2, [r2, r5, lsl #2]
 348:../generate/sc_drivers/r_ssif/src/lld/r_ssif_lld_dma.c ****         dma_config.config.source_width = DMA_DATA_SIZE_2;                                          
 713              		.loc 1 348 36 view .LVU209
 714 0088 0C208DE5 		str	r2, [sp, #12]
 349:../generate/sc_drivers/r_ssif/src/lld/r_ssif_lld_dma.c ****         dma_config.config.destination_width = DMA_DATA_SIZE_2;                                     
 715              		.loc 1 349 9 is_stmt 1 view .LVU210
 349:../generate/sc_drivers/r_ssif/src/lld/r_ssif_lld_dma.c ****         dma_config.config.destination_width = DMA_DATA_SIZE_2;                                     
 716              		.loc 1 349 40 is_stmt 0 view .LVU211
 717 008c 0220A0E3 		mov	r2, #2
 718 0090 B021CDE1 		strh	r2, [sp, #16]	@ movhi
 350:../generate/sc_drivers/r_ssif/src/lld/r_ssif_lld_dma.c ****         dma_config.config.source_address_type = DMA_ADDRESS_INCREMENT;                             
 719              		.loc 1 350 9 is_stmt 1 view .LVU212
 350:../generate/sc_drivers/r_ssif/src/lld/r_ssif_lld_dma.c ****         dma_config.config.source_address_type = DMA_ADDRESS_INCREMENT;                             
 720              		.loc 1 350 45 is_stmt 0 view .LVU213
 721 0094 B221CDE1 		strh	r2, [sp, #18]	@ movhi
 351:../generate/sc_drivers/r_ssif/src/lld/r_ssif_lld_dma.c ****         dma_config.config.destination_address_type = DMA_ADDRESS_FIX;                              
 722              		.loc 1 351 9 is_stmt 1 view .LVU214
 351:../generate/sc_drivers/r_ssif/src/lld/r_ssif_lld_dma.c ****         dma_config.config.destination_address_type = DMA_ADDRESS_FIX;                              
 723              		.loc 1 351 47 is_stmt 0 view .LVU215
 724 0098 0020A0E3 		mov	r2, #0
 725 009c 1420CDE5 		strb	r2, [sp, #20]
 352:../generate/sc_drivers/r_ssif/src/lld/r_ssif_lld_dma.c ****         dma_config.config.direction = DMA_REQUEST_DESTINATION;                                     
 726              		.loc 1 352 9 is_stmt 1 view .LVU216
 352:../generate/sc_drivers/r_ssif/src/lld/r_ssif_lld_dma.c ****         dma_config.config.direction = DMA_REQUEST_DESTINATION;                                     
 727              		.loc 1 352 52 is_stmt 0 view .LVU217
 728 00a0 0120A0E3 		mov	r2, #1
 729 00a4 1520CDE5 		strb	r2, [sp, #21]
 353:../generate/sc_drivers/r_ssif/src/lld/r_ssif_lld_dma.c ****         dma_config.config.source_address = s_ssif_txdma_dummy_trparam[ssif_ch].source_address;     
 730              		.loc 1 353 9 is_stmt 1 view .LVU218
 353:../generate/sc_drivers/r_ssif/src/lld/r_ssif_lld_dma.c ****         dma_config.config.source_address = s_ssif_txdma_dummy_trparam[ssif_ch].source_address;     
 731              		.loc 1 353 37 is_stmt 0 view .LVU219
 732 00a8 1620CDE5 		strb	r2, [sp, #22]
 354:../generate/sc_drivers/r_ssif/src/lld/r_ssif_lld_dma.c ****         dma_config.config.destination_address = s_ssif_txdma_dummy_trparam[ssif_ch].destination_add
 733              		.loc 1 354 9 is_stmt 1 view .LVU220
 354:../generate/sc_drivers/r_ssif/src/lld/r_ssif_lld_dma.c ****         dma_config.config.destination_address = s_ssif_txdma_dummy_trparam[ssif_ch].destination_add
 734              		.loc 1 354 42 is_stmt 0 view .LVU221
 735 00ac 20308DE5 		str	r3, [sp, #32]
 355:../generate/sc_drivers/r_ssif/src/lld/r_ssif_lld_dma.c ****         dma_config.config.count = s_ssif_txdma_dummy_trparam[ssif_ch].count;                       
 736              		.loc 1 355 9 is_stmt 1 view .LVU222
 355:../generate/sc_drivers/r_ssif/src/lld/r_ssif_lld_dma.c ****         dma_config.config.count = s_ssif_txdma_dummy_trparam[ssif_ch].count;                       
 737              		.loc 1 355 47 is_stmt 0 view .LVU223
 738 00b0 24608DE5 		str	r6, [sp, #36]
 356:../generate/sc_drivers/r_ssif/src/lld/r_ssif_lld_dma.c ****         dma_config.config.p_dmaComplete = SSIF_DMA_TxEndCallback;                                  
 739              		.loc 1 356 9 is_stmt 1 view .LVU224
 356:../generate/sc_drivers/r_ssif/src/lld/r_ssif_lld_dma.c ****         dma_config.config.p_dmaComplete = SSIF_DMA_TxEndCallback;                                  
 740              		.loc 1 356 33 is_stmt 0 view .LVU225
 741 00b4 28108DE5 		str	r1, [sp, #40]
 357:../generate/sc_drivers/r_ssif/src/lld/r_ssif_lld_dma.c **** 
 742              		.loc 1 357 9 is_stmt 1 view .LVU226
 357:../generate/sc_drivers/r_ssif/src/lld/r_ssif_lld_dma.c **** 
 743              		.loc 1 357 41 is_stmt 0 view .LVU227
 744 00b8 003000E3 		movw	r3, #:lower16:SSIF_DMA_TxEndCallback
 745 00bc 003040E3 		movt	r3, #:upper16:SSIF_DMA_TxEndCallback
 746 00c0 18308DE5 		str	r3, [sp, #24]
 359:../generate/sc_drivers/r_ssif/src/lld/r_ssif_lld_dma.c **** 
 747              		.loc 1 359 9 is_stmt 1 view .LVU228
 359:../generate/sc_drivers/r_ssif/src/lld/r_ssif_lld_dma.c **** 
 748              		.loc 1 359 18 is_stmt 0 view .LVU229
 749 00c4 003000E3 		movw	r3, #:lower16:.LANCHOR4
 750 00c8 003040E3 		movt	r3, #:upper16:.LANCHOR4
 751 00cc 0C208DE2 		add	r2, sp, #12
 752 00d0 0110A0E3 		mov	r1, #1
 753 00d4 3B1040E3 		movt	r1, 59
 754 00d8 000093E5 		ldr	r0, [r3]
 755 00dc FEFFFFEB 		bl	control
 756              	.LVL40:
 361:../generate/sc_drivers/r_ssif/src/lld/r_ssif_lld_dma.c ****         {
 757              		.loc 1 361 9 is_stmt 1 view .LVU230
 361:../generate/sc_drivers/r_ssif/src/lld/r_ssif_lld_dma.c ****         {
 758              		.loc 1 361 12 is_stmt 0 view .LVU231
 759 00e0 000050E3 		cmp	r0, #0
 361:../generate/sc_drivers/r_ssif/src/lld/r_ssif_lld_dma.c ****         {
 760              		.loc 1 361 12 view .LVU232
 761 00e4 0500000A 		beq	.L63
 762              	.L50:
 366:../generate/sc_drivers/r_ssif/src/lld/r_ssif_lld_dma.c ****         {
 763              		.loc 1 366 9 is_stmt 1 view .LVU233
 366:../generate/sc_drivers/r_ssif/src/lld/r_ssif_lld_dma.c ****         {
 764              		.loc 1 366 12 is_stmt 0 view .LVU234
 765 00e8 000050E3 		cmp	r0, #0
 766 00ec 0B00000A 		beq	.L64
 767              	.L51:
 375:../generate/sc_drivers/r_ssif/src/lld/r_ssif_lld_dma.c **** 
 768              		.loc 1 375 9 is_stmt 1 view .LVU235
 375:../generate/sc_drivers/r_ssif/src/lld/r_ssif_lld_dma.c **** 
 769              		.loc 1 375 59 is_stmt 0 view .LVU236
 770 00f0 000050E3 		cmp	r0, #0
 771 00f4 C9FFFF0A 		beq	.L49
 379:../generate/sc_drivers/r_ssif/src/lld/r_ssif_lld_dma.c ****         }
 772              		.loc 1 379 18 view .LVU237
 773 00f8 6000E0E3 		mvn	r0, #96
 774              	.LVL41:
 379:../generate/sc_drivers/r_ssif/src/lld/r_ssif_lld_dma.c ****         }
 775              		.loc 1 379 18 view .LVU238
 776 00fc CBFFFFEA 		b	.L52
 777              	.LVL42:
 778              	.L63:
 363:../generate/sc_drivers/r_ssif/src/lld/r_ssif_lld_dma.c ****         }
 779              		.loc 1 363 13 is_stmt 1 view .LVU239
 363:../generate/sc_drivers/r_ssif/src/lld/r_ssif_lld_dma.c ****         }
 780              		.loc 1 363 22 is_stmt 0 view .LVU240
 781 0100 003000E3 		movw	r3, #:lower16:.LANCHOR4
 782 0104 003040E3 		movt	r3, #:upper16:.LANCHOR4
 783 0108 0020A0E3 		mov	r2, #0
 784 010c 0310A0E3 		mov	r1, #3
 785 0110 3B1040E3 		movt	r1, 59
 786 0114 000093E5 		ldr	r0, [r3]
 787              	.LVL43:
 363:../generate/sc_drivers/r_ssif/src/lld/r_ssif_lld_dma.c ****         }
 788              		.loc 1 363 22 view .LVU241
 789 0118 FEFFFFEB 		bl	control
 790              	.LVL44:
 363:../generate/sc_drivers/r_ssif/src/lld/r_ssif_lld_dma.c ****         }
 791              		.loc 1 363 22 view .LVU242
 792 011c F1FFFFEA 		b	.L50
 793              	.L64:
 368:../generate/sc_drivers/r_ssif/src/lld/r_ssif_lld_dma.c ****             next_transfer.destination_address = (uint32_t *) &g_ssireg[ssif_ch]->SSIFTDR.LONG;
 794              		.loc 1 368 13 is_stmt 1 view .LVU243
 368:../generate/sc_drivers/r_ssif/src/lld/r_ssif_lld_dma.c ****             next_transfer.destination_address = (uint32_t *) &g_ssireg[ssif_ch]->SSIFTDR.LONG;
 795              		.loc 1 368 47 is_stmt 0 view .LVU244
 796 0120 003000E3 		movw	r3, #:lower16:s_ssif_tx_dummy_buf
 797 0124 003040E3 		movt	r3, #:upper16:s_ssif_tx_dummy_buf
 798 0128 00308DE5 		str	r3, [sp]
 369:../generate/sc_drivers/r_ssif/src/lld/r_ssif_lld_dma.c ****             next_transfer.count               = SSIF_DUMMY_DMA_TRN_SIZE_PRV_;
 799              		.loc 1 369 13 is_stmt 1 view .LVU245
 369:../generate/sc_drivers/r_ssif/src/lld/r_ssif_lld_dma.c ****             next_transfer.count               = SSIF_DUMMY_DMA_TRN_SIZE_PRV_;
 800              		.loc 1 369 47 is_stmt 0 view .LVU246
 801 012c 04608DE5 		str	r6, [sp, #4]
 370:../generate/sc_drivers/r_ssif/src/lld/r_ssif_lld_dma.c **** 
 802              		.loc 1 370 13 is_stmt 1 view .LVU247
 370:../generate/sc_drivers/r_ssif/src/lld/r_ssif_lld_dma.c **** 
 803              		.loc 1 370 47 is_stmt 0 view .LVU248
 804 0130 3F3DA0E3 		mov	r3, #4032
 805 0134 08308DE5 		str	r3, [sp, #8]
 372:../generate/sc_drivers/r_ssif/src/lld/r_ssif_lld_dma.c ****         }
 806              		.loc 1 372 13 is_stmt 1 view .LVU249
 372:../generate/sc_drivers/r_ssif/src/lld/r_ssif_lld_dma.c ****         }
 807              		.loc 1 372 22 is_stmt 0 view .LVU250
 808 0138 003000E3 		movw	r3, #:lower16:.LANCHOR4
 809 013c 003040E3 		movt	r3, #:upper16:.LANCHOR4
 810 0140 0D20A0E1 		mov	r2, sp
 811 0144 0510A0E3 		mov	r1, #5
 812 0148 3B1040E3 		movt	r1, 59
 813 014c 000093E5 		ldr	r0, [r3]
 814              	.LVL45:
 372:../generate/sc_drivers/r_ssif/src/lld/r_ssif_lld_dma.c ****         }
 815              		.loc 1 372 22 view .LVU251
 816 0150 FEFFFFEB 		bl	control
 817              	.LVL46:
 372:../generate/sc_drivers/r_ssif/src/lld/r_ssif_lld_dma.c ****         }
 818              		.loc 1 372 22 view .LVU252
 819 0154 E5FFFFEA 		b	.L51
 820              	.LVL47:
 821              	.L61:
 389:../generate/sc_drivers/r_ssif/src/lld/r_ssif_lld_dma.c ****             s_ssif_rxdma_dummy_trparam[ssif_ch].destination_address = (void *) &s_ssif_rx_dummy_buf
 822              		.loc 1 389 13 is_stmt 1 view .LVU253
 389:../generate/sc_drivers/r_ssif/src/lld/r_ssif_lld_dma.c ****             s_ssif_rxdma_dummy_trparam[ssif_ch].destination_address = (void *) &s_ssif_rx_dummy_buf
 823              		.loc 1 389 88 is_stmt 0 view .LVU254
 824 0158 003000E3 		movw	r3, #:lower16:g_ssireg
 825 015c 003040E3 		movt	r3, #:upper16:g_ssireg
 826 0160 056193E7 		ldr	r6, [r3, r5, lsl #2]
 389:../generate/sc_drivers/r_ssif/src/lld/r_ssif_lld_dma.c ****             s_ssif_rxdma_dummy_trparam[ssif_ch].destination_address = (void *) &s_ssif_rx_dummy_buf
 827              		.loc 1 389 79 view .LVU255
 828 0164 1C6086E2 		add	r6, r6, #28
 389:../generate/sc_drivers/r_ssif/src/lld/r_ssif_lld_dma.c ****             s_ssif_rxdma_dummy_trparam[ssif_ch].destination_address = (void *) &s_ssif_rx_dummy_buf
 829              		.loc 1 389 64 view .LVU256
 830 0168 002000E3 		movw	r2, #:lower16:.LANCHOR1
 831 016c 002040E3 		movt	r2, #:upper16:.LANCHOR1
 832 0170 853085E0 		add	r3, r5, r5, lsl #1
 833 0174 0331A0E1 		lsl	r3, r3, #2
 834 0178 030082E0 		add	r0, r2, r3
 835 017c 036082E7 		str	r6, [r2, r3]
 390:../generate/sc_drivers/r_ssif/src/lld/r_ssif_lld_dma.c ****             s_ssif_rxdma_dummy_trparam[ssif_ch].count = SSIF_DUMMY_DMA_TRN_SIZE_PRV_;
 836              		.loc 1 390 13 is_stmt 1 view .LVU257
 390:../generate/sc_drivers/r_ssif/src/lld/r_ssif_lld_dma.c ****             s_ssif_rxdma_dummy_trparam[ssif_ch].count = SSIF_DUMMY_DMA_TRN_SIZE_PRV_;
 837              		.loc 1 390 69 is_stmt 0 view .LVU258
 838 0180 003000E3 		movw	r3, #:lower16:s_ssif_rx_dummy_buf
 839 0184 003040E3 		movt	r3, #:upper16:s_ssif_rx_dummy_buf
 840 0188 043080E5 		str	r3, [r0, #4]
 391:../generate/sc_drivers/r_ssif/src/lld/r_ssif_lld_dma.c **** 
 841              		.loc 1 391 13 is_stmt 1 view .LVU259
 391:../generate/sc_drivers/r_ssif/src/lld/r_ssif_lld_dma.c **** 
 842              		.loc 1 391 55 is_stmt 0 view .LVU260
 843 018c 3F1DA0E3 		mov	r1, #4032
 844 0190 081080E5 		str	r1, [r0, #8]
 393:../generate/sc_drivers/r_ssif/src/lld/r_ssif_lld_dma.c ****             dma_config.config.source_width = DMA_DATA_SIZE_2;                                      
 845              		.loc 1 393 13 is_stmt 1 view .LVU261
 393:../generate/sc_drivers/r_ssif/src/lld/r_ssif_lld_dma.c ****             dma_config.config.source_width = DMA_DATA_SIZE_2;                                      
 846              		.loc 1 393 64 is_stmt 0 view .LVU262
 847 0194 002000E3 		movw	r2, #:lower16:.LANCHOR6
 848 0198 002040E3 		movt	r2, #:upper16:.LANCHOR6
 849 019c 052192E7 		ldr	r2, [r2, r5, lsl #2]
 393:../generate/sc_drivers/r_ssif/src/lld/r_ssif_lld_dma.c ****             dma_config.config.source_width = DMA_DATA_SIZE_2;                                      
 850              		.loc 1 393 40 view .LVU263
 851 01a0 0C208DE5 		str	r2, [sp, #12]
 394:../generate/sc_drivers/r_ssif/src/lld/r_ssif_lld_dma.c ****             dma_config.config.destination_width = DMA_DATA_SIZE_2;                                 
 852              		.loc 1 394 13 is_stmt 1 view .LVU264
 394:../generate/sc_drivers/r_ssif/src/lld/r_ssif_lld_dma.c ****             dma_config.config.destination_width = DMA_DATA_SIZE_2;                                 
 853              		.loc 1 394 44 is_stmt 0 view .LVU265
 854 01a4 0220A0E3 		mov	r2, #2
 855 01a8 B021CDE1 		strh	r2, [sp, #16]	@ movhi
 395:../generate/sc_drivers/r_ssif/src/lld/r_ssif_lld_dma.c ****             dma_config.config.source_address_type = DMA_ADDRESS_FIX;                               
 856              		.loc 1 395 13 is_stmt 1 view .LVU266
 395:../generate/sc_drivers/r_ssif/src/lld/r_ssif_lld_dma.c ****             dma_config.config.source_address_type = DMA_ADDRESS_FIX;                               
 857              		.loc 1 395 49 is_stmt 0 view .LVU267
 858 01ac B221CDE1 		strh	r2, [sp, #18]	@ movhi
 396:../generate/sc_drivers/r_ssif/src/lld/r_ssif_lld_dma.c ****             dma_config.config.destination_address_type = DMA_ADDRESS_INCREMENT;                    
 859              		.loc 1 396 13 is_stmt 1 view .LVU268
 396:../generate/sc_drivers/r_ssif/src/lld/r_ssif_lld_dma.c ****             dma_config.config.destination_address_type = DMA_ADDRESS_INCREMENT;                    
 860              		.loc 1 396 51 is_stmt 0 view .LVU269
 861 01b0 0120A0E3 		mov	r2, #1
 862 01b4 1420CDE5 		strb	r2, [sp, #20]
 397:../generate/sc_drivers/r_ssif/src/lld/r_ssif_lld_dma.c ****             dma_config.config.direction = DMA_REQUEST_SOURCE;                                      
 863              		.loc 1 397 13 is_stmt 1 view .LVU270
 397:../generate/sc_drivers/r_ssif/src/lld/r_ssif_lld_dma.c ****             dma_config.config.direction = DMA_REQUEST_SOURCE;                                      
 864              		.loc 1 397 56 is_stmt 0 view .LVU271
 865 01b8 0020A0E3 		mov	r2, #0
 866 01bc 1520CDE5 		strb	r2, [sp, #21]
 398:../generate/sc_drivers/r_ssif/src/lld/r_ssif_lld_dma.c ****             dma_config.config.source_address = s_ssif_rxdma_dummy_trparam[ssif_ch].source_address; 
 867              		.loc 1 398 13 is_stmt 1 view .LVU272
 398:../generate/sc_drivers/r_ssif/src/lld/r_ssif_lld_dma.c ****             dma_config.config.source_address = s_ssif_rxdma_dummy_trparam[ssif_ch].source_address; 
 868              		.loc 1 398 41 is_stmt 0 view .LVU273
 869 01c0 1620CDE5 		strb	r2, [sp, #22]
 399:../generate/sc_drivers/r_ssif/src/lld/r_ssif_lld_dma.c ****             dma_config.config.destination_address = s_ssif_rxdma_dummy_trparam[ssif_ch].destination
 870              		.loc 1 399 13 is_stmt 1 view .LVU274
 399:../generate/sc_drivers/r_ssif/src/lld/r_ssif_lld_dma.c ****             dma_config.config.destination_address = s_ssif_rxdma_dummy_trparam[ssif_ch].destination
 871              		.loc 1 399 46 is_stmt 0 view .LVU275
 872 01c4 20608DE5 		str	r6, [sp, #32]
 400:../generate/sc_drivers/r_ssif/src/lld/r_ssif_lld_dma.c ****             dma_config.config.count = s_ssif_rxdma_dummy_trparam[ssif_ch].count;                   
 873              		.loc 1 400 13 is_stmt 1 view .LVU276
 400:../generate/sc_drivers/r_ssif/src/lld/r_ssif_lld_dma.c ****             dma_config.config.count = s_ssif_rxdma_dummy_trparam[ssif_ch].count;                   
 874              		.loc 1 400 51 is_stmt 0 view .LVU277
 875 01c8 24308DE5 		str	r3, [sp, #36]
 401:../generate/sc_drivers/r_ssif/src/lld/r_ssif_lld_dma.c ****             dma_config.config.p_dmaComplete = SSIF_DMA_RxEndCallback;                              
 876              		.loc 1 401 13 is_stmt 1 view .LVU278
 401:../generate/sc_drivers/r_ssif/src/lld/r_ssif_lld_dma.c ****             dma_config.config.p_dmaComplete = SSIF_DMA_RxEndCallback;                              
 877              		.loc 1 401 37 is_stmt 0 view .LVU279
 878 01cc 28108DE5 		str	r1, [sp, #40]
 402:../generate/sc_drivers/r_ssif/src/lld/r_ssif_lld_dma.c **** 
 879              		.loc 1 402 13 is_stmt 1 view .LVU280
 402:../generate/sc_drivers/r_ssif/src/lld/r_ssif_lld_dma.c **** 
 880              		.loc 1 402 45 is_stmt 0 view .LVU281
 881 01d0 003000E3 		movw	r3, #:lower16:SSIF_DMA_RxEndCallback
 882 01d4 003040E3 		movt	r3, #:upper16:SSIF_DMA_RxEndCallback
 883 01d8 18308DE5 		str	r3, [sp, #24]
 404:../generate/sc_drivers/r_ssif/src/lld/r_ssif_lld_dma.c **** 
 884              		.loc 1 404 13 is_stmt 1 view .LVU282
 404:../generate/sc_drivers/r_ssif/src/lld/r_ssif_lld_dma.c **** 
 885              		.loc 1 404 22 is_stmt 0 view .LVU283
 886 01dc 003000E3 		movw	r3, #:lower16:.LANCHOR2
 887 01e0 003040E3 		movt	r3, #:upper16:.LANCHOR2
 888 01e4 0C208DE2 		add	r2, sp, #12
 889 01e8 0110A0E3 		mov	r1, #1
 890 01ec 3B1040E3 		movt	r1, 59
 891 01f0 000093E5 		ldr	r0, [r3]
 892 01f4 FEFFFFEB 		bl	control
 893              	.LVL48:
 406:../generate/sc_drivers/r_ssif/src/lld/r_ssif_lld_dma.c ****             {
 894              		.loc 1 406 13 is_stmt 1 view .LVU284
 406:../generate/sc_drivers/r_ssif/src/lld/r_ssif_lld_dma.c ****             {
 895              		.loc 1 406 16 is_stmt 0 view .LVU285
 896 01f8 000050E3 		cmp	r0, #0
 406:../generate/sc_drivers/r_ssif/src/lld/r_ssif_lld_dma.c ****             {
 897              		.loc 1 406 16 view .LVU286
 898 01fc 0500000A 		beq	.L65
 899              	.L53:
 411:../generate/sc_drivers/r_ssif/src/lld/r_ssif_lld_dma.c ****             {
 900              		.loc 1 411 13 is_stmt 1 view .LVU287
 411:../generate/sc_drivers/r_ssif/src/lld/r_ssif_lld_dma.c ****             {
 901              		.loc 1 411 16 is_stmt 0 view .LVU288
 902 0200 000050E3 		cmp	r0, #0
 903 0204 0B00000A 		beq	.L66
 904              	.L54:
 420:../generate/sc_drivers/r_ssif/src/lld/r_ssif_lld_dma.c **** 
 905              		.loc 1 420 13 is_stmt 1 view .LVU289
 420:../generate/sc_drivers/r_ssif/src/lld/r_ssif_lld_dma.c **** 
 906              		.loc 1 420 63 is_stmt 0 view .LVU290
 907 0208 000050E3 		cmp	r0, #0
 908 020c 87FFFF0A 		beq	.L52
 424:../generate/sc_drivers/r_ssif/src/lld/r_ssif_lld_dma.c ****             }
 909              		.loc 1 424 22 view .LVU291
 910 0210 6000E0E3 		mvn	r0, #96
 911              	.LVL49:
 424:../generate/sc_drivers/r_ssif/src/lld/r_ssif_lld_dma.c ****             }
 912              		.loc 1 424 22 view .LVU292
 913 0214 87FFFFEA 		b	.L47
 914              	.LVL50:
 915              	.L65:
 408:../generate/sc_drivers/r_ssif/src/lld/r_ssif_lld_dma.c ****             }
 916              		.loc 1 408 17 is_stmt 1 view .LVU293
 408:../generate/sc_drivers/r_ssif/src/lld/r_ssif_lld_dma.c ****             }
 917              		.loc 1 408 26 is_stmt 0 view .LVU294
 918 0218 003000E3 		movw	r3, #:lower16:.LANCHOR2
 919 021c 003040E3 		movt	r3, #:upper16:.LANCHOR2
 920 0220 0020A0E3 		mov	r2, #0
 921 0224 0310A0E3 		mov	r1, #3
 922 0228 3B1040E3 		movt	r1, 59
 923 022c 000093E5 		ldr	r0, [r3]
 924              	.LVL51:
 408:../generate/sc_drivers/r_ssif/src/lld/r_ssif_lld_dma.c ****             }
 925              		.loc 1 408 26 view .LVU295
 926 0230 FEFFFFEB 		bl	control
 927              	.LVL52:
 408:../generate/sc_drivers/r_ssif/src/lld/r_ssif_lld_dma.c ****             }
 928              		.loc 1 408 26 view .LVU296
 929 0234 F1FFFFEA 		b	.L53
 930              	.L66:
 413:../generate/sc_drivers/r_ssif/src/lld/r_ssif_lld_dma.c ****                 next_transfer.destination_address = (void *) &s_ssif_rx_dummy_buf[0];
 931              		.loc 1 413 17 is_stmt 1 view .LVU297
 413:../generate/sc_drivers/r_ssif/src/lld/r_ssif_lld_dma.c ****                 next_transfer.destination_address = (void *) &s_ssif_rx_dummy_buf[0];
 932              		.loc 1 413 51 is_stmt 0 view .LVU298
 933 0238 00608DE5 		str	r6, [sp]
 414:../generate/sc_drivers/r_ssif/src/lld/r_ssif_lld_dma.c ****                 next_transfer.count               = SSIF_DUMMY_DMA_TRN_SIZE_PRV_;
 934              		.loc 1 414 17 is_stmt 1 view .LVU299
 414:../generate/sc_drivers/r_ssif/src/lld/r_ssif_lld_dma.c ****                 next_transfer.count               = SSIF_DUMMY_DMA_TRN_SIZE_PRV_;
 935              		.loc 1 414 51 is_stmt 0 view .LVU300
 936 023c 003000E3 		movw	r3, #:lower16:s_ssif_rx_dummy_buf
 937 0240 003040E3 		movt	r3, #:upper16:s_ssif_rx_dummy_buf
 938 0244 04308DE5 		str	r3, [sp, #4]
 415:../generate/sc_drivers/r_ssif/src/lld/r_ssif_lld_dma.c **** 
 939              		.loc 1 415 17 is_stmt 1 view .LVU301
 415:../generate/sc_drivers/r_ssif/src/lld/r_ssif_lld_dma.c **** 
 940              		.loc 1 415 51 is_stmt 0 view .LVU302
 941 0248 3F3DA0E3 		mov	r3, #4032
 942 024c 08308DE5 		str	r3, [sp, #8]
 417:../generate/sc_drivers/r_ssif/src/lld/r_ssif_lld_dma.c ****             }
 943              		.loc 1 417 17 is_stmt 1 view .LVU303
 417:../generate/sc_drivers/r_ssif/src/lld/r_ssif_lld_dma.c ****             }
 944              		.loc 1 417 26 is_stmt 0 view .LVU304
 945 0250 003000E3 		movw	r3, #:lower16:.LANCHOR2
 946 0254 003040E3 		movt	r3, #:upper16:.LANCHOR2
 947 0258 0D20A0E1 		mov	r2, sp
 948 025c 0510A0E3 		mov	r1, #5
 949 0260 3B1040E3 		movt	r1, 59
 950 0264 000093E5 		ldr	r0, [r3]
 951              	.LVL53:
 417:../generate/sc_drivers/r_ssif/src/lld/r_ssif_lld_dma.c ****             }
 952              		.loc 1 417 26 view .LVU305
 953 0268 FEFFFFEB 		bl	control
 954              	.LVL54:
 417:../generate/sc_drivers/r_ssif/src/lld/r_ssif_lld_dma.c ****             }
 955              		.loc 1 417 26 view .LVU306
 956 026c E5FFFFEA 		b	.L54
 957              	.LVL55:
 958              	.L62:
 432:../generate/sc_drivers/r_ssif/src/lld/r_ssif_lld_dma.c ****     }
 959              		.loc 1 432 9 is_stmt 1 view .LVU307
 432:../generate/sc_drivers/r_ssif/src/lld/r_ssif_lld_dma.c ****     }
 960              		.loc 1 432 16 is_stmt 0 view .LVU308
 961 0270 0400A0E1 		mov	r0, r4
 962              	.LVL56:
 432:../generate/sc_drivers/r_ssif/src/lld/r_ssif_lld_dma.c ****     }
 963              		.loc 1 432 16 view .LVU309
 964 0274 FEFFFFEB 		bl	enable_ssif_transfer
 965              	.LVL57:
 432:../generate/sc_drivers/r_ssif/src/lld/r_ssif_lld_dma.c ****     }
 966              		.loc 1 432 16 view .LVU310
 967 0278 6EFFFFEA 		b	.L47
 968              	.LVL58:
 969              	.L55:
 319:../generate/sc_drivers/r_ssif/src/lld/r_ssif_lld_dma.c ****     }
 970              		.loc 1 319 16 view .LVU311
 971 027c 6000E0E3 		mvn	r0, #96
 972              	.LVL59:
 319:../generate/sc_drivers/r_ssif/src/lld/r_ssif_lld_dma.c ****     }
 973              		.loc 1 319 16 view .LVU312
 974 0280 6CFFFFEA 		b	.L47
 975              		.cfi_endproc
 976              	.LFE8:
 978              		.section	.text.R_SSIF_CancelDMA,"ax",%progbits
 979              		.align	2
 980              		.global	R_SSIF_CancelDMA
 981              		.syntax unified
 982              		.arm
 983              		.fpu neon
 985              	R_SSIF_CancelDMA:
 986              	.LVL60:
 987              	.LFB9:
 448:../generate/sc_drivers/r_ssif/src/lld/r_ssif_lld_dma.c ****     uint32_t remain;
 988              		.loc 1 448 1 is_stmt 1 view -0
 989              		.cfi_startproc
 990              		@ args = 0, pretend = 0, frame = 8
 991              		@ frame_needed = 0, uses_anonymous_args = 0
 449:../generate/sc_drivers/r_ssif/src/lld/r_ssif_lld_dma.c **** 
 992              		.loc 1 449 5 view .LVU314
 451:../generate/sc_drivers/r_ssif/src/lld/r_ssif_lld_dma.c ****     {
 993              		.loc 1 451 5 view .LVU315
 451:../generate/sc_drivers/r_ssif/src/lld/r_ssif_lld_dma.c ****     {
 994              		.loc 1 451 8 is_stmt 0 view .LVU316
 995 0000 000050E3 		cmp	r0, #0
 996 0004 1EFF2F01 		bxeq	lr
 448:../generate/sc_drivers/r_ssif/src/lld/r_ssif_lld_dma.c ****     uint32_t remain;
 997              		.loc 1 448 1 view .LVU317
 998 0008 04E02DE5 		str	lr, [sp, #-4]!
 999              		.cfi_def_cfa_offset 4
 1000              		.cfi_offset 14, -4
 1001 000c 0CD04DE2 		sub	sp, sp, #12
 1002              		.cfi_def_cfa_offset 16
 456:../generate/sc_drivers/r_ssif/src/lld/r_ssif_lld_dma.c ****     {
 1003              		.loc 1 456 5 is_stmt 1 view .LVU318
 456:../generate/sc_drivers/r_ssif/src/lld/r_ssif_lld_dma.c ****     {
 1004              		.loc 1 456 35 is_stmt 0 view .LVU319
 1005 0010 003000E3 		movw	r3, #:lower16:.LANCHOR4
 1006 0014 003040E3 		movt	r3, #:upper16:.LANCHOR4
 1007 0018 000093E5 		ldr	r0, [r3]
 1008              	.LVL61:
 456:../generate/sc_drivers/r_ssif/src/lld/r_ssif_lld_dma.c ****     {
 1009              		.loc 1 456 8 view .LVU320
 1010 001c 000050E3 		cmp	r0, #0
 1011 0020 060000AA 		bge	.L76
 1012              	.L70:
 461:../generate/sc_drivers/r_ssif/src/lld/r_ssif_lld_dma.c ****     {
 1013              		.loc 1 461 5 is_stmt 1 view .LVU321
 461:../generate/sc_drivers/r_ssif/src/lld/r_ssif_lld_dma.c ****     {
 1014              		.loc 1 461 34 is_stmt 0 view .LVU322
 1015 0024 003000E3 		movw	r3, #:lower16:.LANCHOR2
 1016 0028 003040E3 		movt	r3, #:upper16:.LANCHOR2
 1017 002c 000093E5 		ldr	r0, [r3]
 461:../generate/sc_drivers/r_ssif/src/lld/r_ssif_lld_dma.c ****     {
 1018              		.loc 1 461 8 view .LVU323
 1019 0030 000050E3 		cmp	r0, #0
 1020 0034 060000AA 		bge	.L77
 1021              	.L67:
 465:../generate/sc_drivers/r_ssif/src/lld/r_ssif_lld_dma.c **** /******************************************************************************
 1022              		.loc 1 465 1 view .LVU324
 1023 0038 0CD08DE2 		add	sp, sp, #12
 1024              		.cfi_remember_state
 1025              		.cfi_def_cfa_offset 4
 1026              		@ sp needed
 1027 003c 04F09DE4 		ldr	pc, [sp], #4
 1028              	.L76:
 1029              		.cfi_restore_state
 458:../generate/sc_drivers/r_ssif/src/lld/r_ssif_lld_dma.c ****     }
 1030              		.loc 1 458 9 is_stmt 1 view .LVU325
 1031 0040 04208DE2 		add	r2, sp, #4
 1032 0044 0410A0E3 		mov	r1, #4
 1033 0048 3B1040E3 		movt	r1, 59
 1034 004c FEFFFFEB 		bl	control
 1035              	.LVL62:
 1036 0050 F3FFFFEA 		b	.L70
 1037              	.L77:
 463:../generate/sc_drivers/r_ssif/src/lld/r_ssif_lld_dma.c ****     }
 1038              		.loc 1 463 9 view .LVU326
 1039 0054 04208DE2 		add	r2, sp, #4
 1040 0058 0410A0E3 		mov	r1, #4
 1041 005c 3B1040E3 		movt	r1, 59
 1042 0060 FEFFFFEB 		bl	control
 1043              	.LVL63:
 1044 0064 F3FFFFEA 		b	.L67
 1045              		.cfi_endproc
 1046              	.LFE9:
 1048              		.section	.text.R_SSIF_InitDMA,"ax",%progbits
 1049              		.align	2
 1050              		.global	R_SSIF_InitDMA
 1051              		.syntax unified
 1052              		.arm
 1053              		.fpu neon
 1055              	R_SSIF_InitDMA:
 1056              	.LVL64:
 1057              	.LFB6:
 111:../generate/sc_drivers/r_ssif/src/lld/r_ssif_lld_dma.c ****     int_t ercd = IOIF_ESUCCESS;
 1058              		.loc 1 111 1 view -0
 1059              		.cfi_startproc
 1060              		@ args = 0, pretend = 0, frame = 64
 1061              		@ frame_needed = 0, uses_anonymous_args = 0
 111:../generate/sc_drivers/r_ssif/src/lld/r_ssif_lld_dma.c ****     int_t ercd = IOIF_ESUCCESS;
 1062              		.loc 1 111 1 is_stmt 0 view .LVU328
 1063 0000 F0402DE9 		push	{r4, r5, r6, r7, lr}
 1064              		.cfi_def_cfa_offset 20
 1065              		.cfi_offset 4, -20
 1066              		.cfi_offset 5, -16
 1067              		.cfi_offset 6, -12
 1068              		.cfi_offset 7, -8
 1069              		.cfi_offset 14, -4
 1070 0004 44D04DE2 		sub	sp, sp, #68
 1071              		.cfi_def_cfa_offset 88
 112:../generate/sc_drivers/r_ssif/src/lld/r_ssif_lld_dma.c ****     int_t dma_ret = 0;
 1072              		.loc 1 112 5 is_stmt 1 view .LVU329
 1073              	.LVL65:
 113:../generate/sc_drivers/r_ssif/src/lld/r_ssif_lld_dma.c ****     uint32_t ssif_ch;
 1074              		.loc 1 113 5 view .LVU330
 114:../generate/sc_drivers/r_ssif/src/lld/r_ssif_lld_dma.c ****     st_r_drv_dmac_config_t dma_config;
 1075              		.loc 1 114 5 view .LVU331
 115:../generate/sc_drivers/r_ssif/src/lld/r_ssif_lld_dma.c ****     st_r_drv_dmac_config_t *ptdma_config;
 1076              		.loc 1 115 5 view .LVU332
 116:../generate/sc_drivers/r_ssif/src/lld/r_ssif_lld_dma.c ****     int_t result;
 1077              		.loc 1 116 5 view .LVU333
 117:../generate/sc_drivers/r_ssif/src/lld/r_ssif_lld_dma.c ****     st_r_drv_dmac_next_transfer_t next_transfer;
 1078              		.loc 1 117 5 view .LVU334
 118:../generate/sc_drivers/r_ssif/src/lld/r_ssif_lld_dma.c **** 
 1079              		.loc 1 118 5 view .LVU335
 120:../generate/sc_drivers/r_ssif/src/lld/r_ssif_lld_dma.c ****     {
 1080              		.loc 1 120 5 view .LVU336
 120:../generate/sc_drivers/r_ssif/src/lld/r_ssif_lld_dma.c ****     {
 1081              		.loc 1 120 8 is_stmt 0 view .LVU337
 1082 0008 004050E2 		subs	r4, r0, #0
 1083 000c BF00000A 		beq	.L89
 125:../generate/sc_drivers/r_ssif/src/lld/r_ssif_lld_dma.c ****     {
 1084              		.loc 1 125 5 is_stmt 1 view .LVU338
 125:../generate/sc_drivers/r_ssif/src/lld/r_ssif_lld_dma.c ****     {
 1085              		.loc 1 125 9 is_stmt 0 view .LVU339
 1086 0010 0400A0E1 		mov	r0, r4
 125:../generate/sc_drivers/r_ssif/src/lld/r_ssif_lld_dma.c ****     {
 1087              		.loc 1 125 9 view .LVU340
 1088 0014 FEFFFFEB 		bl	open_dma_driver
 1089              	.LVL66:
 125:../generate/sc_drivers/r_ssif/src/lld/r_ssif_lld_dma.c ****     {
 1090              		.loc 1 125 8 view .LVU341
 1091 0018 005050E2 		subs	r5, r0, #0
 1092 001c BD00001A 		bne	.L90
 130:../generate/sc_drivers/r_ssif/src/lld/r_ssif_lld_dma.c ****     ssif_ch = p_info_ch->channel;
 1093              		.loc 1 130 5 is_stmt 1 view .LVU342
 130:../generate/sc_drivers/r_ssif/src/lld/r_ssif_lld_dma.c ****     ssif_ch = p_info_ch->channel;
 1094              		.loc 1 130 16 is_stmt 0 view .LVU343
 1095 0020 003000E3 		movw	r3, #:lower16:.LANCHOR0
 1096 0024 003040E3 		movt	r3, #:upper16:.LANCHOR0
 1097 0028 004083E5 		str	r4, [r3]
 131:../generate/sc_drivers/r_ssif/src/lld/r_ssif_lld_dma.c **** 
 1098              		.loc 1 131 5 is_stmt 1 view .LVU344
 131:../generate/sc_drivers/r_ssif/src/lld/r_ssif_lld_dma.c **** 
 1099              		.loc 1 131 13 is_stmt 0 view .LVU345
 1100 002c 006094E5 		ldr	r6, [r4]
 1101              	.LVL67:
 134:../generate/sc_drivers/r_ssif/src/lld/r_ssif_lld_dma.c ****     {
 1102              		.loc 1 134 5 is_stmt 1 view .LVU346
 144:../generate/sc_drivers/r_ssif/src/lld/r_ssif_lld_dma.c ****     {
 1103              		.loc 1 144 5 view .LVU347
 153:../generate/sc_drivers/r_ssif/src/lld/r_ssif_lld_dma.c ****     {
 1104              		.loc 1 153 5 view .LVU348
 153:../generate/sc_drivers/r_ssif/src/lld/r_ssif_lld_dma.c ****     {
 1105              		.loc 1 153 30 is_stmt 0 view .LVU349
 1106 0030 583094E5 		ldr	r3, [r4, #88]
 153:../generate/sc_drivers/r_ssif/src/lld/r_ssif_lld_dma.c ****     {
 1107              		.loc 1 153 8 view .LVU350
 1108 0034 000053E3 		cmp	r3, #0
 1109 0038 0900001A 		bne	.L93
 1110              	.L80:
 1111              	.LVL68:
 194:../generate/sc_drivers/r_ssif/src/lld/r_ssif_lld_dma.c ****         {
 1112              		.loc 1 194 9 is_stmt 1 view .LVU351
 194:../generate/sc_drivers/r_ssif/src/lld/r_ssif_lld_dma.c ****         {
 1113              		.loc 1 194 34 is_stmt 0 view .LVU352
 1114 003c 583094E5 		ldr	r3, [r4, #88]
 194:../generate/sc_drivers/r_ssif/src/lld/r_ssif_lld_dma.c ****         {
 1115              		.loc 1 194 12 view .LVU353
 1116 0040 010053E3 		cmp	r3, #1
 1117 0044 4C00001A 		bne	.L94
 1118              	.L83:
 1119              	.LVL69:
 255:../generate/sc_drivers/r_ssif/src/lld/r_ssif_lld_dma.c ****     {
 1120              		.loc 1 255 5 is_stmt 1 view .LVU354
 255:../generate/sc_drivers/r_ssif/src/lld/r_ssif_lld_dma.c ****     {
 1121              		.loc 1 255 8 is_stmt 0 view .LVU355
 1122 0048 000055E3 		cmp	r5, #0
 1123 004c A800000A 		beq	.L95
 1124              	.LVL70:
 1125              	.L85:
 261:../generate/sc_drivers/r_ssif/src/lld/r_ssif_lld_dma.c ****     {
 1126              		.loc 1 261 5 is_stmt 1 view .LVU356
 261:../generate/sc_drivers/r_ssif/src/lld/r_ssif_lld_dma.c ****     {
 1127              		.loc 1 261 8 is_stmt 0 view .LVU357
 1128 0050 000055E3 		cmp	r5, #0
 1129 0054 AA00001A 		bne	.L96
 1130              	.LVL71:
 1131              	.L78:
 267:../generate/sc_drivers/r_ssif/src/lld/r_ssif_lld_dma.c **** /******************************************************************************
 1132              		.loc 1 267 1 view .LVU358
 1133 0058 0500A0E1 		mov	r0, r5
 1134 005c 44D08DE2 		add	sp, sp, #68
 1135              		.cfi_remember_state
 1136              		.cfi_def_cfa_offset 20
 1137              		@ sp needed
 1138 0060 F080BDE8 		pop	{r4, r5, r6, r7, pc}
 1139              	.LVL72:
 1140              	.L93:
 1141              		.cfi_restore_state
 156:../generate/sc_drivers/r_ssif/src/lld/r_ssif_lld_dma.c ****         s_ssif_txdma_dummy_trparam[ssif_ch].destination_address = (uint32_t *) &g_ssireg[ssif_ch]->
 1142              		.loc 1 156 9 is_stmt 1 view .LVU359
 156:../generate/sc_drivers/r_ssif/src/lld/r_ssif_lld_dma.c ****         s_ssif_txdma_dummy_trparam[ssif_ch].destination_address = (uint32_t *) &g_ssireg[ssif_ch]->
 1143              		.loc 1 156 60 is_stmt 0 view .LVU360
 1144 0064 001000E3 		movw	r1, #:lower16:.LANCHOR3
 1145 0068 001040E3 		movt	r1, #:upper16:.LANCHOR3
 1146 006c 862086E0 		add	r2, r6, r6, lsl #1
 1147 0070 0221A0E1 		lsl	r2, r2, #2
 1148 0074 020081E0 		add	r0, r1, r2
 1149 0078 003000E3 		movw	r3, #:lower16:s_ssif_tx_dummy_buf
 1150 007c 003040E3 		movt	r3, #:upper16:s_ssif_tx_dummy_buf
 1151 0080 023081E7 		str	r3, [r1, r2]
 157:../generate/sc_drivers/r_ssif/src/lld/r_ssif_lld_dma.c ****         s_ssif_txdma_dummy_trparam[ssif_ch].count = SSIF_DUMMY_DMA_TRN_SIZE_PRV_;
 1152              		.loc 1 157 9 is_stmt 1 view .LVU361
 157:../generate/sc_drivers/r_ssif/src/lld/r_ssif_lld_dma.c ****         s_ssif_txdma_dummy_trparam[ssif_ch].count = SSIF_DUMMY_DMA_TRN_SIZE_PRV_;
 1153              		.loc 1 157 89 is_stmt 0 view .LVU362
 1154 0084 002000E3 		movw	r2, #:lower16:g_ssireg
 1155 0088 002040E3 		movt	r2, #:upper16:g_ssireg
 1156 008c 067192E7 		ldr	r7, [r2, r6, lsl #2]
 157:../generate/sc_drivers/r_ssif/src/lld/r_ssif_lld_dma.c ****         s_ssif_txdma_dummy_trparam[ssif_ch].count = SSIF_DUMMY_DMA_TRN_SIZE_PRV_;
 1157              		.loc 1 157 80 view .LVU363
 1158 0090 187087E2 		add	r7, r7, #24
 157:../generate/sc_drivers/r_ssif/src/lld/r_ssif_lld_dma.c ****         s_ssif_txdma_dummy_trparam[ssif_ch].count = SSIF_DUMMY_DMA_TRN_SIZE_PRV_;
 1159              		.loc 1 157 65 view .LVU364
 1160 0094 047080E5 		str	r7, [r0, #4]
 158:../generate/sc_drivers/r_ssif/src/lld/r_ssif_lld_dma.c ****         dma_config.config.resource = s_ssif_dma_tx_resource[ssif_ch];                              
 1161              		.loc 1 158 9 is_stmt 1 view .LVU365
 158:../generate/sc_drivers/r_ssif/src/lld/r_ssif_lld_dma.c ****         dma_config.config.resource = s_ssif_dma_tx_resource[ssif_ch];                              
 1162              		.loc 1 158 51 is_stmt 0 view .LVU366
 1163 0098 3F1DA0E3 		mov	r1, #4032
 1164 009c 081080E5 		str	r1, [r0, #8]
 159:../generate/sc_drivers/r_ssif/src/lld/r_ssif_lld_dma.c ****         dma_config.config.source_width = DMA_DATA_SIZE_2;                                          
 1165              		.loc 1 159 9 is_stmt 1 view .LVU367
 159:../generate/sc_drivers/r_ssif/src/lld/r_ssif_lld_dma.c ****         dma_config.config.source_width = DMA_DATA_SIZE_2;                                          
 1166              		.loc 1 159 60 is_stmt 0 view .LVU368
 1167 00a0 002000E3 		movw	r2, #:lower16:.LANCHOR5
 1168 00a4 002040E3 		movt	r2, #:upper16:.LANCHOR5
 1169 00a8 062192E7 		ldr	r2, [r2, r6, lsl #2]
 159:../generate/sc_drivers/r_ssif/src/lld/r_ssif_lld_dma.c ****         dma_config.config.source_width = DMA_DATA_SIZE_2;                                          
 1170              		.loc 1 159 36 view .LVU369
 1171 00ac 1C208DE5 		str	r2, [sp, #28]
 160:../generate/sc_drivers/r_ssif/src/lld/r_ssif_lld_dma.c ****         dma_config.config.destination_width = DMA_DATA_SIZE_2;                                     
 1172              		.loc 1 160 9 is_stmt 1 view .LVU370
 160:../generate/sc_drivers/r_ssif/src/lld/r_ssif_lld_dma.c ****         dma_config.config.destination_width = DMA_DATA_SIZE_2;                                     
 1173              		.loc 1 160 40 is_stmt 0 view .LVU371
 1174 00b0 0220A0E3 		mov	r2, #2
 1175 00b4 B022CDE1 		strh	r2, [sp, #32]	@ movhi
 161:../generate/sc_drivers/r_ssif/src/lld/r_ssif_lld_dma.c ****         dma_config.config.source_address_type = DMA_ADDRESS_INCREMENT;                             
 1176              		.loc 1 161 9 is_stmt 1 view .LVU372
 161:../generate/sc_drivers/r_ssif/src/lld/r_ssif_lld_dma.c ****         dma_config.config.source_address_type = DMA_ADDRESS_INCREMENT;                             
 1177              		.loc 1 161 45 is_stmt 0 view .LVU373
 1178 00b8 B222CDE1 		strh	r2, [sp, #34]	@ movhi
 162:../generate/sc_drivers/r_ssif/src/lld/r_ssif_lld_dma.c ****         dma_config.config.destination_address_type = DMA_ADDRESS_FIX;                              
 1179              		.loc 1 162 9 is_stmt 1 view .LVU374
 162:../generate/sc_drivers/r_ssif/src/lld/r_ssif_lld_dma.c ****         dma_config.config.destination_address_type = DMA_ADDRESS_FIX;                              
 1180              		.loc 1 162 47 is_stmt 0 view .LVU375
 1181 00bc 0020A0E3 		mov	r2, #0
 1182 00c0 2420CDE5 		strb	r2, [sp, #36]
 163:../generate/sc_drivers/r_ssif/src/lld/r_ssif_lld_dma.c ****         dma_config.config.direction = DMA_REQUEST_DESTINATION;                                     
 1183              		.loc 1 163 9 is_stmt 1 view .LVU376
 163:../generate/sc_drivers/r_ssif/src/lld/r_ssif_lld_dma.c ****         dma_config.config.direction = DMA_REQUEST_DESTINATION;                                     
 1184              		.loc 1 163 52 is_stmt 0 view .LVU377
 1185 00c4 0120A0E3 		mov	r2, #1
 1186 00c8 2520CDE5 		strb	r2, [sp, #37]
 164:../generate/sc_drivers/r_ssif/src/lld/r_ssif_lld_dma.c ****         dma_config.config.source_address = s_ssif_txdma_dummy_trparam[ssif_ch].source_address;     
 1187              		.loc 1 164 9 is_stmt 1 view .LVU378
 164:../generate/sc_drivers/r_ssif/src/lld/r_ssif_lld_dma.c ****         dma_config.config.source_address = s_ssif_txdma_dummy_trparam[ssif_ch].source_address;     
 1188              		.loc 1 164 37 is_stmt 0 view .LVU379
 1189 00cc 2620CDE5 		strb	r2, [sp, #38]
 165:../generate/sc_drivers/r_ssif/src/lld/r_ssif_lld_dma.c ****         dma_config.config.destination_address = s_ssif_txdma_dummy_trparam[ssif_ch].destination_add
 1190              		.loc 1 165 9 is_stmt 1 view .LVU380
 165:../generate/sc_drivers/r_ssif/src/lld/r_ssif_lld_dma.c ****         dma_config.config.destination_address = s_ssif_txdma_dummy_trparam[ssif_ch].destination_add
 1191              		.loc 1 165 42 is_stmt 0 view .LVU381
 1192 00d0 30308DE5 		str	r3, [sp, #48]
 166:../generate/sc_drivers/r_ssif/src/lld/r_ssif_lld_dma.c ****         dma_config.config.count = s_ssif_txdma_dummy_trparam[ssif_ch].count;                       
 1193              		.loc 1 166 9 is_stmt 1 view .LVU382
 166:../generate/sc_drivers/r_ssif/src/lld/r_ssif_lld_dma.c ****         dma_config.config.count = s_ssif_txdma_dummy_trparam[ssif_ch].count;                       
 1194              		.loc 1 166 47 is_stmt 0 view .LVU383
 1195 00d4 34708DE5 		str	r7, [sp, #52]
 167:../generate/sc_drivers/r_ssif/src/lld/r_ssif_lld_dma.c ****         dma_config.config.p_dmaComplete = SSIF_DMA_TxEndCallback;                                  
 1196              		.loc 1 167 9 is_stmt 1 view .LVU384
 167:../generate/sc_drivers/r_ssif/src/lld/r_ssif_lld_dma.c ****         dma_config.config.p_dmaComplete = SSIF_DMA_TxEndCallback;                                  
 1197              		.loc 1 167 33 is_stmt 0 view .LVU385
 1198 00d8 38108DE5 		str	r1, [sp, #56]
 168:../generate/sc_drivers/r_ssif/src/lld/r_ssif_lld_dma.c ****         result = control(s_dma_driver_write_handle, CTL_DMAC_SET_CONFIGURATION, (void *) &dma_confi
 1199              		.loc 1 168 9 is_stmt 1 view .LVU386
 168:../generate/sc_drivers/r_ssif/src/lld/r_ssif_lld_dma.c ****         result = control(s_dma_driver_write_handle, CTL_DMAC_SET_CONFIGURATION, (void *) &dma_confi
 1200              		.loc 1 168 41 is_stmt 0 view .LVU387
 1201 00dc 003000E3 		movw	r3, #:lower16:SSIF_DMA_TxEndCallback
 1202 00e0 003040E3 		movt	r3, #:upper16:SSIF_DMA_TxEndCallback
 1203 00e4 28308DE5 		str	r3, [sp, #40]
 169:../generate/sc_drivers/r_ssif/src/lld/r_ssif_lld_dma.c ****         if (DRV_SUCCESS == result)
 1204              		.loc 1 169 9 is_stmt 1 view .LVU388
 169:../generate/sc_drivers/r_ssif/src/lld/r_ssif_lld_dma.c ****         if (DRV_SUCCESS == result)
 1205              		.loc 1 169 18 is_stmt 0 view .LVU389
 1206 00e8 003000E3 		movw	r3, #:lower16:.LANCHOR4
 1207 00ec 003040E3 		movt	r3, #:upper16:.LANCHOR4
 1208 00f0 1C208DE2 		add	r2, sp, #28
 1209 00f4 0110A0E3 		mov	r1, #1
 1210 00f8 3B1040E3 		movt	r1, 59
 1211 00fc 000093E5 		ldr	r0, [r3]
 1212 0100 FEFFFFEB 		bl	control
 1213              	.LVL73:
 170:../generate/sc_drivers/r_ssif/src/lld/r_ssif_lld_dma.c ****         {
 1214              		.loc 1 170 9 is_stmt 1 view .LVU390
 170:../generate/sc_drivers/r_ssif/src/lld/r_ssif_lld_dma.c ****         {
 1215              		.loc 1 170 12 is_stmt 0 view .LVU391
 1216 0104 000050E3 		cmp	r0, #0
 170:../generate/sc_drivers/r_ssif/src/lld/r_ssif_lld_dma.c ****         {
 1217              		.loc 1 170 12 view .LVU392
 1218 0108 0500000A 		beq	.L97
 1219              	.L81:
 175:../generate/sc_drivers/r_ssif/src/lld/r_ssif_lld_dma.c ****         {
 1220              		.loc 1 175 9 is_stmt 1 view .LVU393
 175:../generate/sc_drivers/r_ssif/src/lld/r_ssif_lld_dma.c ****         {
 1221              		.loc 1 175 12 is_stmt 0 view .LVU394
 1222 010c 000050E3 		cmp	r0, #0
 1223 0110 0B00000A 		beq	.L98
 1224              	.L82:
 183:../generate/sc_drivers/r_ssif/src/lld/r_ssif_lld_dma.c **** 
 1225              		.loc 1 183 9 is_stmt 1 view .LVU395
 183:../generate/sc_drivers/r_ssif/src/lld/r_ssif_lld_dma.c **** 
 1226              		.loc 1 183 59 is_stmt 0 view .LVU396
 1227 0114 000050E3 		cmp	r0, #0
 1228 0118 C7FFFF0A 		beq	.L80
 187:../generate/sc_drivers/r_ssif/src/lld/r_ssif_lld_dma.c ****         }
 1229              		.loc 1 187 18 view .LVU397
 1230 011c 6050E0E3 		mvn	r5, #96
 1231 0120 C8FFFFEA 		b	.L83
 1232              	.L97:
 172:../generate/sc_drivers/r_ssif/src/lld/r_ssif_lld_dma.c ****         }
 1233              		.loc 1 172 13 is_stmt 1 view .LVU398
 172:../generate/sc_drivers/r_ssif/src/lld/r_ssif_lld_dma.c ****         }
 1234              		.loc 1 172 22 is_stmt 0 view .LVU399
 1235 0124 003000E3 		movw	r3, #:lower16:.LANCHOR4
 1236 0128 003040E3 		movt	r3, #:upper16:.LANCHOR4
 1237 012c 0020A0E3 		mov	r2, #0
 1238 0130 0310A0E3 		mov	r1, #3
 1239 0134 3B1040E3 		movt	r1, 59
 1240 0138 000093E5 		ldr	r0, [r3]
 1241              	.LVL74:
 172:../generate/sc_drivers/r_ssif/src/lld/r_ssif_lld_dma.c ****         }
 1242              		.loc 1 172 22 view .LVU400
 1243 013c FEFFFFEB 		bl	control
 1244              	.LVL75:
 172:../generate/sc_drivers/r_ssif/src/lld/r_ssif_lld_dma.c ****         }
 1245              		.loc 1 172 22 view .LVU401
 1246 0140 F1FFFFEA 		b	.L81
 1247              	.L98:
 177:../generate/sc_drivers/r_ssif/src/lld/r_ssif_lld_dma.c ****             next_transfer.destination_address = (uint32_t *) &g_ssireg[ssif_ch]->SSIFTDR.LONG;
 1248              		.loc 1 177 13 is_stmt 1 view .LVU402
 177:../generate/sc_drivers/r_ssif/src/lld/r_ssif_lld_dma.c ****             next_transfer.destination_address = (uint32_t *) &g_ssireg[ssif_ch]->SSIFTDR.LONG;
 1249              		.loc 1 177 47 is_stmt 0 view .LVU403
 1250 0144 003000E3 		movw	r3, #:lower16:s_ssif_tx_dummy_buf
 1251 0148 003040E3 		movt	r3, #:upper16:s_ssif_tx_dummy_buf
 1252 014c 10308DE5 		str	r3, [sp, #16]
 178:../generate/sc_drivers/r_ssif/src/lld/r_ssif_lld_dma.c ****             next_transfer.count               = SSIF_DUMMY_DMA_TRN_SIZE_PRV_;
 1253              		.loc 1 178 13 is_stmt 1 view .LVU404
 178:../generate/sc_drivers/r_ssif/src/lld/r_ssif_lld_dma.c ****             next_transfer.count               = SSIF_DUMMY_DMA_TRN_SIZE_PRV_;
 1254              		.loc 1 178 47 is_stmt 0 view .LVU405
 1255 0150 14708DE5 		str	r7, [sp, #20]
 179:../generate/sc_drivers/r_ssif/src/lld/r_ssif_lld_dma.c ****             result = control(s_dma_driver_write_handle, CTL_DMAC_NEXT_TRANSFER, &next_transfer);
 1256              		.loc 1 179 13 is_stmt 1 view .LVU406
 179:../generate/sc_drivers/r_ssif/src/lld/r_ssif_lld_dma.c ****             result = control(s_dma_driver_write_handle, CTL_DMAC_NEXT_TRANSFER, &next_transfer);
 1257              		.loc 1 179 47 is_stmt 0 view .LVU407
 1258 0154 3F3DA0E3 		mov	r3, #4032
 1259 0158 18308DE5 		str	r3, [sp, #24]
 180:../generate/sc_drivers/r_ssif/src/lld/r_ssif_lld_dma.c ****         }
 1260              		.loc 1 180 13 is_stmt 1 view .LVU408
 180:../generate/sc_drivers/r_ssif/src/lld/r_ssif_lld_dma.c ****         }
 1261              		.loc 1 180 22 is_stmt 0 view .LVU409
 1262 015c 003000E3 		movw	r3, #:lower16:.LANCHOR4
 1263 0160 003040E3 		movt	r3, #:upper16:.LANCHOR4
 1264 0164 10208DE2 		add	r2, sp, #16
 1265 0168 0510A0E3 		mov	r1, #5
 1266 016c 3B1040E3 		movt	r1, 59
 1267 0170 000093E5 		ldr	r0, [r3]
 1268              	.LVL76:
 180:../generate/sc_drivers/r_ssif/src/lld/r_ssif_lld_dma.c ****         }
 1269              		.loc 1 180 22 view .LVU410
 1270 0174 FEFFFFEB 		bl	control
 1271              	.LVL77:
 180:../generate/sc_drivers/r_ssif/src/lld/r_ssif_lld_dma.c ****         }
 1272              		.loc 1 180 22 view .LVU411
 1273 0178 E5FFFFEA 		b	.L82
 1274              	.LVL78:
 1275              	.L94:
 1276              	.LBB4:
 197:../generate/sc_drivers/r_ssif/src/lld/r_ssif_lld_dma.c ****             s_ssif_rxdma_dummy_trparam[ssif_ch].destination_address = (void *) &s_ssif_rx_dummy_buf
 1277              		.loc 1 197 13 is_stmt 1 view .LVU412
 197:../generate/sc_drivers/r_ssif/src/lld/r_ssif_lld_dma.c ****             s_ssif_rxdma_dummy_trparam[ssif_ch].destination_address = (void *) &s_ssif_rx_dummy_buf
 1278              		.loc 1 197 75 is_stmt 0 view .LVU413
 1279 017c 003000E3 		movw	r3, #:lower16:g_ssireg
 1280 0180 003040E3 		movt	r3, #:upper16:g_ssireg
 1281 0184 067193E7 		ldr	r7, [r3, r6, lsl #2]
 197:../generate/sc_drivers/r_ssif/src/lld/r_ssif_lld_dma.c ****             s_ssif_rxdma_dummy_trparam[ssif_ch].destination_address = (void *) &s_ssif_rx_dummy_buf
 1282              		.loc 1 197 66 view .LVU414
 1283 0188 1C7087E2 		add	r7, r7, #28
 197:../generate/sc_drivers/r_ssif/src/lld/r_ssif_lld_dma.c ****             s_ssif_rxdma_dummy_trparam[ssif_ch].destination_address = (void *) &s_ssif_rx_dummy_buf
 1284              		.loc 1 197 64 view .LVU415
 1285 018c 002000E3 		movw	r2, #:lower16:.LANCHOR1
 1286 0190 002040E3 		movt	r2, #:upper16:.LANCHOR1
 1287 0194 863086E0 		add	r3, r6, r6, lsl #1
 1288 0198 0331A0E1 		lsl	r3, r3, #2
 1289 019c 031082E0 		add	r1, r2, r3
 1290 01a0 037082E7 		str	r7, [r2, r3]
 198:../generate/sc_drivers/r_ssif/src/lld/r_ssif_lld_dma.c ****             s_ssif_rxdma_dummy_trparam[ssif_ch].count = SSIF_DUMMY_DMA_TRN_SIZE_PRV_;
 1291              		.loc 1 198 13 is_stmt 1 view .LVU416
 198:../generate/sc_drivers/r_ssif/src/lld/r_ssif_lld_dma.c ****             s_ssif_rxdma_dummy_trparam[ssif_ch].count = SSIF_DUMMY_DMA_TRN_SIZE_PRV_;
 1292              		.loc 1 198 69 is_stmt 0 view .LVU417
 1293 01a4 003000E3 		movw	r3, #:lower16:s_ssif_rx_dummy_buf
 1294 01a8 003040E3 		movt	r3, #:upper16:s_ssif_rx_dummy_buf
 1295 01ac 043081E5 		str	r3, [r1, #4]
 199:../generate/sc_drivers/r_ssif/src/lld/r_ssif_lld_dma.c **** 
 1296              		.loc 1 199 13 is_stmt 1 view .LVU418
 199:../generate/sc_drivers/r_ssif/src/lld/r_ssif_lld_dma.c **** 
 1297              		.loc 1 199 55 is_stmt 0 view .LVU419
 1298 01b0 3F2DA0E3 		mov	r2, #4032
 1299 01b4 082081E5 		str	r2, [r1, #8]
 201:../generate/sc_drivers/r_ssif/src/lld/r_ssif_lld_dma.c **** 
 1300              		.loc 1 201 13 is_stmt 1 view .LVU420
 203:../generate/sc_drivers/r_ssif/src/lld/r_ssif_lld_dma.c ****             next_data.destination_address = s_ssif_rxdma_dummy_trparam[ssif_ch].destination_address
 1301              		.loc 1 203 13 view .LVU421
 203:../generate/sc_drivers/r_ssif/src/lld/r_ssif_lld_dma.c ****             next_data.destination_address = s_ssif_rxdma_dummy_trparam[ssif_ch].destination_address
 1302              		.loc 1 203 43 is_stmt 0 view .LVU422
 1303 01b8 04708DE5 		str	r7, [sp, #4]
 204:../generate/sc_drivers/r_ssif/src/lld/r_ssif_lld_dma.c ****             next_data.count               = s_ssif_rxdma_dummy_trparam[ssif_ch].count;
 1304              		.loc 1 204 13 is_stmt 1 view .LVU423
 204:../generate/sc_drivers/r_ssif/src/lld/r_ssif_lld_dma.c ****             next_data.count               = s_ssif_rxdma_dummy_trparam[ssif_ch].count;
 1305              		.loc 1 204 43 is_stmt 0 view .LVU424
 1306 01bc 08308DE5 		str	r3, [sp, #8]
 205:../generate/sc_drivers/r_ssif/src/lld/r_ssif_lld_dma.c **** 
 1307              		.loc 1 205 13 is_stmt 1 view .LVU425
 205:../generate/sc_drivers/r_ssif/src/lld/r_ssif_lld_dma.c **** 
 1308              		.loc 1 205 43 is_stmt 0 view .LVU426
 1309 01c0 0C208DE5 		str	r2, [sp, #12]
 207:../generate/sc_drivers/r_ssif/src/lld/r_ssif_lld_dma.c **** 
 1310              		.loc 1 207 13 is_stmt 1 view .LVU427
 207:../generate/sc_drivers/r_ssif/src/lld/r_ssif_lld_dma.c **** 
 1311              		.loc 1 207 22 is_stmt 0 view .LVU428
 1312 01c4 003000E3 		movw	r3, #:lower16:.LANCHOR2
 1313 01c8 003040E3 		movt	r3, #:upper16:.LANCHOR2
 1314 01cc 04208DE2 		add	r2, sp, #4
 1315 01d0 0510A0E3 		mov	r1, #5
 1316 01d4 3B1040E3 		movt	r1, 59
 1317 01d8 000093E5 		ldr	r0, [r3]
 1318 01dc FEFFFFEB 		bl	control
 1319              	.LVL79:
 209:../generate/sc_drivers/r_ssif/src/lld/r_ssif_lld_dma.c **** 
 1320              		.loc 1 209 13 is_stmt 1 view .LVU429
 209:../generate/sc_drivers/r_ssif/src/lld/r_ssif_lld_dma.c **** 
 1321              		.loc 1 209 63 is_stmt 0 view .LVU430
 1322 01e0 000050E3 		cmp	r0, #0
 1323              	.LVL80:
 211:../generate/sc_drivers/r_ssif/src/lld/r_ssif_lld_dma.c ****             {
 1324              		.loc 1 211 13 is_stmt 1 view .LVU431
 211:../generate/sc_drivers/r_ssif/src/lld/r_ssif_lld_dma.c ****             {
 1325              		.loc 1 211 13 is_stmt 0 view .LVU432
 1326              	.LBE4:
 255:../generate/sc_drivers/r_ssif/src/lld/r_ssif_lld_dma.c ****     {
 1327              		.loc 1 255 5 is_stmt 1 view .LVU433
 1328              	.LBB5:
 213:../generate/sc_drivers/r_ssif/src/lld/r_ssif_lld_dma.c ****             }
 1329              		.loc 1 213 22 is_stmt 0 view .LVU434
 1330 01e4 6050E013 		mvnne	r5, #96
 1331 01e8 98FFFF1A 		bne	.L85
 1332              	.LVL81:
 1333              	.L84:
 211:../generate/sc_drivers/r_ssif/src/lld/r_ssif_lld_dma.c ****             {
 1334              		.loc 1 211 13 is_stmt 1 view .LVU435
 217:../generate/sc_drivers/r_ssif/src/lld/r_ssif_lld_dma.c ****                 dma_config.config.source_width = DMA_DATA_SIZE_2;                                  
 1335              		.loc 1 217 17 view .LVU436
 217:../generate/sc_drivers/r_ssif/src/lld/r_ssif_lld_dma.c ****                 dma_config.config.source_width = DMA_DATA_SIZE_2;                                  
 1336              		.loc 1 217 68 is_stmt 0 view .LVU437
 1337 01ec 003000E3 		movw	r3, #:lower16:.LANCHOR6
 1338 01f0 003040E3 		movt	r3, #:upper16:.LANCHOR6
 1339 01f4 063193E7 		ldr	r3, [r3, r6, lsl #2]
 217:../generate/sc_drivers/r_ssif/src/lld/r_ssif_lld_dma.c ****                 dma_config.config.source_width = DMA_DATA_SIZE_2;                                  
 1340              		.loc 1 217 44 view .LVU438
 1341 01f8 1C308DE5 		str	r3, [sp, #28]
 218:../generate/sc_drivers/r_ssif/src/lld/r_ssif_lld_dma.c ****                 dma_config.config.destination_width = DMA_DATA_SIZE_2;                             
 1342              		.loc 1 218 17 is_stmt 1 view .LVU439
 218:../generate/sc_drivers/r_ssif/src/lld/r_ssif_lld_dma.c ****                 dma_config.config.destination_width = DMA_DATA_SIZE_2;                             
 1343              		.loc 1 218 48 is_stmt 0 view .LVU440
 1344 01fc 0230A0E3 		mov	r3, #2
 1345 0200 B032CDE1 		strh	r3, [sp, #32]	@ movhi
 219:../generate/sc_drivers/r_ssif/src/lld/r_ssif_lld_dma.c ****                 dma_config.config.source_address_type = DMA_ADDRESS_FIX;                           
 1346              		.loc 1 219 17 is_stmt 1 view .LVU441
 219:../generate/sc_drivers/r_ssif/src/lld/r_ssif_lld_dma.c ****                 dma_config.config.source_address_type = DMA_ADDRESS_FIX;                           
 1347              		.loc 1 219 53 is_stmt 0 view .LVU442
 1348 0204 B232CDE1 		strh	r3, [sp, #34]	@ movhi
 220:../generate/sc_drivers/r_ssif/src/lld/r_ssif_lld_dma.c ****                 dma_config.config.destination_address_type = DMA_ADDRESS_INCREMENT;                
 1349              		.loc 1 220 17 is_stmt 1 view .LVU443
 220:../generate/sc_drivers/r_ssif/src/lld/r_ssif_lld_dma.c ****                 dma_config.config.destination_address_type = DMA_ADDRESS_INCREMENT;                
 1350              		.loc 1 220 55 is_stmt 0 view .LVU444
 1351 0208 0130A0E3 		mov	r3, #1
 1352 020c 2430CDE5 		strb	r3, [sp, #36]
 221:../generate/sc_drivers/r_ssif/src/lld/r_ssif_lld_dma.c ****                 dma_config.config.direction = DMA_REQUEST_SOURCE;                                  
 1353              		.loc 1 221 17 is_stmt 1 view .LVU445
 221:../generate/sc_drivers/r_ssif/src/lld/r_ssif_lld_dma.c ****                 dma_config.config.direction = DMA_REQUEST_SOURCE;                                  
 1354              		.loc 1 221 60 is_stmt 0 view .LVU446
 1355 0210 0030A0E3 		mov	r3, #0
 1356 0214 2530CDE5 		strb	r3, [sp, #37]
 222:../generate/sc_drivers/r_ssif/src/lld/r_ssif_lld_dma.c ****                 dma_config.config.source_address = s_ssif_rxdma_dummy_trparam[ssif_ch].source_addre
 1357              		.loc 1 222 17 is_stmt 1 view .LVU447
 222:../generate/sc_drivers/r_ssif/src/lld/r_ssif_lld_dma.c ****                 dma_config.config.source_address = s_ssif_rxdma_dummy_trparam[ssif_ch].source_addre
 1358              		.loc 1 222 45 is_stmt 0 view .LVU448
 1359 0218 2630CDE5 		strb	r3, [sp, #38]
 223:../generate/sc_drivers/r_ssif/src/lld/r_ssif_lld_dma.c ****                 dma_config.config.destination_address = s_ssif_rxdma_dummy_trparam[ssif_ch].destina
 1360              		.loc 1 223 17 is_stmt 1 view .LVU449
 223:../generate/sc_drivers/r_ssif/src/lld/r_ssif_lld_dma.c ****                 dma_config.config.destination_address = s_ssif_rxdma_dummy_trparam[ssif_ch].destina
 1361              		.loc 1 223 87 is_stmt 0 view .LVU450
 1362 021c 003000E3 		movw	r3, #:lower16:.LANCHOR1
 1363 0220 003040E3 		movt	r3, #:upper16:.LANCHOR1
 1364 0224 8620A0E1 		lsl	r2, r6, #1
 1365 0228 061082E0 		add	r1, r2, r6
 1366 022c 0111A0E1 		lsl	r1, r1, #2
 1367 0230 010083E0 		add	r0, r3, r1
 1368              	.LVL82:
 223:../generate/sc_drivers/r_ssif/src/lld/r_ssif_lld_dma.c ****                 dma_config.config.destination_address = s_ssif_rxdma_dummy_trparam[ssif_ch].destina
 1369              		.loc 1 223 87 view .LVU451
 1370 0234 011093E7 		ldr	r1, [r3, r1]
 223:../generate/sc_drivers/r_ssif/src/lld/r_ssif_lld_dma.c ****                 dma_config.config.destination_address = s_ssif_rxdma_dummy_trparam[ssif_ch].destina
 1371              		.loc 1 223 50 view .LVU452
 1372 0238 30108DE5 		str	r1, [sp, #48]
 224:../generate/sc_drivers/r_ssif/src/lld/r_ssif_lld_dma.c ****                 dma_config.config.count = s_ssif_rxdma_dummy_trparam[ssif_ch].count;               
 1373              		.loc 1 224 17 is_stmt 1 view .LVU453
 224:../generate/sc_drivers/r_ssif/src/lld/r_ssif_lld_dma.c ****                 dma_config.config.count = s_ssif_rxdma_dummy_trparam[ssif_ch].count;               
 1374              		.loc 1 224 92 is_stmt 0 view .LVU454
 1375 023c 041090E5 		ldr	r1, [r0, #4]
 224:../generate/sc_drivers/r_ssif/src/lld/r_ssif_lld_dma.c ****                 dma_config.config.count = s_ssif_rxdma_dummy_trparam[ssif_ch].count;               
 1376              		.loc 1 224 55 view .LVU455
 1377 0240 34108DE5 		str	r1, [sp, #52]
 225:../generate/sc_drivers/r_ssif/src/lld/r_ssif_lld_dma.c ****                 dma_config.config.p_dmaComplete = SSIF_DMA_RxEndCallback;                          
 1378              		.loc 1 225 17 is_stmt 1 view .LVU456
 225:../generate/sc_drivers/r_ssif/src/lld/r_ssif_lld_dma.c ****                 dma_config.config.p_dmaComplete = SSIF_DMA_RxEndCallback;                          
 1379              		.loc 1 225 78 is_stmt 0 view .LVU457
 1380 0244 083090E5 		ldr	r3, [r0, #8]
 225:../generate/sc_drivers/r_ssif/src/lld/r_ssif_lld_dma.c ****                 dma_config.config.p_dmaComplete = SSIF_DMA_RxEndCallback;                          
 1381              		.loc 1 225 41 view .LVU458
 1382 0248 38308DE5 		str	r3, [sp, #56]
 226:../generate/sc_drivers/r_ssif/src/lld/r_ssif_lld_dma.c **** 
 1383              		.loc 1 226 17 is_stmt 1 view .LVU459
 226:../generate/sc_drivers/r_ssif/src/lld/r_ssif_lld_dma.c **** 
 1384              		.loc 1 226 49 is_stmt 0 view .LVU460
 1385 024c 003000E3 		movw	r3, #:lower16:SSIF_DMA_RxEndCallback
 1386 0250 003040E3 		movt	r3, #:upper16:SSIF_DMA_RxEndCallback
 1387 0254 28308DE5 		str	r3, [sp, #40]
 228:../generate/sc_drivers/r_ssif/src/lld/r_ssif_lld_dma.c **** 
 1388              		.loc 1 228 17 is_stmt 1 view .LVU461
 228:../generate/sc_drivers/r_ssif/src/lld/r_ssif_lld_dma.c **** 
 1389              		.loc 1 228 26 is_stmt 0 view .LVU462
 1390 0258 003000E3 		movw	r3, #:lower16:.LANCHOR2
 1391 025c 003040E3 		movt	r3, #:upper16:.LANCHOR2
 1392 0260 1C208DE2 		add	r2, sp, #28
 1393 0264 0110A0E3 		mov	r1, #1
 1394 0268 3B1040E3 		movt	r1, 59
 1395 026c 000093E5 		ldr	r0, [r3]
 1396 0270 FEFFFFEB 		bl	control
 1397              	.LVL83:
 230:../generate/sc_drivers/r_ssif/src/lld/r_ssif_lld_dma.c ****                 {
 1398              		.loc 1 230 17 is_stmt 1 view .LVU463
 230:../generate/sc_drivers/r_ssif/src/lld/r_ssif_lld_dma.c ****                 {
 1399              		.loc 1 230 20 is_stmt 0 view .LVU464
 1400 0274 005050E2 		subs	r5, r0, #0
 1401 0278 0500000A 		beq	.L99
 1402              	.L86:
 235:../generate/sc_drivers/r_ssif/src/lld/r_ssif_lld_dma.c ****                 {
 1403              		.loc 1 235 17 is_stmt 1 view .LVU465
 235:../generate/sc_drivers/r_ssif/src/lld/r_ssif_lld_dma.c ****                 {
 1404              		.loc 1 235 20 is_stmt 0 view .LVU466
 1405 027c 000055E3 		cmp	r5, #0
 1406 0280 0C00000A 		beq	.L100
 1407              	.L87:
 244:../generate/sc_drivers/r_ssif/src/lld/r_ssif_lld_dma.c **** 
 1408              		.loc 1 244 17 is_stmt 1 view .LVU467
 244:../generate/sc_drivers/r_ssif/src/lld/r_ssif_lld_dma.c **** 
 1409              		.loc 1 244 67 is_stmt 0 view .LVU468
 1410 0284 000055E3 		cmp	r5, #0
 1411 0288 6EFFFF0A 		beq	.L83
 1412              	.LVL84:
 246:../generate/sc_drivers/r_ssif/src/lld/r_ssif_lld_dma.c ****                 {
 1413              		.loc 1 246 17 is_stmt 1 view .LVU469
 248:../generate/sc_drivers/r_ssif/src/lld/r_ssif_lld_dma.c ****                 }
 1414              		.loc 1 248 21 view .LVU470
 248:../generate/sc_drivers/r_ssif/src/lld/r_ssif_lld_dma.c ****                 }
 1415              		.loc 1 248 21 is_stmt 0 view .LVU471
 1416              	.LBE5:
 255:../generate/sc_drivers/r_ssif/src/lld/r_ssif_lld_dma.c ****     {
 1417              		.loc 1 255 5 is_stmt 1 view .LVU472
 1418              	.LBB6:
 248:../generate/sc_drivers/r_ssif/src/lld/r_ssif_lld_dma.c ****                 }
 1419              		.loc 1 248 26 is_stmt 0 view .LVU473
 1420 028c 6050E0E3 		mvn	r5, #96
 1421 0290 6EFFFFEA 		b	.L85
 1422              	.LVL85:
 1423              	.L99:
 232:../generate/sc_drivers/r_ssif/src/lld/r_ssif_lld_dma.c ****                 }
 1424              		.loc 1 232 21 is_stmt 1 view .LVU474
 232:../generate/sc_drivers/r_ssif/src/lld/r_ssif_lld_dma.c ****                 }
 1425              		.loc 1 232 30 is_stmt 0 view .LVU475
 1426 0294 003000E3 		movw	r3, #:lower16:.LANCHOR2
 1427 0298 003040E3 		movt	r3, #:upper16:.LANCHOR2
 1428 029c 0020A0E3 		mov	r2, #0
 1429 02a0 0310A0E3 		mov	r1, #3
 1430 02a4 3B1040E3 		movt	r1, 59
 1431 02a8 000093E5 		ldr	r0, [r3]
 1432              	.LVL86:
 232:../generate/sc_drivers/r_ssif/src/lld/r_ssif_lld_dma.c ****                 }
 1433              		.loc 1 232 30 view .LVU476
 1434 02ac FEFFFFEB 		bl	control
 1435              	.LVL87:
 1436 02b0 0050A0E1 		mov	r5, r0
 1437              	.LVL88:
 232:../generate/sc_drivers/r_ssif/src/lld/r_ssif_lld_dma.c ****                 }
 1438              		.loc 1 232 30 view .LVU477
 1439 02b4 F0FFFFEA 		b	.L86
 1440              	.L100:
 237:../generate/sc_drivers/r_ssif/src/lld/r_ssif_lld_dma.c ****                     next_transfer.destination_address = (void *) &s_ssif_rx_dummy_buf[0];
 1441              		.loc 1 237 21 is_stmt 1 view .LVU478
 237:../generate/sc_drivers/r_ssif/src/lld/r_ssif_lld_dma.c ****                     next_transfer.destination_address = (void *) &s_ssif_rx_dummy_buf[0];
 1442              		.loc 1 237 50 is_stmt 0 view .LVU479
 1443 02b8 10708DE5 		str	r7, [sp, #16]
 238:../generate/sc_drivers/r_ssif/src/lld/r_ssif_lld_dma.c ****                     next_transfer.count               = SSIF_DUMMY_DMA_TRN_SIZE_PRV_;
 1444              		.loc 1 238 21 is_stmt 1 view .LVU480
 238:../generate/sc_drivers/r_ssif/src/lld/r_ssif_lld_dma.c ****                     next_transfer.count               = SSIF_DUMMY_DMA_TRN_SIZE_PRV_;
 1445              		.loc 1 238 55 is_stmt 0 view .LVU481
 1446 02bc 003000E3 		movw	r3, #:lower16:s_ssif_rx_dummy_buf
 1447 02c0 003040E3 		movt	r3, #:upper16:s_ssif_rx_dummy_buf
 1448 02c4 14308DE5 		str	r3, [sp, #20]
 239:../generate/sc_drivers/r_ssif/src/lld/r_ssif_lld_dma.c **** 
 1449              		.loc 1 239 21 is_stmt 1 view .LVU482
 239:../generate/sc_drivers/r_ssif/src/lld/r_ssif_lld_dma.c **** 
 1450              		.loc 1 239 55 is_stmt 0 view .LVU483
 1451 02c8 3F3DA0E3 		mov	r3, #4032
 1452 02cc 18308DE5 		str	r3, [sp, #24]
 241:../generate/sc_drivers/r_ssif/src/lld/r_ssif_lld_dma.c ****                 }
 1453              		.loc 1 241 21 is_stmt 1 view .LVU484
 241:../generate/sc_drivers/r_ssif/src/lld/r_ssif_lld_dma.c ****                 }
 1454              		.loc 1 241 30 is_stmt 0 view .LVU485
 1455 02d0 003000E3 		movw	r3, #:lower16:.LANCHOR2
 1456 02d4 003040E3 		movt	r3, #:upper16:.LANCHOR2
 1457 02d8 10208DE2 		add	r2, sp, #16
 1458 02dc 0510A0E3 		mov	r1, #5
 1459 02e0 3B1040E3 		movt	r1, 59
 1460 02e4 000093E5 		ldr	r0, [r3]
 1461              	.LVL89:
 241:../generate/sc_drivers/r_ssif/src/lld/r_ssif_lld_dma.c ****                 }
 1462              		.loc 1 241 30 view .LVU486
 1463 02e8 FEFFFFEB 		bl	control
 1464              	.LVL90:
 1465 02ec 0050A0E1 		mov	r5, r0
 1466              	.LVL91:
 241:../generate/sc_drivers/r_ssif/src/lld/r_ssif_lld_dma.c ****                 }
 1467              		.loc 1 241 30 view .LVU487
 1468 02f0 E3FFFFEA 		b	.L87
 1469              	.LVL92:
 1470              	.L95:
 241:../generate/sc_drivers/r_ssif/src/lld/r_ssif_lld_dma.c ****                 }
 1471              		.loc 1 241 30 view .LVU488
 1472              	.LBE6:
 257:../generate/sc_drivers/r_ssif/src/lld/r_ssif_lld_dma.c ****     }
 1473              		.loc 1 257 9 is_stmt 1 view .LVU489
 257:../generate/sc_drivers/r_ssif/src/lld/r_ssif_lld_dma.c ****     }
 1474              		.loc 1 257 16 is_stmt 0 view .LVU490
 1475 02f4 0400A0E1 		mov	r0, r4
 1476 02f8 FEFFFFEB 		bl	enable_ssif_transfer
 1477              	.LVL93:
 1478 02fc 0050A0E1 		mov	r5, r0
 1479              	.LVL94:
 257:../generate/sc_drivers/r_ssif/src/lld/r_ssif_lld_dma.c ****     }
 1480              		.loc 1 257 16 view .LVU491
 1481 0300 52FFFFEA 		b	.L85
 1482              	.LVL95:
 1483              	.L96:
 263:../generate/sc_drivers/r_ssif/src/lld/r_ssif_lld_dma.c ****     }
 1484              		.loc 1 263 9 is_stmt 1 view .LVU492
 1485 0304 0400A0E1 		mov	r0, r4
 1486 0308 FEFFFFEB 		bl	R_SSIF_CancelDMA
 1487              	.LVL96:
 1488 030c 51FFFFEA 		b	.L78
 1489              	.LVL97:
 1490              	.L89:
 122:../generate/sc_drivers/r_ssif/src/lld/r_ssif_lld_dma.c ****     }
 1491              		.loc 1 122 16 is_stmt 0 view .LVU493
 1492 0310 6050E0E3 		mvn	r5, #96
 1493 0314 4FFFFFEA 		b	.L78
 1494              	.LVL98:
 1495              	.L90:
 127:../generate/sc_drivers/r_ssif/src/lld/r_ssif_lld_dma.c ****     }
 1496              		.loc 1 127 16 view .LVU494
 1497 0318 6050E0E3 		mvn	r5, #96
 1498 031c 4DFFFFEA 		b	.L78
 1499              		.cfi_endproc
 1500              	.LFE6:
 1502              		.section	.bss.s_ssif_rx_dummy_buf,"aw",%nobits
 1503              		.align	2
 1506              	s_ssif_rx_dummy_buf:
 1507 0000 00000000 		.space	4096
 1507      00000000 
 1507      00000000 
 1507      00000000 
 1507      00000000 
 1508              		.section	.bss.s_ssif_rxdma_dummy_trparam,"aw",%nobits
 1509              		.align	2
 1510              		.set	.LANCHOR1,. + 0
 1513              	s_ssif_rxdma_dummy_trparam:
 1514 0000 00000000 		.space	48
 1514      00000000 
 1514      00000000 
 1514      00000000 
 1514      00000000 
 1515              		.section	.bss.s_ssif_tx_dummy_buf,"aw",%nobits
 1516              		.align	2
 1519              	s_ssif_tx_dummy_buf:
 1520 0000 00000000 		.space	4096
 1520      00000000 
 1520      00000000 
 1520      00000000 
 1520      00000000 
 1521              		.section	.bss.s_ssif_txdma_dummy_trparam,"aw",%nobits
 1522              		.align	2
 1523              		.set	.LANCHOR3,. + 0
 1526              	s_ssif_txdma_dummy_trparam:
 1527 0000 00000000 		.space	48
 1527      00000000 
 1527      00000000 
 1527      00000000 
 1527      00000000 
 1528              		.section	.bss.sp_info_ch,"aw",%nobits
 1529              		.align	2
 1530              		.set	.LANCHOR0,. + 0
 1533              	sp_info_ch:
 1534 0000 00000000 		.space	4
 1535              		.section	.data.s_dma_driver_read_handle,"aw"
 1536              		.align	2
 1537              		.set	.LANCHOR2,. + 0
 1540              	s_dma_driver_read_handle:
 1541 0000 FFFFFFFF 		.word	-1
 1542              		.section	.data.s_dma_driver_write_handle,"aw"
 1543              		.align	2
 1544              		.set	.LANCHOR4,. + 0
 1547              	s_dma_driver_write_handle:
 1548 0000 FFFFFFFF 		.word	-1
 1549              		.section	.rodata.s_ssif_dma_rx_resource,"a"
 1550              		.align	2
 1551              		.set	.LANCHOR6,. + 0
 1554              	s_ssif_dma_rx_resource:
 1555 0000 8F000000 		.word	143
 1556 0004 91000000 		.word	145
 1557 0008 93000000 		.word	147
 1558 000c 95000000 		.word	149
 1559              		.section	.rodata.s_ssif_dma_tx_resource,"a"
 1560              		.align	2
 1561              		.set	.LANCHOR5,. + 0
 1564              	s_ssif_dma_tx_resource:
 1565 0000 90000000 		.word	144
 1566 0004 92000000 		.word	146
 1567 0008 94000000 		.word	148
 1568 000c 96000000 		.word	150
 1569              		.text
 1570              	.Letext0:
 1571              		.file 2 "C:/Users/ryota/e2_studio/workspace/rza2m_ssif_sample_freertos_gcc/generate/system/iodefin
 1572              		.file 3 "c:\\program files (x86)\\gnu arm embedded toolchain\\9 2020-q2-update\\lib\\gcc\\arm-none
 1573              		.file 4 "c:\\program files (x86)\\gnu arm embedded toolchain\\9 2020-q2-update\\arm-none-eabi\\inc
 1574              		.file 5 "c:\\program files (x86)\\gnu arm embedded toolchain\\9 2020-q2-update\\arm-none-eabi\\inc
 1575              		.file 6 "c:\\program files (x86)\\gnu arm embedded toolchain\\9 2020-q2-update\\arm-none-eabi\\inc
 1576              		.file 7 "c:\\program files (x86)\\gnu arm embedded toolchain\\9 2020-q2-update\\arm-none-eabi\\inc
 1577              		.file 8 "c:\\program files (x86)\\gnu arm embedded toolchain\\9 2020-q2-update\\arm-none-eabi\\inc
 1578              		.file 9 "c:\\program files (x86)\\gnu arm embedded toolchain\\9 2020-q2-update\\arm-none-eabi\\inc
 1579              		.file 10 "C:/Users/ryota/e2_studio/workspace/rza2m_ssif_sample_freertos_gcc/generate/system/inc/r_
 1580              		.file 11 "c:\\program files (x86)\\gnu arm embedded toolchain\\9 2020-q2-update\\arm-none-eabi\\in
 1581              		.file 12 "c:\\program files (x86)\\gnu arm embedded toolchain\\9 2020-q2-update\\arm-none-eabi\\in
 1582              		.file 13 "C:/Users/ryota/e2_studio/workspace/rza2m_ssif_sample_freertos_gcc/generate/system/inc/dr
 1583              		.file 14 "C:/Users/ryota/e2_studio/workspace/rza2m_ssif_sample_freertos_gcc/generate/os_abstractio
 1584              		.file 15 "C:/Users/ryota/e2_studio/workspace/rza2m_ssif_sample_freertos_gcc/generate/sc_drivers/r_
 1585              		.file 16 "C:/Users/ryota/e2_studio/workspace/rza2m_ssif_sample_freertos_gcc/generate/sc_drivers/r_
 1586              		.file 17 "C:/Users/ryota/e2_studio/workspace/rza2m_ssif_sample_freertos_gcc/generate/sc_drivers/r_
 1587              		.file 18 "C:\\Users\\ryota\\e2_studio\\workspace\\rza2m_ssif_sample_freertos_gcc\\generate\\sc_dri
 1588              		.file 19 "C:\\Users\\ryota\\e2_studio\\workspace\\rza2m_ssif_sample_freertos_gcc\\generate\\sc_dri
 1589              		.file 20 "C:/Users/ryota/e2_studio/workspace/rza2m_ssif_sample_freertos_gcc/generate/system/inc/r_
 1590              		.file 21 "c:\\program files (x86)\\gnu arm embedded toolchain\\9 2020-q2-update\\arm-none-eabi\\in
 1591              		.file 22 "C:/Users/ryota/e2_studio/workspace/rza2m_ssif_sample_freertos_gcc/generate/sc_drivers/r_
 1592              		.file 23 "C:/Users/ryota/e2_studio/workspace/rza2m_ssif_sample_freertos_gcc/generate/system/inc/rz