   1              		.cpu cortex-a9
   2              		.eabi_attribute 28, 1
   3              		.eabi_attribute 20, 1
   4              		.eabi_attribute 21, 1
   5              		.eabi_attribute 23, 3
   6              		.eabi_attribute 24, 1
   7              		.eabi_attribute 25, 1
   8              		.eabi_attribute 26, 1
   9              		.eabi_attribute 30, 1
  10              		.eabi_attribute 34, 0
  11              		.eabi_attribute 18, 4
  12              		.file	"r_ssif_lld_cfg.c"
  13              		.text
  14              	.Ltext0:
  15              		.cfi_sections	.debug_frame
  16              		.section	.text.R_SSIF_Userdef_InitPinMux,"ax",%progbits
  17              		.align	2
  18              		.global	R_SSIF_Userdef_InitPinMux
  19              		.arch armv7-a
  20              		.arch_extension mp
  21              		.arch_extension sec
  22              		.syntax unified
  23              		.arm
  24              		.fpu neon
  26              	R_SSIF_Userdef_InitPinMux:
  27              	.LVL0:
  28              	.LFB6:
  29              		.file 1 "../generate/sc_drivers/r_ssif/src/lld/r_ssif_lld_cfg.c"
   1:../generate/sc_drivers/r_ssif/src/lld/r_ssif_lld_cfg.c **** /*******************************************************************************
   2:../generate/sc_drivers/r_ssif/src/lld/r_ssif_lld_cfg.c **** * DISCLAIMER
   3:../generate/sc_drivers/r_ssif/src/lld/r_ssif_lld_cfg.c **** * This software is supplied by Renesas Electronics Corporation and is only
   4:../generate/sc_drivers/r_ssif/src/lld/r_ssif_lld_cfg.c **** * intended for use with Renesas products. No other uses are authorized. This
   5:../generate/sc_drivers/r_ssif/src/lld/r_ssif_lld_cfg.c **** * software is owned by Renesas Electronics Corporation and is protected under
   6:../generate/sc_drivers/r_ssif/src/lld/r_ssif_lld_cfg.c **** * all applicable laws, including copyright laws.
   7:../generate/sc_drivers/r_ssif/src/lld/r_ssif_lld_cfg.c **** * THIS SOFTWARE IS PROVIDED "AS IS" AND RENESAS MAKES NO WARRANTIES REGARDING
   8:../generate/sc_drivers/r_ssif/src/lld/r_ssif_lld_cfg.c **** * THIS SOFTWARE, WHETHER EXPRESS, IMPLIED OR STATUTORY, INCLUDING BUT NOT
   9:../generate/sc_drivers/r_ssif/src/lld/r_ssif_lld_cfg.c **** * LIMITED TO WARRANTIES OF MERCHANTABILITY, FITNESS FOR A PARTICULAR PURPOSE
  10:../generate/sc_drivers/r_ssif/src/lld/r_ssif_lld_cfg.c **** * AND NON-INFRINGEMENT. ALL SUCH WARRANTIES ARE EXPRESSLY DISCLAIMED.
  11:../generate/sc_drivers/r_ssif/src/lld/r_ssif_lld_cfg.c **** * TO THE MAXIMUM EXTENT PERMITTED NOT PROHIBITED BY LAW, NEITHER RENESAS
  12:../generate/sc_drivers/r_ssif/src/lld/r_ssif_lld_cfg.c **** * ELECTRONICS CORPORATION NOR ANY OF ITS AFFILIATED COMPANIES SHALL BE LIABLE
  13:../generate/sc_drivers/r_ssif/src/lld/r_ssif_lld_cfg.c **** * FOR ANY DIRECT, INDIRECT, SPECIAL, INCIDENTAL OR CONSEQUENTIAL DAMAGES FOR
  14:../generate/sc_drivers/r_ssif/src/lld/r_ssif_lld_cfg.c **** * ANY REASON RELATED TO THIS SOFTWARE, EVEN IF RENESAS OR ITS AFFILIATES HAVE
  15:../generate/sc_drivers/r_ssif/src/lld/r_ssif_lld_cfg.c **** * BEEN ADVISED OF THE POSSIBILITY OF SUCH DAMAGES.
  16:../generate/sc_drivers/r_ssif/src/lld/r_ssif_lld_cfg.c **** * Renesas reserves the right, without notice, to make changes to this software
  17:../generate/sc_drivers/r_ssif/src/lld/r_ssif_lld_cfg.c **** * and to discontinue the availability of this software. By using this software,
  18:../generate/sc_drivers/r_ssif/src/lld/r_ssif_lld_cfg.c **** * you agree to the additional terms and conditions found by accessing the
  19:../generate/sc_drivers/r_ssif/src/lld/r_ssif_lld_cfg.c **** * following link:
  20:../generate/sc_drivers/r_ssif/src/lld/r_ssif_lld_cfg.c **** * http://www.renesas.com/disclaimer
  21:../generate/sc_drivers/r_ssif/src/lld/r_ssif_lld_cfg.c **** * Copyright (C) 2013-2017 Renesas Electronics Corporation. All rights reserved.
  22:../generate/sc_drivers/r_ssif/src/lld/r_ssif_lld_cfg.c **** *******************************************************************************/
  23:../generate/sc_drivers/r_ssif/src/lld/r_ssif_lld_cfg.c **** 
  24:../generate/sc_drivers/r_ssif/src/lld/r_ssif_lld_cfg.c **** /*******************************************************************************
  25:../generate/sc_drivers/r_ssif/src/lld/r_ssif_lld_cfg.c **** * File Name   : ssif_cfg.c
  26:../generate/sc_drivers/r_ssif/src/lld/r_ssif_lld_cfg.c **** * $Rev: 8524 $
  27:../generate/sc_drivers/r_ssif/src/lld/r_ssif_lld_cfg.c **** * $Date:: 2018-06-20 10:40:27 +0100#$
  28:../generate/sc_drivers/r_ssif/src/lld/r_ssif_lld_cfg.c **** * Description : SSIF driver userown functions
  29:../generate/sc_drivers/r_ssif/src/lld/r_ssif_lld_cfg.c **** ******************************************************************************/
  30:../generate/sc_drivers/r_ssif/src/lld/r_ssif_lld_cfg.c **** 
  31:../generate/sc_drivers/r_ssif/src/lld/r_ssif_lld_cfg.c **** /*******************************************************************************
  32:../generate/sc_drivers/r_ssif/src/lld/r_ssif_lld_cfg.c **** Includes <System Includes>, "Project Includes"
  33:../generate/sc_drivers/r_ssif/src/lld/r_ssif_lld_cfg.c **** *******************************************************************************/
  34:../generate/sc_drivers/r_ssif/src/lld/r_ssif_lld_cfg.c **** #include "r_rza2_ssif_lld.h"
  35:../generate/sc_drivers/r_ssif/src/lld/r_ssif_lld_cfg.c **** #include "r_ssif_hld_cfg.h"
  36:../generate/sc_drivers/r_ssif/src/lld/r_ssif_lld_cfg.c **** #include "r_ssif_lld_aioif.h"
  37:../generate/sc_drivers/r_ssif/src/lld/r_ssif_lld_cfg.c **** 
  38:../generate/sc_drivers/r_ssif/src/lld/r_ssif_lld_cfg.c **** /*******************************************************************************
  39:../generate/sc_drivers/r_ssif/src/lld/r_ssif_lld_cfg.c **** Macro definitions
  40:../generate/sc_drivers/r_ssif/src/lld/r_ssif_lld_cfg.c **** *******************************************************************************/
  41:../generate/sc_drivers/r_ssif/src/lld/r_ssif_lld_cfg.c **** 
  42:../generate/sc_drivers/r_ssif/src/lld/r_ssif_lld_cfg.c **** /***** Audio Clock Source Configurations *****/
  43:../generate/sc_drivers/r_ssif/src/lld/r_ssif_lld_cfg.c **** /* SSICR CKDV divieded value */
  44:../generate/sc_drivers/r_ssif/src/lld/r_ssif_lld_cfg.c **** #define SSIF_AUDIO_CLK_DIV_1    (1u)
  45:../generate/sc_drivers/r_ssif/src/lld/r_ssif_lld_cfg.c **** #define SSIF_AUDIO_CLK_DIV_2    (2u)
  46:../generate/sc_drivers/r_ssif/src/lld/r_ssif_lld_cfg.c **** #define SSIF_AUDIO_CLK_DIV_4    (4u)
  47:../generate/sc_drivers/r_ssif/src/lld/r_ssif_lld_cfg.c **** #define SSIF_AUDIO_CLK_DIV_8    (8u)
  48:../generate/sc_drivers/r_ssif/src/lld/r_ssif_lld_cfg.c **** #define SSIF_AUDIO_CLK_DIV_16   (16u)
  49:../generate/sc_drivers/r_ssif/src/lld/r_ssif_lld_cfg.c **** #define SSIF_AUDIO_CLK_DIV_32   (32u)
  50:../generate/sc_drivers/r_ssif/src/lld/r_ssif_lld_cfg.c **** #define SSIF_AUDIO_CLK_DIV_64   (64u)
  51:../generate/sc_drivers/r_ssif/src/lld/r_ssif_lld_cfg.c **** #define SSIF_AUDIO_CLK_DIV_128  (128u)
  52:../generate/sc_drivers/r_ssif/src/lld/r_ssif_lld_cfg.c **** #define SSIF_AUDIO_CLK_DIV_6    (6u)
  53:../generate/sc_drivers/r_ssif/src/lld/r_ssif_lld_cfg.c **** #define SSIF_AUDIO_CLK_DIV_12   (12u)
  54:../generate/sc_drivers/r_ssif/src/lld/r_ssif_lld_cfg.c **** #define SSIF_AUDIO_CLK_DIV_24   (24u)
  55:../generate/sc_drivers/r_ssif/src/lld/r_ssif_lld_cfg.c **** #define SSIF_AUDIO_CLK_DIV_48   (48u)
  56:../generate/sc_drivers/r_ssif/src/lld/r_ssif_lld_cfg.c **** #define SSIF_AUDIO_CLK_DIV_96   (96u)
  57:../generate/sc_drivers/r_ssif/src/lld/r_ssif_lld_cfg.c **** 
  58:../generate/sc_drivers/r_ssif/src/lld/r_ssif_lld_cfg.c **** /* misc constant value */
  59:../generate/sc_drivers/r_ssif/src/lld/r_ssif_lld_cfg.c **** #define SSIF_I2S_LR_CH  (2u)
  60:../generate/sc_drivers/r_ssif/src/lld/r_ssif_lld_cfg.c **** 
  61:../generate/sc_drivers/r_ssif/src/lld/r_ssif_lld_cfg.c **** /*******************************************************************************
  62:../generate/sc_drivers/r_ssif/src/lld/r_ssif_lld_cfg.c **** Exported global variables (to be accessed by other files)
  63:../generate/sc_drivers/r_ssif/src/lld/r_ssif_lld_cfg.c **** *******************************************************************************/
  64:../generate/sc_drivers/r_ssif/src/lld/r_ssif_lld_cfg.c **** 
  65:../generate/sc_drivers/r_ssif/src/lld/r_ssif_lld_cfg.c **** /******************************************************************************
  66:../generate/sc_drivers/r_ssif/src/lld/r_ssif_lld_cfg.c **** * Function Name: R_SSIF_Userdef_InitPinMux
  67:../generate/sc_drivers/r_ssif/src/lld/r_ssif_lld_cfg.c **** * @brief         This function initialise pin multiplex settings.
  68:../generate/sc_drivers/r_ssif/src/lld/r_ssif_lld_cfg.c **** *
  69:../generate/sc_drivers/r_ssif/src/lld/r_ssif_lld_cfg.c **** *                Description:<br>
  70:../generate/sc_drivers/r_ssif/src/lld/r_ssif_lld_cfg.c **** *                
  71:../generate/sc_drivers/r_ssif/src/lld/r_ssif_lld_cfg.c **** * @param[in]     ssif_ch      :channel number.
  72:../generate/sc_drivers/r_ssif/src/lld/r_ssif_lld_cfg.c **** * @retval        IOIF_ESUCCESS:Success.
  73:../generate/sc_drivers/r_ssif/src/lld/r_ssif_lld_cfg.c **** * @retval        error code   :Failure.
  74:../generate/sc_drivers/r_ssif/src/lld/r_ssif_lld_cfg.c **** ******************************************************************************/
  75:../generate/sc_drivers/r_ssif/src/lld/r_ssif_lld_cfg.c **** int_t R_SSIF_Userdef_InitPinMux(const uint32_t ssif_ch)
  76:../generate/sc_drivers/r_ssif/src/lld/r_ssif_lld_cfg.c **** {
  30              		.loc 1 76 1 view -0
  31              		.cfi_startproc
  32              		@ args = 0, pretend = 0, frame = 0
  33              		@ frame_needed = 0, uses_anonymous_args = 0
  34              		.loc 1 76 1 is_stmt 0 view .LVU1
  35 0000 10402DE9 		push	{r4, lr}
  36              		.cfi_def_cfa_offset 8
  37              		.cfi_offset 4, -8
  38              		.cfi_offset 14, -4
  77:../generate/sc_drivers/r_ssif/src/lld/r_ssif_lld_cfg.c ****     int_t ercd;
  39              		.loc 1 77 5 is_stmt 1 view .LVU2
  78:../generate/sc_drivers/r_ssif/src/lld/r_ssif_lld_cfg.c ****     uint32_t was_masked;
  40              		.loc 1 78 5 view .LVU3
  79:../generate/sc_drivers/r_ssif/src/lld/r_ssif_lld_cfg.c **** 
  80:../generate/sc_drivers/r_ssif/src/lld/r_ssif_lld_cfg.c **** #if defined (__ICCARM__)
  81:../generate/sc_drivers/r_ssif/src/lld/r_ssif_lld_cfg.c ****     was_masked = __disable_irq_iar();
  82:../generate/sc_drivers/r_ssif/src/lld/r_ssif_lld_cfg.c **** #else
  83:../generate/sc_drivers/r_ssif/src/lld/r_ssif_lld_cfg.c ****     was_masked = __disable_irq();
  41              		.loc 1 83 5 view .LVU4
  42              		.loc 1 83 18 is_stmt 0 view .LVU5
  43 0004 FEFFFFEB 		bl	__disable_irq
  44              	.LVL1:
  84:../generate/sc_drivers/r_ssif/src/lld/r_ssif_lld_cfg.c **** #endif
  85:../generate/sc_drivers/r_ssif/src/lld/r_ssif_lld_cfg.c **** 
  86:../generate/sc_drivers/r_ssif/src/lld/r_ssif_lld_cfg.c ****     if (0 == was_masked)
  45              		.loc 1 86 5 is_stmt 1 view .LVU6
  46              		.loc 1 86 8 is_stmt 0 view .LVU7
  47 0008 000050E3 		cmp	r0, #0
  48 000c 0100000A 		beq	.L4
  49              	.LVL2:
  50              	.L1:
  87:../generate/sc_drivers/r_ssif/src/lld/r_ssif_lld_cfg.c ****     {
  88:../generate/sc_drivers/r_ssif/src/lld/r_ssif_lld_cfg.c ****         __enable_irq();
  89:../generate/sc_drivers/r_ssif/src/lld/r_ssif_lld_cfg.c ****     }
  90:../generate/sc_drivers/r_ssif/src/lld/r_ssif_lld_cfg.c **** 
  91:../generate/sc_drivers/r_ssif/src/lld/r_ssif_lld_cfg.c ****     return ercd;
  92:../generate/sc_drivers/r_ssif/src/lld/r_ssif_lld_cfg.c **** }
  51              		.loc 1 92 1 view .LVU8
  52 0010 0000A0E3 		mov	r0, #0
  53 0014 1080BDE8 		pop	{r4, pc}
  54              	.LVL3:
  55              	.L4:
  88:../generate/sc_drivers/r_ssif/src/lld/r_ssif_lld_cfg.c ****     }
  56              		.loc 1 88 9 is_stmt 1 view .LVU9
  57 0018 FEFFFFEB 		bl	__enable_irq
  58              	.LVL4:
  91:../generate/sc_drivers/r_ssif/src/lld/r_ssif_lld_cfg.c **** }
  59              		.loc 1 91 5 view .LVU10
  91:../generate/sc_drivers/r_ssif/src/lld/r_ssif_lld_cfg.c **** }
  60              		.loc 1 91 12 is_stmt 0 view .LVU11
  61 001c FBFFFFEA 		b	.L1
  62              		.cfi_endproc
  63              	.LFE6:
  65              		.global	__aeabi_uidivmod
  66              		.global	__aeabi_uidiv
  67              		.section	.text.R_SSIF_Userdef_SetClockDiv,"ax",%progbits
  68              		.align	2
  69              		.global	R_SSIF_Userdef_SetClockDiv
  70              		.syntax unified
  71              		.arm
  72              		.fpu neon
  74              	R_SSIF_Userdef_SetClockDiv:
  75              	.LVL5:
  76              	.LFB7:
  93:../generate/sc_drivers/r_ssif/src/lld/r_ssif_lld_cfg.c **** /*******************************************************************************
  94:../generate/sc_drivers/r_ssif/src/lld/r_ssif_lld_cfg.c ****  End of function R_SSIF_Userdef_InitPinMux
  95:../generate/sc_drivers/r_ssif/src/lld/r_ssif_lld_cfg.c ****  ******************************************************************************/
  96:../generate/sc_drivers/r_ssif/src/lld/r_ssif_lld_cfg.c **** 
  97:../generate/sc_drivers/r_ssif/src/lld/r_ssif_lld_cfg.c **** /******************************************************************************
  98:../generate/sc_drivers/r_ssif/src/lld/r_ssif_lld_cfg.c **** * Function Name: R_SSIF_Userdef_SetClockDiv
  99:../generate/sc_drivers/r_ssif/src/lld/r_ssif_lld_cfg.c **** * @brief         This function make a value of divieded audio clock.
 100:../generate/sc_drivers/r_ssif/src/lld/r_ssif_lld_cfg.c **** *
 101:../generate/sc_drivers/r_ssif/src/lld/r_ssif_lld_cfg.c **** *                Description:<br>
 102:../generate/sc_drivers/r_ssif/src/lld/r_ssif_lld_cfg.c **** *
 103:../generate/sc_drivers/r_ssif/src/lld/r_ssif_lld_cfg.c **** * @param[in]     p_ch_cfg     :pointer of channel configuration parameter.
 104:../generate/sc_drivers/r_ssif/src/lld/r_ssif_lld_cfg.c **** * @param[in,out] p_clk_div    :pointer of SSICR register CKDV value
 105:../generate/sc_drivers/r_ssif/src/lld/r_ssif_lld_cfg.c **** * @retval        IOIF_ESUCCESS:Success.
 106:../generate/sc_drivers/r_ssif/src/lld/r_ssif_lld_cfg.c **** * @retval        error code   :Failure.
 107:../generate/sc_drivers/r_ssif/src/lld/r_ssif_lld_cfg.c **** ******************************************************************************/
 108:../generate/sc_drivers/r_ssif/src/lld/r_ssif_lld_cfg.c **** int_t R_SSIF_Userdef_SetClockDiv(const ssif_channel_cfg_t* const p_ch_cfg, ssif_chcfg_ckdv_t* const
 109:../generate/sc_drivers/r_ssif/src/lld/r_ssif_lld_cfg.c **** {
  77              		.loc 1 109 1 is_stmt 1 view -0
  78              		.cfi_startproc
  79              		@ args = 0, pretend = 0, frame = 0
  80              		@ frame_needed = 0, uses_anonymous_args = 0
  81              		.loc 1 109 1 is_stmt 0 view .LVU13
  82 0000 70402DE9 		push	{r4, r5, r6, lr}
  83              		.cfi_def_cfa_offset 16
  84              		.cfi_offset 4, -16
  85              		.cfi_offset 5, -12
  86              		.cfi_offset 6, -8
  87              		.cfi_offset 14, -4
 110:../generate/sc_drivers/r_ssif/src/lld/r_ssif_lld_cfg.c ****     uint32_t input_clk;
  88              		.loc 1 110 5 is_stmt 1 view .LVU14
 111:../generate/sc_drivers/r_ssif/src/lld/r_ssif_lld_cfg.c ****     uint32_t dot_clk;
  89              		.loc 1 111 5 view .LVU15
 112:../generate/sc_drivers/r_ssif/src/lld/r_ssif_lld_cfg.c ****     uint32_t n_syswd_per_smp;
  90              		.loc 1 112 5 view .LVU16
 113:../generate/sc_drivers/r_ssif/src/lld/r_ssif_lld_cfg.c ****     uint32_t syswd_len;
  91              		.loc 1 113 5 view .LVU17
 114:../generate/sc_drivers/r_ssif/src/lld/r_ssif_lld_cfg.c ****     uint32_t smp_freq;
  92              		.loc 1 114 5 view .LVU18
 115:../generate/sc_drivers/r_ssif/src/lld/r_ssif_lld_cfg.c ****     uint32_t result;
  93              		.loc 1 115 5 view .LVU19
 116:../generate/sc_drivers/r_ssif/src/lld/r_ssif_lld_cfg.c ****     uint32_t division;
  94              		.loc 1 116 5 view .LVU20
 117:../generate/sc_drivers/r_ssif/src/lld/r_ssif_lld_cfg.c ****     int_t ret = IOIF_ESUCCESS;
  95              		.loc 1 117 5 view .LVU21
  96              	.LVL6:
 118:../generate/sc_drivers/r_ssif/src/lld/r_ssif_lld_cfg.c **** 
 119:../generate/sc_drivers/r_ssif/src/lld/r_ssif_lld_cfg.c ****     if ((NULL == p_ch_cfg) || (NULL == p_clk_div))
  97              		.loc 1 119 5 view .LVU22
  98              		.loc 1 119 37 is_stmt 0 view .LVU23
  99 0004 0140A0E1 		mov	r4, r1
 100 0008 111F6FE1 		clz	r1, r1
 101              	.LVL7:
 102              		.loc 1 119 37 view .LVU24
 103 000c A112A0E1 		lsr	r1, r1, #5
 104              		.loc 1 119 28 view .LVU25
 105 0010 000050E3 		cmp	r0, #0
 106 0014 0110A003 		moveq	r1, #1
 107              		.loc 1 119 8 view .LVU26
 108 0018 000051E3 		cmp	r1, #0
 109 001c BD00001A 		bne	.L23
 110 0020 0060A0E1 		mov	r6, r0
 120:../generate/sc_drivers/r_ssif/src/lld/r_ssif_lld_cfg.c ****     {
 121:../generate/sc_drivers/r_ssif/src/lld/r_ssif_lld_cfg.c ****         ret = IOIF_EFAULT;
 122:../generate/sc_drivers/r_ssif/src/lld/r_ssif_lld_cfg.c ****     }
 123:../generate/sc_drivers/r_ssif/src/lld/r_ssif_lld_cfg.c ****     else
 124:../generate/sc_drivers/r_ssif/src/lld/r_ssif_lld_cfg.c ****     {
 125:../generate/sc_drivers/r_ssif/src/lld/r_ssif_lld_cfg.c ****         if (SSIF_CFG_CKS_AUDIO_X1 == p_ch_cfg->clk_select)
 111              		.loc 1 125 9 is_stmt 1 view .LVU27
 112              		.loc 1 125 46 is_stmt 0 view .LVU28
 113 0024 1030D0E5 		ldrb	r3, [r0, #16]	@ zero_extendqisi2
 114              		.loc 1 125 12 view .LVU29
 115 0028 010053E3 		cmp	r3, #1
 116 002c BB00000A 		beq	.L24
 126:../generate/sc_drivers/r_ssif/src/lld/r_ssif_lld_cfg.c ****         {
 127:../generate/sc_drivers/r_ssif/src/lld/r_ssif_lld_cfg.c ****             input_clk = RENESAS_RZ_A2_AUDIO_X1;
 128:../generate/sc_drivers/r_ssif/src/lld/r_ssif_lld_cfg.c ****         }
 129:../generate/sc_drivers/r_ssif/src/lld/r_ssif_lld_cfg.c ****         else if (SSIF_CFG_CKS_AUDIO_CLK == p_ch_cfg->clk_select)
 117              		.loc 1 129 14 is_stmt 1 view .LVU30
 118              		.loc 1 129 17 is_stmt 0 view .LVU31
 119 0030 000053E3 		cmp	r3, #0
 120 0034 BB00001A 		bne	.L25
 121              	.LVL8:
 130:../generate/sc_drivers/r_ssif/src/lld/r_ssif_lld_cfg.c ****         {
 131:../generate/sc_drivers/r_ssif/src/lld/r_ssif_lld_cfg.c ****             input_clk = RENESAS_RZ_A2_AUDIO_CLK;
 132:../generate/sc_drivers/r_ssif/src/lld/r_ssif_lld_cfg.c ****         }
 133:../generate/sc_drivers/r_ssif/src/lld/r_ssif_lld_cfg.c ****         else
 134:../generate/sc_drivers/r_ssif/src/lld/r_ssif_lld_cfg.c ****         {
 135:../generate/sc_drivers/r_ssif/src/lld/r_ssif_lld_cfg.c ****             input_clk = 0u;
 136:../generate/sc_drivers/r_ssif/src/lld/r_ssif_lld_cfg.c ****         }
 137:../generate/sc_drivers/r_ssif/src/lld/r_ssif_lld_cfg.c **** 
 138:../generate/sc_drivers/r_ssif/src/lld/r_ssif_lld_cfg.c ****         if (0u == input_clk)
 122              		.loc 1 138 9 is_stmt 1 view .LVU32
 139:../generate/sc_drivers/r_ssif/src/lld/r_ssif_lld_cfg.c ****         {
 140:../generate/sc_drivers/r_ssif/src/lld/r_ssif_lld_cfg.c ****             ret = IOIF_EINVAL;
 141:../generate/sc_drivers/r_ssif/src/lld/r_ssif_lld_cfg.c ****         }
 142:../generate/sc_drivers/r_ssif/src/lld/r_ssif_lld_cfg.c **** 
 143:../generate/sc_drivers/r_ssif/src/lld/r_ssif_lld_cfg.c ****         if (IOIF_ESUCCESS == ret)
 123              		.loc 1 143 9 view .LVU33
 144:../generate/sc_drivers/r_ssif/src/lld/r_ssif_lld_cfg.c ****         {
 145:../generate/sc_drivers/r_ssif/src/lld/r_ssif_lld_cfg.c ****             syswd_len = (uint32_t)R_SSIF_SWLtoLen(p_ch_cfg->system_word);
 124              		.loc 1 145 13 view .LVU34
 125              		.loc 1 145 35 is_stmt 0 view .LVU35
 126 0038 1300D0E5 		ldrb	r0, [r0, #19]	@ zero_extendqisi2
 127              	.LVL9:
 128              		.loc 1 145 35 view .LVU36
 129 003c FEFFFFEB 		bl	R_SSIF_SWLtoLen
 130              	.LVL10:
 146:../generate/sc_drivers/r_ssif/src/lld/r_ssif_lld_cfg.c ****             smp_freq = p_ch_cfg->sample_freq;
 131              		.loc 1 146 13 is_stmt 1 view .LVU37
 132              		.loc 1 146 22 is_stmt 0 view .LVU38
 133 0040 0C5096E5 		ldr	r5, [r6, #12]
 134              	.LVL11:
 147:../generate/sc_drivers/r_ssif/src/lld/r_ssif_lld_cfg.c **** 
 148:../generate/sc_drivers/r_ssif/src/lld/r_ssif_lld_cfg.c ****             if (SSIF_CFG_DISABLE_TDM == p_ch_cfg->tdm_mode)
 135              		.loc 1 148 13 is_stmt 1 view .LVU39
 136              		.loc 1 148 49 is_stmt 0 view .LVU40
 137 0044 1D30D6E5 		ldrb	r3, [r6, #29]	@ zero_extendqisi2
 138              		.loc 1 148 16 view .LVU41
 139 0048 000053E3 		cmp	r3, #0
 140 004c 7800000A 		beq	.L26
 149:../generate/sc_drivers/r_ssif/src/lld/r_ssif_lld_cfg.c ****             {
 150:../generate/sc_drivers/r_ssif/src/lld/r_ssif_lld_cfg.c ****                 /* I2S format has 2 system_words */
 151:../generate/sc_drivers/r_ssif/src/lld/r_ssif_lld_cfg.c ****                 n_syswd_per_smp = SSIF_I2S_LR_CH;
 152:../generate/sc_drivers/r_ssif/src/lld/r_ssif_lld_cfg.c ****             }
 153:../generate/sc_drivers/r_ssif/src/lld/r_ssif_lld_cfg.c ****             else
 154:../generate/sc_drivers/r_ssif/src/lld/r_ssif_lld_cfg.c ****             {
 155:../generate/sc_drivers/r_ssif/src/lld/r_ssif_lld_cfg.c ****                 /* TDM frame has [(CHNL+1) * 2] system_words */
 156:../generate/sc_drivers/r_ssif/src/lld/r_ssif_lld_cfg.c ****                 n_syswd_per_smp = (((uint32_t)p_ch_cfg->frame_word) + 1) * SSIF_I2S_LR_CH;
 141              		.loc 1 156 17 is_stmt 1 view .LVU42
 142              		.loc 1 156 55 is_stmt 0 view .LVU43
 143 0050 1130D6E5 		ldrb	r3, [r6, #17]	@ zero_extendqisi2
 144              		.loc 1 156 69 view .LVU44
 145 0054 013083E2 		add	r3, r3, #1
 146              		.loc 1 156 33 view .LVU45
 147 0058 8330A0E1 		lsl	r3, r3, #1
 148              	.LVL12:
 149              	.L7:
 157:../generate/sc_drivers/r_ssif/src/lld/r_ssif_lld_cfg.c ****             }
 158:../generate/sc_drivers/r_ssif/src/lld/r_ssif_lld_cfg.c **** 
 159:../generate/sc_drivers/r_ssif/src/lld/r_ssif_lld_cfg.c ****             dot_clk = syswd_len * n_syswd_per_smp * smp_freq;
 150              		.loc 1 159 13 is_stmt 1 view .LVU46
 151              		.loc 1 159 33 is_stmt 0 view .LVU47
 152 005c 900300E0 		mul	r0, r0, r3
 153              	.LVL13:
 154              		.loc 1 159 21 view .LVU48
 155 0060 950005E0 		mul	r5, r5, r0
 156              	.LVL14:
 160:../generate/sc_drivers/r_ssif/src/lld/r_ssif_lld_cfg.c **** 
 161:../generate/sc_drivers/r_ssif/src/lld/r_ssif_lld_cfg.c ****             if (0u == dot_clk)
 157              		.loc 1 161 13 is_stmt 1 view .LVU49
 158              		.loc 1 161 16 is_stmt 0 view .LVU50
 159 0064 000055E3 		cmp	r5, #0
 160 0068 B000000A 		beq	.L27
 162:../generate/sc_drivers/r_ssif/src/lld/r_ssif_lld_cfg.c ****             {
 163:../generate/sc_drivers/r_ssif/src/lld/r_ssif_lld_cfg.c ****                 ret = IOIF_EINVAL;
 164:../generate/sc_drivers/r_ssif/src/lld/r_ssif_lld_cfg.c ****             }
 165:../generate/sc_drivers/r_ssif/src/lld/r_ssif_lld_cfg.c ****             else
 166:../generate/sc_drivers/r_ssif/src/lld/r_ssif_lld_cfg.c ****             {
 167:../generate/sc_drivers/r_ssif/src/lld/r_ssif_lld_cfg.c ****                 /* check if input audio clock can be divided by dotclock */
 168:../generate/sc_drivers/r_ssif/src/lld/r_ssif_lld_cfg.c ****                 result = input_clk % dot_clk;
 161              		.loc 1 168 17 is_stmt 1 view .LVU51
 162              		.loc 1 168 24 is_stmt 0 view .LVU52
 163 006c 0510A0E1 		mov	r1, r5
 164 0070 110BA0E3 		mov	r0, #17408
 165 0074 AC0040E3 		movt	r0, 172
 166 0078 FEFFFFEB 		bl	__aeabi_uidivmod
 167              	.LVL15:
 169:../generate/sc_drivers/r_ssif/src/lld/r_ssif_lld_cfg.c **** 
 170:../generate/sc_drivers/r_ssif/src/lld/r_ssif_lld_cfg.c ****                 if (0u != result)
 168              		.loc 1 170 17 is_stmt 1 view .LVU53
 169              		.loc 1 170 20 is_stmt 0 view .LVU54
 170 007c 000051E3 		cmp	r1, #0
 171 0080 AC00001A 		bne	.L28
 171:../generate/sc_drivers/r_ssif/src/lld/r_ssif_lld_cfg.c ****                 {
 172:../generate/sc_drivers/r_ssif/src/lld/r_ssif_lld_cfg.c ****                     /* cannot create dotclock from input audio clock */
 173:../generate/sc_drivers/r_ssif/src/lld/r_ssif_lld_cfg.c ****                     ret = IOIF_EINVAL;
 174:../generate/sc_drivers/r_ssif/src/lld/r_ssif_lld_cfg.c ****                 }
 175:../generate/sc_drivers/r_ssif/src/lld/r_ssif_lld_cfg.c ****                 else
 176:../generate/sc_drivers/r_ssif/src/lld/r_ssif_lld_cfg.c ****                 {
 177:../generate/sc_drivers/r_ssif/src/lld/r_ssif_lld_cfg.c ****                     division = input_clk / dot_clk;
 172              		.loc 1 177 21 is_stmt 1 view .LVU55
 173              		.loc 1 177 30 is_stmt 0 view .LVU56
 174 0084 0510A0E1 		mov	r1, r5
 175              	.LVL16:
 176              		.loc 1 177 30 view .LVU57
 177 0088 110BA0E3 		mov	r0, #17408
 178 008c AC0040E3 		movt	r0, 172
 179 0090 FEFFFFEB 		bl	__aeabi_uidiv
 180              	.LVL17:
 178:../generate/sc_drivers/r_ssif/src/lld/r_ssif_lld_cfg.c **** 
 179:../generate/sc_drivers/r_ssif/src/lld/r_ssif_lld_cfg.c ****                     switch (division)
 181              		.loc 1 179 21 is_stmt 1 view .LVU58
 182 0094 600050E3 		cmp	r0, #96
 183 0098 6700008A 		bhi	.L8
 184 009c 000050E3 		cmp	r0, #0
 185 00a0 A600000A 		beq	.L29
 186 00a4 010040E2 		sub	r0, r0, #1
 187              	.LVL18:
 188              		.loc 1 179 21 is_stmt 0 view .LVU59
 189 00a8 5F0050E3 		cmp	r0, #95
 190 00ac 00F19F97 		ldrls	pc, [pc, r0, asl #2]
 191 00b0 A40000EA 		b	.L30
 192              	.L10:
 193 00b4 5C020000 		.word	.L21
 194 00b8 68020000 		.word	.L20
 195 00bc 48030000 		.word	.L30
 196 00c0 78020000 		.word	.L19
 197 00c4 48030000 		.word	.L30
 198 00c8 C8020000 		.word	.L18
 199 00cc 48030000 		.word	.L30
 200 00d0 88020000 		.word	.L17
 201 00d4 48030000 		.word	.L30
 202 00d8 48030000 		.word	.L30
 203 00dc 48030000 		.word	.L30
 204 00e0 D8020000 		.word	.L16
 205 00e4 48030000 		.word	.L30
 206 00e8 48030000 		.word	.L30
 207 00ec 48030000 		.word	.L30
 208 00f0 98020000 		.word	.L15
 209 00f4 48030000 		.word	.L30
 210 00f8 48030000 		.word	.L30
 211 00fc 48030000 		.word	.L30
 212 0100 48030000 		.word	.L30
 213 0104 48030000 		.word	.L30
 214 0108 48030000 		.word	.L30
 215 010c 48030000 		.word	.L30
 216 0110 E8020000 		.word	.L14
 217 0114 48030000 		.word	.L30
 218 0118 48030000 		.word	.L30
 219 011c 48030000 		.word	.L30
 220 0120 48030000 		.word	.L30
 221 0124 48030000 		.word	.L30
 222 0128 48030000 		.word	.L30
 223 012c 48030000 		.word	.L30
 224 0130 A8020000 		.word	.L13
 225 0134 48030000 		.word	.L30
 226 0138 48030000 		.word	.L30
 227 013c 48030000 		.word	.L30
 228 0140 48030000 		.word	.L30
 229 0144 48030000 		.word	.L30
 230 0148 48030000 		.word	.L30
 231 014c 48030000 		.word	.L30
 232 0150 48030000 		.word	.L30
 233 0154 48030000 		.word	.L30
 234 0158 48030000 		.word	.L30
 235 015c 48030000 		.word	.L30
 236 0160 48030000 		.word	.L30
 237 0164 48030000 		.word	.L30
 238 0168 48030000 		.word	.L30
 239 016c 48030000 		.word	.L30
 240 0170 F8020000 		.word	.L12
 241 0174 48030000 		.word	.L30
 242 0178 48030000 		.word	.L30
 243 017c 48030000 		.word	.L30
 244 0180 48030000 		.word	.L30
 245 0184 48030000 		.word	.L30
 246 0188 48030000 		.word	.L30
 247 018c 48030000 		.word	.L30
 248 0190 48030000 		.word	.L30
 249 0194 48030000 		.word	.L30
 250 0198 48030000 		.word	.L30
 251 019c 48030000 		.word	.L30
 252 01a0 48030000 		.word	.L30
 253 01a4 48030000 		.word	.L30
 254 01a8 48030000 		.word	.L30
 255 01ac 48030000 		.word	.L30
 256 01b0 B8020000 		.word	.L11
 257 01b4 48030000 		.word	.L30
 258 01b8 48030000 		.word	.L30
 259 01bc 48030000 		.word	.L30
 260 01c0 48030000 		.word	.L30
 261 01c4 48030000 		.word	.L30
 262 01c8 48030000 		.word	.L30
 263 01cc 48030000 		.word	.L30
 264 01d0 48030000 		.word	.L30
 265 01d4 48030000 		.word	.L30
 266 01d8 48030000 		.word	.L30
 267 01dc 48030000 		.word	.L30
 268 01e0 48030000 		.word	.L30
 269 01e4 48030000 		.word	.L30
 270 01e8 48030000 		.word	.L30
 271 01ec 48030000 		.word	.L30
 272 01f0 48030000 		.word	.L30
 273 01f4 48030000 		.word	.L30
 274 01f8 48030000 		.word	.L30
 275 01fc 48030000 		.word	.L30
 276 0200 48030000 		.word	.L30
 277 0204 48030000 		.word	.L30
 278 0208 48030000 		.word	.L30
 279 020c 48030000 		.word	.L30
 280 0210 48030000 		.word	.L30
 281 0214 48030000 		.word	.L30
 282 0218 48030000 		.word	.L30
 283 021c 48030000 		.word	.L30
 284 0220 48030000 		.word	.L30
 285 0224 48030000 		.word	.L30
 286 0228 48030000 		.word	.L30
 287 022c 48030000 		.word	.L30
 288 0230 08030000 		.word	.L9
 289              	.LVL19:
 290              	.L26:
 151:../generate/sc_drivers/r_ssif/src/lld/r_ssif_lld_cfg.c ****             }
 291              		.loc 1 151 33 view .LVU60
 292 0234 0230A0E3 		mov	r3, #2
 293 0238 87FFFFEA 		b	.L7
 294              	.LVL20:
 295              	.L8:
 296              		.loc 1 179 21 view .LVU61
 297 023c 800050E3 		cmp	r0, #128
 298 0240 0300001A 		bne	.L32
 180:../generate/sc_drivers/r_ssif/src/lld/r_ssif_lld_cfg.c ****                     {
 181:../generate/sc_drivers/r_ssif/src/lld/r_ssif_lld_cfg.c ****                     case SSIF_AUDIO_CLK_DIV_1:
 182:../generate/sc_drivers/r_ssif/src/lld/r_ssif_lld_cfg.c ****                         *p_clk_div = SSIF_CFG_CKDV_BITS_1;
 183:../generate/sc_drivers/r_ssif/src/lld/r_ssif_lld_cfg.c ****                         break;
 184:../generate/sc_drivers/r_ssif/src/lld/r_ssif_lld_cfg.c ****                     case SSIF_AUDIO_CLK_DIV_2:
 185:../generate/sc_drivers/r_ssif/src/lld/r_ssif_lld_cfg.c ****                         *p_clk_div = SSIF_CFG_CKDV_BITS_2;
 186:../generate/sc_drivers/r_ssif/src/lld/r_ssif_lld_cfg.c ****                         break;
 187:../generate/sc_drivers/r_ssif/src/lld/r_ssif_lld_cfg.c ****                     case SSIF_AUDIO_CLK_DIV_4:
 188:../generate/sc_drivers/r_ssif/src/lld/r_ssif_lld_cfg.c ****                         *p_clk_div = SSIF_CFG_CKDV_BITS_4;
 189:../generate/sc_drivers/r_ssif/src/lld/r_ssif_lld_cfg.c ****                         break;
 190:../generate/sc_drivers/r_ssif/src/lld/r_ssif_lld_cfg.c ****                     case SSIF_AUDIO_CLK_DIV_8:
 191:../generate/sc_drivers/r_ssif/src/lld/r_ssif_lld_cfg.c ****                         *p_clk_div = SSIF_CFG_CKDV_BITS_8;
 192:../generate/sc_drivers/r_ssif/src/lld/r_ssif_lld_cfg.c ****                         break;
 193:../generate/sc_drivers/r_ssif/src/lld/r_ssif_lld_cfg.c ****                     case SSIF_AUDIO_CLK_DIV_16:
 194:../generate/sc_drivers/r_ssif/src/lld/r_ssif_lld_cfg.c ****                         *p_clk_div = SSIF_CFG_CKDV_BITS_16;
 195:../generate/sc_drivers/r_ssif/src/lld/r_ssif_lld_cfg.c ****                         break;
 196:../generate/sc_drivers/r_ssif/src/lld/r_ssif_lld_cfg.c ****                     case SSIF_AUDIO_CLK_DIV_32:
 197:../generate/sc_drivers/r_ssif/src/lld/r_ssif_lld_cfg.c ****                         *p_clk_div = SSIF_CFG_CKDV_BITS_32;
 198:../generate/sc_drivers/r_ssif/src/lld/r_ssif_lld_cfg.c ****                         break;
 199:../generate/sc_drivers/r_ssif/src/lld/r_ssif_lld_cfg.c ****                     case SSIF_AUDIO_CLK_DIV_64:
 200:../generate/sc_drivers/r_ssif/src/lld/r_ssif_lld_cfg.c ****                         *p_clk_div = SSIF_CFG_CKDV_BITS_64;
 201:../generate/sc_drivers/r_ssif/src/lld/r_ssif_lld_cfg.c ****                         break;
 202:../generate/sc_drivers/r_ssif/src/lld/r_ssif_lld_cfg.c ****                     case SSIF_AUDIO_CLK_DIV_128:
 203:../generate/sc_drivers/r_ssif/src/lld/r_ssif_lld_cfg.c ****                         *p_clk_div = SSIF_CFG_CKDV_BITS_128;
 299              		.loc 1 203 25 is_stmt 1 view .LVU62
 300              		.loc 1 203 36 is_stmt 0 view .LVU63
 301 0244 0730A0E3 		mov	r3, #7
 302 0248 0030C4E5 		strb	r3, [r4]
 204:../generate/sc_drivers/r_ssif/src/lld/r_ssif_lld_cfg.c ****                         break;
 303              		.loc 1 204 25 is_stmt 1 view .LVU64
 117:../generate/sc_drivers/r_ssif/src/lld/r_ssif_lld_cfg.c **** 
 304              		.loc 1 117 11 is_stmt 0 view .LVU65
 305 024c 0000A0E3 		mov	r0, #0
 306              	.LVL21:
 307              		.loc 1 204 25 view .LVU66
 308 0250 7080BDE8 		pop	{r4, r5, r6, pc}
 309              	.LVL22:
 310              	.L32:
 179:../generate/sc_drivers/r_ssif/src/lld/r_ssif_lld_cfg.c ****                     {
 311              		.loc 1 179 21 view .LVU67
 312 0254 1B00E0E3 		mvn	r0, #27
 313              	.LVL23:
 179:../generate/sc_drivers/r_ssif/src/lld/r_ssif_lld_cfg.c ****                     {
 314              		.loc 1 179 21 view .LVU68
 315 0258 7080BDE8 		pop	{r4, r5, r6, pc}
 316              	.LVL24:
 317              	.L21:
 182:../generate/sc_drivers/r_ssif/src/lld/r_ssif_lld_cfg.c ****                         break;
 318              		.loc 1 182 25 is_stmt 1 view .LVU69
 182:../generate/sc_drivers/r_ssif/src/lld/r_ssif_lld_cfg.c ****                         break;
 319              		.loc 1 182 36 is_stmt 0 view .LVU70
 320 025c 0000A0E3 		mov	r0, #0
 321              	.LVL25:
 182:../generate/sc_drivers/r_ssif/src/lld/r_ssif_lld_cfg.c ****                         break;
 322              		.loc 1 182 36 view .LVU71
 323 0260 0000C4E5 		strb	r0, [r4]
 183:../generate/sc_drivers/r_ssif/src/lld/r_ssif_lld_cfg.c ****                     case SSIF_AUDIO_CLK_DIV_2:
 324              		.loc 1 183 25 is_stmt 1 view .LVU72
 325 0264 7080BDE8 		pop	{r4, r5, r6, pc}
 326              	.LVL26:
 327              	.L20:
 185:../generate/sc_drivers/r_ssif/src/lld/r_ssif_lld_cfg.c ****                         break;
 328              		.loc 1 185 25 view .LVU73
 185:../generate/sc_drivers/r_ssif/src/lld/r_ssif_lld_cfg.c ****                         break;
 329              		.loc 1 185 36 is_stmt 0 view .LVU74
 330 0268 0130A0E3 		mov	r3, #1
 331 026c 0030C4E5 		strb	r3, [r4]
 186:../generate/sc_drivers/r_ssif/src/lld/r_ssif_lld_cfg.c ****                     case SSIF_AUDIO_CLK_DIV_4:
 332              		.loc 1 186 25 is_stmt 1 view .LVU75
 117:../generate/sc_drivers/r_ssif/src/lld/r_ssif_lld_cfg.c **** 
 333              		.loc 1 117 11 is_stmt 0 view .LVU76
 334 0270 0000A0E3 		mov	r0, #0
 335              	.LVL27:
 186:../generate/sc_drivers/r_ssif/src/lld/r_ssif_lld_cfg.c ****                     case SSIF_AUDIO_CLK_DIV_4:
 336              		.loc 1 186 25 view .LVU77
 337 0274 7080BDE8 		pop	{r4, r5, r6, pc}
 338              	.LVL28:
 339              	.L19:
 188:../generate/sc_drivers/r_ssif/src/lld/r_ssif_lld_cfg.c ****                         break;
 340              		.loc 1 188 25 is_stmt 1 view .LVU78
 188:../generate/sc_drivers/r_ssif/src/lld/r_ssif_lld_cfg.c ****                         break;
 341              		.loc 1 188 36 is_stmt 0 view .LVU79
 342 0278 0230A0E3 		mov	r3, #2
 343 027c 0030C4E5 		strb	r3, [r4]
 189:../generate/sc_drivers/r_ssif/src/lld/r_ssif_lld_cfg.c ****                     case SSIF_AUDIO_CLK_DIV_8:
 344              		.loc 1 189 25 is_stmt 1 view .LVU80
 117:../generate/sc_drivers/r_ssif/src/lld/r_ssif_lld_cfg.c **** 
 345              		.loc 1 117 11 is_stmt 0 view .LVU81
 346 0280 0000A0E3 		mov	r0, #0
 347              	.LVL29:
 189:../generate/sc_drivers/r_ssif/src/lld/r_ssif_lld_cfg.c ****                     case SSIF_AUDIO_CLK_DIV_8:
 348              		.loc 1 189 25 view .LVU82
 349 0284 7080BDE8 		pop	{r4, r5, r6, pc}
 350              	.LVL30:
 351              	.L17:
 191:../generate/sc_drivers/r_ssif/src/lld/r_ssif_lld_cfg.c ****                         break;
 352              		.loc 1 191 25 is_stmt 1 view .LVU83
 191:../generate/sc_drivers/r_ssif/src/lld/r_ssif_lld_cfg.c ****                         break;
 353              		.loc 1 191 36 is_stmt 0 view .LVU84
 354 0288 0330A0E3 		mov	r3, #3
 355 028c 0030C4E5 		strb	r3, [r4]
 192:../generate/sc_drivers/r_ssif/src/lld/r_ssif_lld_cfg.c ****                     case SSIF_AUDIO_CLK_DIV_16:
 356              		.loc 1 192 25 is_stmt 1 view .LVU85
 117:../generate/sc_drivers/r_ssif/src/lld/r_ssif_lld_cfg.c **** 
 357              		.loc 1 117 11 is_stmt 0 view .LVU86
 358 0290 0000A0E3 		mov	r0, #0
 359              	.LVL31:
 192:../generate/sc_drivers/r_ssif/src/lld/r_ssif_lld_cfg.c ****                     case SSIF_AUDIO_CLK_DIV_16:
 360              		.loc 1 192 25 view .LVU87
 361 0294 7080BDE8 		pop	{r4, r5, r6, pc}
 362              	.LVL32:
 363              	.L15:
 194:../generate/sc_drivers/r_ssif/src/lld/r_ssif_lld_cfg.c ****                         break;
 364              		.loc 1 194 25 is_stmt 1 view .LVU88
 194:../generate/sc_drivers/r_ssif/src/lld/r_ssif_lld_cfg.c ****                         break;
 365              		.loc 1 194 36 is_stmt 0 view .LVU89
 366 0298 0430A0E3 		mov	r3, #4
 367 029c 0030C4E5 		strb	r3, [r4]
 195:../generate/sc_drivers/r_ssif/src/lld/r_ssif_lld_cfg.c ****                     case SSIF_AUDIO_CLK_DIV_32:
 368              		.loc 1 195 25 is_stmt 1 view .LVU90
 117:../generate/sc_drivers/r_ssif/src/lld/r_ssif_lld_cfg.c **** 
 369              		.loc 1 117 11 is_stmt 0 view .LVU91
 370 02a0 0000A0E3 		mov	r0, #0
 371              	.LVL33:
 195:../generate/sc_drivers/r_ssif/src/lld/r_ssif_lld_cfg.c ****                     case SSIF_AUDIO_CLK_DIV_32:
 372              		.loc 1 195 25 view .LVU92
 373 02a4 7080BDE8 		pop	{r4, r5, r6, pc}
 374              	.LVL34:
 375              	.L13:
 197:../generate/sc_drivers/r_ssif/src/lld/r_ssif_lld_cfg.c ****                         break;
 376              		.loc 1 197 25 is_stmt 1 view .LVU93
 197:../generate/sc_drivers/r_ssif/src/lld/r_ssif_lld_cfg.c ****                         break;
 377              		.loc 1 197 36 is_stmt 0 view .LVU94
 378 02a8 0530A0E3 		mov	r3, #5
 379 02ac 0030C4E5 		strb	r3, [r4]
 198:../generate/sc_drivers/r_ssif/src/lld/r_ssif_lld_cfg.c ****                     case SSIF_AUDIO_CLK_DIV_64:
 380              		.loc 1 198 25 is_stmt 1 view .LVU95
 117:../generate/sc_drivers/r_ssif/src/lld/r_ssif_lld_cfg.c **** 
 381              		.loc 1 117 11 is_stmt 0 view .LVU96
 382 02b0 0000A0E3 		mov	r0, #0
 383              	.LVL35:
 198:../generate/sc_drivers/r_ssif/src/lld/r_ssif_lld_cfg.c ****                     case SSIF_AUDIO_CLK_DIV_64:
 384              		.loc 1 198 25 view .LVU97
 385 02b4 7080BDE8 		pop	{r4, r5, r6, pc}
 386              	.LVL36:
 387              	.L11:
 200:../generate/sc_drivers/r_ssif/src/lld/r_ssif_lld_cfg.c ****                         break;
 388              		.loc 1 200 25 is_stmt 1 view .LVU98
 200:../generate/sc_drivers/r_ssif/src/lld/r_ssif_lld_cfg.c ****                         break;
 389              		.loc 1 200 36 is_stmt 0 view .LVU99
 390 02b8 0630A0E3 		mov	r3, #6
 391 02bc 0030C4E5 		strb	r3, [r4]
 201:../generate/sc_drivers/r_ssif/src/lld/r_ssif_lld_cfg.c ****                     case SSIF_AUDIO_CLK_DIV_128:
 392              		.loc 1 201 25 is_stmt 1 view .LVU100
 117:../generate/sc_drivers/r_ssif/src/lld/r_ssif_lld_cfg.c **** 
 393              		.loc 1 117 11 is_stmt 0 view .LVU101
 394 02c0 0000A0E3 		mov	r0, #0
 395              	.LVL37:
 201:../generate/sc_drivers/r_ssif/src/lld/r_ssif_lld_cfg.c ****                     case SSIF_AUDIO_CLK_DIV_128:
 396              		.loc 1 201 25 view .LVU102
 397 02c4 7080BDE8 		pop	{r4, r5, r6, pc}
 398              	.LVL38:
 399              	.L18:
 205:../generate/sc_drivers/r_ssif/src/lld/r_ssif_lld_cfg.c ****                     case SSIF_AUDIO_CLK_DIV_6:
 206:../generate/sc_drivers/r_ssif/src/lld/r_ssif_lld_cfg.c ****                         *p_clk_div = SSIF_CFG_CKDV_BITS_6;
 400              		.loc 1 206 25 is_stmt 1 view .LVU103
 401              		.loc 1 206 36 is_stmt 0 view .LVU104
 402 02c8 0830A0E3 		mov	r3, #8
 403 02cc 0030C4E5 		strb	r3, [r4]
 207:../generate/sc_drivers/r_ssif/src/lld/r_ssif_lld_cfg.c ****                         break;
 404              		.loc 1 207 25 is_stmt 1 view .LVU105
 117:../generate/sc_drivers/r_ssif/src/lld/r_ssif_lld_cfg.c **** 
 405              		.loc 1 117 11 is_stmt 0 view .LVU106
 406 02d0 0000A0E3 		mov	r0, #0
 407              	.LVL39:
 408              		.loc 1 207 25 view .LVU107
 409 02d4 7080BDE8 		pop	{r4, r5, r6, pc}
 410              	.LVL40:
 411              	.L16:
 208:../generate/sc_drivers/r_ssif/src/lld/r_ssif_lld_cfg.c ****                     case SSIF_AUDIO_CLK_DIV_12:
 209:../generate/sc_drivers/r_ssif/src/lld/r_ssif_lld_cfg.c ****                         *p_clk_div = SSIF_CFG_CKDV_BITS_12;
 412              		.loc 1 209 25 is_stmt 1 view .LVU108
 413              		.loc 1 209 36 is_stmt 0 view .LVU109
 414 02d8 0930A0E3 		mov	r3, #9
 415 02dc 0030C4E5 		strb	r3, [r4]
 210:../generate/sc_drivers/r_ssif/src/lld/r_ssif_lld_cfg.c ****                         break;
 416              		.loc 1 210 25 is_stmt 1 view .LVU110
 117:../generate/sc_drivers/r_ssif/src/lld/r_ssif_lld_cfg.c **** 
 417              		.loc 1 117 11 is_stmt 0 view .LVU111
 418 02e0 0000A0E3 		mov	r0, #0
 419              	.LVL41:
 420              		.loc 1 210 25 view .LVU112
 421 02e4 7080BDE8 		pop	{r4, r5, r6, pc}
 422              	.LVL42:
 423              	.L14:
 211:../generate/sc_drivers/r_ssif/src/lld/r_ssif_lld_cfg.c ****                     case SSIF_AUDIO_CLK_DIV_24:
 212:../generate/sc_drivers/r_ssif/src/lld/r_ssif_lld_cfg.c ****                         *p_clk_div = SSIF_CFG_CKDV_BITS_24;
 424              		.loc 1 212 25 is_stmt 1 view .LVU113
 425              		.loc 1 212 36 is_stmt 0 view .LVU114
 426 02e8 0A30A0E3 		mov	r3, #10
 427 02ec 0030C4E5 		strb	r3, [r4]
 213:../generate/sc_drivers/r_ssif/src/lld/r_ssif_lld_cfg.c ****                         break;
 428              		.loc 1 213 25 is_stmt 1 view .LVU115
 117:../generate/sc_drivers/r_ssif/src/lld/r_ssif_lld_cfg.c **** 
 429              		.loc 1 117 11 is_stmt 0 view .LVU116
 430 02f0 0000A0E3 		mov	r0, #0
 431              	.LVL43:
 432              		.loc 1 213 25 view .LVU117
 433 02f4 7080BDE8 		pop	{r4, r5, r6, pc}
 434              	.LVL44:
 435              	.L12:
 214:../generate/sc_drivers/r_ssif/src/lld/r_ssif_lld_cfg.c ****                     case SSIF_AUDIO_CLK_DIV_48:
 215:../generate/sc_drivers/r_ssif/src/lld/r_ssif_lld_cfg.c ****                         *p_clk_div = SSIF_CFG_CKDV_BITS_48;
 436              		.loc 1 215 25 is_stmt 1 view .LVU118
 437              		.loc 1 215 36 is_stmt 0 view .LVU119
 438 02f8 0B30A0E3 		mov	r3, #11
 439 02fc 0030C4E5 		strb	r3, [r4]
 216:../generate/sc_drivers/r_ssif/src/lld/r_ssif_lld_cfg.c ****                         break;
 440              		.loc 1 216 25 is_stmt 1 view .LVU120
 117:../generate/sc_drivers/r_ssif/src/lld/r_ssif_lld_cfg.c **** 
 441              		.loc 1 117 11 is_stmt 0 view .LVU121
 442 0300 0000A0E3 		mov	r0, #0
 443              	.LVL45:
 444              		.loc 1 216 25 view .LVU122
 445 0304 7080BDE8 		pop	{r4, r5, r6, pc}
 446              	.LVL46:
 447              	.L9:
 217:../generate/sc_drivers/r_ssif/src/lld/r_ssif_lld_cfg.c ****                     case SSIF_AUDIO_CLK_DIV_96:
 218:../generate/sc_drivers/r_ssif/src/lld/r_ssif_lld_cfg.c ****                         *p_clk_div = SSIF_CFG_CKDV_BITS_96;
 448              		.loc 1 218 25 is_stmt 1 view .LVU123
 449              		.loc 1 218 36 is_stmt 0 view .LVU124
 450 0308 0C30A0E3 		mov	r3, #12
 451 030c 0030C4E5 		strb	r3, [r4]
 219:../generate/sc_drivers/r_ssif/src/lld/r_ssif_lld_cfg.c ****                         break;
 452              		.loc 1 219 25 is_stmt 1 view .LVU125
 117:../generate/sc_drivers/r_ssif/src/lld/r_ssif_lld_cfg.c **** 
 453              		.loc 1 117 11 is_stmt 0 view .LVU126
 454 0310 0000A0E3 		mov	r0, #0
 455              	.LVL47:
 456              		.loc 1 219 25 view .LVU127
 457 0314 7080BDE8 		pop	{r4, r5, r6, pc}
 458              	.LVL48:
 459              	.L23:
 121:../generate/sc_drivers/r_ssif/src/lld/r_ssif_lld_cfg.c ****     }
 460              		.loc 1 121 13 view .LVU128
 461 0318 6000E0E3 		mvn	r0, #96
 462              	.LVL49:
 121:../generate/sc_drivers/r_ssif/src/lld/r_ssif_lld_cfg.c ****     }
 463              		.loc 1 121 13 view .LVU129
 464 031c 7080BDE8 		pop	{r4, r5, r6, pc}
 465              	.LVL50:
 466              	.L24:
 140:../generate/sc_drivers/r_ssif/src/lld/r_ssif_lld_cfg.c ****         }
 467              		.loc 1 140 17 view .LVU130
 468 0320 1B00E0E3 		mvn	r0, #27
 469              	.LVL51:
 140:../generate/sc_drivers/r_ssif/src/lld/r_ssif_lld_cfg.c ****         }
 470              		.loc 1 140 17 view .LVU131
 471 0324 7080BDE8 		pop	{r4, r5, r6, pc}
 472              	.LVL52:
 473              	.L25:
 140:../generate/sc_drivers/r_ssif/src/lld/r_ssif_lld_cfg.c ****         }
 474              		.loc 1 140 17 view .LVU132
 475 0328 1B00E0E3 		mvn	r0, #27
 476              	.LVL53:
 140:../generate/sc_drivers/r_ssif/src/lld/r_ssif_lld_cfg.c ****         }
 477              		.loc 1 140 17 view .LVU133
 478 032c 7080BDE8 		pop	{r4, r5, r6, pc}
 479              	.LVL54:
 480              	.L27:
 163:../generate/sc_drivers/r_ssif/src/lld/r_ssif_lld_cfg.c ****             }
 481              		.loc 1 163 21 view .LVU134
 482 0330 1B00E0E3 		mvn	r0, #27
 483 0334 7080BDE8 		pop	{r4, r5, r6, pc}
 484              	.LVL55:
 485              	.L28:
 173:../generate/sc_drivers/r_ssif/src/lld/r_ssif_lld_cfg.c ****                 }
 486              		.loc 1 173 25 view .LVU135
 487 0338 1B00E0E3 		mvn	r0, #27
 488 033c 7080BDE8 		pop	{r4, r5, r6, pc}
 489              	.LVL56:
 490              	.L29:
 179:../generate/sc_drivers/r_ssif/src/lld/r_ssif_lld_cfg.c ****                     {
 491              		.loc 1 179 21 view .LVU136
 492 0340 1B00E0E3 		mvn	r0, #27
 493              	.LVL57:
 179:../generate/sc_drivers/r_ssif/src/lld/r_ssif_lld_cfg.c ****                     {
 494              		.loc 1 179 21 view .LVU137
 495 0344 7080BDE8 		pop	{r4, r5, r6, pc}
 496              	.LVL58:
 497              	.L30:
 179:../generate/sc_drivers/r_ssif/src/lld/r_ssif_lld_cfg.c ****                     {
 498              		.loc 1 179 21 view .LVU138
 499 0348 1B00E0E3 		mvn	r0, #27
 500              	.LVL59:
 220:../generate/sc_drivers/r_ssif/src/lld/r_ssif_lld_cfg.c ****                     default:
 221:../generate/sc_drivers/r_ssif/src/lld/r_ssif_lld_cfg.c ****                         ret = IOIF_EINVAL;
 222:../generate/sc_drivers/r_ssif/src/lld/r_ssif_lld_cfg.c ****                         break;
 223:../generate/sc_drivers/r_ssif/src/lld/r_ssif_lld_cfg.c ****                     }
 224:../generate/sc_drivers/r_ssif/src/lld/r_ssif_lld_cfg.c ****                 }
 225:../generate/sc_drivers/r_ssif/src/lld/r_ssif_lld_cfg.c ****             }
 226:../generate/sc_drivers/r_ssif/src/lld/r_ssif_lld_cfg.c ****         }
 227:../generate/sc_drivers/r_ssif/src/lld/r_ssif_lld_cfg.c ****     }
 228:../generate/sc_drivers/r_ssif/src/lld/r_ssif_lld_cfg.c **** 
 229:../generate/sc_drivers/r_ssif/src/lld/r_ssif_lld_cfg.c ****     return ret;
 501              		.loc 1 229 5 is_stmt 1 view .LVU139
 230:../generate/sc_drivers/r_ssif/src/lld/r_ssif_lld_cfg.c **** }
 502              		.loc 1 230 1 is_stmt 0 view .LVU140
 503 034c 7080BDE8 		pop	{r4, r5, r6, pc}
 504              		.cfi_endproc
 505              	.LFE7:
 507              		.text
 508              	.Letext0:
 509              		.file 2 "c:\\program files (x86)\\gnu arm embedded toolchain\\9 2020-q2-update\\lib\\gcc\\arm-none
 510              		.file 3 "c:\\program files (x86)\\gnu arm embedded toolchain\\9 2020-q2-update\\arm-none-eabi\\inc
 511              		.file 4 "c:\\program files (x86)\\gnu arm embedded toolchain\\9 2020-q2-update\\arm-none-eabi\\inc
 512              		.file 5 "c:\\program files (x86)\\gnu arm embedded toolchain\\9 2020-q2-update\\arm-none-eabi\\inc
 513              		.file 6 "c:\\program files (x86)\\gnu arm embedded toolchain\\9 2020-q2-update\\arm-none-eabi\\inc
 514              		.file 7 "c:\\program files (x86)\\gnu arm embedded toolchain\\9 2020-q2-update\\arm-none-eabi\\inc
 515              		.file 8 "c:\\program files (x86)\\gnu arm embedded toolchain\\9 2020-q2-update\\arm-none-eabi\\inc
 516              		.file 9 "C:/Users/ryota/e2_studio/workspace/rza2m_ssif_sample_freertos_gcc/generate/system/inc/r_t
 517              		.file 10 "c:\\program files (x86)\\gnu arm embedded toolchain\\9 2020-q2-update\\arm-none-eabi\\in
 518              		.file 11 "c:\\program files (x86)\\gnu arm embedded toolchain\\9 2020-q2-update\\arm-none-eabi\\in
 519              		.file 12 "C:/Users/ryota/e2_studio/workspace/rza2m_ssif_sample_freertos_gcc/generate/system/inc/dr
 520              		.file 13 "C:/Users/ryota/e2_studio/workspace/rza2m_ssif_sample_freertos_gcc/generate/os_abstractio
 521              		.file 14 "C:/Users/ryota/e2_studio/workspace/rza2m_ssif_sample_freertos_gcc/generate/sc_drivers/r_
 522              		.file 15 "C:/Users/ryota/e2_studio/workspace/rza2m_ssif_sample_freertos_gcc/generate/sc_drivers/r_
 523              		.file 16 "C:/Users/ryota/e2_studio/workspace/rza2m_ssif_sample_freertos_gcc/generate/sc_drivers/r_
 524              		.file 17 "C:/Users/ryota/e2_studio/workspace/rza2m_ssif_sample_freertos_gcc/generate/compiler/inc/