   1              		.cpu cortex-a9
   2              		.eabi_attribute 28, 1
   3              		.eabi_attribute 20, 1
   4              		.eabi_attribute 21, 1
   5              		.eabi_attribute 23, 3
   6              		.eabi_attribute 24, 1
   7              		.eabi_attribute 25, 1
   8              		.eabi_attribute 26, 1
   9              		.eabi_attribute 30, 1
  10              		.eabi_attribute 34, 0
  11              		.eabi_attribute 18, 4
  12              		.file	"r_ssif_lld_aioif.c"
  13              		.text
  14              	.Ltext0:
  15              		.cfi_sections	.debug_frame
  16              		.section	.text.ahf_lock,"ax",%progbits
  17              		.align	2
  18              		.arch armv7-a
  19              		.arch_extension mp
  20              		.arch_extension sec
  21              		.syntax unified
  22              		.arm
  23              		.fpu neon
  25              	ahf_lock:
  26              	.LVL0:
  27              	.LFB6:
  28              		.file 1 "../generate/sc_drivers/r_ssif/src/lld/r_ssif_lld_aioif.c"
   1:../generate/sc_drivers/r_ssif/src/lld/r_ssif_lld_aioif.c **** /*******************************************************************************
   2:../generate/sc_drivers/r_ssif/src/lld/r_ssif_lld_aioif.c **** * DISCLAIMER
   3:../generate/sc_drivers/r_ssif/src/lld/r_ssif_lld_aioif.c **** * This software is supplied by Renesas Electronics Corporation and is only
   4:../generate/sc_drivers/r_ssif/src/lld/r_ssif_lld_aioif.c **** * intended for use with Renesas products. No other uses are authorized. This
   5:../generate/sc_drivers/r_ssif/src/lld/r_ssif_lld_aioif.c **** * software is owned by Renesas Electronics Corporation and is protected under
   6:../generate/sc_drivers/r_ssif/src/lld/r_ssif_lld_aioif.c **** * all applicable laws, including copyright laws.
   7:../generate/sc_drivers/r_ssif/src/lld/r_ssif_lld_aioif.c **** * THIS SOFTWARE IS PROVIDED "AS IS" AND RENESAS MAKES NO WARRANTIES REGARDING
   8:../generate/sc_drivers/r_ssif/src/lld/r_ssif_lld_aioif.c **** * THIS SOFTWARE, WHETHER EXPRESS, IMPLIED OR STATUTORY, INCLUDING BUT NOT
   9:../generate/sc_drivers/r_ssif/src/lld/r_ssif_lld_aioif.c **** * LIMITED TO WARRANTIES OF MERCHANTABILITY, FITNESS FOR A PARTICULAR PURPOSE
  10:../generate/sc_drivers/r_ssif/src/lld/r_ssif_lld_aioif.c **** * AND NON-INFRINGEMENT. ALL SUCH WARRANTIES ARE EXPRESSLY DISCLAIMED.
  11:../generate/sc_drivers/r_ssif/src/lld/r_ssif_lld_aioif.c **** * TO THE MAXIMUM EXTENT PERMITTED NOT PROHIBITED BY LAW, NEITHER RENESAS
  12:../generate/sc_drivers/r_ssif/src/lld/r_ssif_lld_aioif.c **** * ELECTRONICS CORPORATION NOR ANY OF ITS AFFILIATED COMPANIES SHALL BE LIABLE
  13:../generate/sc_drivers/r_ssif/src/lld/r_ssif_lld_aioif.c **** * FOR ANY DIRECT, INDIRECT, SPECIAL, INCIDENTAL OR CONSEQUENTIAL DAMAGES FOR
  14:../generate/sc_drivers/r_ssif/src/lld/r_ssif_lld_aioif.c **** * ANY REASON RELATED TO THIS SOFTWARE, EVEN IF RENESAS OR ITS AFFILIATES HAVE
  15:../generate/sc_drivers/r_ssif/src/lld/r_ssif_lld_aioif.c **** * BEEN ADVISED OF THE POSSIBILITY OF SUCH DAMAGES.
  16:../generate/sc_drivers/r_ssif/src/lld/r_ssif_lld_aioif.c **** * Renesas reserves the right, without notice, to make changes to this software
  17:../generate/sc_drivers/r_ssif/src/lld/r_ssif_lld_aioif.c **** * and to discontinue the availability of this software. By using this software,
  18:../generate/sc_drivers/r_ssif/src/lld/r_ssif_lld_aioif.c **** * you agree to the additional terms and conditions found by accessing the
  19:../generate/sc_drivers/r_ssif/src/lld/r_ssif_lld_aioif.c **** * following link:
  20:../generate/sc_drivers/r_ssif/src/lld/r_ssif_lld_aioif.c **** * http://www.renesas.com/disclaimer
  21:../generate/sc_drivers/r_ssif/src/lld/r_ssif_lld_aioif.c **** * Copyright (C) 2013-2017 Renesas Electronics Corporation. All rights reserved.
  22:../generate/sc_drivers/r_ssif/src/lld/r_ssif_lld_aioif.c **** *******************************************************************************/
  23:../generate/sc_drivers/r_ssif/src/lld/r_ssif_lld_aioif.c **** 
  24:../generate/sc_drivers/r_ssif/src/lld/r_ssif_lld_aioif.c **** /*******************************************************************************
  25:../generate/sc_drivers/r_ssif/src/lld/r_ssif_lld_aioif.c **** * File Name   : r_ssif_lld_aioif.c
  26:../generate/sc_drivers/r_ssif/src/lld/r_ssif_lld_aioif.c **** * $Rev: 6174 $
  27:../generate/sc_drivers/r_ssif/src/lld/r_ssif_lld_aioif.c **** * $Date:: 2018-01-15 14:12:23 +0000#$
  28:../generate/sc_drivers/r_ssif/src/lld/r_ssif_lld_aioif.c **** * Description : SSIF driver functions
  29:../generate/sc_drivers/r_ssif/src/lld/r_ssif_lld_aioif.c **** ******************************************************************************/
  30:../generate/sc_drivers/r_ssif/src/lld/r_ssif_lld_aioif.c **** 
  31:../generate/sc_drivers/r_ssif/src/lld/r_ssif_lld_aioif.c **** /*************************************************************************
  32:../generate/sc_drivers/r_ssif/src/lld/r_ssif_lld_aioif.c ****  System Includes
  33:../generate/sc_drivers/r_ssif/src/lld/r_ssif_lld_aioif.c **** *************************************************************************/
  34:../generate/sc_drivers/r_ssif/src/lld/r_ssif_lld_aioif.c **** 
  35:../generate/sc_drivers/r_ssif/src/lld/r_ssif_lld_aioif.c **** #include "r_ssif_lld_aioif.h"
  36:../generate/sc_drivers/r_ssif/src/lld/r_ssif_lld_aioif.c **** #include "r_rza2_ssif_lld.h"
  37:../generate/sc_drivers/r_ssif/src/lld/r_ssif_lld_aioif.c **** #include "r_ssif_hld_cfg.h"
  38:../generate/sc_drivers/r_ssif/src/lld/r_ssif_lld_aioif.c **** 
  39:../generate/sc_drivers/r_ssif/src/lld/r_ssif_lld_aioif.c **** /*************************************************************************
  40:../generate/sc_drivers/r_ssif/src/lld/r_ssif_lld_aioif.c ****  OS Resources
  41:../generate/sc_drivers/r_ssif/src/lld/r_ssif_lld_aioif.c **** *************************************************************************/
  42:../generate/sc_drivers/r_ssif/src/lld/r_ssif_lld_aioif.c **** 
  43:../generate/sc_drivers/r_ssif/src/lld/r_ssif_lld_aioif.c **** 
  44:../generate/sc_drivers/r_ssif/src/lld/r_ssif_lld_aioif.c **** /*************************************************************************
  45:../generate/sc_drivers/r_ssif/src/lld/r_ssif_lld_aioif.c ****  Functions
  46:../generate/sc_drivers/r_ssif/src/lld/r_ssif_lld_aioif.c **** *************************************************************************/
  47:../generate/sc_drivers/r_ssif/src/lld/r_ssif_lld_aioif.c **** static void ahf_lock(AHF_S * const ahf);
  48:../generate/sc_drivers/r_ssif/src/lld/r_ssif_lld_aioif.c **** static void ahf_unlock(AHF_S * const ahf);
  49:../generate/sc_drivers/r_ssif/src/lld/r_ssif_lld_aioif.c **** 
  50:../generate/sc_drivers/r_ssif/src/lld/r_ssif_lld_aioif.c **** static void ahf_lock(AHF_S * const ahf)
  51:../generate/sc_drivers/r_ssif/src/lld/r_ssif_lld_aioif.c **** {
  29              		.loc 1 51 1 view -0
  30              		.cfi_startproc
  31              		@ args = 0, pretend = 0, frame = 0
  32              		@ frame_needed = 0, uses_anonymous_args = 0
  33              		.loc 1 51 1 is_stmt 0 view .LVU1
  34 0000 10402DE9 		push	{r4, lr}
  35              		.cfi_def_cfa_offset 8
  36              		.cfi_offset 4, -8
  37              		.cfi_offset 14, -4
  38 0004 0040A0E1 		mov	r4, r0
  52:../generate/sc_drivers/r_ssif/src/lld/r_ssif_lld_aioif.c ****     if(ahf->flags & AHF_LOCKSEM)
  39              		.loc 1 52 5 is_stmt 1 view .LVU2
  40              		.loc 1 52 11 is_stmt 0 view .LVU3
  41 0008 083090E5 		ldr	r3, [r0, #8]
  42              		.loc 1 52 7 view .LVU4
  43 000c 020013E3 		tst	r3, #2
  44 0010 0400001A 		bne	.L5
  53:../generate/sc_drivers/r_ssif/src/lld/r_ssif_lld_aioif.c ****     {
  54:../generate/sc_drivers/r_ssif/src/lld/r_ssif_lld_aioif.c ****         R_OS_MutexWait(&ahf->semid, R_OS_ABSTRACTION_EV_WAIT_INFINITE);
  55:../generate/sc_drivers/r_ssif/src/lld/r_ssif_lld_aioif.c ****     }
  56:../generate/sc_drivers/r_ssif/src/lld/r_ssif_lld_aioif.c ****     else if (ahf->flags & AHF_LOCKINT)
  45              		.loc 1 56 10 is_stmt 1 view .LVU5
  46              		.loc 1 56 13 is_stmt 0 view .LVU6
  47 0014 040013E3 		tst	r3, #4
  48 0018 1080BD08 		popeq	{r4, pc}
  57:../generate/sc_drivers/r_ssif/src/lld/r_ssif_lld_aioif.c ****     {
  58:../generate/sc_drivers/r_ssif/src/lld/r_ssif_lld_aioif.c **** #if defined (__ICCARM__)
  59:../generate/sc_drivers/r_ssif/src/lld/r_ssif_lld_aioif.c ****         ahf->saved_int_mask = __disable_irq_iar();
  60:../generate/sc_drivers/r_ssif/src/lld/r_ssif_lld_aioif.c **** #else
  61:../generate/sc_drivers/r_ssif/src/lld/r_ssif_lld_aioif.c ****         ahf->saved_int_mask = __disable_irq();
  49              		.loc 1 61 9 is_stmt 1 view .LVU7
  50              		.loc 1 61 31 is_stmt 0 view .LVU8
  51 001c FEFFFFEB 		bl	__disable_irq
  52              	.LVL1:
  53              		.loc 1 61 29 view .LVU9
  54 0020 140084E5 		str	r0, [r4, #20]
  62:../generate/sc_drivers/r_ssif/src/lld/r_ssif_lld_aioif.c **** #endif
  63:../generate/sc_drivers/r_ssif/src/lld/r_ssif_lld_aioif.c ****     }
  64:../generate/sc_drivers/r_ssif/src/lld/r_ssif_lld_aioif.c ****     else
  65:../generate/sc_drivers/r_ssif/src/lld/r_ssif_lld_aioif.c ****     {
  66:../generate/sc_drivers/r_ssif/src/lld/r_ssif_lld_aioif.c ****         ;   /* MISRA compliance. */
  55              		.loc 1 66 9 is_stmt 1 view .LVU10
  67:../generate/sc_drivers/r_ssif/src/lld/r_ssif_lld_aioif.c ****     }
  68:../generate/sc_drivers/r_ssif/src/lld/r_ssif_lld_aioif.c **** }
  56              		.loc 1 68 1 is_stmt 0 view .LVU11
  57 0024 1080BDE8 		pop	{r4, pc}
  58              	.LVL2:
  59              	.L5:
  54:../generate/sc_drivers/r_ssif/src/lld/r_ssif_lld_aioif.c ****     }
  60              		.loc 1 54 9 is_stmt 1 view .LVU12
  61 0028 0010E0E3 		mvn	r1, #0
  62 002c 0C0080E2 		add	r0, r0, #12
  63              	.LVL3:
  54:../generate/sc_drivers/r_ssif/src/lld/r_ssif_lld_aioif.c ****     }
  64              		.loc 1 54 9 is_stmt 0 view .LVU13
  65 0030 FEFFFFEB 		bl	R_OS_MutexWait
  66              	.LVL4:
  67 0034 1080BDE8 		pop	{r4, pc}
  68              		.cfi_endproc
  69              	.LFE6:
  71              		.section	.text.ahf_unlock,"ax",%progbits
  72              		.align	2
  73              		.syntax unified
  74              		.arm
  75              		.fpu neon
  77              	ahf_unlock:
  78              	.LVL5:
  79              	.LFB7:
  69:../generate/sc_drivers/r_ssif/src/lld/r_ssif_lld_aioif.c **** 
  70:../generate/sc_drivers/r_ssif/src/lld/r_ssif_lld_aioif.c **** static void ahf_unlock(AHF_S * const ahf)
  71:../generate/sc_drivers/r_ssif/src/lld/r_ssif_lld_aioif.c **** {
  80              		.loc 1 71 1 is_stmt 1 view -0
  81              		.cfi_startproc
  82              		@ args = 0, pretend = 0, frame = 0
  83              		@ frame_needed = 0, uses_anonymous_args = 0
  84              		.loc 1 71 1 is_stmt 0 view .LVU15
  85 0000 10402DE9 		push	{r4, lr}
  86              		.cfi_def_cfa_offset 8
  87              		.cfi_offset 4, -8
  88              		.cfi_offset 14, -4
  72:../generate/sc_drivers/r_ssif/src/lld/r_ssif_lld_aioif.c ****     if(ahf->flags & AHF_LOCKSEM)
  89              		.loc 1 72 5 is_stmt 1 view .LVU16
  90              		.loc 1 72 11 is_stmt 0 view .LVU17
  91 0004 083090E5 		ldr	r3, [r0, #8]
  92              		.loc 1 72 7 view .LVU18
  93 0008 020013E3 		tst	r3, #2
  94 000c 0600001A 		bne	.L10
  73:../generate/sc_drivers/r_ssif/src/lld/r_ssif_lld_aioif.c ****     {
  74:../generate/sc_drivers/r_ssif/src/lld/r_ssif_lld_aioif.c ****         R_OS_MutexRelease(ahf->semid);
  75:../generate/sc_drivers/r_ssif/src/lld/r_ssif_lld_aioif.c ****     }
  76:../generate/sc_drivers/r_ssif/src/lld/r_ssif_lld_aioif.c ****     else if (ahf->flags & AHF_LOCKINT)
  95              		.loc 1 76 10 is_stmt 1 view .LVU19
  96              		.loc 1 76 13 is_stmt 0 view .LVU20
  97 0010 040013E3 		tst	r3, #4
  98 0014 1080BD08 		popeq	{r4, pc}
  77:../generate/sc_drivers/r_ssif/src/lld/r_ssif_lld_aioif.c ****     {
  78:../generate/sc_drivers/r_ssif/src/lld/r_ssif_lld_aioif.c ****         if (0 == ahf->saved_int_mask)
  99              		.loc 1 78 9 is_stmt 1 view .LVU21
 100              		.loc 1 78 21 is_stmt 0 view .LVU22
 101 0018 143090E5 		ldr	r3, [r0, #20]
 102              		.loc 1 78 12 view .LVU23
 103 001c 000053E3 		cmp	r3, #0
 104 0020 1080BD18 		popne	{r4, pc}
  79:../generate/sc_drivers/r_ssif/src/lld/r_ssif_lld_aioif.c ****         {
  80:../generate/sc_drivers/r_ssif/src/lld/r_ssif_lld_aioif.c ****             __enable_irq();
 105              		.loc 1 80 13 is_stmt 1 view .LVU24
 106 0024 FEFFFFEB 		bl	__enable_irq
 107              	.LVL6:
  81:../generate/sc_drivers/r_ssif/src/lld/r_ssif_lld_aioif.c ****         }
  82:../generate/sc_drivers/r_ssif/src/lld/r_ssif_lld_aioif.c ****     }
  83:../generate/sc_drivers/r_ssif/src/lld/r_ssif_lld_aioif.c ****     else
  84:../generate/sc_drivers/r_ssif/src/lld/r_ssif_lld_aioif.c ****     {
  85:../generate/sc_drivers/r_ssif/src/lld/r_ssif_lld_aioif.c ****         ;   /* MISRA compliance. */
 108              		.loc 1 85 9 view .LVU25
  86:../generate/sc_drivers/r_ssif/src/lld/r_ssif_lld_aioif.c ****     }
  87:../generate/sc_drivers/r_ssif/src/lld/r_ssif_lld_aioif.c **** }
 109              		.loc 1 87 1 is_stmt 0 view .LVU26
 110 0028 1080BDE8 		pop	{r4, pc}
 111              	.LVL7:
 112              	.L10:
  74:../generate/sc_drivers/r_ssif/src/lld/r_ssif_lld_aioif.c ****     }
 113              		.loc 1 74 9 is_stmt 1 view .LVU27
 114 002c 0C0090E5 		ldr	r0, [r0, #12]
 115              	.LVL8:
  74:../generate/sc_drivers/r_ssif/src/lld/r_ssif_lld_aioif.c ****     }
 116              		.loc 1 74 9 is_stmt 0 view .LVU28
 117 0030 FEFFFFEB 		bl	R_OS_MutexRelease
 118              	.LVL9:
 119 0034 1080BDE8 		pop	{r4, pc}
 120              		.cfi_endproc
 121              	.LFE7:
 123              		.section	.text.ahf_create,"ax",%progbits
 124              		.align	2
 125              		.global	ahf_create
 126              		.syntax unified
 127              		.arm
 128              		.fpu neon
 130              	ahf_create:
 131              	.LVL10:
 132              	.LFB8:
  88:../generate/sc_drivers/r_ssif/src/lld/r_ssif_lld_aioif.c **** 
  89:../generate/sc_drivers/r_ssif/src/lld/r_ssif_lld_aioif.c **** /***********************************************************************************
  90:../generate/sc_drivers/r_ssif/src/lld/r_ssif_lld_aioif.c **** Function Name:         ahf_create
  91:../generate/sc_drivers/r_ssif/src/lld/r_ssif_lld_aioif.c **** 
  92:../generate/sc_drivers/r_ssif/src/lld/r_ssif_lld_aioif.c **** Description:    Creates an empty aio control queue pointer.
  93:../generate/sc_drivers/r_ssif/src/lld/r_ssif_lld_aioif.c ****                 Creates a mutex if AHF_CREATESEM bit flag is set.
  94:../generate/sc_drivers/r_ssif/src/lld/r_ssif_lld_aioif.c **** 
  95:../generate/sc_drivers/r_ssif/src/lld/r_ssif_lld_aioif.c **** Parameters:     ahf  - aio queue structure pointer.
  96:../generate/sc_drivers/r_ssif/src/lld/r_ssif_lld_aioif.c ****                 f    - flag indicating that at semaphore is to be created.
  97:../generate/sc_drivers/r_ssif/src/lld/r_ssif_lld_aioif.c **** 
  98:../generate/sc_drivers/r_ssif/src/lld/r_ssif_lld_aioif.c **** Return value:   0 on success.   negative error code on error.
  99:../generate/sc_drivers/r_ssif/src/lld/r_ssif_lld_aioif.c **** ***********************************************************************************/
 100:../generate/sc_drivers/r_ssif/src/lld/r_ssif_lld_aioif.c **** int32_t ahf_create (AHF_S * const ahf, const uint32_t f)
 101:../generate/sc_drivers/r_ssif/src/lld/r_ssif_lld_aioif.c **** {
 133              		.loc 1 101 1 is_stmt 1 view -0
 134              		.cfi_startproc
 135              		@ args = 0, pretend = 0, frame = 0
 136              		@ frame_needed = 0, uses_anonymous_args = 0
 137              		.loc 1 101 1 is_stmt 0 view .LVU30
 138 0000 F0412DE9 		push	{r4, r5, r6, r7, r8, lr}
 139              		.cfi_def_cfa_offset 24
 140              		.cfi_offset 4, -24
 141              		.cfi_offset 5, -20
 142              		.cfi_offset 6, -16
 143              		.cfi_offset 7, -12
 144              		.cfi_offset 8, -8
 145              		.cfi_offset 14, -4
 102:../generate/sc_drivers/r_ssif/src/lld/r_ssif_lld_aioif.c ****     osMutexDef_t* p_mutex_def;
 146              		.loc 1 102 5 is_stmt 1 view .LVU31
 103:../generate/sc_drivers/r_ssif/src/lld/r_ssif_lld_aioif.c ****     uint32_t*     p_mutex_data;
 147              		.loc 1 103 5 view .LVU32
 104:../generate/sc_drivers/r_ssif/src/lld/r_ssif_lld_aioif.c **** #if defined (__GNUC__)
 105:../generate/sc_drivers/r_ssif/src/lld/r_ssif_lld_aioif.c ****     uint32_t was_masked;
 148              		.loc 1 105 5 view .LVU33
 106:../generate/sc_drivers/r_ssif/src/lld/r_ssif_lld_aioif.c **** #endif/*__GNUC__*/
 107:../generate/sc_drivers/r_ssif/src/lld/r_ssif_lld_aioif.c **** 
 108:../generate/sc_drivers/r_ssif/src/lld/r_ssif_lld_aioif.c ****     if (ahf == NULL)
 149              		.loc 1 108 5 view .LVU34
 150              		.loc 1 108 8 is_stmt 0 view .LVU35
 151 0004 004050E2 		subs	r4, r0, #0
 152 0008 3D00000A 		beq	.L18
 109:../generate/sc_drivers/r_ssif/src/lld/r_ssif_lld_aioif.c ****     {
 110:../generate/sc_drivers/r_ssif/src/lld/r_ssif_lld_aioif.c ****         return IOIF_EFAULT;
 111:../generate/sc_drivers/r_ssif/src/lld/r_ssif_lld_aioif.c ****     }
 112:../generate/sc_drivers/r_ssif/src/lld/r_ssif_lld_aioif.c **** 
 113:../generate/sc_drivers/r_ssif/src/lld/r_ssif_lld_aioif.c ****     ahf->head = NULL;
 153              		.loc 1 113 5 is_stmt 1 view .LVU36
 154              		.loc 1 113 15 is_stmt 0 view .LVU37
 155 000c 0030A0E3 		mov	r3, #0
 156 0010 003084E5 		str	r3, [r4]
 114:../generate/sc_drivers/r_ssif/src/lld/r_ssif_lld_aioif.c ****     ahf->tail = NULL;
 157              		.loc 1 114 5 is_stmt 1 view .LVU38
 158              		.loc 1 114 15 is_stmt 0 view .LVU39
 159 0014 043084E5 		str	r3, [r4, #4]
 115:../generate/sc_drivers/r_ssif/src/lld/r_ssif_lld_aioif.c ****     ahf->flags = f;
 160              		.loc 1 115 5 is_stmt 1 view .LVU40
 161              		.loc 1 115 16 is_stmt 0 view .LVU41
 162 0018 081084E5 		str	r1, [r4, #8]
 116:../generate/sc_drivers/r_ssif/src/lld/r_ssif_lld_aioif.c **** 
 117:../generate/sc_drivers/r_ssif/src/lld/r_ssif_lld_aioif.c ****     /* create the mutex if required */
 118:../generate/sc_drivers/r_ssif/src/lld/r_ssif_lld_aioif.c ****     if (f & AHF_CREATESEM)
 163              		.loc 1 118 5 is_stmt 1 view .LVU42
 164              		.loc 1 118 8 is_stmt 0 view .LVU43
 165 001c 010011E3 		tst	r1, #1
 166 0020 0100001A 		bne	.L23
 119:../generate/sc_drivers/r_ssif/src/lld/r_ssif_lld_aioif.c ****     {
 120:../generate/sc_drivers/r_ssif/src/lld/r_ssif_lld_aioif.c **** #if defined (__GNUC__)
 121:../generate/sc_drivers/r_ssif/src/lld/r_ssif_lld_aioif.c ****         /* disable all irq */
 122:../generate/sc_drivers/r_ssif/src/lld/r_ssif_lld_aioif.c ****         was_masked = __disable_irq();
 123:../generate/sc_drivers/r_ssif/src/lld/r_ssif_lld_aioif.c **** #endif/*__GNUC__*/
 124:../generate/sc_drivers/r_ssif/src/lld/r_ssif_lld_aioif.c ****         p_mutex_def = calloc(1, sizeof(osMutexDef_t));
 125:../generate/sc_drivers/r_ssif/src/lld/r_ssif_lld_aioif.c **** #if defined (__GNUC__)
 126:../generate/sc_drivers/r_ssif/src/lld/r_ssif_lld_aioif.c ****         if (0 == was_masked)
 127:../generate/sc_drivers/r_ssif/src/lld/r_ssif_lld_aioif.c ****         {
 128:../generate/sc_drivers/r_ssif/src/lld/r_ssif_lld_aioif.c ****             /* enable all irq */
 129:../generate/sc_drivers/r_ssif/src/lld/r_ssif_lld_aioif.c ****             __enable_irq();
 130:../generate/sc_drivers/r_ssif/src/lld/r_ssif_lld_aioif.c ****         }
 131:../generate/sc_drivers/r_ssif/src/lld/r_ssif_lld_aioif.c **** #endif/*__GNUC__*/
 132:../generate/sc_drivers/r_ssif/src/lld/r_ssif_lld_aioif.c ****         if ( NULL == p_mutex_def )
 133:../generate/sc_drivers/r_ssif/src/lld/r_ssif_lld_aioif.c ****         {
 134:../generate/sc_drivers/r_ssif/src/lld/r_ssif_lld_aioif.c ****             return IOIF_ENOMEM;
 135:../generate/sc_drivers/r_ssif/src/lld/r_ssif_lld_aioif.c ****         }
 136:../generate/sc_drivers/r_ssif/src/lld/r_ssif_lld_aioif.c **** #if defined (__GNUC__)
 137:../generate/sc_drivers/r_ssif/src/lld/r_ssif_lld_aioif.c ****         /* disable all irq */
 138:../generate/sc_drivers/r_ssif/src/lld/r_ssif_lld_aioif.c ****         was_masked = __disable_irq();
 139:../generate/sc_drivers/r_ssif/src/lld/r_ssif_lld_aioif.c **** #endif/*__GNUC__*/
 140:../generate/sc_drivers/r_ssif/src/lld/r_ssif_lld_aioif.c ****         p_mutex_data = calloc(3, sizeof(uint32_t));
 141:../generate/sc_drivers/r_ssif/src/lld/r_ssif_lld_aioif.c **** #if defined (__GNUC__)
 142:../generate/sc_drivers/r_ssif/src/lld/r_ssif_lld_aioif.c ****         if (0 == was_masked)
 143:../generate/sc_drivers/r_ssif/src/lld/r_ssif_lld_aioif.c ****         {
 144:../generate/sc_drivers/r_ssif/src/lld/r_ssif_lld_aioif.c ****             /* enable all irq */
 145:../generate/sc_drivers/r_ssif/src/lld/r_ssif_lld_aioif.c ****             __enable_irq();
 146:../generate/sc_drivers/r_ssif/src/lld/r_ssif_lld_aioif.c ****         }
 147:../generate/sc_drivers/r_ssif/src/lld/r_ssif_lld_aioif.c **** #endif/*__GNUC__*/
 148:../generate/sc_drivers/r_ssif/src/lld/r_ssif_lld_aioif.c ****         if ( NULL == p_mutex_data )
 149:../generate/sc_drivers/r_ssif/src/lld/r_ssif_lld_aioif.c ****         {
 150:../generate/sc_drivers/r_ssif/src/lld/r_ssif_lld_aioif.c **** #if defined (__GNUC__)
 151:../generate/sc_drivers/r_ssif/src/lld/r_ssif_lld_aioif.c ****             /* disable all irq */
 152:../generate/sc_drivers/r_ssif/src/lld/r_ssif_lld_aioif.c ****             was_masked = __disable_irq();
 153:../generate/sc_drivers/r_ssif/src/lld/r_ssif_lld_aioif.c **** #endif/*__GNUC__*/
 154:../generate/sc_drivers/r_ssif/src/lld/r_ssif_lld_aioif.c ****             free(p_mutex_def);
 155:../generate/sc_drivers/r_ssif/src/lld/r_ssif_lld_aioif.c **** #if defined (__GNUC__)
 156:../generate/sc_drivers/r_ssif/src/lld/r_ssif_lld_aioif.c ****             if (0 == was_masked)
 157:../generate/sc_drivers/r_ssif/src/lld/r_ssif_lld_aioif.c ****             {
 158:../generate/sc_drivers/r_ssif/src/lld/r_ssif_lld_aioif.c ****                 /* enable all irq */
 159:../generate/sc_drivers/r_ssif/src/lld/r_ssif_lld_aioif.c ****                 __enable_irq();
 160:../generate/sc_drivers/r_ssif/src/lld/r_ssif_lld_aioif.c ****             }
 161:../generate/sc_drivers/r_ssif/src/lld/r_ssif_lld_aioif.c **** #endif/*__GNUC__*/
 162:../generate/sc_drivers/r_ssif/src/lld/r_ssif_lld_aioif.c ****             return IOIF_ENOMEM;
 163:../generate/sc_drivers/r_ssif/src/lld/r_ssif_lld_aioif.c ****         }
 164:../generate/sc_drivers/r_ssif/src/lld/r_ssif_lld_aioif.c ****         p_mutex_def->mutex = p_mutex_data;
 165:../generate/sc_drivers/r_ssif/src/lld/r_ssif_lld_aioif.c ****         ahf->p_cmtx = p_mutex_def;
 166:../generate/sc_drivers/r_ssif/src/lld/r_ssif_lld_aioif.c ****         ahf->semid = R_OS_MutexCreate();
 167:../generate/sc_drivers/r_ssif/src/lld/r_ssif_lld_aioif.c ****         if ( NULL == ahf->semid )
 168:../generate/sc_drivers/r_ssif/src/lld/r_ssif_lld_aioif.c ****         {
 169:../generate/sc_drivers/r_ssif/src/lld/r_ssif_lld_aioif.c **** #if defined (__GNUC__)
 170:../generate/sc_drivers/r_ssif/src/lld/r_ssif_lld_aioif.c ****             /* disable all irq */
 171:../generate/sc_drivers/r_ssif/src/lld/r_ssif_lld_aioif.c ****             was_masked = __disable_irq();
 172:../generate/sc_drivers/r_ssif/src/lld/r_ssif_lld_aioif.c **** #endif/*__GNUC__*/
 173:../generate/sc_drivers/r_ssif/src/lld/r_ssif_lld_aioif.c ****             free(p_mutex_data);
 174:../generate/sc_drivers/r_ssif/src/lld/r_ssif_lld_aioif.c ****             free(p_mutex_def);
 175:../generate/sc_drivers/r_ssif/src/lld/r_ssif_lld_aioif.c **** #if defined (__GNUC__)
 176:../generate/sc_drivers/r_ssif/src/lld/r_ssif_lld_aioif.c ****             if (0 == was_masked)
 177:../generate/sc_drivers/r_ssif/src/lld/r_ssif_lld_aioif.c ****             {
 178:../generate/sc_drivers/r_ssif/src/lld/r_ssif_lld_aioif.c ****                 /* enable all irq */
 179:../generate/sc_drivers/r_ssif/src/lld/r_ssif_lld_aioif.c ****                 __enable_irq();
 180:../generate/sc_drivers/r_ssif/src/lld/r_ssif_lld_aioif.c ****             }
 181:../generate/sc_drivers/r_ssif/src/lld/r_ssif_lld_aioif.c **** #endif/*__GNUC__*/
 182:../generate/sc_drivers/r_ssif/src/lld/r_ssif_lld_aioif.c ****             return IOIF_ENOMEM;
 183:../generate/sc_drivers/r_ssif/src/lld/r_ssif_lld_aioif.c ****         }
 184:../generate/sc_drivers/r_ssif/src/lld/r_ssif_lld_aioif.c ****     }
 185:../generate/sc_drivers/r_ssif/src/lld/r_ssif_lld_aioif.c ****     return 0;
 167              		.loc 1 185 12 view .LVU44
 168 0024 0000A0E3 		mov	r0, #0
 169              	.LVL11:
 170              		.loc 1 185 12 view .LVU45
 171 0028 F081BDE8 		pop	{r4, r5, r6, r7, r8, pc}
 172              	.LVL12:
 173              	.L23:
 122:../generate/sc_drivers/r_ssif/src/lld/r_ssif_lld_aioif.c **** #endif/*__GNUC__*/
 174              		.loc 1 122 9 is_stmt 1 view .LVU46
 122:../generate/sc_drivers/r_ssif/src/lld/r_ssif_lld_aioif.c **** #endif/*__GNUC__*/
 175              		.loc 1 122 22 is_stmt 0 view .LVU47
 176 002c FEFFFFEB 		bl	__disable_irq
 177              	.LVL13:
 122:../generate/sc_drivers/r_ssif/src/lld/r_ssif_lld_aioif.c **** #endif/*__GNUC__*/
 178              		.loc 1 122 22 view .LVU48
 179 0030 0060A0E1 		mov	r6, r0
 180              	.LVL14:
 124:../generate/sc_drivers/r_ssif/src/lld/r_ssif_lld_aioif.c **** #if defined (__GNUC__)
 181              		.loc 1 124 9 is_stmt 1 view .LVU49
 124:../generate/sc_drivers/r_ssif/src/lld/r_ssif_lld_aioif.c **** #if defined (__GNUC__)
 182              		.loc 1 124 23 is_stmt 0 view .LVU50
 183 0034 0410A0E3 		mov	r1, #4
 184 0038 0100A0E3 		mov	r0, #1
 185              	.LVL15:
 124:../generate/sc_drivers/r_ssif/src/lld/r_ssif_lld_aioif.c **** #if defined (__GNUC__)
 186              		.loc 1 124 23 view .LVU51
 187 003c FEFFFFEB 		bl	calloc
 188              	.LVL16:
 189 0040 0050A0E1 		mov	r5, r0
 190              	.LVL17:
 126:../generate/sc_drivers/r_ssif/src/lld/r_ssif_lld_aioif.c ****         {
 191              		.loc 1 126 9 is_stmt 1 view .LVU52
 126:../generate/sc_drivers/r_ssif/src/lld/r_ssif_lld_aioif.c ****         {
 192              		.loc 1 126 12 is_stmt 0 view .LVU53
 193 0044 000056E3 		cmp	r6, #0
 194 0048 1300000A 		beq	.L24
 195              	.LVL18:
 196              	.L13:
 132:../generate/sc_drivers/r_ssif/src/lld/r_ssif_lld_aioif.c ****         {
 197              		.loc 1 132 9 is_stmt 1 view .LVU54
 132:../generate/sc_drivers/r_ssif/src/lld/r_ssif_lld_aioif.c ****         {
 198              		.loc 1 132 12 is_stmt 0 view .LVU55
 199 004c 000055E3 		cmp	r5, #0
 200 0050 2D00000A 		beq	.L20
 138:../generate/sc_drivers/r_ssif/src/lld/r_ssif_lld_aioif.c **** #endif/*__GNUC__*/
 201              		.loc 1 138 9 is_stmt 1 view .LVU56
 138:../generate/sc_drivers/r_ssif/src/lld/r_ssif_lld_aioif.c **** #endif/*__GNUC__*/
 202              		.loc 1 138 22 is_stmt 0 view .LVU57
 203 0054 FEFFFFEB 		bl	__disable_irq
 204              	.LVL19:
 205 0058 0070A0E1 		mov	r7, r0
 206              	.LVL20:
 140:../generate/sc_drivers/r_ssif/src/lld/r_ssif_lld_aioif.c **** #if defined (__GNUC__)
 207              		.loc 1 140 9 is_stmt 1 view .LVU58
 140:../generate/sc_drivers/r_ssif/src/lld/r_ssif_lld_aioif.c **** #if defined (__GNUC__)
 208              		.loc 1 140 24 is_stmt 0 view .LVU59
 209 005c 0410A0E3 		mov	r1, #4
 210 0060 0300A0E3 		mov	r0, #3
 211              	.LVL21:
 140:../generate/sc_drivers/r_ssif/src/lld/r_ssif_lld_aioif.c **** #if defined (__GNUC__)
 212              		.loc 1 140 24 view .LVU60
 213 0064 FEFFFFEB 		bl	calloc
 214              	.LVL22:
 215 0068 0060A0E1 		mov	r6, r0
 216              	.LVL23:
 142:../generate/sc_drivers/r_ssif/src/lld/r_ssif_lld_aioif.c ****         {
 217              		.loc 1 142 9 is_stmt 1 view .LVU61
 142:../generate/sc_drivers/r_ssif/src/lld/r_ssif_lld_aioif.c ****         {
 218              		.loc 1 142 12 is_stmt 0 view .LVU62
 219 006c 000057E3 		cmp	r7, #0
 220 0070 0B00000A 		beq	.L25
 221              	.LVL24:
 222              	.L14:
 148:../generate/sc_drivers/r_ssif/src/lld/r_ssif_lld_aioif.c ****         {
 223              		.loc 1 148 9 is_stmt 1 view .LVU63
 148:../generate/sc_drivers/r_ssif/src/lld/r_ssif_lld_aioif.c ****         {
 224              		.loc 1 148 12 is_stmt 0 view .LVU64
 225 0074 000056E3 		cmp	r6, #0
 226 0078 0B00000A 		beq	.L26
 164:../generate/sc_drivers/r_ssif/src/lld/r_ssif_lld_aioif.c ****         ahf->p_cmtx = p_mutex_def;
 227              		.loc 1 164 9 is_stmt 1 view .LVU65
 164:../generate/sc_drivers/r_ssif/src/lld/r_ssif_lld_aioif.c ****         ahf->p_cmtx = p_mutex_def;
 228              		.loc 1 164 28 is_stmt 0 view .LVU66
 229 007c 006085E5 		str	r6, [r5]
 165:../generate/sc_drivers/r_ssif/src/lld/r_ssif_lld_aioif.c ****         ahf->semid = R_OS_MutexCreate();
 230              		.loc 1 165 9 is_stmt 1 view .LVU67
 165:../generate/sc_drivers/r_ssif/src/lld/r_ssif_lld_aioif.c ****         ahf->semid = R_OS_MutexCreate();
 231              		.loc 1 165 21 is_stmt 0 view .LVU68
 232 0080 105084E5 		str	r5, [r4, #16]
 166:../generate/sc_drivers/r_ssif/src/lld/r_ssif_lld_aioif.c ****         if ( NULL == ahf->semid )
 233              		.loc 1 166 9 is_stmt 1 view .LVU69
 166:../generate/sc_drivers/r_ssif/src/lld/r_ssif_lld_aioif.c ****         if ( NULL == ahf->semid )
 234              		.loc 1 166 22 is_stmt 0 view .LVU70
 235 0084 FEFFFFEB 		bl	R_OS_MutexCreate
 236              	.LVL25:
 166:../generate/sc_drivers/r_ssif/src/lld/r_ssif_lld_aioif.c ****         if ( NULL == ahf->semid )
 237              		.loc 1 166 20 view .LVU71
 238 0088 0C0084E5 		str	r0, [r4, #12]
 167:../generate/sc_drivers/r_ssif/src/lld/r_ssif_lld_aioif.c ****         {
 239              		.loc 1 167 9 is_stmt 1 view .LVU72
 167:../generate/sc_drivers/r_ssif/src/lld/r_ssif_lld_aioif.c ****         {
 240              		.loc 1 167 12 is_stmt 0 view .LVU73
 241 008c 000050E3 		cmp	r0, #0
 242 0090 0F00000A 		beq	.L27
 243              		.loc 1 185 12 view .LVU74
 244 0094 0000A0E3 		mov	r0, #0
 186:../generate/sc_drivers/r_ssif/src/lld/r_ssif_lld_aioif.c **** }
 245              		.loc 1 186 1 view .LVU75
 246 0098 F081BDE8 		pop	{r4, r5, r6, r7, r8, pc}
 247              	.LVL26:
 248              	.L24:
 129:../generate/sc_drivers/r_ssif/src/lld/r_ssif_lld_aioif.c ****         }
 249              		.loc 1 129 13 is_stmt 1 view .LVU76
 250 009c FEFFFFEB 		bl	__enable_irq
 251              	.LVL27:
 129:../generate/sc_drivers/r_ssif/src/lld/r_ssif_lld_aioif.c ****         }
 252              		.loc 1 129 13 is_stmt 0 view .LVU77
 253 00a0 E9FFFFEA 		b	.L13
 254              	.LVL28:
 255              	.L25:
 145:../generate/sc_drivers/r_ssif/src/lld/r_ssif_lld_aioif.c ****         }
 256              		.loc 1 145 13 is_stmt 1 view .LVU78
 257 00a4 FEFFFFEB 		bl	__enable_irq
 258              	.LVL29:
 145:../generate/sc_drivers/r_ssif/src/lld/r_ssif_lld_aioif.c ****         }
 259              		.loc 1 145 13 is_stmt 0 view .LVU79
 260 00a8 F1FFFFEA 		b	.L14
 261              	.L26:
 152:../generate/sc_drivers/r_ssif/src/lld/r_ssif_lld_aioif.c **** #endif/*__GNUC__*/
 262              		.loc 1 152 13 is_stmt 1 view .LVU80
 152:../generate/sc_drivers/r_ssif/src/lld/r_ssif_lld_aioif.c **** #endif/*__GNUC__*/
 263              		.loc 1 152 26 is_stmt 0 view .LVU81
 264 00ac FEFFFFEB 		bl	__disable_irq
 265              	.LVL30:
 266 00b0 0040A0E1 		mov	r4, r0
 267              	.LVL31:
 154:../generate/sc_drivers/r_ssif/src/lld/r_ssif_lld_aioif.c **** #if defined (__GNUC__)
 268              		.loc 1 154 13 is_stmt 1 view .LVU82
 269 00b4 0500A0E1 		mov	r0, r5
 270              	.LVL32:
 154:../generate/sc_drivers/r_ssif/src/lld/r_ssif_lld_aioif.c **** #if defined (__GNUC__)
 271              		.loc 1 154 13 is_stmt 0 view .LVU83
 272 00b8 FEFFFFEB 		bl	free
 273              	.LVL33:
 156:../generate/sc_drivers/r_ssif/src/lld/r_ssif_lld_aioif.c ****             {
 274              		.loc 1 156 13 is_stmt 1 view .LVU84
 156:../generate/sc_drivers/r_ssif/src/lld/r_ssif_lld_aioif.c ****             {
 275              		.loc 1 156 16 is_stmt 0 view .LVU85
 276 00bc 000054E3 		cmp	r4, #0
 277 00c0 0100000A 		beq	.L28
 278              	.L16:
 162:../generate/sc_drivers/r_ssif/src/lld/r_ssif_lld_aioif.c ****         }
 279              		.loc 1 162 13 is_stmt 1 view .LVU86
 162:../generate/sc_drivers/r_ssif/src/lld/r_ssif_lld_aioif.c ****         }
 280              		.loc 1 162 20 is_stmt 0 view .LVU87
 281 00c4 2000E0E3 		mvn	r0, #32
 282 00c8 F081BDE8 		pop	{r4, r5, r6, r7, r8, pc}
 283              	.L28:
 159:../generate/sc_drivers/r_ssif/src/lld/r_ssif_lld_aioif.c ****             }
 284              		.loc 1 159 17 is_stmt 1 view .LVU88
 285 00cc FEFFFFEB 		bl	__enable_irq
 286              	.LVL34:
 287 00d0 FBFFFFEA 		b	.L16
 288              	.LVL35:
 289              	.L27:
 171:../generate/sc_drivers/r_ssif/src/lld/r_ssif_lld_aioif.c **** #endif/*__GNUC__*/
 290              		.loc 1 171 13 view .LVU89
 171:../generate/sc_drivers/r_ssif/src/lld/r_ssif_lld_aioif.c **** #endif/*__GNUC__*/
 291              		.loc 1 171 26 is_stmt 0 view .LVU90
 292 00d4 FEFFFFEB 		bl	__disable_irq
 293              	.LVL36:
 294 00d8 0040A0E1 		mov	r4, r0
 295              	.LVL37:
 173:../generate/sc_drivers/r_ssif/src/lld/r_ssif_lld_aioif.c ****             free(p_mutex_def);
 296              		.loc 1 173 13 is_stmt 1 view .LVU91
 297 00dc 0600A0E1 		mov	r0, r6
 298              	.LVL38:
 173:../generate/sc_drivers/r_ssif/src/lld/r_ssif_lld_aioif.c ****             free(p_mutex_def);
 299              		.loc 1 173 13 is_stmt 0 view .LVU92
 300 00e0 FEFFFFEB 		bl	free
 301              	.LVL39:
 174:../generate/sc_drivers/r_ssif/src/lld/r_ssif_lld_aioif.c **** #if defined (__GNUC__)
 302              		.loc 1 174 13 is_stmt 1 view .LVU93
 303 00e4 0500A0E1 		mov	r0, r5
 304 00e8 FEFFFFEB 		bl	free
 305              	.LVL40:
 176:../generate/sc_drivers/r_ssif/src/lld/r_ssif_lld_aioif.c ****             {
 306              		.loc 1 176 13 view .LVU94
 176:../generate/sc_drivers/r_ssif/src/lld/r_ssif_lld_aioif.c ****             {
 307              		.loc 1 176 16 is_stmt 0 view .LVU95
 308 00ec 000054E3 		cmp	r4, #0
 309 00f0 0100000A 		beq	.L29
 310              	.L17:
 182:../generate/sc_drivers/r_ssif/src/lld/r_ssif_lld_aioif.c ****         }
 311              		.loc 1 182 13 is_stmt 1 view .LVU96
 182:../generate/sc_drivers/r_ssif/src/lld/r_ssif_lld_aioif.c ****         }
 312              		.loc 1 182 20 is_stmt 0 view .LVU97
 313 00f4 2000E0E3 		mvn	r0, #32
 314 00f8 F081BDE8 		pop	{r4, r5, r6, r7, r8, pc}
 315              	.L29:
 179:../generate/sc_drivers/r_ssif/src/lld/r_ssif_lld_aioif.c ****             }
 316              		.loc 1 179 17 is_stmt 1 view .LVU98
 317 00fc FEFFFFEB 		bl	__enable_irq
 318              	.LVL41:
 319 0100 FBFFFFEA 		b	.L17
 320              	.LVL42:
 321              	.L18:
 110:../generate/sc_drivers/r_ssif/src/lld/r_ssif_lld_aioif.c ****     }
 322              		.loc 1 110 16 is_stmt 0 view .LVU99
 323 0104 6000E0E3 		mvn	r0, #96
 324              	.LVL43:
 110:../generate/sc_drivers/r_ssif/src/lld/r_ssif_lld_aioif.c ****     }
 325              		.loc 1 110 16 view .LVU100
 326 0108 F081BDE8 		pop	{r4, r5, r6, r7, r8, pc}
 327              	.LVL44:
 328              	.L20:
 134:../generate/sc_drivers/r_ssif/src/lld/r_ssif_lld_aioif.c ****         }
 329              		.loc 1 134 20 view .LVU101
 330 010c 2000E0E3 		mvn	r0, #32
 331 0110 F081BDE8 		pop	{r4, r5, r6, r7, r8, pc}
 332              		.cfi_endproc
 333              	.LFE8:
 335              		.section	.text.ahf_destroy,"ax",%progbits
 336              		.align	2
 337              		.global	ahf_destroy
 338              		.syntax unified
 339              		.arm
 340              		.fpu neon
 342              	ahf_destroy:
 343              	.LVL45:
 344              	.LFB9:
 187:../generate/sc_drivers/r_ssif/src/lld/r_ssif_lld_aioif.c **** /*******************************************************************************
 188:../generate/sc_drivers/r_ssif/src/lld/r_ssif_lld_aioif.c ****  End of function ahf_create
 189:../generate/sc_drivers/r_ssif/src/lld/r_ssif_lld_aioif.c ****  ******************************************************************************/
 190:../generate/sc_drivers/r_ssif/src/lld/r_ssif_lld_aioif.c **** 
 191:../generate/sc_drivers/r_ssif/src/lld/r_ssif_lld_aioif.c **** /***********************************************************************************
 192:../generate/sc_drivers/r_ssif/src/lld/r_ssif_lld_aioif.c **** Function Name:         ahf_destroy
 193:../generate/sc_drivers/r_ssif/src/lld/r_ssif_lld_aioif.c **** 
 194:../generate/sc_drivers/r_ssif/src/lld/r_ssif_lld_aioif.c **** Description:    Delete aio control block mutex (if it exists).
 195:../generate/sc_drivers/r_ssif/src/lld/r_ssif_lld_aioif.c ****                 Note: This function does not delete the aio control block queue.
 196:../generate/sc_drivers/r_ssif/src/lld/r_ssif_lld_aioif.c **** 
 197:../generate/sc_drivers/r_ssif/src/lld/r_ssif_lld_aioif.c **** Parameters:     ahf  - aio queue structure pointer.
 198:../generate/sc_drivers/r_ssif/src/lld/r_ssif_lld_aioif.c **** 
 199:../generate/sc_drivers/r_ssif/src/lld/r_ssif_lld_aioif.c **** Return value:   void
 200:../generate/sc_drivers/r_ssif/src/lld/r_ssif_lld_aioif.c **** 
 201:../generate/sc_drivers/r_ssif/src/lld/r_ssif_lld_aioif.c **** ***********************************************************************************/
 202:../generate/sc_drivers/r_ssif/src/lld/r_ssif_lld_aioif.c **** void ahf_destroy (AHF_S const * const ahf)
 203:../generate/sc_drivers/r_ssif/src/lld/r_ssif_lld_aioif.c **** {
 345              		.loc 1 203 1 is_stmt 1 view -0
 346              		.cfi_startproc
 347              		@ args = 0, pretend = 0, frame = 0
 348              		@ frame_needed = 0, uses_anonymous_args = 0
 349              		.loc 1 203 1 is_stmt 0 view .LVU103
 350 0000 70402DE9 		push	{r4, r5, r6, lr}
 351              		.cfi_def_cfa_offset 16
 352              		.cfi_offset 4, -16
 353              		.cfi_offset 5, -12
 354              		.cfi_offset 6, -8
 355              		.cfi_offset 14, -4
 204:../generate/sc_drivers/r_ssif/src/lld/r_ssif_lld_aioif.c **** #if defined (__GNUC__)
 205:../generate/sc_drivers/r_ssif/src/lld/r_ssif_lld_aioif.c ****     uint32_t was_masked;
 356              		.loc 1 205 5 is_stmt 1 view .LVU104
 206:../generate/sc_drivers/r_ssif/src/lld/r_ssif_lld_aioif.c **** #endif/*__GNUC__*/
 207:../generate/sc_drivers/r_ssif/src/lld/r_ssif_lld_aioif.c **** 
 208:../generate/sc_drivers/r_ssif/src/lld/r_ssif_lld_aioif.c ****     if (ahf == NULL)
 357              		.loc 1 208 5 view .LVU105
 358              		.loc 1 208 8 is_stmt 0 view .LVU106
 359 0004 004050E2 		subs	r4, r0, #0
 360 0008 7080BD08 		popeq	{r4, r5, r6, pc}
 209:../generate/sc_drivers/r_ssif/src/lld/r_ssif_lld_aioif.c ****     {
 210:../generate/sc_drivers/r_ssif/src/lld/r_ssif_lld_aioif.c ****         return; 
 211:../generate/sc_drivers/r_ssif/src/lld/r_ssif_lld_aioif.c ****     }
 212:../generate/sc_drivers/r_ssif/src/lld/r_ssif_lld_aioif.c ****      
 213:../generate/sc_drivers/r_ssif/src/lld/r_ssif_lld_aioif.c ****     if (ahf->flags & AHF_CREATESEM)
 361              		.loc 1 213 5 is_stmt 1 view .LVU107
 362              		.loc 1 213 12 is_stmt 0 view .LVU108
 363 000c 083094E5 		ldr	r3, [r4, #8]
 364              		.loc 1 213 8 view .LVU109
 365 0010 010013E3 		tst	r3, #1
 366 0014 7080BD08 		popeq	{r4, r5, r6, pc}
 214:../generate/sc_drivers/r_ssif/src/lld/r_ssif_lld_aioif.c ****     {
 215:../generate/sc_drivers/r_ssif/src/lld/r_ssif_lld_aioif.c ****         R_OS_MutexDelete(ahf->semid);
 367              		.loc 1 215 9 is_stmt 1 view .LVU110
 368 0018 0C0094E5 		ldr	r0, [r4, #12]
 369              	.LVL46:
 370              		.loc 1 215 9 is_stmt 0 view .LVU111
 371 001c FEFFFFEB 		bl	R_OS_MutexDelete
 372              	.LVL47:
 216:../generate/sc_drivers/r_ssif/src/lld/r_ssif_lld_aioif.c **** 
 217:../generate/sc_drivers/r_ssif/src/lld/r_ssif_lld_aioif.c **** #if defined (__GNUC__)
 218:../generate/sc_drivers/r_ssif/src/lld/r_ssif_lld_aioif.c ****         /* disable all irq */
 219:../generate/sc_drivers/r_ssif/src/lld/r_ssif_lld_aioif.c ****         was_masked = __disable_irq();
 373              		.loc 1 219 9 is_stmt 1 view .LVU112
 374              		.loc 1 219 22 is_stmt 0 view .LVU113
 375 0020 FEFFFFEB 		bl	__disable_irq
 376              	.LVL48:
 377 0024 0050A0E1 		mov	r5, r0
 378              	.LVL49:
 220:../generate/sc_drivers/r_ssif/src/lld/r_ssif_lld_aioif.c **** #endif/*__GNUC__*/
 221:../generate/sc_drivers/r_ssif/src/lld/r_ssif_lld_aioif.c **** 
 222:../generate/sc_drivers/r_ssif/src/lld/r_ssif_lld_aioif.c ****         free(ahf->p_cmtx->mutex);
 379              		.loc 1 222 9 is_stmt 1 view .LVU114
 380              		.loc 1 222 17 is_stmt 0 view .LVU115
 381 0028 103094E5 		ldr	r3, [r4, #16]
 382              		.loc 1 222 9 view .LVU116
 383 002c 000093E5 		ldr	r0, [r3]
 384              	.LVL50:
 385              		.loc 1 222 9 view .LVU117
 386 0030 FEFFFFEB 		bl	free
 387              	.LVL51:
 223:../generate/sc_drivers/r_ssif/src/lld/r_ssif_lld_aioif.c ****         free(ahf->p_cmtx);
 388              		.loc 1 223 9 is_stmt 1 view .LVU118
 389 0034 100094E5 		ldr	r0, [r4, #16]
 390 0038 FEFFFFEB 		bl	free
 391              	.LVL52:
 224:../generate/sc_drivers/r_ssif/src/lld/r_ssif_lld_aioif.c **** 
 225:../generate/sc_drivers/r_ssif/src/lld/r_ssif_lld_aioif.c **** #if defined (__GNUC__)
 226:../generate/sc_drivers/r_ssif/src/lld/r_ssif_lld_aioif.c ****         if (0 == was_masked)
 392              		.loc 1 226 9 view .LVU119
 393              		.loc 1 226 12 is_stmt 0 view .LVU120
 394 003c 000055E3 		cmp	r5, #0
 395 0040 7080BD18 		popne	{r4, r5, r6, pc}
 227:../generate/sc_drivers/r_ssif/src/lld/r_ssif_lld_aioif.c ****         {
 228:../generate/sc_drivers/r_ssif/src/lld/r_ssif_lld_aioif.c ****             /* enable all irq */
 229:../generate/sc_drivers/r_ssif/src/lld/r_ssif_lld_aioif.c ****             __enable_irq();
 396              		.loc 1 229 13 is_stmt 1 view .LVU121
 397 0044 FEFFFFEB 		bl	__enable_irq
 398              	.LVL53:
 230:../generate/sc_drivers/r_ssif/src/lld/r_ssif_lld_aioif.c ****         }
 231:../generate/sc_drivers/r_ssif/src/lld/r_ssif_lld_aioif.c **** #endif/*__GNUC__*/
 232:../generate/sc_drivers/r_ssif/src/lld/r_ssif_lld_aioif.c **** 
 233:../generate/sc_drivers/r_ssif/src/lld/r_ssif_lld_aioif.c ****     }
 234:../generate/sc_drivers/r_ssif/src/lld/r_ssif_lld_aioif.c **** }
 399              		.loc 1 234 1 is_stmt 0 view .LVU122
 400 0048 7080BDE8 		pop	{r4, r5, r6, pc}
 401              		.cfi_endproc
 402              	.LFE9:
 404              		.section	.text.ahf_addtail,"ax",%progbits
 405              		.align	2
 406              		.global	ahf_addtail
 407              		.syntax unified
 408              		.arm
 409              		.fpu neon
 411              	ahf_addtail:
 412              	.LVL54:
 413              	.LFB10:
 235:../generate/sc_drivers/r_ssif/src/lld/r_ssif_lld_aioif.c **** /*******************************************************************************
 236:../generate/sc_drivers/r_ssif/src/lld/r_ssif_lld_aioif.c ****  End of function ahf_destroy
 237:../generate/sc_drivers/r_ssif/src/lld/r_ssif_lld_aioif.c ****  ******************************************************************************/
 238:../generate/sc_drivers/r_ssif/src/lld/r_ssif_lld_aioif.c **** 
 239:../generate/sc_drivers/r_ssif/src/lld/r_ssif_lld_aioif.c **** /***********************************************************************************
 240:../generate/sc_drivers/r_ssif/src/lld/r_ssif_lld_aioif.c **** Function Name:         ahf_addtail
 241:../generate/sc_drivers/r_ssif/src/lld/r_ssif_lld_aioif.c **** 
 242:../generate/sc_drivers/r_ssif/src/lld/r_ssif_lld_aioif.c **** Description:    Add an aio control block to the queue.
 243:../generate/sc_drivers/r_ssif/src/lld/r_ssif_lld_aioif.c **** 
 244:../generate/sc_drivers/r_ssif/src/lld/r_ssif_lld_aioif.c **** Parameters:     ahf  - aio queue structure pointer.
 245:../generate/sc_drivers/r_ssif/src/lld/r_ssif_lld_aioif.c ****                 aio  - pointer to queue structure.
 246:../generate/sc_drivers/r_ssif/src/lld/r_ssif_lld_aioif.c **** 
 247:../generate/sc_drivers/r_ssif/src/lld/r_ssif_lld_aioif.c **** Return value:   void
 248:../generate/sc_drivers/r_ssif/src/lld/r_ssif_lld_aioif.c **** 
 249:../generate/sc_drivers/r_ssif/src/lld/r_ssif_lld_aioif.c **** ***********************************************************************************/
 250:../generate/sc_drivers/r_ssif/src/lld/r_ssif_lld_aioif.c **** void ahf_addtail (AHF_S * const ahf, struct aiocb * const aio)
 251:../generate/sc_drivers/r_ssif/src/lld/r_ssif_lld_aioif.c **** {
 414              		.loc 1 251 1 is_stmt 1 view -0
 415              		.cfi_startproc
 416              		@ args = 0, pretend = 0, frame = 0
 417              		@ frame_needed = 0, uses_anonymous_args = 0
 418              		.loc 1 251 1 is_stmt 0 view .LVU124
 419 0000 70402DE9 		push	{r4, r5, r6, lr}
 420              		.cfi_def_cfa_offset 16
 421              		.cfi_offset 4, -16
 422              		.cfi_offset 5, -12
 423              		.cfi_offset 6, -8
 424              		.cfi_offset 14, -4
 252:../generate/sc_drivers/r_ssif/src/lld/r_ssif_lld_aioif.c ****     if (ahf == NULL)
 425              		.loc 1 252 5 is_stmt 1 view .LVU125
 426              		.loc 1 252 8 is_stmt 0 view .LVU126
 427 0004 004050E2 		subs	r4, r0, #0
 428 0008 7080BD08 		popeq	{r4, r5, r6, pc}
 429 000c 0150A0E1 		mov	r5, r1
 253:../generate/sc_drivers/r_ssif/src/lld/r_ssif_lld_aioif.c ****     {
 254:../generate/sc_drivers/r_ssif/src/lld/r_ssif_lld_aioif.c ****         return; 
 255:../generate/sc_drivers/r_ssif/src/lld/r_ssif_lld_aioif.c ****     }
 256:../generate/sc_drivers/r_ssif/src/lld/r_ssif_lld_aioif.c ****      
 257:../generate/sc_drivers/r_ssif/src/lld/r_ssif_lld_aioif.c ****     ahf_lock (ahf);
 430              		.loc 1 257 5 is_stmt 1 view .LVU127
 431 0010 0400A0E1 		mov	r0, r4
 432              		.loc 1 257 5 is_stmt 0 view .LVU128
 433 0014 FEFFFFEB 		bl	ahf_lock
 434              	.LVL55:
 258:../generate/sc_drivers/r_ssif/src/lld/r_ssif_lld_aioif.c **** 
 259:../generate/sc_drivers/r_ssif/src/lld/r_ssif_lld_aioif.c ****     if (ahf->tail != NULL)
 435              		.loc 1 259 5 is_stmt 1 view .LVU129
 436              		.loc 1 259 12 is_stmt 0 view .LVU130
 437 0018 043094E5 		ldr	r3, [r4, #4]
 438              		.loc 1 259 8 view .LVU131
 439 001c 000053E3 		cmp	r3, #0
 260:../generate/sc_drivers/r_ssif/src/lld/r_ssif_lld_aioif.c ****     {
 261:../generate/sc_drivers/r_ssif/src/lld/r_ssif_lld_aioif.c ****         ahf->tail->pNext = aio;
 440              		.loc 1 261 9 is_stmt 1 view .LVU132
 441              		.loc 1 261 26 is_stmt 0 view .LVU133
 442 0020 00508315 		strne	r5, [r3]
 443              	.L35:
 262:../generate/sc_drivers/r_ssif/src/lld/r_ssif_lld_aioif.c ****     }
 263:../generate/sc_drivers/r_ssif/src/lld/r_ssif_lld_aioif.c **** 
 264:../generate/sc_drivers/r_ssif/src/lld/r_ssif_lld_aioif.c ****     aio->pPrev = ahf->tail;
 444              		.loc 1 264 5 is_stmt 1 view .LVU134
 445              		.loc 1 264 21 is_stmt 0 view .LVU135
 446 0024 043094E5 		ldr	r3, [r4, #4]
 447              		.loc 1 264 16 view .LVU136
 448 0028 043085E5 		str	r3, [r5, #4]
 265:../generate/sc_drivers/r_ssif/src/lld/r_ssif_lld_aioif.c ****     aio->pNext = NULL;
 449              		.loc 1 265 5 is_stmt 1 view .LVU137
 450              		.loc 1 265 16 is_stmt 0 view .LVU138
 451 002c 0030A0E3 		mov	r3, #0
 452 0030 003085E5 		str	r3, [r5]
 266:../generate/sc_drivers/r_ssif/src/lld/r_ssif_lld_aioif.c ****     ahf->tail = aio;
 453              		.loc 1 266 5 is_stmt 1 view .LVU139
 454              		.loc 1 266 15 is_stmt 0 view .LVU140
 455 0034 045084E5 		str	r5, [r4, #4]
 267:../generate/sc_drivers/r_ssif/src/lld/r_ssif_lld_aioif.c ****     
 268:../generate/sc_drivers/r_ssif/src/lld/r_ssif_lld_aioif.c ****     if (ahf->head == NULL)
 456              		.loc 1 268 5 is_stmt 1 view .LVU141
 457              		.loc 1 268 12 is_stmt 0 view .LVU142
 458 0038 003094E5 		ldr	r3, [r4]
 459              		.loc 1 268 8 view .LVU143
 460 003c 000053E3 		cmp	r3, #0
 461 0040 0200000A 		beq	.L38
 462              	.L36:
 269:../generate/sc_drivers/r_ssif/src/lld/r_ssif_lld_aioif.c ****     {
 270:../generate/sc_drivers/r_ssif/src/lld/r_ssif_lld_aioif.c ****         /* list was empty */
 271:../generate/sc_drivers/r_ssif/src/lld/r_ssif_lld_aioif.c ****         ahf->head = aio;
 272:../generate/sc_drivers/r_ssif/src/lld/r_ssif_lld_aioif.c ****     }
 273:../generate/sc_drivers/r_ssif/src/lld/r_ssif_lld_aioif.c **** 
 274:../generate/sc_drivers/r_ssif/src/lld/r_ssif_lld_aioif.c ****     ahf_unlock (ahf);
 463              		.loc 1 274 5 is_stmt 1 view .LVU144
 464 0044 0400A0E1 		mov	r0, r4
 465 0048 FEFFFFEB 		bl	ahf_unlock
 466              	.LVL56:
 275:../generate/sc_drivers/r_ssif/src/lld/r_ssif_lld_aioif.c **** }
 467              		.loc 1 275 1 is_stmt 0 view .LVU145
 468 004c 7080BDE8 		pop	{r4, r5, r6, pc}
 469              	.L38:
 271:../generate/sc_drivers/r_ssif/src/lld/r_ssif_lld_aioif.c ****     }
 470              		.loc 1 271 9 is_stmt 1 view .LVU146
 271:../generate/sc_drivers/r_ssif/src/lld/r_ssif_lld_aioif.c ****     }
 471              		.loc 1 271 19 is_stmt 0 view .LVU147
 472 0050 005084E5 		str	r5, [r4]
 473 0054 FAFFFFEA 		b	.L36
 474              		.cfi_endproc
 475              	.LFE10:
 477              		.section	.text.ahf_removehead,"ax",%progbits
 478              		.align	2
 479              		.global	ahf_removehead
 480              		.syntax unified
 481              		.arm
 482              		.fpu neon
 484              	ahf_removehead:
 485              	.LVL57:
 486              	.LFB11:
 276:../generate/sc_drivers/r_ssif/src/lld/r_ssif_lld_aioif.c **** /*******************************************************************************
 277:../generate/sc_drivers/r_ssif/src/lld/r_ssif_lld_aioif.c ****  End of function ahf_addtail
 278:../generate/sc_drivers/r_ssif/src/lld/r_ssif_lld_aioif.c ****  ******************************************************************************/
 279:../generate/sc_drivers/r_ssif/src/lld/r_ssif_lld_aioif.c **** 
 280:../generate/sc_drivers/r_ssif/src/lld/r_ssif_lld_aioif.c **** /***********************************************************************************
 281:../generate/sc_drivers/r_ssif/src/lld/r_ssif_lld_aioif.c **** Function Name:         ahf_removehead
 282:../generate/sc_drivers/r_ssif/src/lld/r_ssif_lld_aioif.c **** 
 283:../generate/sc_drivers/r_ssif/src/lld/r_ssif_lld_aioif.c **** Description:    Remove an aio control block from the queue.
 284:../generate/sc_drivers/r_ssif/src/lld/r_ssif_lld_aioif.c **** 
 285:../generate/sc_drivers/r_ssif/src/lld/r_ssif_lld_aioif.c **** Parameters:     ahf  - aio queue structure pointer.
 286:../generate/sc_drivers/r_ssif/src/lld/r_ssif_lld_aioif.c **** 
 287:../generate/sc_drivers/r_ssif/src/lld/r_ssif_lld_aioif.c **** Return value:   aio control block, or NULL if queue is empty.
 288:../generate/sc_drivers/r_ssif/src/lld/r_ssif_lld_aioif.c **** 
 289:../generate/sc_drivers/r_ssif/src/lld/r_ssif_lld_aioif.c **** ***********************************************************************************/
 290:../generate/sc_drivers/r_ssif/src/lld/r_ssif_lld_aioif.c **** struct aiocb *ahf_removehead (AHF_S * const ahf)
 291:../generate/sc_drivers/r_ssif/src/lld/r_ssif_lld_aioif.c **** {
 487              		.loc 1 291 1 is_stmt 1 view -0
 488              		.cfi_startproc
 489              		@ args = 0, pretend = 0, frame = 0
 490              		@ frame_needed = 0, uses_anonymous_args = 0
 491              		.loc 1 291 1 is_stmt 0 view .LVU149
 492 0000 70402DE9 		push	{r4, r5, r6, lr}
 493              		.cfi_def_cfa_offset 16
 494              		.cfi_offset 4, -16
 495              		.cfi_offset 5, -12
 496              		.cfi_offset 6, -8
 497              		.cfi_offset 14, -4
 292:../generate/sc_drivers/r_ssif/src/lld/r_ssif_lld_aioif.c ****     struct aiocb *aio;
 498              		.loc 1 292 5 is_stmt 1 view .LVU150
 293:../generate/sc_drivers/r_ssif/src/lld/r_ssif_lld_aioif.c ****     
 294:../generate/sc_drivers/r_ssif/src/lld/r_ssif_lld_aioif.c ****     if (ahf == NULL)
 499              		.loc 1 294 5 view .LVU151
 500              		.loc 1 294 8 is_stmt 0 view .LVU152
 501 0004 004050E2 		subs	r4, r0, #0
 502 0008 1300000A 		beq	.L43
 295:../generate/sc_drivers/r_ssif/src/lld/r_ssif_lld_aioif.c ****     {
 296:../generate/sc_drivers/r_ssif/src/lld/r_ssif_lld_aioif.c ****         return(NULL);   
 297:../generate/sc_drivers/r_ssif/src/lld/r_ssif_lld_aioif.c ****     }
 298:../generate/sc_drivers/r_ssif/src/lld/r_ssif_lld_aioif.c ****      
 299:../generate/sc_drivers/r_ssif/src/lld/r_ssif_lld_aioif.c ****     ahf_lock (ahf);
 503              		.loc 1 299 5 is_stmt 1 view .LVU153
 504 000c 0400A0E1 		mov	r0, r4
 505              		.loc 1 299 5 is_stmt 0 view .LVU154
 506 0010 FEFFFFEB 		bl	ahf_lock
 507              	.LVL58:
 300:../generate/sc_drivers/r_ssif/src/lld/r_ssif_lld_aioif.c **** 
 301:../generate/sc_drivers/r_ssif/src/lld/r_ssif_lld_aioif.c ****     aio = ahf->head;
 508              		.loc 1 301 5 is_stmt 1 view .LVU155
 509              		.loc 1 301 9 is_stmt 0 view .LVU156
 510 0014 005094E5 		ldr	r5, [r4]
 511              	.LVL59:
 302:../generate/sc_drivers/r_ssif/src/lld/r_ssif_lld_aioif.c ****     if (aio != NULL)
 512              		.loc 1 302 5 is_stmt 1 view .LVU157
 513              		.loc 1 302 8 is_stmt 0 view .LVU158
 514 0018 000055E3 		cmp	r5, #0
 515 001c 0700000A 		beq	.L41
 303:../generate/sc_drivers/r_ssif/src/lld/r_ssif_lld_aioif.c ****     {
 304:../generate/sc_drivers/r_ssif/src/lld/r_ssif_lld_aioif.c ****         ahf->head = aio->pNext;
 516              		.loc 1 304 9 is_stmt 1 view .LVU159
 517              		.loc 1 304 24 is_stmt 0 view .LVU160
 518 0020 003095E5 		ldr	r3, [r5]
 519              		.loc 1 304 19 view .LVU161
 520 0024 003084E5 		str	r3, [r4]
 305:../generate/sc_drivers/r_ssif/src/lld/r_ssif_lld_aioif.c ****         if (aio->pNext != NULL)
 521              		.loc 1 305 9 is_stmt 1 view .LVU162
 522              		.loc 1 305 12 is_stmt 0 view .LVU163
 523 0028 000053E3 		cmp	r3, #0
 306:../generate/sc_drivers/r_ssif/src/lld/r_ssif_lld_aioif.c ****         {
 307:../generate/sc_drivers/r_ssif/src/lld/r_ssif_lld_aioif.c ****             aio->pNext->pPrev = NULL;
 524              		.loc 1 307 13 is_stmt 1 view .LVU164
 525              		.loc 1 307 31 is_stmt 0 view .LVU165
 526 002c 0020A013 		movne	r2, #0
 527 0030 04208315 		strne	r2, [r3, #4]
 528              	.L42:
 308:../generate/sc_drivers/r_ssif/src/lld/r_ssif_lld_aioif.c ****         }
 309:../generate/sc_drivers/r_ssif/src/lld/r_ssif_lld_aioif.c ****         if (ahf->tail == aio)
 529              		.loc 1 309 9 is_stmt 1 view .LVU166
 530              		.loc 1 309 16 is_stmt 0 view .LVU167
 531 0034 043094E5 		ldr	r3, [r4, #4]
 532              		.loc 1 309 12 view .LVU168
 533 0038 050053E1 		cmp	r3, r5
 534 003c 0300000A 		beq	.L45
 535              	.L41:
 310:../generate/sc_drivers/r_ssif/src/lld/r_ssif_lld_aioif.c ****         {
 311:../generate/sc_drivers/r_ssif/src/lld/r_ssif_lld_aioif.c ****             /* the list is now empty */
 312:../generate/sc_drivers/r_ssif/src/lld/r_ssif_lld_aioif.c ****             ahf->tail = NULL;
 313:../generate/sc_drivers/r_ssif/src/lld/r_ssif_lld_aioif.c ****         }
 314:../generate/sc_drivers/r_ssif/src/lld/r_ssif_lld_aioif.c ****     }
 315:../generate/sc_drivers/r_ssif/src/lld/r_ssif_lld_aioif.c **** 
 316:../generate/sc_drivers/r_ssif/src/lld/r_ssif_lld_aioif.c ****     ahf_unlock (ahf);
 536              		.loc 1 316 5 is_stmt 1 view .LVU169
 537 0040 0400A0E1 		mov	r0, r4
 538 0044 FEFFFFEB 		bl	ahf_unlock
 539              	.LVL60:
 317:../generate/sc_drivers/r_ssif/src/lld/r_ssif_lld_aioif.c ****     return aio;
 540              		.loc 1 317 5 view .LVU170
 541              	.L39:
 318:../generate/sc_drivers/r_ssif/src/lld/r_ssif_lld_aioif.c **** }
 542              		.loc 1 318 1 is_stmt 0 view .LVU171
 543 0048 0500A0E1 		mov	r0, r5
 544 004c 7080BDE8 		pop	{r4, r5, r6, pc}
 545              	.LVL61:
 546              	.L45:
 312:../generate/sc_drivers/r_ssif/src/lld/r_ssif_lld_aioif.c ****         }
 547              		.loc 1 312 13 is_stmt 1 view .LVU172
 312:../generate/sc_drivers/r_ssif/src/lld/r_ssif_lld_aioif.c ****         }
 548              		.loc 1 312 23 is_stmt 0 view .LVU173
 549 0050 0030A0E3 		mov	r3, #0
 550 0054 043084E5 		str	r3, [r4, #4]
 551 0058 F8FFFFEA 		b	.L41
 552              	.LVL62:
 553              	.L43:
 296:../generate/sc_drivers/r_ssif/src/lld/r_ssif_lld_aioif.c ****     }
 554              		.loc 1 296 15 view .LVU174
 555 005c 0450A0E1 		mov	r5, r4
 556 0060 F8FFFFEA 		b	.L39
 557              		.cfi_endproc
 558              	.LFE11:
 560              		.section	.text.ahf_peekhead,"ax",%progbits
 561              		.align	2
 562              		.global	ahf_peekhead
 563              		.syntax unified
 564              		.arm
 565              		.fpu neon
 567              	ahf_peekhead:
 568              	.LVL63:
 569              	.LFB12:
 319:../generate/sc_drivers/r_ssif/src/lld/r_ssif_lld_aioif.c **** /*******************************************************************************
 320:../generate/sc_drivers/r_ssif/src/lld/r_ssif_lld_aioif.c ****  End of function ahf_removehead
 321:../generate/sc_drivers/r_ssif/src/lld/r_ssif_lld_aioif.c ****  ******************************************************************************/
 322:../generate/sc_drivers/r_ssif/src/lld/r_ssif_lld_aioif.c **** 
 323:../generate/sc_drivers/r_ssif/src/lld/r_ssif_lld_aioif.c **** /***********************************************************************************
 324:../generate/sc_drivers/r_ssif/src/lld/r_ssif_lld_aioif.c **** Function Name:         ahf_peekhead
 325:../generate/sc_drivers/r_ssif/src/lld/r_ssif_lld_aioif.c **** 
 326:../generate/sc_drivers/r_ssif/src/lld/r_ssif_lld_aioif.c **** Description:    Get an aio control block from the queue, but do not remove from the queue.
 327:../generate/sc_drivers/r_ssif/src/lld/r_ssif_lld_aioif.c **** 
 328:../generate/sc_drivers/r_ssif/src/lld/r_ssif_lld_aioif.c **** Parameters:     ahf  - aio queue structure pointer.
 329:../generate/sc_drivers/r_ssif/src/lld/r_ssif_lld_aioif.c **** 
 330:../generate/sc_drivers/r_ssif/src/lld/r_ssif_lld_aioif.c **** Return value:   aio control block, or NULL if queue is empty.
 331:../generate/sc_drivers/r_ssif/src/lld/r_ssif_lld_aioif.c **** 
 332:../generate/sc_drivers/r_ssif/src/lld/r_ssif_lld_aioif.c **** ***********************************************************************************/
 333:../generate/sc_drivers/r_ssif/src/lld/r_ssif_lld_aioif.c **** struct aiocb *ahf_peekhead (AHF_S * const ahf)
 334:../generate/sc_drivers/r_ssif/src/lld/r_ssif_lld_aioif.c **** {
 570              		.loc 1 334 1 is_stmt 1 view -0
 571              		.cfi_startproc
 572              		@ args = 0, pretend = 0, frame = 0
 573              		@ frame_needed = 0, uses_anonymous_args = 0
 574              		.loc 1 334 1 is_stmt 0 view .LVU176
 575 0000 70402DE9 		push	{r4, r5, r6, lr}
 576              		.cfi_def_cfa_offset 16
 577              		.cfi_offset 4, -16
 578              		.cfi_offset 5, -12
 579              		.cfi_offset 6, -8
 580              		.cfi_offset 14, -4
 581 0004 0040A0E1 		mov	r4, r0
 335:../generate/sc_drivers/r_ssif/src/lld/r_ssif_lld_aioif.c ****     struct aiocb *aio;
 582              		.loc 1 335 5 is_stmt 1 view .LVU177
 336:../generate/sc_drivers/r_ssif/src/lld/r_ssif_lld_aioif.c **** 
 337:../generate/sc_drivers/r_ssif/src/lld/r_ssif_lld_aioif.c ****     ahf_lock (ahf);
 583              		.loc 1 337 5 view .LVU178
 584 0008 FEFFFFEB 		bl	ahf_lock
 585              	.LVL64:
 338:../generate/sc_drivers/r_ssif/src/lld/r_ssif_lld_aioif.c **** 
 339:../generate/sc_drivers/r_ssif/src/lld/r_ssif_lld_aioif.c ****     aio = ahf->head;
 586              		.loc 1 339 5 view .LVU179
 587              		.loc 1 339 9 is_stmt 0 view .LVU180
 588 000c 005094E5 		ldr	r5, [r4]
 589              	.LVL65:
 340:../generate/sc_drivers/r_ssif/src/lld/r_ssif_lld_aioif.c **** 
 341:../generate/sc_drivers/r_ssif/src/lld/r_ssif_lld_aioif.c ****     ahf_unlock (ahf);
 590              		.loc 1 341 5 is_stmt 1 view .LVU181
 591 0010 0400A0E1 		mov	r0, r4
 592 0014 FEFFFFEB 		bl	ahf_unlock
 593              	.LVL66:
 342:../generate/sc_drivers/r_ssif/src/lld/r_ssif_lld_aioif.c ****     return aio;
 594              		.loc 1 342 5 view .LVU182
 343:../generate/sc_drivers/r_ssif/src/lld/r_ssif_lld_aioif.c **** }
 595              		.loc 1 343 1 is_stmt 0 view .LVU183
 596 0018 0500A0E1 		mov	r0, r5
 597 001c 7080BDE8 		pop	{r4, r5, r6, pc}
 598              		.cfi_endproc
 599              	.LFE12:
 601              		.section	.text.ahf_complete,"ax",%progbits
 602              		.align	2
 603              		.global	ahf_complete
 604              		.syntax unified
 605              		.arm
 606              		.fpu neon
 608              	ahf_complete:
 609              	.LVL67:
 610              	.LFB14:
 344:../generate/sc_drivers/r_ssif/src/lld/r_ssif_lld_aioif.c **** /*******************************************************************************
 345:../generate/sc_drivers/r_ssif/src/lld/r_ssif_lld_aioif.c ****  End of function ahf_peekhead
 346:../generate/sc_drivers/r_ssif/src/lld/r_ssif_lld_aioif.c ****  ******************************************************************************/
 347:../generate/sc_drivers/r_ssif/src/lld/r_ssif_lld_aioif.c **** 
 348:../generate/sc_drivers/r_ssif/src/lld/r_ssif_lld_aioif.c **** /***********************************************************************************
 349:../generate/sc_drivers/r_ssif/src/lld/r_ssif_lld_aioif.c **** Function Name:         ahf_cancelall
 350:../generate/sc_drivers/r_ssif/src/lld/r_ssif_lld_aioif.c **** 
 351:../generate/sc_drivers/r_ssif/src/lld/r_ssif_lld_aioif.c **** Description:    Empty an aio control block queue.
 352:../generate/sc_drivers/r_ssif/src/lld/r_ssif_lld_aioif.c **** 
 353:../generate/sc_drivers/r_ssif/src/lld/r_ssif_lld_aioif.c **** Parameters:     ahf  - aio queue structure pointer.
 354:../generate/sc_drivers/r_ssif/src/lld/r_ssif_lld_aioif.c **** 
 355:../generate/sc_drivers/r_ssif/src/lld/r_ssif_lld_aioif.c **** Return value:   void
 356:../generate/sc_drivers/r_ssif/src/lld/r_ssif_lld_aioif.c **** 
 357:../generate/sc_drivers/r_ssif/src/lld/r_ssif_lld_aioif.c **** ***********************************************************************************/
 358:../generate/sc_drivers/r_ssif/src/lld/r_ssif_lld_aioif.c **** void ahf_cancelall (AHF_S * const ahf)
 359:../generate/sc_drivers/r_ssif/src/lld/r_ssif_lld_aioif.c **** {
 360:../generate/sc_drivers/r_ssif/src/lld/r_ssif_lld_aioif.c ****     struct aiocb *cur, *next;
 361:../generate/sc_drivers/r_ssif/src/lld/r_ssif_lld_aioif.c **** 
 362:../generate/sc_drivers/r_ssif/src/lld/r_ssif_lld_aioif.c ****     ahf_lock (ahf);
 363:../generate/sc_drivers/r_ssif/src/lld/r_ssif_lld_aioif.c **** 
 364:../generate/sc_drivers/r_ssif/src/lld/r_ssif_lld_aioif.c ****     /* cancel all pending requests */
 365:../generate/sc_drivers/r_ssif/src/lld/r_ssif_lld_aioif.c ****     cur = ahf->head;
 366:../generate/sc_drivers/r_ssif/src/lld/r_ssif_lld_aioif.c ****     while (cur != NULL)
 367:../generate/sc_drivers/r_ssif/src/lld/r_ssif_lld_aioif.c ****     {
 368:../generate/sc_drivers/r_ssif/src/lld/r_ssif_lld_aioif.c ****         next = cur->pNext;
 369:../generate/sc_drivers/r_ssif/src/lld/r_ssif_lld_aioif.c ****         cur->aio_return = IOIF_ECANCELED;
 370:../generate/sc_drivers/r_ssif/src/lld/r_ssif_lld_aioif.c ****         ahf_complete (ahf, cur);
 371:../generate/sc_drivers/r_ssif/src/lld/r_ssif_lld_aioif.c ****         cur = next;
 372:../generate/sc_drivers/r_ssif/src/lld/r_ssif_lld_aioif.c ****     }
 373:../generate/sc_drivers/r_ssif/src/lld/r_ssif_lld_aioif.c ****     /* mark the list as empty */
 374:../generate/sc_drivers/r_ssif/src/lld/r_ssif_lld_aioif.c ****     ahf->head = NULL;
 375:../generate/sc_drivers/r_ssif/src/lld/r_ssif_lld_aioif.c ****     ahf->tail = NULL;
 376:../generate/sc_drivers/r_ssif/src/lld/r_ssif_lld_aioif.c **** 
 377:../generate/sc_drivers/r_ssif/src/lld/r_ssif_lld_aioif.c ****     ahf_unlock (ahf);
 378:../generate/sc_drivers/r_ssif/src/lld/r_ssif_lld_aioif.c **** }
 379:../generate/sc_drivers/r_ssif/src/lld/r_ssif_lld_aioif.c **** /*******************************************************************************
 380:../generate/sc_drivers/r_ssif/src/lld/r_ssif_lld_aioif.c ****  End of function ahf_cancelall
 381:../generate/sc_drivers/r_ssif/src/lld/r_ssif_lld_aioif.c ****  ******************************************************************************/
 382:../generate/sc_drivers/r_ssif/src/lld/r_ssif_lld_aioif.c **** 
 383:../generate/sc_drivers/r_ssif/src/lld/r_ssif_lld_aioif.c **** /***********************************************************************************
 384:../generate/sc_drivers/r_ssif/src/lld/r_ssif_lld_aioif.c **** Function Name:         ahf_complete
 385:../generate/sc_drivers/r_ssif/src/lld/r_ssif_lld_aioif.c **** 
 386:../generate/sc_drivers/r_ssif/src/lld/r_ssif_lld_aioif.c **** Description:    Flag that the operation is complete.
 387:../generate/sc_drivers/r_ssif/src/lld/r_ssif_lld_aioif.c ****                 If required by the sigev_notify variable contents, the calling task is
 388:../generate/sc_drivers/r_ssif/src/lld/r_ssif_lld_aioif.c ****                 notified.
 389:../generate/sc_drivers/r_ssif/src/lld/r_ssif_lld_aioif.c ****                 If a notify was setup, it is signalled.
 390:../generate/sc_drivers/r_ssif/src/lld/r_ssif_lld_aioif.c ****                 
 391:../generate/sc_drivers/r_ssif/src/lld/r_ssif_lld_aioif.c **** Parameters:     ahf  - aio queue structure pointer.
 392:../generate/sc_drivers/r_ssif/src/lld/r_ssif_lld_aioif.c ****                 aio  - pointer to queue structure.
 393:../generate/sc_drivers/r_ssif/src/lld/r_ssif_lld_aioif.c **** 
 394:../generate/sc_drivers/r_ssif/src/lld/r_ssif_lld_aioif.c **** Return value:   0 on success.   negative error code on error.
 395:../generate/sc_drivers/r_ssif/src/lld/r_ssif_lld_aioif.c **** 
 396:../generate/sc_drivers/r_ssif/src/lld/r_ssif_lld_aioif.c **** ***********************************************************************************/
 397:../generate/sc_drivers/r_ssif/src/lld/r_ssif_lld_aioif.c **** void ahf_complete (AHF_S *ahf, struct aiocb * const aio)
 398:../generate/sc_drivers/r_ssif/src/lld/r_ssif_lld_aioif.c **** {
 611              		.loc 1 398 1 is_stmt 1 view -0
 612              		.cfi_startproc
 613              		@ args = 0, pretend = 0, frame = 0
 614              		@ frame_needed = 0, uses_anonymous_args = 0
 399:../generate/sc_drivers/r_ssif/src/lld/r_ssif_lld_aioif.c **** 	(void) ahf;
 615              		.loc 1 399 2 view .LVU185
 400:../generate/sc_drivers/r_ssif/src/lld/r_ssif_lld_aioif.c **** 
 401:../generate/sc_drivers/r_ssif/src/lld/r_ssif_lld_aioif.c ****     if (NULL == aio)
 616              		.loc 1 401 5 view .LVU186
 617              		.loc 1 401 8 is_stmt 0 view .LVU187
 618 0000 000051E3 		cmp	r1, #0
 619              		.loc 1 401 8 view .LVU188
 620 0004 1EFF2F01 		bxeq	lr
 398:../generate/sc_drivers/r_ssif/src/lld/r_ssif_lld_aioif.c **** 	(void) ahf;
 621              		.loc 1 398 1 view .LVU189
 622 0008 10402DE9 		push	{r4, lr}
 623              		.cfi_def_cfa_offset 8
 624              		.cfi_offset 4, -8
 625              		.cfi_offset 14, -4
 402:../generate/sc_drivers/r_ssif/src/lld/r_ssif_lld_aioif.c ****     {
 403:../generate/sc_drivers/r_ssif/src/lld/r_ssif_lld_aioif.c ****         return;
 404:../generate/sc_drivers/r_ssif/src/lld/r_ssif_lld_aioif.c ****     }
 405:../generate/sc_drivers/r_ssif/src/lld/r_ssif_lld_aioif.c **** 
 406:../generate/sc_drivers/r_ssif/src/lld/r_ssif_lld_aioif.c ****     /* Flag that the operation is complete */
 407:../generate/sc_drivers/r_ssif/src/lld/r_ssif_lld_aioif.c ****     /*  This function must be here
 408:../generate/sc_drivers/r_ssif/src/lld/r_ssif_lld_aioif.c ****         because another task may release AIOCB block
 409:../generate/sc_drivers/r_ssif/src/lld/r_ssif_lld_aioif.c ****         after the task changed by an iTRON function in the switch statement */
 410:../generate/sc_drivers/r_ssif/src/lld/r_ssif_lld_aioif.c ****     aio->aio_complete = 1;
 626              		.loc 1 410 5 is_stmt 1 view .LVU190
 627              		.loc 1 410 23 is_stmt 0 view .LVU191
 628 000c 0130A0E3 		mov	r3, #1
 629 0010 0C3081E5 		str	r3, [r1, #12]
 411:../generate/sc_drivers/r_ssif/src/lld/r_ssif_lld_aioif.c ****     switch (aio->aio_sigevent.sigev_notify)
 630              		.loc 1 411 5 is_stmt 1 view .LVU192
 631              		.loc 1 411 30 is_stmt 0 view .LVU193
 632 0014 1C3091E5 		ldr	r3, [r1, #28]
 633              		.loc 1 411 5 view .LVU194
 634 0018 020053E3 		cmp	r3, #2
 635 001c 0400000A 		beq	.L50
 636 0020 030053E3 		cmp	r3, #3
 637 0024 1080BD18 		popne	{r4, pc}
 412:../generate/sc_drivers/r_ssif/src/lld/r_ssif_lld_aioif.c ****     {
 413:../generate/sc_drivers/r_ssif/src/lld/r_ssif_lld_aioif.c ****     case SIGEV_EVENT:
 414:../generate/sc_drivers/r_ssif/src/lld/r_ssif_lld_aioif.c ****         R_OS_EventSet(&aio->aio_sigevent.sigev_signo); 
 638              		.loc 1 414 9 is_stmt 1 view .LVU195
 639 0028 200081E2 		add	r0, r1, #32
 640              	.LVL68:
 641              		.loc 1 414 9 is_stmt 0 view .LVU196
 642 002c FEFFFFEB 		bl	R_OS_EventSet
 643              	.LVL69:
 415:../generate/sc_drivers/r_ssif/src/lld/r_ssif_lld_aioif.c ****         break;
 644              		.loc 1 415 9 is_stmt 1 view .LVU197
 645 0030 1080BDE8 		pop	{r4, pc}
 646              	.LVL70:
 647              	.L50:
 416:../generate/sc_drivers/r_ssif/src/lld/r_ssif_lld_aioif.c **** 
 417:../generate/sc_drivers/r_ssif/src/lld/r_ssif_lld_aioif.c ****     case SIGEV_THREAD:
 418:../generate/sc_drivers/r_ssif/src/lld/r_ssif_lld_aioif.c ****         if (aio->aio_sigevent.sigev_notify_function)
 648              		.loc 1 418 9 view .LVU198
 649              		.loc 1 418 30 is_stmt 0 view .LVU199
 650 0034 283091E5 		ldr	r3, [r1, #40]
 651              		.loc 1 418 12 view .LVU200
 652 0038 000053E3 		cmp	r3, #0
 653 003c 1080BD08 		popeq	{r4, pc}
 419:../generate/sc_drivers/r_ssif/src/lld/r_ssif_lld_aioif.c ****         {
 420:../generate/sc_drivers/r_ssif/src/lld/r_ssif_lld_aioif.c ****             (aio->aio_sigevent.sigev_notify_function)
 654              		.loc 1 420 13 is_stmt 1 view .LVU201
 655              		.loc 1 420 31 is_stmt 0 view .LVU202
 656 0040 240091E5 		ldr	r0, [r1, #36]
 657              	.LVL71:
 658              		.loc 1 420 31 view .LVU203
 659 0044 33FF2FE1 		blx	r3
 660              	.LVL72:
 421:../generate/sc_drivers/r_ssif/src/lld/r_ssif_lld_aioif.c ****                 (aio->aio_sigevent.sigev_value);
 422:../generate/sc_drivers/r_ssif/src/lld/r_ssif_lld_aioif.c ****         }
 423:../generate/sc_drivers/r_ssif/src/lld/r_ssif_lld_aioif.c ****         break;
 424:../generate/sc_drivers/r_ssif/src/lld/r_ssif_lld_aioif.c **** 
 425:../generate/sc_drivers/r_ssif/src/lld/r_ssif_lld_aioif.c ****     case SIGEV_CALLBACK:
 426:../generate/sc_drivers/r_ssif/src/lld/r_ssif_lld_aioif.c ****         break;
 427:../generate/sc_drivers/r_ssif/src/lld/r_ssif_lld_aioif.c **** 
 428:../generate/sc_drivers/r_ssif/src/lld/r_ssif_lld_aioif.c ****     default:
 429:../generate/sc_drivers/r_ssif/src/lld/r_ssif_lld_aioif.c ****         /* No notify function */
 430:../generate/sc_drivers/r_ssif/src/lld/r_ssif_lld_aioif.c ****         break;
 431:../generate/sc_drivers/r_ssif/src/lld/r_ssif_lld_aioif.c **** 
 432:../generate/sc_drivers/r_ssif/src/lld/r_ssif_lld_aioif.c ****     }
 433:../generate/sc_drivers/r_ssif/src/lld/r_ssif_lld_aioif.c **** }
 661              		.loc 1 433 1 view .LVU204
 662 0048 1080BDE8 		pop	{r4, pc}
 663              		.cfi_endproc
 664              	.LFE14:
 666              		.section	.text.ahf_cancelall,"ax",%progbits
 667              		.align	2
 668              		.global	ahf_cancelall
 669              		.syntax unified
 670              		.arm
 671              		.fpu neon
 673              	ahf_cancelall:
 674              	.LVL73:
 675              	.LFB13:
 359:../generate/sc_drivers/r_ssif/src/lld/r_ssif_lld_aioif.c ****     struct aiocb *cur, *next;
 676              		.loc 1 359 1 is_stmt 1 view -0
 677              		.cfi_startproc
 678              		@ args = 0, pretend = 0, frame = 0
 679              		@ frame_needed = 0, uses_anonymous_args = 0
 359:../generate/sc_drivers/r_ssif/src/lld/r_ssif_lld_aioif.c ****     struct aiocb *cur, *next;
 680              		.loc 1 359 1 is_stmt 0 view .LVU206
 681 0000 70402DE9 		push	{r4, r5, r6, lr}
 682              		.cfi_def_cfa_offset 16
 683              		.cfi_offset 4, -16
 684              		.cfi_offset 5, -12
 685              		.cfi_offset 6, -8
 686              		.cfi_offset 14, -4
 687 0004 0050A0E1 		mov	r5, r0
 360:../generate/sc_drivers/r_ssif/src/lld/r_ssif_lld_aioif.c **** 
 688              		.loc 1 360 5 is_stmt 1 view .LVU207
 362:../generate/sc_drivers/r_ssif/src/lld/r_ssif_lld_aioif.c **** 
 689              		.loc 1 362 5 view .LVU208
 690 0008 FEFFFFEB 		bl	ahf_lock
 691              	.LVL74:
 365:../generate/sc_drivers/r_ssif/src/lld/r_ssif_lld_aioif.c ****     while (cur != NULL)
 692              		.loc 1 365 5 view .LVU209
 365:../generate/sc_drivers/r_ssif/src/lld/r_ssif_lld_aioif.c ****     while (cur != NULL)
 693              		.loc 1 365 9 is_stmt 0 view .LVU210
 694 000c 001095E5 		ldr	r1, [r5]
 695              	.LVL75:
 366:../generate/sc_drivers/r_ssif/src/lld/r_ssif_lld_aioif.c ****     {
 696              		.loc 1 366 5 is_stmt 1 view .LVU211
 697              	.L56:
 366:../generate/sc_drivers/r_ssif/src/lld/r_ssif_lld_aioif.c ****     {
 698              		.loc 1 366 11 view .LVU212
 699 0010 000051E3 		cmp	r1, #0
 700 0014 0600000A 		beq	.L59
 368:../generate/sc_drivers/r_ssif/src/lld/r_ssif_lld_aioif.c ****         cur->aio_return = IOIF_ECANCELED;
 701              		.loc 1 368 9 view .LVU213
 368:../generate/sc_drivers/r_ssif/src/lld/r_ssif_lld_aioif.c ****         cur->aio_return = IOIF_ECANCELED;
 702              		.loc 1 368 14 is_stmt 0 view .LVU214
 703 0018 004091E5 		ldr	r4, [r1]
 704              	.LVL76:
 369:../generate/sc_drivers/r_ssif/src/lld/r_ssif_lld_aioif.c ****         ahf_complete (ahf, cur);
 705              		.loc 1 369 9 is_stmt 1 view .LVU215
 369:../generate/sc_drivers/r_ssif/src/lld/r_ssif_lld_aioif.c ****         ahf_complete (ahf, cur);
 706              		.loc 1 369 25 is_stmt 0 view .LVU216
 707 001c 4330E0E3 		mvn	r3, #67
 708 0020 083081E5 		str	r3, [r1, #8]
 370:../generate/sc_drivers/r_ssif/src/lld/r_ssif_lld_aioif.c ****         cur = next;
 709              		.loc 1 370 9 is_stmt 1 view .LVU217
 710 0024 0500A0E1 		mov	r0, r5
 711 0028 FEFFFFEB 		bl	ahf_complete
 712              	.LVL77:
 371:../generate/sc_drivers/r_ssif/src/lld/r_ssif_lld_aioif.c ****     }
 713              		.loc 1 371 9 view .LVU218
 371:../generate/sc_drivers/r_ssif/src/lld/r_ssif_lld_aioif.c ****     }
 714              		.loc 1 371 13 is_stmt 0 view .LVU219
 715 002c 0410A0E1 		mov	r1, r4
 716 0030 F6FFFFEA 		b	.L56
 717              	.LVL78:
 718              	.L59:
 374:../generate/sc_drivers/r_ssif/src/lld/r_ssif_lld_aioif.c ****     ahf->tail = NULL;
 719              		.loc 1 374 5 is_stmt 1 view .LVU220
 374:../generate/sc_drivers/r_ssif/src/lld/r_ssif_lld_aioif.c ****     ahf->tail = NULL;
 720              		.loc 1 374 15 is_stmt 0 view .LVU221
 721 0034 0030A0E3 		mov	r3, #0
 722 0038 003085E5 		str	r3, [r5]
 375:../generate/sc_drivers/r_ssif/src/lld/r_ssif_lld_aioif.c **** 
 723              		.loc 1 375 5 is_stmt 1 view .LVU222
 375:../generate/sc_drivers/r_ssif/src/lld/r_ssif_lld_aioif.c **** 
 724              		.loc 1 375 15 is_stmt 0 view .LVU223
 725 003c 043085E5 		str	r3, [r5, #4]
 377:../generate/sc_drivers/r_ssif/src/lld/r_ssif_lld_aioif.c **** }
 726              		.loc 1 377 5 is_stmt 1 view .LVU224
 727 0040 0500A0E1 		mov	r0, r5
 728 0044 FEFFFFEB 		bl	ahf_unlock
 729              	.LVL79:
 378:../generate/sc_drivers/r_ssif/src/lld/r_ssif_lld_aioif.c **** /*******************************************************************************
 730              		.loc 1 378 1 is_stmt 0 view .LVU225
 731 0048 7080BDE8 		pop	{r4, r5, r6, pc}
 732              		.cfi_endproc
 733              	.LFE13:
 735              		.section	.text.ahf_cancel,"ax",%progbits
 736              		.align	2
 737              		.global	ahf_cancel
 738              		.syntax unified
 739              		.arm
 740              		.fpu neon
 742              	ahf_cancel:
 743              	.LVL80:
 744              	.LFB15:
 434:../generate/sc_drivers/r_ssif/src/lld/r_ssif_lld_aioif.c **** /*******************************************************************************
 435:../generate/sc_drivers/r_ssif/src/lld/r_ssif_lld_aioif.c ****  End of function ahf_complete
 436:../generate/sc_drivers/r_ssif/src/lld/r_ssif_lld_aioif.c ****  ******************************************************************************/
 437:../generate/sc_drivers/r_ssif/src/lld/r_ssif_lld_aioif.c **** 
 438:../generate/sc_drivers/r_ssif/src/lld/r_ssif_lld_aioif.c **** /***********************************************************************************
 439:../generate/sc_drivers/r_ssif/src/lld/r_ssif_lld_aioif.c **** Function Name:         ahf_cancel
 440:../generate/sc_drivers/r_ssif/src/lld/r_ssif_lld_aioif.c **** 
 441:../generate/sc_drivers/r_ssif/src/lld/r_ssif_lld_aioif.c **** Description:    Remove an aio control block from the queue.
 442:../generate/sc_drivers/r_ssif/src/lld/r_ssif_lld_aioif.c ****                 Signal completion to the calling task and wake it up.
 443:../generate/sc_drivers/r_ssif/src/lld/r_ssif_lld_aioif.c ****                 If aio is NULL, cancel all.
 444:../generate/sc_drivers/r_ssif/src/lld/r_ssif_lld_aioif.c ****                 
 445:../generate/sc_drivers/r_ssif/src/lld/r_ssif_lld_aioif.c **** Parameters:     ahf  - aio queue structure pointer.
 446:../generate/sc_drivers/r_ssif/src/lld/r_ssif_lld_aioif.c ****                 aio  - pointer to queue structure.
 447:../generate/sc_drivers/r_ssif/src/lld/r_ssif_lld_aioif.c **** 
 448:../generate/sc_drivers/r_ssif/src/lld/r_ssif_lld_aioif.c **** Return value:   0 on success.   negative error code on error.
 449:../generate/sc_drivers/r_ssif/src/lld/r_ssif_lld_aioif.c **** 
 450:../generate/sc_drivers/r_ssif/src/lld/r_ssif_lld_aioif.c **** ***********************************************************************************/
 451:../generate/sc_drivers/r_ssif/src/lld/r_ssif_lld_aioif.c **** int32_t ahf_cancel (AHF_S * const ahf, struct aiocb * const aio)
 452:../generate/sc_drivers/r_ssif/src/lld/r_ssif_lld_aioif.c **** {
 745              		.loc 1 452 1 is_stmt 1 view -0
 746              		.cfi_startproc
 747              		@ args = 0, pretend = 0, frame = 0
 748              		@ frame_needed = 0, uses_anonymous_args = 0
 749              		.loc 1 452 1 is_stmt 0 view .LVU227
 750 0000 70402DE9 		push	{r4, r5, r6, lr}
 751              		.cfi_def_cfa_offset 16
 752              		.cfi_offset 4, -16
 753              		.cfi_offset 5, -12
 754              		.cfi_offset 6, -8
 755              		.cfi_offset 14, -4
 453:../generate/sc_drivers/r_ssif/src/lld/r_ssif_lld_aioif.c ****     struct aiocb *cur;
 756              		.loc 1 453 5 is_stmt 1 view .LVU228
 454:../generate/sc_drivers/r_ssif/src/lld/r_ssif_lld_aioif.c ****     int32_t rv = IOIF_EINVAL;
 757              		.loc 1 454 5 view .LVU229
 758              	.LVL81:
 455:../generate/sc_drivers/r_ssif/src/lld/r_ssif_lld_aioif.c **** 
 456:../generate/sc_drivers/r_ssif/src/lld/r_ssif_lld_aioif.c ****     if (ahf == NULL)
 759              		.loc 1 456 5 view .LVU230
 760              		.loc 1 456 8 is_stmt 0 view .LVU231
 761 0004 005050E2 		subs	r5, r0, #0
 762 0008 3200000A 		beq	.L70
 763 000c 0140A0E1 		mov	r4, r1
 457:../generate/sc_drivers/r_ssif/src/lld/r_ssif_lld_aioif.c ****     {
 458:../generate/sc_drivers/r_ssif/src/lld/r_ssif_lld_aioif.c ****         return IOIF_EFAULT;  
 459:../generate/sc_drivers/r_ssif/src/lld/r_ssif_lld_aioif.c ****     }
 460:../generate/sc_drivers/r_ssif/src/lld/r_ssif_lld_aioif.c ****      
 461:../generate/sc_drivers/r_ssif/src/lld/r_ssif_lld_aioif.c ****     /* If aio is NULL, must cancel all. */
 462:../generate/sc_drivers/r_ssif/src/lld/r_ssif_lld_aioif.c ****     if(NULL == aio)
 764              		.loc 1 462 5 is_stmt 1 view .LVU232
 765              		.loc 1 462 7 is_stmt 0 view .LVU233
 766 0010 000051E3 		cmp	r1, #0
 767 0014 0A00000A 		beq	.L73
 463:../generate/sc_drivers/r_ssif/src/lld/r_ssif_lld_aioif.c ****     {
 464:../generate/sc_drivers/r_ssif/src/lld/r_ssif_lld_aioif.c ****         ahf_cancelall(ahf);
 465:../generate/sc_drivers/r_ssif/src/lld/r_ssif_lld_aioif.c ****         rv = 0;
 466:../generate/sc_drivers/r_ssif/src/lld/r_ssif_lld_aioif.c ****     }
 467:../generate/sc_drivers/r_ssif/src/lld/r_ssif_lld_aioif.c ****     
 468:../generate/sc_drivers/r_ssif/src/lld/r_ssif_lld_aioif.c ****     else
 469:../generate/sc_drivers/r_ssif/src/lld/r_ssif_lld_aioif.c ****     {
 470:../generate/sc_drivers/r_ssif/src/lld/r_ssif_lld_aioif.c ****         ahf_lock (ahf);
 768              		.loc 1 470 9 is_stmt 1 view .LVU234
 769 0018 0500A0E1 		mov	r0, r5
 770              		.loc 1 470 9 is_stmt 0 view .LVU235
 771 001c FEFFFFEB 		bl	ahf_lock
 772              	.LVL82:
 471:../generate/sc_drivers/r_ssif/src/lld/r_ssif_lld_aioif.c **** 
 472:../generate/sc_drivers/r_ssif/src/lld/r_ssif_lld_aioif.c ****         cur = ahf->head;
 773              		.loc 1 472 9 is_stmt 1 view .LVU236
 774              		.loc 1 472 13 is_stmt 0 view .LVU237
 775 0020 003095E5 		ldr	r3, [r5]
 776              	.LVL83:
 473:../generate/sc_drivers/r_ssif/src/lld/r_ssif_lld_aioif.c ****         while ((cur != NULL) && (cur != aio))
 777              		.loc 1 473 9 is_stmt 1 view .LVU238
 778              	.L63:
 779              		.loc 1 473 15 view .LVU239
 780              		.loc 1 473 38 is_stmt 0 view .LVU240
 781 0024 042053E0 		subs	r2, r3, r4
 782 0028 0120A013 		movne	r2, #1
 783              		.loc 1 473 30 view .LVU241
 784 002c 000053E3 		cmp	r3, #0
 785 0030 0020A003 		moveq	r2, #0
 786              		.loc 1 473 15 view .LVU242
 787 0034 000052E3 		cmp	r2, #0
 788 0038 0400000A 		beq	.L74
 474:../generate/sc_drivers/r_ssif/src/lld/r_ssif_lld_aioif.c ****         {
 475:../generate/sc_drivers/r_ssif/src/lld/r_ssif_lld_aioif.c ****             cur = cur->pNext;
 789              		.loc 1 475 13 is_stmt 1 view .LVU243
 790              		.loc 1 475 17 is_stmt 0 view .LVU244
 791 003c 003093E5 		ldr	r3, [r3]
 792              	.LVL84:
 793              		.loc 1 475 17 view .LVU245
 794 0040 F7FFFFEA 		b	.L63
 795              	.LVL85:
 796              	.L73:
 464:../generate/sc_drivers/r_ssif/src/lld/r_ssif_lld_aioif.c ****         rv = 0;
 797              		.loc 1 464 9 is_stmt 1 view .LVU246
 798 0044 0500A0E1 		mov	r0, r5
 799              	.LVL86:
 464:../generate/sc_drivers/r_ssif/src/lld/r_ssif_lld_aioif.c ****         rv = 0;
 800              		.loc 1 464 9 is_stmt 0 view .LVU247
 801 0048 FEFFFFEB 		bl	ahf_cancelall
 802              	.LVL87:
 465:../generate/sc_drivers/r_ssif/src/lld/r_ssif_lld_aioif.c ****     }
 803              		.loc 1 465 9 is_stmt 1 view .LVU248
 465:../generate/sc_drivers/r_ssif/src/lld/r_ssif_lld_aioif.c ****     }
 804              		.loc 1 465 9 is_stmt 0 view .LVU249
 805 004c 040000EA 		b	.L60
 806              	.LVL88:
 807              	.L74:
 476:../generate/sc_drivers/r_ssif/src/lld/r_ssif_lld_aioif.c ****         }
 477:../generate/sc_drivers/r_ssif/src/lld/r_ssif_lld_aioif.c **** 
 478:../generate/sc_drivers/r_ssif/src/lld/r_ssif_lld_aioif.c ****         if (cur == aio)
 808              		.loc 1 478 9 is_stmt 1 view .LVU250
 809              		.loc 1 478 12 is_stmt 0 view .LVU251
 810 0050 040053E1 		cmp	r3, r4
 811 0054 0400000A 		beq	.L75
 454:../generate/sc_drivers/r_ssif/src/lld/r_ssif_lld_aioif.c **** 
 812              		.loc 1 454 13 view .LVU252
 813 0058 1B40E0E3 		mvn	r4, #27
 814              	.LVL89:
 815              	.L65:
 479:../generate/sc_drivers/r_ssif/src/lld/r_ssif_lld_aioif.c ****         {
 480:../generate/sc_drivers/r_ssif/src/lld/r_ssif_lld_aioif.c ****             if (aio->pPrev != NULL)
 481:../generate/sc_drivers/r_ssif/src/lld/r_ssif_lld_aioif.c ****             {
 482:../generate/sc_drivers/r_ssif/src/lld/r_ssif_lld_aioif.c ****                 aio->pPrev->pNext = aio->pNext;
 483:../generate/sc_drivers/r_ssif/src/lld/r_ssif_lld_aioif.c ****             }
 484:../generate/sc_drivers/r_ssif/src/lld/r_ssif_lld_aioif.c **** 
 485:../generate/sc_drivers/r_ssif/src/lld/r_ssif_lld_aioif.c ****             if (aio->pNext != NULL)
 486:../generate/sc_drivers/r_ssif/src/lld/r_ssif_lld_aioif.c ****             {
 487:../generate/sc_drivers/r_ssif/src/lld/r_ssif_lld_aioif.c ****                 aio->pNext->pPrev = aio->pPrev;
 488:../generate/sc_drivers/r_ssif/src/lld/r_ssif_lld_aioif.c ****             }
 489:../generate/sc_drivers/r_ssif/src/lld/r_ssif_lld_aioif.c **** 
 490:../generate/sc_drivers/r_ssif/src/lld/r_ssif_lld_aioif.c ****             if (ahf->head == cur)
 491:../generate/sc_drivers/r_ssif/src/lld/r_ssif_lld_aioif.c ****             {
 492:../generate/sc_drivers/r_ssif/src/lld/r_ssif_lld_aioif.c ****                 ahf->head = cur->pNext;
 493:../generate/sc_drivers/r_ssif/src/lld/r_ssif_lld_aioif.c ****             }
 494:../generate/sc_drivers/r_ssif/src/lld/r_ssif_lld_aioif.c **** 
 495:../generate/sc_drivers/r_ssif/src/lld/r_ssif_lld_aioif.c ****             if (ahf->tail == cur)
 496:../generate/sc_drivers/r_ssif/src/lld/r_ssif_lld_aioif.c ****             {
 497:../generate/sc_drivers/r_ssif/src/lld/r_ssif_lld_aioif.c ****                 ahf->tail = cur->pPrev;
 498:../generate/sc_drivers/r_ssif/src/lld/r_ssif_lld_aioif.c ****             }
 499:../generate/sc_drivers/r_ssif/src/lld/r_ssif_lld_aioif.c **** 
 500:../generate/sc_drivers/r_ssif/src/lld/r_ssif_lld_aioif.c ****             cur->aio_return = IOIF_ECANCELED;
 501:../generate/sc_drivers/r_ssif/src/lld/r_ssif_lld_aioif.c ****             ahf_complete (ahf, aio);
 502:../generate/sc_drivers/r_ssif/src/lld/r_ssif_lld_aioif.c ****             rv = 0;
 503:../generate/sc_drivers/r_ssif/src/lld/r_ssif_lld_aioif.c ****         }
 504:../generate/sc_drivers/r_ssif/src/lld/r_ssif_lld_aioif.c **** 
 505:../generate/sc_drivers/r_ssif/src/lld/r_ssif_lld_aioif.c ****         ahf_unlock (ahf);
 816              		.loc 1 505 9 is_stmt 1 view .LVU253
 817 005c 0500A0E1 		mov	r0, r5
 818 0060 FEFFFFEB 		bl	ahf_unlock
 819              	.LVL90:
 820              	.L60:
 506:../generate/sc_drivers/r_ssif/src/lld/r_ssif_lld_aioif.c ****     }
 507:../generate/sc_drivers/r_ssif/src/lld/r_ssif_lld_aioif.c ****     return rv;
 508:../generate/sc_drivers/r_ssif/src/lld/r_ssif_lld_aioif.c **** }
 821              		.loc 1 508 1 is_stmt 0 view .LVU254
 822 0064 0400A0E1 		mov	r0, r4
 823 0068 7080BDE8 		pop	{r4, r5, r6, pc}
 824              	.LVL91:
 825              	.L75:
 480:../generate/sc_drivers/r_ssif/src/lld/r_ssif_lld_aioif.c ****             {
 826              		.loc 1 480 13 is_stmt 1 view .LVU255
 480:../generate/sc_drivers/r_ssif/src/lld/r_ssif_lld_aioif.c ****             {
 827              		.loc 1 480 20 is_stmt 0 view .LVU256
 828 006c 042094E5 		ldr	r2, [r4, #4]
 480:../generate/sc_drivers/r_ssif/src/lld/r_ssif_lld_aioif.c ****             {
 829              		.loc 1 480 16 view .LVU257
 830 0070 000052E3 		cmp	r2, #0
 482:../generate/sc_drivers/r_ssif/src/lld/r_ssif_lld_aioif.c ****             }
 831              		.loc 1 482 17 is_stmt 1 view .LVU258
 482:../generate/sc_drivers/r_ssif/src/lld/r_ssif_lld_aioif.c ****             }
 832              		.loc 1 482 40 is_stmt 0 view .LVU259
 833 0074 00109415 		ldrne	r1, [r4]
 482:../generate/sc_drivers/r_ssif/src/lld/r_ssif_lld_aioif.c ****             }
 834              		.loc 1 482 35 view .LVU260
 835 0078 00108215 		strne	r1, [r2]
 836              	.L66:
 485:../generate/sc_drivers/r_ssif/src/lld/r_ssif_lld_aioif.c ****             {
 837              		.loc 1 485 13 is_stmt 1 view .LVU261
 485:../generate/sc_drivers/r_ssif/src/lld/r_ssif_lld_aioif.c ****             {
 838              		.loc 1 485 20 is_stmt 0 view .LVU262
 839 007c 002094E5 		ldr	r2, [r4]
 485:../generate/sc_drivers/r_ssif/src/lld/r_ssif_lld_aioif.c ****             {
 840              		.loc 1 485 16 view .LVU263
 841 0080 000052E3 		cmp	r2, #0
 487:../generate/sc_drivers/r_ssif/src/lld/r_ssif_lld_aioif.c ****             }
 842              		.loc 1 487 17 is_stmt 1 view .LVU264
 487:../generate/sc_drivers/r_ssif/src/lld/r_ssif_lld_aioif.c ****             }
 843              		.loc 1 487 40 is_stmt 0 view .LVU265
 844 0084 04109415 		ldrne	r1, [r4, #4]
 487:../generate/sc_drivers/r_ssif/src/lld/r_ssif_lld_aioif.c ****             }
 845              		.loc 1 487 35 view .LVU266
 846 0088 04108215 		strne	r1, [r2, #4]
 847              	.L67:
 490:../generate/sc_drivers/r_ssif/src/lld/r_ssif_lld_aioif.c ****             {
 848              		.loc 1 490 13 is_stmt 1 view .LVU267
 490:../generate/sc_drivers/r_ssif/src/lld/r_ssif_lld_aioif.c ****             {
 849              		.loc 1 490 20 is_stmt 0 view .LVU268
 850 008c 002095E5 		ldr	r2, [r5]
 490:../generate/sc_drivers/r_ssif/src/lld/r_ssif_lld_aioif.c ****             {
 851              		.loc 1 490 16 view .LVU269
 852 0090 030052E1 		cmp	r2, r3
 853 0094 0900000A 		beq	.L76
 854              	.L68:
 495:../generate/sc_drivers/r_ssif/src/lld/r_ssif_lld_aioif.c ****             {
 855              		.loc 1 495 13 is_stmt 1 view .LVU270
 495:../generate/sc_drivers/r_ssif/src/lld/r_ssif_lld_aioif.c ****             {
 856              		.loc 1 495 20 is_stmt 0 view .LVU271
 857 0098 042095E5 		ldr	r2, [r5, #4]
 495:../generate/sc_drivers/r_ssif/src/lld/r_ssif_lld_aioif.c ****             {
 858              		.loc 1 495 16 view .LVU272
 859 009c 030052E1 		cmp	r2, r3
 860 00a0 0900000A 		beq	.L77
 861              	.L69:
 500:../generate/sc_drivers/r_ssif/src/lld/r_ssif_lld_aioif.c ****             ahf_complete (ahf, aio);
 862              		.loc 1 500 13 is_stmt 1 view .LVU273
 500:../generate/sc_drivers/r_ssif/src/lld/r_ssif_lld_aioif.c ****             ahf_complete (ahf, aio);
 863              		.loc 1 500 29 is_stmt 0 view .LVU274
 864 00a4 4320E0E3 		mvn	r2, #67
 865 00a8 082083E5 		str	r2, [r3, #8]
 501:../generate/sc_drivers/r_ssif/src/lld/r_ssif_lld_aioif.c ****             rv = 0;
 866              		.loc 1 501 13 is_stmt 1 view .LVU275
 867 00ac 0410A0E1 		mov	r1, r4
 868 00b0 0500A0E1 		mov	r0, r5
 869 00b4 FEFFFFEB 		bl	ahf_complete
 870              	.LVL92:
 502:../generate/sc_drivers/r_ssif/src/lld/r_ssif_lld_aioif.c ****         }
 871              		.loc 1 502 13 view .LVU276
 502:../generate/sc_drivers/r_ssif/src/lld/r_ssif_lld_aioif.c ****         }
 872              		.loc 1 502 16 is_stmt 0 view .LVU277
 873 00b8 0040A0E3 		mov	r4, #0
 874              	.LVL93:
 502:../generate/sc_drivers/r_ssif/src/lld/r_ssif_lld_aioif.c ****         }
 875              		.loc 1 502 16 view .LVU278
 876 00bc E6FFFFEA 		b	.L65
 877              	.LVL94:
 878              	.L76:
 492:../generate/sc_drivers/r_ssif/src/lld/r_ssif_lld_aioif.c ****             }
 879              		.loc 1 492 17 is_stmt 1 view .LVU279
 492:../generate/sc_drivers/r_ssif/src/lld/r_ssif_lld_aioif.c ****             }
 880              		.loc 1 492 32 is_stmt 0 view .LVU280
 881 00c0 002093E5 		ldr	r2, [r3]
 492:../generate/sc_drivers/r_ssif/src/lld/r_ssif_lld_aioif.c ****             }
 882              		.loc 1 492 27 view .LVU281
 883 00c4 002085E5 		str	r2, [r5]
 884 00c8 F2FFFFEA 		b	.L68
 885              	.L77:
 497:../generate/sc_drivers/r_ssif/src/lld/r_ssif_lld_aioif.c ****             }
 886              		.loc 1 497 17 is_stmt 1 view .LVU282
 497:../generate/sc_drivers/r_ssif/src/lld/r_ssif_lld_aioif.c ****             }
 887              		.loc 1 497 32 is_stmt 0 view .LVU283
 888 00cc 042093E5 		ldr	r2, [r3, #4]
 497:../generate/sc_drivers/r_ssif/src/lld/r_ssif_lld_aioif.c ****             }
 889              		.loc 1 497 27 view .LVU284
 890 00d0 042085E5 		str	r2, [r5, #4]
 891 00d4 F2FFFFEA 		b	.L69
 892              	.LVL95:
 893              	.L70:
 458:../generate/sc_drivers/r_ssif/src/lld/r_ssif_lld_aioif.c ****     }
 894              		.loc 1 458 16 view .LVU285
 895 00d8 6040E0E3 		mvn	r4, #96
 896              	.LVL96:
 458:../generate/sc_drivers/r_ssif/src/lld/r_ssif_lld_aioif.c ****     }
 897              		.loc 1 458 16 view .LVU286
 898 00dc E0FFFFEA 		b	.L60
 899              		.cfi_endproc
 900              	.LFE15:
 902              		.text
 903              	.Letext0:
 904              		.file 2 "c:\\program files (x86)\\gnu arm embedded toolchain\\9 2020-q2-update\\lib\\gcc\\arm-none
 905              		.file 3 "c:\\program files (x86)\\gnu arm embedded toolchain\\9 2020-q2-update\\arm-none-eabi\\inc
 906              		.file 4 "c:\\program files (x86)\\gnu arm embedded toolchain\\9 2020-q2-update\\arm-none-eabi\\inc
 907              		.file 5 "c:\\program files (x86)\\gnu arm embedded toolchain\\9 2020-q2-update\\arm-none-eabi\\inc
 908              		.file 6 "c:\\program files (x86)\\gnu arm embedded toolchain\\9 2020-q2-update\\arm-none-eabi\\inc
 909              		.file 7 "c:\\program files (x86)\\gnu arm embedded toolchain\\9 2020-q2-update\\arm-none-eabi\\inc
 910              		.file 8 "c:\\program files (x86)\\gnu arm embedded toolchain\\9 2020-q2-update\\arm-none-eabi\\inc
 911              		.file 9 "C:/Users/ryota/e2_studio/workspace/rza2m_ssif_sample_freertos_gcc/generate/system/inc/r_t
 912              		.file 10 "C:/Users/ryota/e2_studio/workspace/rza2m_ssif_sample_freertos_gcc/generate/system/inc/dr
 913              		.file 11 "C:/Users/ryota/e2_studio/workspace/rza2m_ssif_sample_freertos_gcc/generate/os_abstractio
 914              		.file 12 "C:/Users/ryota/e2_studio/workspace/rza2m_ssif_sample_freertos_gcc/generate/sc_drivers/r_
 915              		.file 13 "c:\\program files (x86)\\gnu arm embedded toolchain\\9 2020-q2-update\\arm-none-eabi\\in
 916              		.file 14 "c:\\program files (x86)\\gnu arm embedded toolchain\\9 2020-q2-update\\arm-none-eabi\\in
 917              		.file 15 "C:/Users/ryota/e2_studio/workspace/rza2m_ssif_sample_freertos_gcc/generate/sc_drivers/r_
 918              		.file 16 "C:/Users/ryota/e2_studio/workspace/rza2m_ssif_sample_freertos_gcc/generate/sc_drivers/r_
 919              		.file 17 "C:/Users/ryota/e2_studio/workspace/rza2m_ssif_sample_freertos_gcc/generate/os_abstractio
 920              		.file 18 "C:/Users/ryota/e2_studio/workspace/rza2m_ssif_sample_freertos_gcc/generate/compiler/inc/