   1              		.cpu cortex-a9
   2              		.eabi_attribute 28, 1
   3              		.eabi_attribute 20, 1
   4              		.eabi_attribute 21, 1
   5              		.eabi_attribute 23, 3
   6              		.eabi_attribute 24, 1
   7              		.eabi_attribute 25, 1
   8              		.eabi_attribute 26, 1
   9              		.eabi_attribute 30, 1
  10              		.eabi_attribute 34, 0
  11              		.eabi_attribute 18, 4
  12              		.file	"r_os_abstraction_stdio.c"
  13              		.text
  14              	.Ltext0:
  15              		.cfi_sections	.debug_frame
  16              		.section	.text.stdio_hld_open,"ax",%progbits
  17              		.align	2
  18              		.arch armv7-a
  19              		.arch_extension mp
  20              		.arch_extension sec
  21              		.syntax unified
  22              		.arm
  23              		.fpu neon
  25              	stdio_hld_open:
  26              	.LVL0:
  27              	.LFB6:
  28              		.file 1 "../generate/os_abstraction/src/r_os_abstraction_stdio.c"
   1:../generate/os_abstraction/src/r_os_abstraction_stdio.c **** /**************************************************************************************************
   2:../generate/os_abstraction/src/r_os_abstraction_stdio.c ****  * DISCLAIMER
   3:../generate/os_abstraction/src/r_os_abstraction_stdio.c ****  * This software is supplied by Renesas Electronics Corporation and is only intended for use with R
   4:../generate/os_abstraction/src/r_os_abstraction_stdio.c ****  * other uses are authorized. This software is owned by Renesas Electronics Corporation and is prot
   5:../generate/os_abstraction/src/r_os_abstraction_stdio.c ****  * applicable laws, including copyright laws.
   6:../generate/os_abstraction/src/r_os_abstraction_stdio.c ****  * THIS SOFTWARE IS PROVIDED "AS IS" AND RENESAS MAKES NO WARRANTIES REGARDING
   7:../generate/os_abstraction/src/r_os_abstraction_stdio.c ****  * THIS SOFTWARE, WHETHER EXPRESS, IMPLIED OR STATUTORY, INCLUDING BUT NOT LIMITED TO WARRANTIES OF
   8:../generate/os_abstraction/src/r_os_abstraction_stdio.c ****  * FITNESS FOR A PARTICULAR PURPOSE AND NON-INFRINGEMENT. ALL SUCH WARRANTIES ARE EXPRESSLY DISCLAI
   9:../generate/os_abstraction/src/r_os_abstraction_stdio.c ****  * EXTENT PERMITTED NOT PROHIBITED BY LAW, NEITHER RENESAS ELECTRONICS CORPORATION NOR ANY OF ITS A
  10:../generate/os_abstraction/src/r_os_abstraction_stdio.c ****  * SHALL BE LIABLE FOR ANY DIRECT, INDIRECT, SPECIAL, INCIDENTAL OR CONSEQUENTIAL DAMAGES FOR ANY R
  11:../generate/os_abstraction/src/r_os_abstraction_stdio.c ****  * THIS SOFTWARE, EVEN IF RENESAS OR ITS AFFILIATES HAVE BEEN ADVISED OF THE POSSIBILITY OF SUCH DA
  12:../generate/os_abstraction/src/r_os_abstraction_stdio.c ****  * Renesas reserves the right, without notice, to make changes to this software and to discontinue 
  13:../generate/os_abstraction/src/r_os_abstraction_stdio.c ****  * this software. By using this software, you agree to the additional terms and conditions found by
  14:../generate/os_abstraction/src/r_os_abstraction_stdio.c ****  * following link:
  15:../generate/os_abstraction/src/r_os_abstraction_stdio.c ****  * http://www.renesas.com/disclaimer
  16:../generate/os_abstraction/src/r_os_abstraction_stdio.c ****  *
  17:../generate/os_abstraction/src/r_os_abstraction_stdio.c ****  * Copyright (C) 2019 Renesas Electronics Corporation. All rights reserved.
  18:../generate/os_abstraction/src/r_os_abstraction_stdio.c ****  **************************************************************************************************
  19:../generate/os_abstraction/src/r_os_abstraction_stdio.c **** 
  20:../generate/os_abstraction/src/r_os_abstraction_stdio.c **** /**************************************************************************************************
  21:../generate/os_abstraction/src/r_os_abstraction_stdio.c ****  * File Name    : r_os_abstraction_stdio.c
  22:../generate/os_abstraction/src/r_os_abstraction_stdio.c ****  * Version      : see OS_LESS_RZ_HLD_VERSION_MAJOR.OS_LESS_RZ_HLD_VERSION_MINOR
  23:../generate/os_abstraction/src/r_os_abstraction_stdio.c ****  * Description  : OS-Less OS Abstraction Layer
  24:../generate/os_abstraction/src/r_os_abstraction_stdio.c ****  **************************************************************************************************
  25:../generate/os_abstraction/src/r_os_abstraction_stdio.c **** 
  26:../generate/os_abstraction/src/r_os_abstraction_stdio.c **** /**************************************************************************************************
  27:../generate/os_abstraction/src/r_os_abstraction_stdio.c ****  * History      : DD.MM.YYYY  Description
  28:../generate/os_abstraction/src/r_os_abstraction_stdio.c ****  *              : 21.05.2020  First issued
  29:../generate/os_abstraction/src/r_os_abstraction_stdio.c ****  **************************************************************************************************
  30:../generate/os_abstraction/src/r_os_abstraction_stdio.c **** 
  31:../generate/os_abstraction/src/r_os_abstraction_stdio.c **** #include <stdio.h>
  32:../generate/os_abstraction/src/r_os_abstraction_stdio.c **** #include <string.h>
  33:../generate/os_abstraction/src/r_os_abstraction_stdio.c **** #include <fcntl.h>
  34:../generate/os_abstraction/src/r_os_abstraction_stdio.c **** 
  35:../generate/os_abstraction/src/r_os_abstraction_stdio.c **** #include "r_typedefs.h"
  36:../generate/os_abstraction/src/r_os_abstraction_stdio.c **** #include "driver.h"
  37:../generate/os_abstraction/src/r_os_abstraction_stdio.c **** #include "r_devlink_wrapper.h"
  38:../generate/os_abstraction/src/r_os_abstraction_stdio.c **** 
  39:../generate/os_abstraction/src/r_os_abstraction_stdio.c **** /* compiler specific API header */
  40:../generate/os_abstraction/src/r_os_abstraction_stdio.c **** #include "r_compiler_abstraction_api.h"
  41:../generate/os_abstraction/src/r_os_abstraction_stdio.c **** 
  42:../generate/os_abstraction/src/r_os_abstraction_stdio.c **** /* OS abstraction specific API header */
  43:../generate/os_abstraction/src/r_os_abstraction_stdio.c **** #include "r_os_abstraction_api.h"
  44:../generate/os_abstraction/src/r_os_abstraction_stdio.c **** 
  45:../generate/os_abstraction/src/r_os_abstraction_stdio.c **** 
  46:../generate/os_abstraction/src/r_os_abstraction_stdio.c **** /**************************************************************************************************
  47:../generate/os_abstraction/src/r_os_abstraction_stdio.c ****  * Function Macros
  48:../generate/os_abstraction/src/r_os_abstraction_stdio.c ****  **************************************************************************************************
  49:../generate/os_abstraction/src/r_os_abstraction_stdio.c **** 
  50:../generate/os_abstraction/src/r_os_abstraction_stdio.c **** /**************************************************************************************************
  51:../generate/os_abstraction/src/r_os_abstraction_stdio.c ****  * Typedefs
  52:../generate/os_abstraction/src/r_os_abstraction_stdio.c ****  **************************************************************************************************
  53:../generate/os_abstraction/src/r_os_abstraction_stdio.c **** 
  54:../generate/os_abstraction/src/r_os_abstraction_stdio.c **** 
  55:../generate/os_abstraction/src/r_os_abstraction_stdio.c **** 
  56:../generate/os_abstraction/src/r_os_abstraction_stdio.c **** /**************************************************************************************************
  57:../generate/os_abstraction/src/r_os_abstraction_stdio.c ****  Function Prototypes
  58:../generate/os_abstraction/src/r_os_abstraction_stdio.c ****  **************************************************************************************************
  59:../generate/os_abstraction/src/r_os_abstraction_stdio.c **** /* STDIO */
  60:../generate/os_abstraction/src/r_os_abstraction_stdio.c **** static int_t stdio_hld_open (st_stream_ptr_t p_stream);
  61:../generate/os_abstraction/src/r_os_abstraction_stdio.c **** static void  stdio_hld_close (st_stream_ptr_t p_stream);
  62:../generate/os_abstraction/src/r_os_abstraction_stdio.c **** static int_t stdio_hld_read (st_stream_ptr_t p_stream, uint8_t *p_buffer, uint32_t ui_count);
  63:../generate/os_abstraction/src/r_os_abstraction_stdio.c **** static int_t stdio_hld_write (st_stream_ptr_t p_stream, const uint8_t *p_buffer, uint32_t count);
  64:../generate/os_abstraction/src/r_os_abstraction_stdio.c **** static int_t stdio_hld_control (st_stream_ptr_t p_stream, uint32_t ctlCode, void *pCtlStruct);
  65:../generate/os_abstraction/src/r_os_abstraction_stdio.c **** static int_t stdio_hld_get_version (st_stream_ptr_t stream_ptr, st_ver_info_t *pVerInfo);
  66:../generate/os_abstraction/src/r_os_abstraction_stdio.c **** 
  67:../generate/os_abstraction/src/r_os_abstraction_stdio.c **** /**************************************************************************************************
  68:../generate/os_abstraction/src/r_os_abstraction_stdio.c ****  Constant Data
  69:../generate/os_abstraction/src/r_os_abstraction_stdio.c ****  **************************************************************************************************
  70:../generate/os_abstraction/src/r_os_abstraction_stdio.c **** 
  71:../generate/os_abstraction/src/r_os_abstraction_stdio.c **** /* Define the driver function table for this implementation */
  72:../generate/os_abstraction/src/r_os_abstraction_stdio.c **** /* This is an empty driver. This driver is used to reserve a file handle. */
  73:../generate/os_abstraction/src/r_os_abstraction_stdio.c **** const st_r_driver_t g_stdio_driver =
  74:../generate/os_abstraction/src/r_os_abstraction_stdio.c **** {"STDIO Device Driver", stdio_hld_open, stdio_hld_close, stdio_hld_read, stdio_hld_write, stdio_hld
  75:../generate/os_abstraction/src/r_os_abstraction_stdio.c **** 
  76:../generate/os_abstraction/src/r_os_abstraction_stdio.c **** 
  77:../generate/os_abstraction/src/r_os_abstraction_stdio.c **** /**************************************************************************************************
  78:../generate/os_abstraction/src/r_os_abstraction_stdio.c ****  Global Data
  79:../generate/os_abstraction/src/r_os_abstraction_stdio.c ****  **************************************************************************************************
  80:../generate/os_abstraction/src/r_os_abstraction_stdio.c **** 
  81:../generate/os_abstraction/src/r_os_abstraction_stdio.c **** /**************************************************************************************************
  82:../generate/os_abstraction/src/r_os_abstraction_stdio.c ****  Private Functions
  83:../generate/os_abstraction/src/r_os_abstraction_stdio.c ****  **************************************************************************************************
  84:../generate/os_abstraction/src/r_os_abstraction_stdio.c **** 
  85:../generate/os_abstraction/src/r_os_abstraction_stdio.c **** /**
  86:../generate/os_abstraction/src/r_os_abstraction_stdio.c ****  * @brief  Opens the STDIO device driver
  87:../generate/os_abstraction/src/r_os_abstraction_stdio.c ****  * 
  88:../generate/os_abstraction/src/r_os_abstraction_stdio.c ****  * This function allows for a channel to be ready for
  89:../generate/os_abstraction/src/r_os_abstraction_stdio.c ****  * operational use. If a channel is unavailable or a
  90:../generate/os_abstraction/src/r_os_abstraction_stdio.c ****  * channel is already opened this function will return
  91:../generate/os_abstraction/src/r_os_abstraction_stdio.c ****  * a fail (-1)
  92:../generate/os_abstraction/src/r_os_abstraction_stdio.c ****  *
  93:../generate/os_abstraction/src/r_os_abstraction_stdio.c ****  * @param[in] p_stream Pointer to the file stream
  94:../generate/os_abstraction/src/r_os_abstraction_stdio.c ****  * 
  95:../generate/os_abstraction/src/r_os_abstraction_stdio.c ****  * @retval 0  DRV_SUCCESS
  96:../generate/os_abstraction/src/r_os_abstraction_stdio.c ****  * @retval -1 DRV_ERROR 
  97:../generate/os_abstraction/src/r_os_abstraction_stdio.c ****  **/
  98:../generate/os_abstraction/src/r_os_abstraction_stdio.c **** static int_t stdio_hld_open (st_stream_ptr_t p_stream)
  99:../generate/os_abstraction/src/r_os_abstraction_stdio.c **** {
  29              		.loc 1 99 1 view -0
  30              		.cfi_startproc
  31              		@ args = 0, pretend = 0, frame = 0
  32              		@ frame_needed = 0, uses_anonymous_args = 0
  33              		@ link register save eliminated.
 100:../generate/os_abstraction/src/r_os_abstraction_stdio.c ****     int_t ret = DRV_SUCCESS;
  34              		.loc 1 100 5 view .LVU1
 101:../generate/os_abstraction/src/r_os_abstraction_stdio.c **** 
 102:../generate/os_abstraction/src/r_os_abstraction_stdio.c ****     return (ret);
  35              		.loc 1 102 5 view .LVU2
 103:../generate/os_abstraction/src/r_os_abstraction_stdio.c **** }
  36              		.loc 1 103 1 is_stmt 0 view .LVU3
  37 0000 0000A0E3 		mov	r0, #0
  38              	.LVL1:
  39              		.loc 1 103 1 view .LVU4
  40 0004 1EFF2FE1 		bx	lr
  41              		.cfi_endproc
  42              	.LFE6:
  44              		.section	.text.stdio_hld_close,"ax",%progbits
  45              		.align	2
  46              		.syntax unified
  47              		.arm
  48              		.fpu neon
  50              	stdio_hld_close:
  51              	.LVL2:
  52              	.LFB7:
 104:../generate/os_abstraction/src/r_os_abstraction_stdio.c **** /**************************************************************************************************
 105:../generate/os_abstraction/src/r_os_abstraction_stdio.c ****  * End of Function stdio_hld_open
 106:../generate/os_abstraction/src/r_os_abstraction_stdio.c ****  **************************************************************************************************
 107:../generate/os_abstraction/src/r_os_abstraction_stdio.c **** 
 108:../generate/os_abstraction/src/r_os_abstraction_stdio.c **** /**
 109:../generate/os_abstraction/src/r_os_abstraction_stdio.c ****  * @brief Closes the STDIO driver
 110:../generate/os_abstraction/src/r_os_abstraction_stdio.c ****  *
 111:../generate/os_abstraction/src/r_os_abstraction_stdio.c ****  * The STDIO driver's file stream can be closed once
 112:../generate/os_abstraction/src/r_os_abstraction_stdio.c ****  * the desired operation has been done, freeing any
 113:../generate/os_abstraction/src/r_os_abstraction_stdio.c ****  * memory or resources it uses
 114:../generate/os_abstraction/src/r_os_abstraction_stdio.c ****  * 
 115:../generate/os_abstraction/src/r_os_abstraction_stdio.c ****  * @param[in] p_stream Pointer to the file stream
 116:../generate/os_abstraction/src/r_os_abstraction_stdio.c ****  *
 117:../generate/os_abstraction/src/r_os_abstraction_stdio.c ****  * @return None
 118:../generate/os_abstraction/src/r_os_abstraction_stdio.c ****  */
 119:../generate/os_abstraction/src/r_os_abstraction_stdio.c **** static void stdio_hld_close (st_stream_ptr_t p_stream)
 120:../generate/os_abstraction/src/r_os_abstraction_stdio.c **** {
  53              		.loc 1 120 1 is_stmt 1 view -0
  54              		.cfi_startproc
  55              		@ args = 0, pretend = 0, frame = 0
  56              		@ frame_needed = 0, uses_anonymous_args = 0
  57              		@ link register save eliminated.
 121:../generate/os_abstraction/src/r_os_abstraction_stdio.c ****     return;
  58              		.loc 1 121 5 view .LVU6
 122:../generate/os_abstraction/src/r_os_abstraction_stdio.c **** }
  59              		.loc 1 122 1 is_stmt 0 view .LVU7
  60 0000 1EFF2FE1 		bx	lr
  61              		.cfi_endproc
  62              	.LFE7:
  64              		.section	.text.stdio_hld_read,"ax",%progbits
  65              		.align	2
  66              		.syntax unified
  67              		.arm
  68              		.fpu neon
  70              	stdio_hld_read:
  71              	.LVL3:
  72              	.LFB8:
 123:../generate/os_abstraction/src/r_os_abstraction_stdio.c **** /**************************************************************************************************
 124:../generate/os_abstraction/src/r_os_abstraction_stdio.c ****  * End of Function stdio_hld_close
 125:../generate/os_abstraction/src/r_os_abstraction_stdio.c ****  **************************************************************************************************
 126:../generate/os_abstraction/src/r_os_abstraction_stdio.c **** 
 127:../generate/os_abstraction/src/r_os_abstraction_stdio.c **** /**
 128:../generate/os_abstraction/src/r_os_abstraction_stdio.c ****  * @brief Translates the read operation to the private read function.
 129:../generate/os_abstraction/src/r_os_abstraction_stdio.c ****  *
 130:../generate/os_abstraction/src/r_os_abstraction_stdio.c ****  * The private read function requires to get the channel instead of the
 131:../generate/os_abstraction/src/r_os_abstraction_stdio.c ****  * file stream and therefore some translation is required.
 132:../generate/os_abstraction/src/r_os_abstraction_stdio.c ****  *
 133:../generate/os_abstraction/src/r_os_abstraction_stdio.c ****  * @param[in]  p_stream The file stream that contains the desired STDIO channel
 134:../generate/os_abstraction/src/r_os_abstraction_stdio.c ****  * @param[out] p_buffer The buffer to be populated with the data read
 135:../generate/os_abstraction/src/r_os_abstraction_stdio.c ****  * @param[in]  count    The size of p_buffer
 136:../generate/os_abstraction/src/r_os_abstraction_stdio.c ****  *
 137:../generate/os_abstraction/src/r_os_abstraction_stdio.c ****  * @retval  N Where N is the number of bytes read
 138:../generate/os_abstraction/src/r_os_abstraction_stdio.c ****  * @retval -1 DRV_ERROR 
 139:../generate/os_abstraction/src/r_os_abstraction_stdio.c ****  */
 140:../generate/os_abstraction/src/r_os_abstraction_stdio.c **** static int_t stdio_hld_read (st_stream_ptr_t p_stream, uint8_t *p_buffer, uint32_t count)
 141:../generate/os_abstraction/src/r_os_abstraction_stdio.c **** {
  73              		.loc 1 141 1 is_stmt 1 view -0
  74              		.cfi_startproc
  75              		@ args = 0, pretend = 0, frame = 0
  76              		@ frame_needed = 0, uses_anonymous_args = 0
  77              		@ link register save eliminated.
 142:../generate/os_abstraction/src/r_os_abstraction_stdio.c ****     /* read from channel */
 143:../generate/os_abstraction/src/r_os_abstraction_stdio.c ****     return (0);
  78              		.loc 1 143 5 view .LVU9
 144:../generate/os_abstraction/src/r_os_abstraction_stdio.c **** }
  79              		.loc 1 144 1 is_stmt 0 view .LVU10
  80 0000 0000A0E3 		mov	r0, #0
  81              	.LVL4:
  82              		.loc 1 144 1 view .LVU11
  83 0004 1EFF2FE1 		bx	lr
  84              		.cfi_endproc
  85              	.LFE8:
  87              		.section	.text.stdio_hld_write,"ax",%progbits
  88              		.align	2
  89              		.syntax unified
  90              		.arm
  91              		.fpu neon
  93              	stdio_hld_write:
  94              	.LVL5:
  95              	.LFB9:
 145:../generate/os_abstraction/src/r_os_abstraction_stdio.c **** /**************************************************************************************************
 146:../generate/os_abstraction/src/r_os_abstraction_stdio.c ****  * End of Function stdio_hld_read
 147:../generate/os_abstraction/src/r_os_abstraction_stdio.c ****  **************************************************************************************************
 148:../generate/os_abstraction/src/r_os_abstraction_stdio.c **** 
 149:../generate/os_abstraction/src/r_os_abstraction_stdio.c **** /**
 150:../generate/os_abstraction/src/r_os_abstraction_stdio.c ****  * @brief Translates the write operation to the private write function
 151:../generate/os_abstraction/src/r_os_abstraction_stdio.c ****  *
 152:../generate/os_abstraction/src/r_os_abstraction_stdio.c ****  * The private write function requires to get the channel instead of the
 153:../generate/os_abstraction/src/r_os_abstraction_stdio.c ****  * file stream and therefore some translation is required
 154:../generate/os_abstraction/src/r_os_abstraction_stdio.c ****  *
 155:../generate/os_abstraction/src/r_os_abstraction_stdio.c ****  * @param[in] p_stream The file stream that contains the desired STDIO channel
 156:../generate/os_abstraction/src/r_os_abstraction_stdio.c ****  * @param[in] p_buffer The intended buffer of data intended to be written
 157:../generate/os_abstraction/src/r_os_abstraction_stdio.c ****  * @param[in] count    The amount of data in the p_buffer
 158:../generate/os_abstraction/src/r_os_abstraction_stdio.c ****  *
 159:../generate/os_abstraction/src/r_os_abstraction_stdio.c ****  * @retval >0 The number of bytes written
 160:../generate/os_abstraction/src/r_os_abstraction_stdio.c ****  * @retval -1 DRV_ERROR 
 161:../generate/os_abstraction/src/r_os_abstraction_stdio.c ****  */
 162:../generate/os_abstraction/src/r_os_abstraction_stdio.c **** static int_t stdio_hld_write (st_stream_ptr_t p_stream, const uint8_t *p_buffer, uint32_t count)
 163:../generate/os_abstraction/src/r_os_abstraction_stdio.c **** {
  96              		.loc 1 163 1 is_stmt 1 view -0
  97              		.cfi_startproc
  98              		@ args = 0, pretend = 0, frame = 0
  99              		@ frame_needed = 0, uses_anonymous_args = 0
 100              		@ link register save eliminated.
 164:../generate/os_abstraction/src/r_os_abstraction_stdio.c ****     /* write to channel */
 165:../generate/os_abstraction/src/r_os_abstraction_stdio.c ****     return (0);
 101              		.loc 1 165 5 view .LVU13
 166:../generate/os_abstraction/src/r_os_abstraction_stdio.c **** }
 102              		.loc 1 166 1 is_stmt 0 view .LVU14
 103 0000 0000A0E3 		mov	r0, #0
 104              	.LVL6:
 105              		.loc 1 166 1 view .LVU15
 106 0004 1EFF2FE1 		bx	lr
 107              		.cfi_endproc
 108              	.LFE9:
 110              		.section	.text.stdio_hld_control,"ax",%progbits
 111              		.align	2
 112              		.syntax unified
 113              		.arm
 114              		.fpu neon
 116              	stdio_hld_control:
 117              	.LVL7:
 118              	.LFB10:
 167:../generate/os_abstraction/src/r_os_abstraction_stdio.c **** /**************************************************************************************************
 168:../generate/os_abstraction/src/r_os_abstraction_stdio.c ****  * End of Function stdio_hld_write
 169:../generate/os_abstraction/src/r_os_abstraction_stdio.c ****  **************************************************************************************************
 170:../generate/os_abstraction/src/r_os_abstraction_stdio.c **** 
 171:../generate/os_abstraction/src/r_os_abstraction_stdio.c **** /**
 172:../generate/os_abstraction/src/r_os_abstraction_stdio.c ****  * @brief stdio_hld_control handles custom controls for the STDIO device driver
 173:../generate/os_abstraction/src/r_os_abstraction_stdio.c ****  * 
 174:../generate/os_abstraction/src/r_os_abstraction_stdio.c ****  * Depending on the ctl_code given the control function will perform specific
 175:../generate/os_abstraction/src/r_os_abstraction_stdio.c ****  * tasks. For the STDIO this includes getting and setting the configuration.
 176:../generate/os_abstraction/src/r_os_abstraction_stdio.c ****  * If a invalid ctl_code is given the return value will be -1 and the trace will
 177:../generate/os_abstraction/src/r_os_abstraction_stdio.c ****  * print a message accordingly.
 178:../generate/os_abstraction/src/r_os_abstraction_stdio.c ****  *
 179:../generate/os_abstraction/src/r_os_abstraction_stdio.c ****  * @param[in] p_stream          Pointer to the file stream
 180:../generate/os_abstraction/src/r_os_abstraction_stdio.c ****  * @param[in] ctl_code          The custom control code
 181:../generate/os_abstraction/src/r_os_abstraction_stdio.c ****  * @param[in,out] p_ctl_struct  Pointer to the custom control structure
 182:../generate/os_abstraction/src/r_os_abstraction_stdio.c ****  *
 183:../generate/os_abstraction/src/r_os_abstraction_stdio.c ****  * @retval 0  DRV_SUCCESS
 184:../generate/os_abstraction/src/r_os_abstraction_stdio.c ****  * @retval -1 DRV_ERROR 
 185:../generate/os_abstraction/src/r_os_abstraction_stdio.c ****  */
 186:../generate/os_abstraction/src/r_os_abstraction_stdio.c **** static int_t stdio_hld_control (st_stream_ptr_t p_stream, uint32_t ctl_code, void *p_ctl_struct)
 187:../generate/os_abstraction/src/r_os_abstraction_stdio.c **** {
 119              		.loc 1 187 1 is_stmt 1 view -0
 120              		.cfi_startproc
 121              		@ args = 0, pretend = 0, frame = 0
 122              		@ frame_needed = 0, uses_anonymous_args = 0
 123              		@ link register save eliminated.
 188:../generate/os_abstraction/src/r_os_abstraction_stdio.c ****     int_t ret = DRV_SUCCESS;
 124              		.loc 1 188 5 view .LVU17
 189:../generate/os_abstraction/src/r_os_abstraction_stdio.c **** 
 190:../generate/os_abstraction/src/r_os_abstraction_stdio.c **** 
 191:../generate/os_abstraction/src/r_os_abstraction_stdio.c ****     return (ret);
 125              		.loc 1 191 5 view .LVU18
 192:../generate/os_abstraction/src/r_os_abstraction_stdio.c **** }
 126              		.loc 1 192 1 is_stmt 0 view .LVU19
 127 0000 0000A0E3 		mov	r0, #0
 128              	.LVL8:
 129              		.loc 1 192 1 view .LVU20
 130 0004 1EFF2FE1 		bx	lr
 131              		.cfi_endproc
 132              	.LFE10:
 134              		.section	.text.stdio_hld_get_version,"ax",%progbits
 135              		.align	2
 136              		.syntax unified
 137              		.arm
 138              		.fpu neon
 140              	stdio_hld_get_version:
 141              	.LVL9:
 142              	.LFB11:
 193:../generate/os_abstraction/src/r_os_abstraction_stdio.c **** /**************************************************************************************************
 194:../generate/os_abstraction/src/r_os_abstraction_stdio.c ****  * End of Function stdio_hld_control()
 195:../generate/os_abstraction/src/r_os_abstraction_stdio.c ****  **************************************************************************************************
 196:../generate/os_abstraction/src/r_os_abstraction_stdio.c **** 
 197:../generate/os_abstraction/src/r_os_abstraction_stdio.c **** /**
 198:../generate/os_abstraction/src/r_os_abstraction_stdio.c ****  * @brief Provides build information even if driver fails to open\n
 199:../generate/os_abstraction/src/r_os_abstraction_stdio.c ****  *        version information is updated by developer
 200:../generate/os_abstraction/src/r_os_abstraction_stdio.c ****  * 
 201:../generate/os_abstraction/src/r_os_abstraction_stdio.c ****  * Acquires the version information for both the high layer and
 202:../generate/os_abstraction/src/r_os_abstraction_stdio.c ****  * low layer driver. This allows for control of releases and debugging
 203:../generate/os_abstraction/src/r_os_abstraction_stdio.c ****  * code.
 204:../generate/os_abstraction/src/r_os_abstraction_stdio.c ****  *
 205:../generate/os_abstraction/src/r_os_abstraction_stdio.c ****  * @param stream_ptr  Pointer to the file stream
 206:../generate/os_abstraction/src/r_os_abstraction_stdio.c ****  * @param p_ver_info  Structure holding the version information
 207:../generate/os_abstraction/src/r_os_abstraction_stdio.c ****  *
 208:../generate/os_abstraction/src/r_os_abstraction_stdio.c ****  * @retval 0  DRV_SUCCESS (Never Fails)
 209:../generate/os_abstraction/src/r_os_abstraction_stdio.c ****  */
 210:../generate/os_abstraction/src/r_os_abstraction_stdio.c **** static int_t stdio_hld_get_version (st_stream_ptr_t stream_ptr, st_ver_info_t *p_ver_info)
 211:../generate/os_abstraction/src/r_os_abstraction_stdio.c **** {
 143              		.loc 1 211 1 is_stmt 1 view -0
 144              		.cfi_startproc
 145              		@ args = 0, pretend = 0, frame = 0
 146              		@ frame_needed = 0, uses_anonymous_args = 0
 147              		@ link register save eliminated.
 212:../generate/os_abstraction/src/r_os_abstraction_stdio.c ****     return (DRV_SUCCESS);
 148              		.loc 1 212 5 view .LVU22
 213:../generate/os_abstraction/src/r_os_abstraction_stdio.c **** }
 149              		.loc 1 213 1 is_stmt 0 view .LVU23
 150 0000 0000A0E3 		mov	r0, #0
 151              	.LVL10:
 152              		.loc 1 213 1 view .LVU24
 153 0004 1EFF2FE1 		bx	lr
 154              		.cfi_endproc
 155              	.LFE11:
 157              		.global	g_stdio_driver
 158              		.section	.rodata.str1.4,"aMS",%progbits,1
 159              		.align	2
 160              	.LC0:
 161 0000 53544449 		.ascii	"STDIO Device Driver\000"
 161      4F204465 
 161      76696365 
 161      20447269 
 161      76657200 
 162              		.section	.rodata.g_stdio_driver,"a"
 163              		.align	2
 166              	g_stdio_driver:
 167 0000 00000000 		.word	.LC0
 168 0004 00000000 		.word	stdio_hld_open
 169 0008 00000000 		.word	stdio_hld_close
 170 000c 00000000 		.word	stdio_hld_read
 171 0010 00000000 		.word	stdio_hld_write
 172 0014 00000000 		.word	stdio_hld_control
 173 0018 00000000 		.word	stdio_hld_get_version
 174              		.text
 175              	.Letext0:
 176              		.file 2 "c:\\program files (x86)\\gnu arm embedded toolchain\\9 2020-q2-update\\arm-none-eabi\\inc
 177              		.file 3 "c:\\program files (x86)\\gnu arm embedded toolchain\\9 2020-q2-update\\lib\\gcc\\arm-none
 178              		.file 4 "c:\\program files (x86)\\gnu arm embedded toolchain\\9 2020-q2-update\\arm-none-eabi\\inc
 179              		.file 5 "c:\\program files (x86)\\gnu arm embedded toolchain\\9 2020-q2-update\\arm-none-eabi\\inc
 180              		.file 6 "c:\\program files (x86)\\gnu arm embedded toolchain\\9 2020-q2-update\\arm-none-eabi\\inc
 181              		.file 7 "c:\\program files (x86)\\gnu arm embedded toolchain\\9 2020-q2-update\\arm-none-eabi\\inc
 182              		.file 8 "c:\\program files (x86)\\gnu arm embedded toolchain\\9 2020-q2-update\\arm-none-eabi\\inc
 183              		.file 9 "c:\\program files (x86)\\gnu arm embedded toolchain\\9 2020-q2-update\\arm-none-eabi\\inc
 184              		.file 10 "C:/Users/ryota/e2_studio/workspace/rza2m_ssif_sample_freertos_gcc/generate/system/inc/r_
 185              		.file 11 "C:/Users/ryota/e2_studio/workspace/rza2m_ssif_sample_freertos_gcc/generate/system/inc/dr
 186              		.file 12 "c:\\program files (x86)\\gnu arm embedded toolchain\\9 2020-q2-update\\arm-none-eabi\\in
 187              		.file 13 "C:/Users/ryota/e2_studio/workspace/rza2m_ssif_sample_freertos_gcc/generate/os_abstractio